 nodessl

 Timestamp is 5ae385d1 (Sat Apr 28 01:49:29 2018)

 Preferred load address is 0000000180000000

 Start         Length     Name                   Class
 0001:00000000 0002ebb0H .text$mn                CODE
 0001:0002ebb0 00000020H .text$mn$00             CODE
 0001:0002ebd0 00002680H .text$x                 CODE
 0001:00031250 00000091H .text$yd                CODE
 0002:00000000 00000288H .idata$5                DATA
 0002:00000288 00000010H .00cfg                  DATA
 0002:00000298 00000008H .CRT$XCA                DATA
 0002:000002a0 00000008H .CRT$XCU                DATA
 0002:000002a8 00000008H .CRT$XCZ                DATA
 0002:000002b0 00000008H .CRT$XIA                DATA
 0002:000002b8 00000020H .CRT$XIC                DATA
 0002:000002d8 00000008H .CRT$XIZ                DATA
 0002:000002e0 00000008H .CRT$XLA                DATA
 0002:000002e8 00000008H .CRT$XLZ                DATA
 0002:000002f0 00000008H .CRT$XPA                DATA
 0002:000002f8 00000010H .CRT$XPX                DATA
 0002:00000308 00000008H .CRT$XPXA               DATA
 0002:00000310 00000008H .CRT$XPZ                DATA
 0002:00000318 00000008H .CRT$XTA                DATA
 0002:00000320 00000010H .CRT$XTZ                DATA
 0002:00000330 0000bf48H .rdata                  DATA
 0002:0000c278 00000028H .rdata$T                DATA
 0002:0000c2a0 00000484H .rdata$r                DATA
 0002:0000c724 00000484H .rdata$zzzdbg           DATA
 0002:0000cba8 00000008H .rtc$IAA                DATA
 0002:0000cbb0 00000008H .rtc$IZZ                DATA
 0002:0000cbb8 00000008H .rtc$TAA                DATA
 0002:0000cbc0 00000010H .rtc$TZZ                DATA
 0002:0000cbd0 00006870H .xdata                  DATA
 0002:00013440 000002ccH .xdata$x                DATA
 0002:0001370c 00000020H .didat$2                DATA
 0002:0001372c 00000024H .didat$3                DATA
 0002:00013750 00000558H .didat$4                DATA
 0002:00013ca8 00001a28H .didat$6                DATA
 0002:000156d0 00000560H .didat$7                DATA
 0002:00015c30 00000054H .edata                  DATA
 0002:00015c84 00000014H .idata$2                DATA
 0002:00015c98 00000018H .idata$3                DATA
 0002:00015cb0 00000288H .idata$4                DATA
 0002:00015f38 000005dcH .idata$6                DATA
 0003:00000000 00000970H .data                   DATA
 0003:00000970 00000190H .data$r                 DATA
 0003:00000b00 00000560H .didat$5                DATA
 0003:00001060 0000128cH .bss                    DATA
 0004:00000000 00002aa8H .pdata                  DATA
 0005:00000000 00000084H .gfids$x                DATA
 0005:00000084 00000068H .gfids$y                DATA
 0006:00000000 00000004H .tls                    DATA
 0006:00000004 00000004H .tls$                   DATA
 0006:00000008 00000001H .tls$ZZZ                DATA
 0007:00000000 00000060H .rsrc$01                DATA
 0007:00000060 00000180H .rsrc$02                DATA

  Address         Publics by Value              Rva+Base               Lib:Object

 0000:00000000       __dynamic_value_reloc_table 0000000000000000     <absolute>
 0000:00000000       __guard_iat_count          0000000000000000     <absolute>
 0000:00000000       __guard_iat_table          0000000000000000     <absolute>
 0000:00000000       __guard_fids_count         0000000000000000     <absolute>
 0000:00000000       __guard_longjmp_table      0000000000000000     <absolute>
 0000:00000000       __guard_longjmp_count      0000000000000000     <absolute>
 0000:00000000       ___safe_se_handler_table   0000000000000000     <absolute>
 0000:00000000       ___safe_se_handler_count   0000000000000000     <absolute>
 0000:00000000       __guard_fids_table         0000000000000000     <absolute>
 0000:00000100       __guard_flags              0000000000000100     <absolute>
 0000:00000000       __ImageBase                0000000180000000     <linker-defined>
 0001:00000000       ??1HandleScope@Nan@@QEAA@XZ 0000000180001000 f i main.obj
 0001:00000000       ??1EscapableHandleScope@Nan@@QEAA@XZ 0000000180001000 f i w_key.obj
 0001:00000010       ?EcNamedCurves@@YAXV?$Local@VObject@v8@@@v8@@@Z 0000000180001010 f   main.obj
 0001:00001690       ?RsaPublicExponent@@YAXV?$Local@VObject@v8@@@v8@@@Z 0000000180002690 f   main.obj
 0001:00001850       ?KeyType@@YAXV?$Local@VObject@v8@@@v8@@@Z 0000000180002850 f   main.obj
 0001:00001a10       ?InitModule@@YAXV?$Local@VObject@v8@@@v8@@@Z 0000000180002a10 f   main.obj
 0001:00001ac0       ?BN_bn2bin_padded@@YAHPEAE_KPEBUbignum_st@@@Z 0000000180002ac0 f   bn.obj
 0001:00001c20       ??0exception@stdext@@QEAA@AEBV01@@Z 0000000180002c20 f i key_exp.obj
 0001:00001c40       ?what@exception@stdext@@UEBAPEBDXZ 0000000180002c40 f i key_exp.obj
 0001:00001c60       _guard_check_icall_nop     0000000180002c60 f i LIBCMT:guard_support.obj
 0001:00001c60       ?_Doraise@exception@stdext@@MEBAXXZ 0000000180002c60 f i key_exp.obj
 0001:00001c60       __except_validate_context_record 0000000180002c60 f i libvcruntime:jbcxrval.obj
 0001:00001c70       ??_Eexception@stdext@@UEAAPEAXI@Z 0000000180002c70 f i * CIL library *:* CIL module *
 0001:00001c70       ??_Gexception@stdext@@UEAAPEAXI@Z 0000000180002c70 f i key_exp.obj
 0001:00001c70       ??_Eruntime_error@std@@UEAAPEAXI@Z 0000000180002c70 f i * CIL library *:* CIL module *
 0001:00001c70       ??_Gruntime_error@std@@UEAAPEAXI@Z 0000000180002c70 f i key_exp.obj
 0001:00001ca0       ?_Get_deleter@_Ref_count_base@std@@UEBAPEAXAEBVtype_info@@@Z 0000000180002ca0 f i key_exp.obj
 0001:00001cb0       ??_E_Ref_count_base@std@@UEAAPEAXI@Z 0000000180002cb0 f i * CIL library *:* CIL module *
 0001:00001cb0       ??_G_Ref_count_base@std@@UEAAPEAXI@Z 0000000180002cb0 f i key_exp.obj
 0001:00001ce0       ??1runtime_error@std@@UEAA@XZ 0000000180002ce0 f i key_exp.obj
 0001:00001e50       ??0runtime_error@std@@QEAA@AEBV01@@Z 0000000180002e50 f i key_exp.obj
 0001:00001fb0       ?KEY_export_spki@@YA?AV?$shared_ptr@V?$basic_string@DU?$char_traits@D@std@@V?$allocator@D@2@@std@@@std@@PEAUevp_pkey_st@@@Z 0000000180002fb0 f   key_exp.obj
 0001:00001fe0       ?KEY_import_spki@@YA?AV?$shared_ptr@V?$ScopedSSL@Uevp_pkey_st@@$1?ScopedEVP_PKEY_free@@YAXPEAX@Z@@@std@@V?$shared_ptr@V?$basic_string@DU?$char_traits@D@std@@V?$allocator@D@2@@std@@@2@@Z 0000000180002fe0 f   key_exp.obj
 0001:000020a0       ?KEY_export_pkcs8@@YA?AV?$shared_ptr@V?$basic_string@DU?$char_traits@D@std@@V?$allocator@D@2@@std@@@std@@PEAUevp_pkey_st@@@Z 00000001800030a0 f   key_exp.obj
 0001:000020d0       ?KEY_import_pkcs8@@YA?AV?$shared_ptr@V?$ScopedSSL@Uevp_pkey_st@@$1?ScopedEVP_PKEY_free@@YAXPEAX@Z@@@std@@V?$shared_ptr@V?$basic_string@DU?$char_traits@D@std@@V?$allocator@D@2@@std@@@2@@Z 00000001800030d0 f   key_exp.obj
 0001:00002190       ??1?$shared_ptr@V?$ScopedSSL@Uevp_pkey_st@@$1?ScopedEVP_PKEY_free@@YAXPEAX@Z@@@std@@QEAA@XZ 0000000180003190 f i key_exp.obj
 0001:00002190       ??1?$shared_ptr@VJwkRsa@@@std@@QEAA@XZ 0000000180003190 f i rsa_jwk.obj
 0001:00002190       ??1?$shared_ptr@VScopedHMAC@@@std@@QEAA@XZ 0000000180003190 f i hmac_gen.obj
 0001:00002190       ??1?$shared_ptr@V?$basic_string@DU?$char_traits@D@std@@V?$allocator@D@2@@std@@@std@@QEAA@XZ 0000000180003190 f i key_exp.obj
 0001:00002190       ??1?$shared_ptr@VScopedPbkdf2@@@std@@QEAA@XZ 0000000180003190 f i w_pbkdf2.obj
 0001:00002190       ??1?$shared_ptr@VJwkEc@@@std@@QEAA@XZ 0000000180003190 f i ec_jwk.obj
 0001:00002190       ??1?$shared_ptr@VScopedAES@@@std@@QEAA@XZ 0000000180003190 f i aes_gen.obj
 0001:000021e0       ??1?$ScopedSSL@Ursa_st@@$1?ScopedRSA_free@@YAXPEAX@Z@@QEAA@XZ 00000001800031e0 f i w_key.obj
 0001:000021e0       ??1?$ScopedSSL@Uenv_md_ctx_st@@$1?ScopedEVP_MD_CTX_free@@YAXPEAX@Z@@QEAA@XZ 00000001800031e0 f i rsa_pkcs1.obj
 0001:000021e0       ??1?$ScopedSSL@Uevp_pkey_ctx_st@@$1?ScopedEVP_PKEY_CTX_free@@YAXPEAX@Z@@QEAA@XZ 00000001800031e0 f i rsa_oaep.obj
 0001:000021e0       ??1?$ScopedSSL@Uevp_pkey_st@@$1?ScopedEVP_PKEY_free@@YAXPEAX@Z@@QEAA@XZ 00000001800031e0 f i key_exp.obj
 0001:000021e0       ??1?$ScopedSSL@Uec_key_st@@$1?ScopedEC_KEY_free@@YAXPEAX@Z@@QEAA@XZ 00000001800031e0 f i ec_gen.obj
 0001:000021e0       ??1?$ScopedSSL@UECDSA_SIG_st@@$1?ScopedECDSA_SIG_free@@YAXPEAX@Z@@QEAA@XZ 00000001800031e0 f i ec_dsa.obj
 0001:000021e0       ??1?$ScopedSSL@Ubignum_st@@$1?ScopedBIGNUM_free@@YAXPEAX@Z@@QEAA@XZ 00000001800031e0 f i rsa_gen.obj
 0001:000021e0       ??1?$ScopedSSL@Uevp_cipher_ctx_st@@$1?ScopedEVP_CIPHER_CTX_free@@YAXPEAX@Z@@QEAA@XZ 00000001800031e0 f i aes_ecb.obj
 0001:000021e0       ??1?$ScopedSSL@Uec_group_st@@$1?ScopedEC_GROUP_free@@YAXPEAX@Z@@QEAA@XZ 00000001800031e0 f i ec_jwk.obj
 0001:000021e0       ??1?$ScopedSSL@Ubio_st@@$1?ScopedBIO_free@@YAXPEAX@Z@@QEAA@XZ 00000001800031e0 f i key_exp.obj
 0001:000021e0       ??1?$ScopedSSL@Ubignum_ctx@@$1?ScopedBN_CTX_free@@YAXPEAX@Z@@QEAA@XZ 00000001800031e0 f i ec_jwk.obj
 0001:00002210       ??1?$basic_string@DU?$char_traits@D@std@@V?$allocator@D@2@@std@@QEAA@XZ 0000000180003210 f i key_exp.obj
 0001:000022a0       ?assign@?$basic_string@DU?$char_traits@D@std@@V?$allocator@D@2@@std@@QEAAAEAV12@PEBD_K@Z 00000001800032a0 f i key_exp.obj
 0001:000023d0       ?assign@?$basic_string@DU?$char_traits@D@std@@V?$allocator@D@2@@std@@QEAAAEAV12@AEBV12@_K1@Z 00000001800033d0 f i key_exp.obj
 0001:00002500       ?erase@?$basic_string@DU?$char_traits@D@std@@V?$allocator@D@2@@std@@QEAAAEAV12@_K0@Z 0000000180003500 f i key_exp.obj
 0001:000025a0       ?_Copy@?$basic_string@DU?$char_traits@D@std@@V?$allocator@D@2@@std@@QEAAX_K0@Z 00000001800035a0 f i key_exp.obj
 0001:00002720       ??$?0V?$basic_string@DU?$char_traits@D@std@@V?$allocator@D@2@@std@@@?$shared_ptr@V?$basic_string@DU?$char_traits@D@std@@V?$allocator@D@2@@std@@@std@@QEAA@PEAV?$basic_string@DU?$char_traits@D@std@@V?$allocator@D@2@@1@@Z 0000000180003720 f i key_exp.obj
 0001:00002780       ??$?0V?$ScopedSSL@Uevp_pkey_st@@$1?ScopedEVP_PKEY_free@@YAXPEAX@Z@@@?$shared_ptr@V?$ScopedSSL@Uevp_pkey_st@@$1?ScopedEVP_PKEY_free@@YAXPEAX@Z@@@std@@QEAA@PEAV?$ScopedSSL@Uevp_pkey_st@@$1?ScopedEVP_PKEY_free@@YAXPEAX@Z@@@Z 0000000180003780 f i key_exp.obj
 0001:000027f0       ?_Delete_this@?$_Ref_count@VScopedAES@@@std@@EEAAXXZ 00000001800037f0 f i aes_gen.obj
 0001:000027f0       ?_Delete_this@?$_Ref_count@VJwkEc@@@std@@EEAAXXZ 00000001800037f0 f i ec_jwk.obj
 0001:000027f0       ?_Delete_this@?$_Ref_count@VScopedPbkdf2@@@std@@EEAAXXZ 00000001800037f0 f i async_pbkdf2.obj
 0001:000027f0       ?_Delete_this@?$_Ref_count@V?$ScopedSSL@Uevp_pkey_st@@$1?ScopedEVP_PKEY_free@@YAXPEAX@Z@@@std@@EEAAXXZ 00000001800037f0 f i key_exp.obj
 0001:000027f0       ?_Delete_this@?$_Ref_count@VScopedHMAC@@@std@@EEAAXXZ 00000001800037f0 f i hmac_gen.obj
 0001:000027f0       ?_Delete_this@?$_Ref_count@VJwkRsa@@@std@@EEAAXXZ 00000001800037f0 f i rsa_jwk.obj
 0001:000027f0       ?_Delete_this@?$_Ref_count@V?$basic_string@DU?$char_traits@D@std@@V?$allocator@D@2@@std@@@std@@EEAAXXZ 00000001800037f0 f i key_exp.obj
 0001:00002810       ?_Destroy@?$_Ref_count@V?$ScopedSSL@Uevp_pkey_st@@$1?ScopedEVP_PKEY_free@@YAXPEAX@Z@@@std@@EEAAXXZ 0000000180003810 f i key_exp.obj
 0001:00002850       ?_Destroy@?$_Ref_count@V?$basic_string@DU?$char_traits@D@std@@V?$allocator@D@2@@std@@@std@@EEAAXXZ 0000000180003850 f i key_exp.obj
 0001:00002880       ??_E?$_Ref_count@V?$ScopedSSL@Uevp_pkey_st@@$1?ScopedEVP_PKEY_free@@YAXPEAX@Z@@@std@@UEAAPEAXI@Z 0000000180003880 f i * CIL library *:* CIL module *
 0001:00002880       ??_E?$_Ref_count@VScopedHMAC@@@std@@UEAAPEAXI@Z 0000000180003880 f i * CIL library *:* CIL module *
 0001:00002880       ??_E?$_Ref_count@VJwkRsa@@@std@@UEAAPEAXI@Z 0000000180003880 f i * CIL library *:* CIL module *
 0001:00002880       ??_G?$_Ref_count@VScopedPbkdf2@@@std@@UEAAPEAXI@Z 0000000180003880 f i async_pbkdf2.obj
 0001:00002880       ??_E?$_Ref_count@VJwkEc@@@std@@UEAAPEAXI@Z 0000000180003880 f i * CIL library *:* CIL module *
 0001:00002880       ??_G?$_Ref_count@VScopedHMAC@@@std@@UEAAPEAXI@Z 0000000180003880 f i hmac_gen.obj
 0001:00002880       ??_G?$_Ref_count@V?$ScopedSSL@Uevp_pkey_st@@$1?ScopedEVP_PKEY_free@@YAXPEAX@Z@@@std@@UEAAPEAXI@Z 0000000180003880 f i key_exp.obj
 0001:00002880       ??_G?$_Ref_count@VScopedAES@@@std@@UEAAPEAXI@Z 0000000180003880 f i aes_gen.obj
 0001:00002880       ??_G?$_Ref_count@VJwkRsa@@@std@@UEAAPEAXI@Z 0000000180003880 f i rsa_jwk.obj
 0001:00002880       ??_E?$_Ref_count@VScopedPbkdf2@@@std@@UEAAPEAXI@Z 0000000180003880 f i * CIL library *:* CIL module *
 0001:00002880       ??_G?$_Ref_count@VJwkEc@@@std@@UEAAPEAXI@Z 0000000180003880 f i ec_jwk.obj
 0001:00002880       ??_E?$_Ref_count@V?$basic_string@DU?$char_traits@D@std@@V?$allocator@D@2@@std@@@std@@UEAAPEAXI@Z 0000000180003880 f i * CIL library *:* CIL module *
 0001:00002880       ??_E?$_Ref_count@VScopedAES@@@std@@UEAAPEAXI@Z 0000000180003880 f i * CIL library *:* CIL module *
 0001:00002880       ??_G?$_Ref_count@V?$basic_string@DU?$char_traits@D@std@@V?$allocator@D@2@@std@@@std@@UEAAPEAXI@Z 0000000180003880 f i key_exp.obj
 0001:000028b0       ?_Reset0@?$_Ptr_base@VScopedAES@@@std@@QEAAXPEAVScopedAES@@PEAV_Ref_count_base@2@@Z 00000001800038b0 f i aes_gen.obj
 0001:000028b0       ?_Reset0@?$_Ptr_base@VScopedHMAC@@@std@@QEAAXPEAVScopedHMAC@@PEAV_Ref_count_base@2@@Z 00000001800038b0 f i hmac_gen.obj
 0001:000028b0       ?_Reset0@?$_Ptr_base@VJwkEc@@@std@@QEAAXPEAVJwkEc@@PEAV_Ref_count_base@2@@Z 00000001800038b0 f i ec_jwk.obj
 0001:000028b0       ?_Reset0@?$_Ptr_base@V?$ScopedSSL@Uevp_pkey_st@@$1?ScopedEVP_PKEY_free@@YAXPEAX@Z@@@std@@QEAAXPEAV?$ScopedSSL@Uevp_pkey_st@@$1?ScopedEVP_PKEY_free@@YAXPEAX@Z@@PEAV_Ref_count_base@2@@Z 00000001800038b0 f i key_exp.obj
 0001:000028b0       ?_Reset0@?$_Ptr_base@VJwkRsa@@@std@@QEAAXPEAVJwkRsa@@PEAV_Ref_count_base@2@@Z 00000001800038b0 f i rsa_jwk.obj
 0001:000028b0       ?_Reset0@?$_Ptr_base@VScopedPbkdf2@@@std@@QEAAXPEAVScopedPbkdf2@@PEAV_Ref_count_base@2@@Z 00000001800038b0 f i w_pbkdf2.obj
 0001:000028b0       ?_Reset0@?$_Ptr_base@V?$basic_string@DU?$char_traits@D@std@@V?$allocator@D@2@@std@@@std@@QEAAXPEAV?$basic_string@DU?$char_traits@D@std@@V?$allocator@D@2@@2@PEAV_Ref_count_base@2@@Z 00000001800038b0 f i key_exp.obj
 0001:00002940       ?ScopedBIGNUM_free@@YAXPEAX@Z 0000000180003940 f   scoped_ssl.obj
 0001:00002950       ?ScopedEVP_PKEY_free@@YAXPEAX@Z 0000000180003950 f   scoped_ssl.obj
 0001:00002960       ?ScopedRSA_free@@YAXPEAX@Z 0000000180003960 f   scoped_ssl.obj
 0001:00002970       ?ScopedEC_KEY_free@@YAXPEAX@Z 0000000180003970 f   scoped_ssl.obj
 0001:00002980       ?ScopedBIO_free@@YAXPEAX@Z 0000000180003980 f   scoped_ssl.obj
 0001:00002990       ?ScopedEVP_PKEY_CTX_free@@YAXPEAX@Z 0000000180003990 f   scoped_ssl.obj
 0001:000029a0       ?ScopedBN_CTX_free@@YAXPEAX@Z 00000001800039a0 f   scoped_ssl.obj
 0001:000029b0       ?ScopedECDSA_SIG_free@@YAXPEAX@Z 00000001800039b0 f   scoped_ssl.obj
 0001:000029c0       ?ScopedEC_GROUP_free@@YAXPEAX@Z 00000001800039c0 f   scoped_ssl.obj
 0001:000029d0       ?ScopedEVP_CIPHER_CTX_free@@YAXPEAX@Z 00000001800039d0 f   scoped_ssl.obj
 0001:000029e0       ?ScopedEVP_MD_CTX_free@@YAXPEAX@Z 00000001800039e0 f   scoped_ssl.obj
 0001:000029f0       ?OPENSSL_get_errors@@YA?AV?$basic_string@DU?$char_traits@D@std@@V?$allocator@D@2@@std@@XZ 00000001800039f0 f   excep.obj
 0001:00002aa0       ?digest@@YA?AV?$shared_ptr@V?$basic_string@DU?$char_traits@D@std@@V?$allocator@D@2@@std@@@std@@PEBUenv_md_st@@V12@@Z 0000000180003aa0 f   digest.obj
 0001:00002c80       ?append@?$basic_string@DU?$char_traits@D@std@@V?$allocator@D@2@@std@@QEAAAEAV12@_KD@Z 0000000180003c80 f i digest.obj
 0001:00002da0       ?RSA_generate@@YA?AV?$shared_ptr@V?$ScopedSSL@Uevp_pkey_st@@$1?ScopedEVP_PKEY_free@@YAXPEAX@Z@@@std@@HH@Z 0000000180003da0 f   rsa_gen.obj
 0001:00002fd0       ??4?$ScopedSSL@Ubignum_st@@$1?ScopedBIGNUM_free@@YAXPEAX@Z@@QEAAAEAV0@PEAUbignum_st@@@Z 0000000180003fd0 f i rsa_gen.obj
 0001:00003010       ?From@JwkRsa@@SA?AV?$shared_ptr@VJwkRsa@@@std@@V?$shared_ptr@V?$ScopedSSL@Uevp_pkey_st@@$1?ScopedEVP_PKEY_free@@YAXPEAX@Z@@@3@AEAH@Z 0000000180004010 f   rsa_jwk.obj
 0001:00003300       ?To@JwkRsa@@QEAA?AV?$shared_ptr@V?$ScopedSSL@Uevp_pkey_st@@$1?ScopedEVP_PKEY_free@@YAXPEAX@Z@@@std@@AEAH@Z 0000000180004300 f   rsa_jwk.obj
 0001:000034b0       ??$?0VJwkRsa@@@?$shared_ptr@VJwkRsa@@@std@@QEAA@PEAVJwkRsa@@@Z 00000001800044b0 f i rsa_jwk.obj
 0001:00003510       ??1JwkRsa@@QEAA@XZ         0000000180004510 f i rsa_jwk.obj
 0001:000035a0       ?_Destroy@?$_Ref_count@VJwkRsa@@@std@@EEAAXXZ 00000001800045a0 f i rsa_jwk.obj
 0001:000035d0       ?RSA_PKCS1_sign@@YA?AV?$shared_ptr@V?$basic_string@DU?$char_traits@D@std@@V?$allocator@D@2@@std@@@std@@V?$shared_ptr@V?$ScopedSSL@Uevp_pkey_st@@$1?ScopedEVP_PKEY_free@@YAXPEAX@Z@@@2@PEBUenv_md_st@@V12@@Z 00000001800045d0 f   rsa_pkcs1.obj
 0001:00003830       ?RSA_PKCS1_verify@@YA_NV?$shared_ptr@V?$ScopedSSL@Uevp_pkey_st@@$1?ScopedEVP_PKEY_free@@YAXPEAX@Z@@@std@@PEBUenv_md_st@@V?$shared_ptr@V?$basic_string@DU?$char_traits@D@std@@V?$allocator@D@2@@std@@@2@2@Z 0000000180004830 f   rsa_pkcs1.obj
 0001:000039d0       ?RSA_OAEP_enc_dec@@YA?AV?$shared_ptr@V?$basic_string@DU?$char_traits@D@std@@V?$allocator@D@2@@std@@@std@@V?$shared_ptr@V?$ScopedSSL@Uevp_pkey_st@@$1?ScopedEVP_PKEY_free@@YAXPEAX@Z@@@2@PEBUenv_md_st@@V12@2_N@Z 00000001800049d0 f   rsa_oaep.obj
 0001:00003f70       ?RSA_PSS_sign@@YA?AV?$shared_ptr@V?$basic_string@DU?$char_traits@D@std@@V?$allocator@D@2@@std@@@std@@V?$shared_ptr@V?$ScopedSSL@Uevp_pkey_st@@$1?ScopedEVP_PKEY_free@@YAXPEAX@Z@@@2@PEBUenv_md_st@@HV12@@Z 0000000180004f70 f   rsa_pss.obj
 0001:000041f0       ?RSA_PSS_verify@@YA_NV?$shared_ptr@V?$ScopedSSL@Uevp_pkey_st@@$1?ScopedEVP_PKEY_free@@YAXPEAX@Z@@@std@@PEBUenv_md_st@@HV?$shared_ptr@V?$basic_string@DU?$char_traits@D@std@@V?$allocator@D@2@@std@@@2@2@Z 00000001800051f0 f   rsa_pss.obj
 0001:000043b0       ?EC_generate@@YA?AV?$shared_ptr@V?$ScopedSSL@Uevp_pkey_st@@$1?ScopedEVP_PKEY_free@@YAXPEAX@Z@@@std@@AEAH@Z 00000001800053b0 f   ec_gen.obj
 0001:000045c0       ??4?$shared_ptr@VScopedAES@@@std@@QEAAAEAV01@$$QEAV01@@Z 00000001800055c0 f i async_aes.obj
 0001:000045c0       ??4?$shared_ptr@VJwkRsa@@@std@@QEAAAEAV01@$$QEAV01@@Z 00000001800055c0 f i async_rsa.obj
 0001:000045c0       ??4?$shared_ptr@VScopedPbkdf2@@@std@@QEAAAEAV01@$$QEAV01@@Z 00000001800055c0 f i async_pbkdf2.obj
 0001:000045c0       ??4?$shared_ptr@VScopedHMAC@@@std@@QEAAAEAV01@$$QEAV01@@Z 00000001800055c0 f i async_hmac.obj
 0001:000045c0       ??4?$shared_ptr@V?$basic_string@DU?$char_traits@D@std@@V?$allocator@D@2@@std@@@std@@QEAAAEAV01@$$QEAV01@@Z 00000001800055c0 f i w_key.obj
 0001:000045c0       ??4?$shared_ptr@V?$ScopedSSL@Uevp_pkey_st@@$1?ScopedEVP_PKEY_free@@YAXPEAX@Z@@@std@@QEAAAEAV01@$$QEAV01@@Z 00000001800055c0 f i ec_gen.obj
 0001:000045c0       ??4?$shared_ptr@VJwkEc@@@std@@QEAAAEAV01@$$QEAV01@@Z 00000001800055c0 f i async_ec.obj
 0001:00004bd0       ?EC_DSA_sign@@YA?AV?$shared_ptr@V?$basic_string@DU?$char_traits@D@std@@V?$allocator@D@2@@std@@@std@@V?$shared_ptr@V?$ScopedSSL@Uevp_pkey_st@@$1?ScopedEVP_PKEY_free@@YAXPEAX@Z@@@2@PEBUenv_md_st@@V12@@Z 0000000180005bd0 f   ec_dsa.obj
 0001:00004ef0       ?EC_DSA_verify@@YA_NV?$shared_ptr@V?$ScopedSSL@Uevp_pkey_st@@$1?ScopedEVP_PKEY_free@@YAXPEAX@Z@@@std@@PEBUenv_md_st@@V?$shared_ptr@V?$basic_string@DU?$char_traits@D@std@@V?$allocator@D@2@@std@@@2@2@Z 0000000180005ef0 f   ec_dsa.obj
 0001:000051f0       ?ECDH_derive_key@@YA?AV?$shared_ptr@V?$basic_string@DU?$char_traits@D@std@@V?$allocator@D@2@@std@@@std@@V?$shared_ptr@V?$ScopedSSL@Uevp_pkey_st@@$1?ScopedEVP_PKEY_free@@YAXPEAX@Z@@@2@0AEA_K@Z 00000001800061f0 f   ec_dh.obj
 0001:000054d0       ?TruncateToBitLength@@YAX_KPEAV?$basic_string@DU?$char_traits@D@std@@V?$allocator@D@2@@std@@@Z 00000001800064d0 f   ec_dh.obj
 0001:00005570       ?EC_get_named_curve@@YAHPEAUec_key_st@@@Z 0000000180006570 f   ec_dh.obj
 0001:00005600       ?ECDH_derive_bits@@YA?AV?$shared_ptr@V?$basic_string@DU?$char_traits@D@std@@V?$allocator@D@2@@std@@@std@@V?$shared_ptr@V?$ScopedSSL@Uevp_pkey_st@@$1?ScopedEVP_PKEY_free@@YAXPEAX@Z@@@2@0_NI@Z 0000000180006600 f   ec_dh.obj
 0001:00005970       ?From@JwkEc@@SA?AV?$shared_ptr@VJwkEc@@@std@@V?$shared_ptr@V?$ScopedSSL@Uevp_pkey_st@@$1?ScopedEVP_PKEY_free@@YAXPEAX@Z@@@3@AEAH@Z 0000000180006970 f   ec_jwk.obj
 0001:00005ca0       ?To@JwkEc@@QEAA?AV?$shared_ptr@V?$ScopedSSL@Uevp_pkey_st@@$1?ScopedEVP_PKEY_free@@YAXPEAX@Z@@@std@@AEAH@Z 0000000180006ca0 f   ec_jwk.obj
 0001:00005f00       ??$?0VJwkEc@@@?$shared_ptr@VJwkEc@@@std@@QEAA@PEAVJwkEc@@@Z 0000000180006f00 f i ec_jwk.obj
 0001:00005f60       ?_Destroy@?$_Ref_count@VJwkEc@@@std@@EEAAXXZ 0000000180006f60 f i ec_jwk.obj
 0001:00005fc0       ?generate@ScopedAES@@SA?AV?$shared_ptr@VScopedAES@@@std@@AEAH@Z 0000000180006fc0 f   aes_gen.obj
 0001:00006180       ??4?$shared_ptr@VScopedPbkdf2@@@std@@QEAAAEAV01@AEBV01@@Z 0000000180007180 f i async_pbkdf2.obj
 0001:00006180       ??4?$shared_ptr@VScopedHMAC@@@std@@QEAAAEAV01@AEBV01@@Z 0000000180007180 f i async_hmac.obj
 0001:00006180       ??4?$shared_ptr@V?$ScopedSSL@Uevp_pkey_st@@$1?ScopedEVP_PKEY_free@@YAXPEAX@Z@@@std@@QEAAAEAV01@AEBV01@@Z 0000000180007180 f i w_key.obj
 0001:00006180       ??4?$shared_ptr@VScopedAES@@@std@@QEAAAEAV01@AEBV01@@Z 0000000180007180 f i async_aes.obj
 0001:00006180       ??4?$shared_ptr@V?$basic_string@DU?$char_traits@D@std@@V?$allocator@D@2@@std@@@std@@QEAAAEAV01@AEBV01@@Z 0000000180007180 f i aes_gen.obj
 0001:00006210       ??_GScopedHMAC@@QEAAPEAXI@Z 0000000180007210 f i hmac_gen.obj
 0001:00006210       ??_GScopedPbkdf2@@QEAAPEAXI@Z 0000000180007210 f i async_pbkdf2.obj
 0001:00006210       ??_GScopedAES@@QEAAPEAXI@Z 0000000180007210 f i aes_gen.obj
 0001:00006290       ?_Destroy@?$_Ref_count@VScopedHMAC@@@std@@EEAAXXZ 0000000180007290 f i hmac_gen.obj
 0001:00006290       ?_Destroy@?$_Ref_count@VScopedAES@@@std@@EEAAXXZ 0000000180007290 f i aes_gen.obj
 0001:00006290       ?_Destroy@?$_Ref_count@VScopedPbkdf2@@@std@@EEAAXXZ 0000000180007290 f i async_pbkdf2.obj
 0001:00006650       ?encryptEcb@ScopedAES@@QEAA?AV?$shared_ptr@V?$basic_string@DU?$char_traits@D@std@@V?$allocator@D@2@@std@@@std@@V23@@Z 0000000180007650 f   aes_ecb.obj
 0001:00006730       ?decryptEcb@ScopedAES@@QEAA?AV?$shared_ptr@V?$basic_string@DU?$char_traits@D@std@@V?$allocator@D@2@@std@@@std@@V23@@Z 0000000180007730 f   aes_ecb.obj
 0001:00006c30       ?encryptCbc@ScopedAES@@QEAA?AV?$shared_ptr@V?$basic_string@DU?$char_traits@D@std@@V?$allocator@D@2@@std@@@std@@V23@0@Z 0000000180007c30 f   aes_cbc.obj
 0001:00006d70       ?decryptCbc@ScopedAES@@QEAA?AV?$shared_ptr@V?$basic_string@DU?$char_traits@D@std@@V?$allocator@D@2@@std@@@std@@V23@0@Z 0000000180007d70 f   aes_cbc.obj
 0001:00006eb0       ?wrap@ScopedAES@@QEAA?AV?$shared_ptr@V?$basic_string@DU?$char_traits@D@std@@V?$allocator@D@2@@std@@@std@@V23@@Z 0000000180007eb0 f   aes_cbc.obj
 0001:00007100       ?unwrap@ScopedAES@@QEAA?AV?$shared_ptr@V?$basic_string@DU?$char_traits@D@std@@V?$allocator@D@2@@std@@@std@@V23@@Z 0000000180008100 f   aes_cbc.obj
 0001:00007df0       ?encryptGcm@ScopedAES@@QEAA?AV?$shared_ptr@V?$basic_string@DU?$char_traits@D@std@@V?$allocator@D@2@@std@@@std@@V23@00H@Z 0000000180008df0 f   aes_gcm.obj
 0001:00007f90       ?decryptGcm@ScopedAES@@QEAA?AV?$shared_ptr@V?$basic_string@DU?$char_traits@D@std@@V?$allocator@D@2@@std@@@std@@V23@00H@Z 0000000180008f90 f   aes_gcm.obj
 0001:00008130       ?substr@?$basic_string@DU?$char_traits@D@std@@V?$allocator@D@2@@std@@QEBA?AV12@_K0@Z 0000000180009130 f i aes_gcm.obj
 0001:00008170       ?AES_CTR_encrypt@@YA?AV?$shared_ptr@V?$basic_string@DU?$char_traits@D@std@@V?$allocator@D@2@@std@@@std@@V12@00H_N@Z 0000000180009170 f   aes_ctr.obj
 0001:00008400       ?encryptCtr@ScopedAES@@QEAA?AV?$shared_ptr@V?$basic_string@DU?$char_traits@D@std@@V?$allocator@D@2@@std@@@std@@V23@0H@Z 0000000180009400 f   aes_ctr.obj
 0001:00008400       ?decryptCtr@ScopedAES@@QEAA?AV?$shared_ptr@V?$basic_string@DU?$char_traits@D@std@@V?$allocator@D@2@@std@@@std@@V23@0H@Z 0000000180009400 f   aes_ctr.obj
 0001:00008540       ?generate@ScopedHMAC@@SA?AV?$shared_ptr@VScopedHMAC@@@std@@AEAH@Z 0000000180009540 f   hmac_gen.obj
 0001:00008750       ?sign@ScopedHMAC@@QEAA?AV?$shared_ptr@V?$basic_string@DU?$char_traits@D@std@@V?$allocator@D@2@@std@@@std@@V23@PEBUenv_md_st@@@Z 0000000180009750 f   hmac_sign.obj
 0001:00008960       ?verify@ScopedHMAC@@QEAA_NV?$shared_ptr@V?$basic_string@DU?$char_traits@D@std@@V?$allocator@D@2@@std@@@std@@PEBUenv_md_st@@0@Z 0000000180009960 f   hmac_sign.obj
 0001:00008ae0       ?deriveBits@ScopedPbkdf2@@QEAA?AV?$shared_ptr@V?$basic_string@DU?$char_traits@D@std@@V?$allocator@D@2@@std@@@std@@V23@_KPEBUenv_md_st@@1@Z 0000000180009ae0 f   pbkdf2_derive.obj
 0001:00008d10       ?v8Buffer_to_String@@YA?AV?$shared_ptr@V?$basic_string@DU?$char_traits@D@std@@V?$allocator@D@2@@std@@@std@@V?$Local@VValue@v8@@@v8@@@Z 0000000180009d10 f   common.obj
 0001:00008d50       ?v8Buffer_to_String@@YA?AV?$shared_ptr@V?$basic_string@DU?$char_traits@D@std@@V?$allocator@D@2@@std@@@std@@V?$Local@VObject@v8@@@v8@@@Z 0000000180009d50 f   common.obj
 0001:00008e20       ?String_to_v8Buffer@@YA?AV?$Local@VObject@v8@@@v8@@V?$shared_ptr@V?$basic_string@DU?$char_traits@D@std@@V?$allocator@D@2@@std@@@std@@@Z 0000000180009e20 f   common.obj
 0001:00008f10       ?bn2buf@@YA?AV?$Local@VObject@v8@@@v8@@PEAUbignum_st@@@Z 0000000180009f10 f   common.obj
 0001:00009020       ??1ObjectWrap@node@@UEAA@XZ 000000018000a020 f i w_key.obj
 0001:000090a0       ?Wrap@ObjectWrap@node@@IEAAXV?$Local@VObject@v8@@@v8@@@Z 000000018000a0a0 f i w_key.obj
 0001:00009180       ?Ref@ObjectWrap@node@@MEAAXXZ 000000018000a180 f i w_key.obj
 0001:000091c0       ?Unref@ObjectWrap@node@@MEAAXXZ 000000018000a1c0 f i w_key.obj
 0001:00009270       ?WeakCallback@ObjectWrap@node@@CAXAEBV?$WeakCallbackInfo@VObjectWrap@node@@@v8@@@Z 000000018000a270 f i w_key.obj
 0001:000092d0       ??_GObjectWrap@node@@UEAAPEAXI@Z 000000018000a2d0 f i w_key.obj
 0001:000092d0       ??_EWCore@@UEAAPEAXI@Z     000000018000a2d0 f i * CIL library *:* CIL module *
 0001:000092d0       ??_EObjectWrap@node@@UEAAPEAXI@Z 000000018000a2d0 f i * CIL library *:* CIL module *
 0001:000092d0       ??_GWCore@@UEAAPEAXI@Z     000000018000a2d0 f i w_core.obj
 0001:000094b0       ?NewInstance@Nan@@YA?AV?$MaybeLocal@VObject@v8@@@v8@@V?$Local@VFunction@v8@@@3@@Z 000000018000a4b0 f i w_key.obj
 0001:00009550       ?NewInstance@Nan@@YA?AV?$MaybeLocal@VObject@v8@@@v8@@V?$Local@VFunction@v8@@@3@HQEAV?$Local@VValue@v8@@@3@@Z 000000018000a550 f i w_key.obj
 0001:000095f0       ?NewInstance@Nan@@YA?AV?$MaybeLocal@VObject@v8@@@v8@@V?$Local@VObjectTemplate@v8@@@3@@Z 000000018000a5f0 f i w_key.obj
 0001:00009670       ?GetFunction@Nan@@YA?AV?$MaybeLocal@VFunction@v8@@@v8@@V?$Local@VFunctionTemplate@v8@@@3@@Z 000000018000a670 f i w_key.obj
 0001:000096f0       ?Set@Nan@@YA?AV?$Maybe@_N@v8@@V?$Local@VObject@v8@@@3@V?$Local@VValue@v8@@@3@1@Z 000000018000a6f0 f i w_key.obj
 0001:00009780       ?Get@Nan@@YA?AV?$MaybeLocal@VValue@v8@@@v8@@V?$Local@VObject@v8@@@3@V?$Local@VValue@v8@@@3@@Z 000000018000a780 f i w_key.obj
 0001:00009810       ?CallAsFunction@Nan@@YA?AV?$MaybeLocal@VValue@v8@@@v8@@V?$Local@VObject@v8@@@3@0HQEAV?$Local@VValue@v8@@@3@@Z 000000018000a810 f i w_key.obj
 0001:000098d0       ?convert@?$ToFactory@VObject@v8@@@imp@Nan@@SA?AV?$MaybeLocal@VObject@v8@@@v8@@V?$Local@VValue@v8@@@5@@Z 000000018000a8d0 f i w_key.obj
 0001:00009950       ?convert@?$ToFactory@H@imp@Nan@@SA?AV?$Maybe@H@v8@@V?$Local@VValue@v8@@@5@@Z 000000018000a950 f i w_key.obj
 0001:000099d0       ?New@?$Factory@VFunctionTemplate@v8@@@imp@Nan@@SA?AV?$Local@VFunctionTemplate@v8@@@v8@@P6AXAEBV?$FunctionCallbackInfo@VValue@v8@@@3@@ZV?$Local@VValue@v8@@@5@V?$Local@VSignature@v8@@@5@@Z 000000018000a9d0 f i w_key.obj
 0001:00009b50       ?ThrowError@Nan@@YAXPEBD@Z 000000018000ab50 f i w_key.obj
 0001:00009bf0       ?ThrowError@Nan@@YAXV?$Local@VString@v8@@@v8@@@Z 000000018000abf0 f i w_key.obj
 0001:00009c60       ?Call@Callback@Nan@@QEBA?AV?$MaybeLocal@VValue@v8@@@v8@@HQEAV?$Local@VValue@v8@@@4@PEAVAsyncResource@2@@Z 000000018000ac60 f i w_key.obj
 0001:00009d20       ?Call_@Callback@Nan@@AEBA?AV?$Local@VValue@v8@@@v8@@PEAVIsolate@4@V?$Local@VObject@v8@@@4@HQEAV34@@Z 000000018000ad20 f i w_key.obj
 0001:00009de0       ??0AsyncWorker@Nan@@QEAA@PEAVCallback@1@PEBD@Z 000000018000ade0 f i w_key.obj
 0001:00009ed0       ??1AsyncWorker@Nan@@UEAA@XZ 000000018000aed0 f i w_key.obj
 0001:00009fa0       ?WorkComplete@AsyncWorker@Nan@@UEAAXXZ 000000018000afa0 f i w_key.obj
 0001:0000a040       ?Destroy@AsyncWorker@Nan@@UEAAXXZ 000000018000b040 f i w_key.obj
 0001:0000a060       ?HandleOKCallback@AsyncWorker@Nan@@MEAAXXZ 000000018000b060 f i w_key.obj
 0001:0000a0b0       ?HandleErrorCallback@AsyncWorker@Nan@@MEAAXXZ 000000018000b0b0 f i w_key.obj
 0001:0000a160       ??_EAsyncWorker@Nan@@UEAAPEAXI@Z 000000018000b160 f i * CIL library *:* CIL module *
 0001:0000a160       ??_GAsyncWorker@Nan@@UEAAPEAXI@Z 000000018000b160 f i w_key.obj
 0001:0000a1a0       ??1?$Persistent@VObject@v8@@V?$NonCopyablePersistentTraits@VObject@v8@@@2@@Nan@@QEAA@XZ 000000018000b1a0 f i w_key.obj
 0001:0000a1c0       ?AsyncExecute@Nan@@YAXPEAUuv_work_s@@@Z 000000018000b1c0 f i w_key.obj
 0001:0000a1d0       ?AsyncExecuteComplete@Nan@@YAXPEAUuv_work_s@@@Z 000000018000b1d0 f i w_key.obj
 0001:0000a210       ?SetPrototypeMethod@Nan@@YAXV?$Local@VFunctionTemplate@v8@@@v8@@PEBDP6AXAEBV?$FunctionCallbackInfo@VValue@v8@@@1@@Z@Z 000000018000b210 f i w_key.obj
 0001:0000a320       ?SetAccessor@Nan@@YAXV?$Local@VObjectTemplate@v8@@@v8@@V?$Local@VString@v8@@@3@P6AX1AEBV?$PropertyCallbackInfo@VValue@v8@@@1@@ZP6AX1V?$Local@VValue@v8@@@3@AEBV?$PropertyCallbackInfo@X@1@@Z4W4AccessControl@3@W4PropertyAttribute@3@V?$Local@VAccessorSignature@v8@@@3@@Z 000000018000b320 f i w_key.obj
 0001:0000a450       ?NewInstance@WKey@@SA?AV?$Local@VObject@v8@@@v8@@XZ 000000018000b450 f i w_key.obj
 0001:0000a510       ?constructor@WKey@@KAAEAV?$Persistent@VFunction@v8@@V?$NonCopyablePersistentTraits@VFunction@v8@@@2@@Nan@@XZ 000000018000b510 f i w_key.obj
 0001:0000a580       ??1AsyncRsaGenerateKey@@UEAA@XZ 000000018000b580 f i w_key.obj
 0001:0000a600       ??_GAsyncRsaGenerateKey@@UEAAPEAXI@Z 000000018000b600 f i w_key.obj
 0001:0000a600       ??_EAsyncRsaGenerateKey@@UEAAPEAXI@Z 000000018000b600 f i * CIL library *:* CIL module *
 0001:0000a640       ??0AsyncEncrypDecryptRsaOAEP@@QEAA@PEAVCallback@Nan@@V?$shared_ptr@V?$ScopedSSL@Uevp_pkey_st@@$1?ScopedEVP_PKEY_free@@YAXPEAX@Z@@@std@@PEBUenv_md_st@@V?$shared_ptr@V?$basic_string@DU?$char_traits@D@std@@V?$allocator@D@2@@std@@@4@3_N@Z 000000018000b640 f i w_key.obj
 0001:0000a7d0       ??_EAsyncEncrypDecryptRsaOAEP@@UEAAPEAXI@Z 000000018000b7d0 f i * CIL library *:* CIL module *
 0001:0000a7d0       ??_GAsyncEncrypDecryptRsaOAEP@@UEAAPEAXI@Z 000000018000b7d0 f i w_key.obj
 0001:0000a810       ??1AsyncEncrypDecryptRsaOAEP@@UEAA@XZ 000000018000b810 f i w_key.obj
 0001:0000a920       ??0AsyncExportJwkRsa@@QEAA@PEAVCallback@Nan@@HV?$shared_ptr@V?$ScopedSSL@Uevp_pkey_st@@$1?ScopedEVP_PKEY_free@@YAXPEAX@Z@@@std@@@Z 000000018000b920 f i w_key.obj
 0001:0000a9e0       ??1AsyncExportJwkRsa@@UEAA@XZ 000000018000b9e0 f i w_key.obj
 0001:0000aa90       ??_GAsyncExportJwkRsa@@UEAAPEAXI@Z 000000018000ba90 f i w_key.obj
 0001:0000aa90       ??_EAsyncExportJwkRsa@@UEAAPEAXI@Z 000000018000ba90 f i * CIL library *:* CIL module *
 0001:0000aad0       ??0AsyncExportSpki@@QEAA@PEAVCallback@Nan@@V?$shared_ptr@V?$ScopedSSL@Uevp_pkey_st@@$1?ScopedEVP_PKEY_free@@YAXPEAX@Z@@@std@@@Z 000000018000bad0 f i w_key.obj
 0001:0000ab80       ??1AsyncExportSpki@@UEAA@XZ 000000018000bb80 f i w_key.obj
 0001:0000ac30       ??_GAsyncExportSpki@@UEAAPEAXI@Z 000000018000bc30 f i w_key.obj
 0001:0000ac30       ??_EAsyncExportSpki@@UEAAPEAXI@Z 000000018000bc30 f i * CIL library *:* CIL module *
 0001:0000ac70       ??0AsyncExportPkcs8@@QEAA@PEAVCallback@Nan@@V?$shared_ptr@V?$ScopedSSL@Uevp_pkey_st@@$1?ScopedEVP_PKEY_free@@YAXPEAX@Z@@@std@@@Z 000000018000bc70 f i w_key.obj
 0001:0000ad20       ??1AsyncExportPkcs8@@UEAA@XZ 000000018000bd20 f i w_key.obj
 0001:0000add0       ??_GAsyncExportPkcs8@@UEAAPEAXI@Z 000000018000bdd0 f i w_key.obj
 0001:0000add0       ??_EAsyncExportPkcs8@@UEAAPEAXI@Z 000000018000bdd0 f i * CIL library *:* CIL module *
 0001:0000ae10       ??0AsyncImportPkcs8@@QEAA@PEAVCallback@Nan@@V?$shared_ptr@V?$basic_string@DU?$char_traits@D@std@@V?$allocator@D@2@@std@@@std@@@Z 000000018000be10 f i w_key.obj
 0001:0000aec0       ??1AsyncImportPkcs8@@UEAA@XZ 000000018000bec0 f i w_key.obj
 0001:0000af70       ??_GAsyncImportPkcs8@@UEAAPEAXI@Z 000000018000bf70 f i w_key.obj
 0001:0000af70       ??_EAsyncImportPkcs8@@UEAAPEAXI@Z 000000018000bf70 f i * CIL library *:* CIL module *
 0001:0000afb0       ??0AsyncImportSpki@@QEAA@PEAVCallback@Nan@@V?$shared_ptr@V?$basic_string@DU?$char_traits@D@std@@V?$allocator@D@2@@std@@@std@@@Z 000000018000bfb0 f i w_key.obj
 0001:0000b060       ??1AsyncImportSpki@@UEAA@XZ 000000018000c060 f i w_key.obj
 0001:0000b110       ??_GAsyncImportSpki@@UEAAPEAXI@Z 000000018000c110 f i w_key.obj
 0001:0000b110       ??_EAsyncImportSpki@@UEAAPEAXI@Z 000000018000c110 f i * CIL library *:* CIL module *
 0001:0000b150       ??0AsyncImportJwkRsa@@QEAA@PEAVCallback@Nan@@V?$shared_ptr@VJwkRsa@@@std@@H@Z 000000018000c150 f i w_key.obj
 0001:0000b210       ??1AsyncImportJwkRsa@@UEAA@XZ 000000018000c210 f i w_key.obj
 0001:0000b2c0       ??_EAsyncImportJwkRsa@@UEAAPEAXI@Z 000000018000c2c0 f i * CIL library *:* CIL module *
 0001:0000b2c0       ??_GAsyncImportJwkRsa@@UEAAPEAXI@Z 000000018000c2c0 f i w_key.obj
 0001:0000b300       ??0AsyncSignRsa@@QEAA@PEAVCallback@Nan@@PEBUenv_md_st@@V?$shared_ptr@V?$ScopedSSL@Uevp_pkey_st@@$1?ScopedEVP_PKEY_free@@YAXPEAX@Z@@@std@@V?$shared_ptr@V?$basic_string@DU?$char_traits@D@std@@V?$allocator@D@2@@std@@@5@@Z 000000018000c300 f i w_key.obj
 0001:0000b420       ??1AsyncSignRsa@@UEAA@XZ   000000018000c420 f i w_key.obj
 0001:0000b510       ??_GAsyncSignRsa@@UEAAPEAXI@Z 000000018000c510 f i w_key.obj
 0001:0000b510       ??_EAsyncSignRsa@@UEAAPEAXI@Z 000000018000c510 f i * CIL library *:* CIL module *
 0001:0000b550       ??0AsyncVerifyRsa@@QEAA@PEAVCallback@Nan@@PEBUenv_md_st@@V?$shared_ptr@V?$ScopedSSL@Uevp_pkey_st@@$1?ScopedEVP_PKEY_free@@YAXPEAX@Z@@@std@@V?$shared_ptr@V?$basic_string@DU?$char_traits@D@std@@V?$allocator@D@2@@std@@@5@3@Z 000000018000c550 f i w_key.obj
 0001:0000b6c0       ??1AsyncVerifyRsa@@UEAA@XZ 000000018000c6c0 f i w_key.obj
 0001:0000b7b0       ??_GAsyncVerifyRsa@@UEAAPEAXI@Z 000000018000c7b0 f i w_key.obj
 0001:0000b7b0       ??_EAsyncVerifyRsa@@UEAAPEAXI@Z 000000018000c7b0 f i * CIL library *:* CIL module *
 0001:0000b7f0       ??0AsyncSignRsaPSS@@QEAA@PEAVCallback@Nan@@PEBUenv_md_st@@V?$shared_ptr@V?$ScopedSSL@Uevp_pkey_st@@$1?ScopedEVP_PKEY_free@@YAXPEAX@Z@@@std@@HV?$shared_ptr@V?$basic_string@DU?$char_traits@D@std@@V?$allocator@D@2@@std@@@5@@Z 000000018000c7f0 f i w_key.obj
 0001:0000b920       ??1AsyncSignRsaPSS@@UEAA@XZ 000000018000c920 f i w_key.obj
 0001:0000ba10       ??_EAsyncSignRsaPSS@@UEAAPEAXI@Z 000000018000ca10 f i * CIL library *:* CIL module *
 0001:0000ba10       ??_GAsyncSignRsaPSS@@UEAAPEAXI@Z 000000018000ca10 f i w_key.obj
 0001:0000ba50       ??0AsyncVerifyRsaPSS@@QEAA@PEAVCallback@Nan@@PEBUenv_md_st@@V?$shared_ptr@V?$ScopedSSL@Uevp_pkey_st@@$1?ScopedEVP_PKEY_free@@YAXPEAX@Z@@@std@@HV?$shared_ptr@V?$basic_string@DU?$char_traits@D@std@@V?$allocator@D@2@@std@@@5@3@Z 000000018000ca50 f i w_key.obj
 0001:0000bbd0       ??1AsyncVerifyRsaPSS@@UEAA@XZ 000000018000cbd0 f i w_key.obj
 0001:0000bcc0       ??_GAsyncVerifyRsaPSS@@UEAAPEAXI@Z 000000018000ccc0 f i w_key.obj
 0001:0000bcc0       ??_EAsyncVerifyRsaPSS@@UEAAPEAXI@Z 000000018000ccc0 f i * CIL library *:* CIL module *
 0001:0000bd00       ??1AsyncEcGenerateKey@@UEAA@XZ 000000018000cd00 f i w_key.obj
 0001:0000bd80       ??_GAsyncEcGenerateKey@@UEAAPEAXI@Z 000000018000cd80 f i w_key.obj
 0001:0000bd80       ??_EAsyncEcGenerateKey@@UEAAPEAXI@Z 000000018000cd80 f i * CIL library *:* CIL module *
 0001:0000bdc0       ??0AsyncEcdhDeriveKey@@QEAA@PEAVCallback@Nan@@V?$shared_ptr@V?$ScopedSSL@Uevp_pkey_st@@$1?ScopedEVP_PKEY_free@@YAXPEAX@Z@@@std@@1_K@Z 000000018000cdc0 f i w_key.obj
 0001:0000bee0       ??1AsyncEcdhDeriveKey@@UEAA@XZ 000000018000cee0 f i w_key.obj
 0001:0000bfd0       ??_GAsyncEcdhDeriveKey@@UEAAPEAXI@Z 000000018000cfd0 f i w_key.obj
 0001:0000bfd0       ??_EAsyncEcdhDeriveKey@@UEAAPEAXI@Z 000000018000cfd0 f i * CIL library *:* CIL module *
 0001:0000c010       ??0AsyncEcExportJwk@@QEAA@PEAVCallback@Nan@@HV?$shared_ptr@V?$ScopedSSL@Uevp_pkey_st@@$1?ScopedEVP_PKEY_free@@YAXPEAX@Z@@@std@@@Z 000000018000d010 f i w_key.obj
 0001:0000c0d0       ??1AsyncEcExportJwk@@UEAA@XZ 000000018000d0d0 f i w_key.obj
 0001:0000c180       ??_EAsyncEcExportJwk@@UEAAPEAXI@Z 000000018000d180 f i * CIL library *:* CIL module *
 0001:0000c180       ??_GAsyncEcExportJwk@@UEAAPEAXI@Z 000000018000d180 f i w_key.obj
 0001:0000c1c0       ??0AsyncEcImportJwk@@QEAA@PEAVCallback@Nan@@V?$shared_ptr@VJwkEc@@@std@@H@Z 000000018000d1c0 f i w_key.obj
 0001:0000c280       ??1AsyncEcImportJwk@@UEAA@XZ 000000018000d280 f i w_key.obj
 0001:0000c330       ??_GAsyncEcImportJwk@@UEAAPEAXI@Z 000000018000d330 f i w_key.obj
 0001:0000c330       ??_EAsyncEcImportJwk@@UEAAPEAXI@Z 000000018000d330 f i * CIL library *:* CIL module *
 0001:0000c370       ??0AsyncEcdsaSign@@QEAA@PEAVCallback@Nan@@PEBUenv_md_st@@V?$shared_ptr@V?$ScopedSSL@Uevp_pkey_st@@$1?ScopedEVP_PKEY_free@@YAXPEAX@Z@@@std@@V?$shared_ptr@V?$basic_string@DU?$char_traits@D@std@@V?$allocator@D@2@@std@@@5@@Z 000000018000d370 f i w_key.obj
 0001:0000c490       ??1AsyncEcdsaSign@@UEAA@XZ 000000018000d490 f i w_key.obj
 0001:0000c580       ??_EAsyncEcdsaSign@@UEAAPEAXI@Z 000000018000d580 f i * CIL library *:* CIL module *
 0001:0000c580       ??_GAsyncEcdsaSign@@UEAAPEAXI@Z 000000018000d580 f i w_key.obj
 0001:0000c5c0       ??0AsyncEcdsaVerify@@QEAA@PEAVCallback@Nan@@PEBUenv_md_st@@V?$shared_ptr@V?$ScopedSSL@Uevp_pkey_st@@$1?ScopedEVP_PKEY_free@@YAXPEAX@Z@@@std@@V?$shared_ptr@V?$basic_string@DU?$char_traits@D@std@@V?$allocator@D@2@@std@@@5@3@Z 000000018000d5c0 f i w_key.obj
 0001:0000c730       ??1AsyncEcdsaVerify@@UEAA@XZ 000000018000d730 f i w_key.obj
 0001:0000c820       ??_GAsyncEcdsaVerify@@UEAAPEAXI@Z 000000018000d820 f i w_key.obj
 0001:0000c820       ??_EAsyncEcdsaVerify@@UEAAPEAXI@Z 000000018000d820 f i * CIL library *:* CIL module *
 0001:0000c860       ??0AsyncEcdhDeriveBits@@QEAA@PEAVCallback@Nan@@V?$shared_ptr@V?$ScopedSSL@Uevp_pkey_st@@$1?ScopedEVP_PKEY_free@@YAXPEAX@Z@@@std@@1_K@Z 000000018000d860 f i w_key.obj
 0001:0000c980       ??1AsyncEcdhDeriveBits@@UEAA@XZ 000000018000d980 f i w_key.obj
 0001:0000ca70       ??_GAsyncEcdhDeriveBits@@UEAAPEAXI@Z 000000018000da70 f i w_key.obj
 0001:0000ca70       ??_EAsyncEcdhDeriveBits@@UEAAPEAXI@Z 000000018000da70 f i * CIL library *:* CIL module *
 0001:0000cab0       ?Init@WKey@@SAXV?$Local@VObject@v8@@@v8@@@Z 000000018000dab0 f   w_key.obj
 0001:0000d0d0       ?New@WKey@@SAXAEBV?$FunctionCallbackInfo@VValue@v8@@@Nan@@@Z 000000018000e0d0 f   w_key.obj
 0001:0000d200       ??_EWKey@@UEAAPEAXI@Z      000000018000e200 f i * CIL library *:* CIL module *
 0001:0000d200       ??_EWAes@@UEAAPEAXI@Z      000000018000e200 f i * CIL library *:* CIL module *
 0001:0000d200       ??_EWHmac@@UEAAPEAXI@Z     000000018000e200 f i * CIL library *:* CIL module *
 0001:0000d200       ??_GWAes@@UEAAPEAXI@Z      000000018000e200 f i w_aes.obj
 0001:0000d200       ??_GWPbkdf2@@UEAAPEAXI@Z   000000018000e200 f i w_pbkdf2.obj
 0001:0000d200       ??_EWPbkdf2@@UEAAPEAXI@Z   000000018000e200 f i * CIL library *:* CIL module *
 0001:0000d200       ??_GWKey@@UEAAPEAXI@Z      000000018000e200 f i w_key.obj
 0001:0000d200       ??_GWHmac@@UEAAPEAXI@Z     000000018000e200 f i w_hmac.obj
 0001:0000d290       ?Type@WKey@@SAXV?$Local@VString@v8@@@v8@@AEBV?$PropertyCallbackInfo@VValue@v8@@@Nan@@@Z 000000018000e290 f   w_key.obj
 0001:0000d310       ?ModulusLength@WKey@@SAXAEBV?$FunctionCallbackInfo@VValue@v8@@@Nan@@@Z 000000018000e310 f   w_key.obj
 0001:0000d3e0       ?PublicExponent@WKey@@SAXAEBV?$FunctionCallbackInfo@VValue@v8@@@Nan@@@Z 000000018000e3e0 f   w_key.obj
 0001:0000d480       ?GenerateRsa@WKey@@SAXAEBV?$FunctionCallbackInfo@VValue@v8@@@Nan@@@Z 000000018000e480 f   w_key.obj
 0001:0000d5c0       ?GenerateEc@WKey@@SAXAEBV?$FunctionCallbackInfo@VValue@v8@@@Nan@@@Z 000000018000e5c0 f   w_key.obj
 0001:0000d6d0       ?ExportJwk@WKey@@SAXAEBV?$FunctionCallbackInfo@VValue@v8@@@Nan@@@Z 000000018000e6d0 f   w_key.obj
 0001:0000e160       ?ExportSpki@WKey@@SAXAEBV?$FunctionCallbackInfo@VValue@v8@@@Nan@@@Z 000000018000f160 f   w_key.obj
 0001:0000e260       ?ExportPkcs8@WKey@@SAXAEBV?$FunctionCallbackInfo@VValue@v8@@@Nan@@@Z 000000018000f260 f   w_key.obj
 0001:0000e360       ?ImportPkcs8@WKey@@SAXAEBV?$FunctionCallbackInfo@VValue@v8@@@Nan@@@Z 000000018000f360 f   w_key.obj
 0001:0000e4b0       ?ImportSpki@WKey@@SAXAEBV?$FunctionCallbackInfo@VValue@v8@@@Nan@@@Z 000000018000f4b0 f   w_key.obj
 0001:0000e600       ?ImportJwk@WKey@@SAXAEBV?$FunctionCallbackInfo@VValue@v8@@@Nan@@@Z 000000018000f600 f   w_key.obj
 0001:0000fa30       ?Sign@WKey@@SAXAEBV?$FunctionCallbackInfo@VValue@v8@@@Nan@@@Z 0000000180010a30 f   w_key.obj
 0001:0000fdb0       ?Verify@WKey@@SAXAEBV?$FunctionCallbackInfo@VValue@v8@@@Nan@@@Z 0000000180010db0 f   w_key.obj
 0001:00010200       ?RsaOaepEncDec@WKey@@SAXAEBV?$FunctionCallbackInfo@VValue@v8@@@Nan@@@Z 0000000180011200 f   w_key.obj
 0001:00010620       ?RsaPssSign@WKey@@SAXAEBV?$FunctionCallbackInfo@VValue@v8@@@Nan@@@Z 0000000180011620 f   w_key.obj
 0001:000108a0       ?RsaPssVerify@WKey@@SAXAEBV?$FunctionCallbackInfo@VValue@v8@@@Nan@@@Z 00000001800118a0 f   w_key.obj
 0001:00010ba0       ?EcdhDeriveKey@WKey@@SAXAEBV?$FunctionCallbackInfo@VValue@v8@@@Nan@@@Z 0000000180011ba0 f   w_key.obj
 0001:00010dd0       ?EcdhDeriveBits@WKey@@SAXAEBV?$FunctionCallbackInfo@VValue@v8@@@Nan@@@Z 0000000180011dd0 f   w_key.obj
 0001:00011000       ??$Unwrap@VWKey@@@ObjectWrap@node@@SAPEAVWKey@@V?$Local@VObject@v8@@@v8@@@Z 0000000180012000 f i w_key.obj
 0001:00011000       ??$Unwrap@VWAes@@@ObjectWrap@node@@SAPEAVWAes@@V?$Local@VObject@v8@@@v8@@@Z 0000000180012000 f i w_aes.obj
 0001:00011000       ??$Unwrap@VWHmac@@@ObjectWrap@node@@SAPEAVWHmac@@V?$Local@VObject@v8@@@v8@@@Z 0000000180012000 f i w_hmac.obj
 0001:00011000       ??$Unwrap@VWPbkdf2@@@ObjectWrap@node@@SAPEAVWPbkdf2@@V?$Local@VObject@v8@@@v8@@@Z 0000000180012000 f i w_pbkdf2.obj
 0001:00011080       ??$SetMethodAux@V?$Local@VFunction@v8@@@v8@@@imp@Nan@@YAXV?$Local@VFunction@v8@@@v8@@V?$Local@VString@v8@@@3@V?$Local@VFunctionTemplate@v8@@@3@ZZ 0000000180012080 f i w_key.obj
 0001:000110d0       ?Call@Nan@@YA?AV?$MaybeLocal@VValue@v8@@@v8@@V?$Local@VFunction@v8@@@3@V?$Local@VObject@v8@@@3@HQEAV?$Local@VValue@v8@@@3@@Z 00000001800120d0 f i w_aes.obj
 0001:00011190       ??1AsyncAesGenerateKey@@UEAA@XZ 0000000180012190 f i w_aes.obj
 0001:00011210       ??_GAsyncAesGenerateKey@@UEAAPEAXI@Z 0000000180012210 f i w_aes.obj
 0001:00011210       ??_EAsyncAesGenerateKey@@UEAAPEAXI@Z 0000000180012210 f i * CIL library *:* CIL module *
 0001:00011250       ??0AsyncAesEncryptCBC@@QEAA@PEAVCallback@Nan@@V?$shared_ptr@VScopedAES@@@std@@V?$shared_ptr@V?$basic_string@DU?$char_traits@D@std@@V?$allocator@D@2@@std@@@4@2_N@Z 0000000180012250 f i w_aes.obj
 0001:000113d0       ??1AsyncAesEncryptCBC@@UEAA@XZ 00000001800123d0 f i w_aes.obj
 0001:000114f0       ??_GAsyncAesEncryptCBC@@UEAAPEAXI@Z 00000001800124f0 f i w_aes.obj
 0001:000114f0       ??_EAsyncAesEncryptCBC@@UEAAPEAXI@Z 00000001800124f0 f i * CIL library *:* CIL module *
 0001:00011530       ??0AsyncAesEncryptECB@@QEAA@PEAVCallback@Nan@@V?$shared_ptr@VScopedAES@@@std@@V?$shared_ptr@V?$basic_string@DU?$char_traits@D@std@@V?$allocator@D@2@@std@@@4@_N@Z 0000000180012530 f i w_aes.obj
 0001:00011650       ??1AsyncAesEncryptECB@@UEAA@XZ 0000000180012650 f i w_aes.obj
 0001:00011740       ??_GAsyncAesEncryptECB@@UEAAPEAXI@Z 0000000180012740 f i w_aes.obj
 0001:00011740       ??_EAsyncAesEncryptECB@@UEAAPEAXI@Z 0000000180012740 f i * CIL library *:* CIL module *
 0001:00011780       ??0AsyncAesExport@@QEAA@PEAVCallback@Nan@@V?$shared_ptr@VScopedAES@@@std@@@Z 0000000180012780 f i w_aes.obj
 0001:00011780       ??0AsyncHmacExport@@QEAA@PEAVCallback@Nan@@V?$shared_ptr@VScopedHMAC@@@std@@@Z 0000000180012780 f i w_hmac.obj
 0001:00011830       ??1AsyncAesExport@@UEAA@XZ 0000000180012830 f i w_aes.obj
 0001:00011830       ??1AsyncHmacExport@@UEAA@XZ 0000000180012830 f i w_hmac.obj
 0001:000118e0       ??_EAsyncHmacExport@@UEAAPEAXI@Z 00000001800128e0 f i * CIL library *:* CIL module *
 0001:000118e0       ??_GAsyncAesExport@@UEAAPEAXI@Z 00000001800128e0 f i w_aes.obj
 0001:000118e0       ??_EAsyncAesExport@@UEAAPEAXI@Z 00000001800128e0 f i * CIL library *:* CIL module *
 0001:000118e0       ??_GAsyncHmacExport@@UEAAPEAXI@Z 00000001800128e0 f i w_hmac.obj
 0001:00011920       ??0AsyncAesImport@@QEAA@PEAVCallback@Nan@@V?$shared_ptr@V?$basic_string@DU?$char_traits@D@std@@V?$allocator@D@2@@std@@@std@@@Z 0000000180012920 f i w_aes.obj
 0001:000119d0       ??1AsyncAesImport@@UEAA@XZ 00000001800129d0 f i w_aes.obj
 0001:00011a80       ??_GAsyncAesImport@@UEAAPEAXI@Z 0000000180012a80 f i w_aes.obj
 0001:00011a80       ??_EAsyncAesImport@@UEAAPEAXI@Z 0000000180012a80 f i * CIL library *:* CIL module *
 0001:00011ac0       ??0AsyncAesEncryptGCM@@QEAA@PEAVCallback@Nan@@V?$shared_ptr@VScopedAES@@@std@@V?$shared_ptr@V?$basic_string@DU?$char_traits@D@std@@V?$allocator@D@2@@std@@@4@22H_N@Z 0000000180012ac0 f i w_aes.obj
 0001:00011cb0       ??1AsyncAesEncryptGCM@@UEAA@XZ 0000000180012cb0 f i w_aes.obj
 0001:00011e10       ??_EAsyncAesEncryptGCM@@UEAAPEAXI@Z 0000000180012e10 f i * CIL library *:* CIL module *
 0001:00011e10       ??_GAsyncAesEncryptGCM@@UEAAPEAXI@Z 0000000180012e10 f i w_aes.obj
 0001:00011e50       ??0AsyncAesWrapKey@@QEAA@PEAVCallback@Nan@@V?$shared_ptr@VScopedAES@@@std@@V?$shared_ptr@V?$basic_string@DU?$char_traits@D@std@@V?$allocator@D@2@@std@@@4@_N@Z 0000000180012e50 f i w_aes.obj
 0001:00011f70       ??1AsyncAesWrapKey@@UEAA@XZ 0000000180012f70 f i w_aes.obj
 0001:00012060       ??_EAsyncAesWrapKey@@UEAAPEAXI@Z 0000000180013060 f i * CIL library *:* CIL module *
 0001:00012060       ??_GAsyncAesWrapKey@@UEAAPEAXI@Z 0000000180013060 f i w_aes.obj
 0001:000120a0       ??0AsyncAesEncryptCTR@@QEAA@PEAVCallback@Nan@@V?$shared_ptr@VScopedAES@@@std@@V?$shared_ptr@V?$basic_string@DU?$char_traits@D@std@@V?$allocator@D@2@@std@@@4@2H_N@Z 00000001800130a0 f i w_aes.obj
 0001:00012230       ??1AsyncAesEncryptCTR@@UEAA@XZ 0000000180013230 f i w_aes.obj
 0001:00012350       ??_GAsyncAesEncryptCTR@@UEAAPEAXI@Z 0000000180013350 f i w_aes.obj
 0001:00012350       ??_EAsyncAesEncryptCTR@@UEAAPEAXI@Z 0000000180013350 f i * CIL library *:* CIL module *
 0001:00012390       ?constructor@WAes@@KAAEAV?$Persistent@VFunction@v8@@V?$NonCopyablePersistentTraits@VFunction@v8@@@2@@Nan@@XZ 0000000180013390 f i w_aes.obj
 0001:00012400       ?Init@WAes@@SAXV?$Local@VObject@v8@@@v8@@@Z 0000000180013400 f   w_aes.obj
 0001:000127e0       ?New@WAes@@SAXAEBV?$FunctionCallbackInfo@VValue@v8@@@Nan@@@Z 00000001800137e0 f   w_aes.obj
 0001:00012910       ?Generate@WAes@@SAXAEBV?$FunctionCallbackInfo@VValue@v8@@@Nan@@@Z 0000000180013910 f   w_aes.obj
 0001:00012a20       ?Encrypt@WAes@@SAXAEBV?$FunctionCallbackInfo@VValue@v8@@@Nan@@@Z 0000000180013a20 f   w_aes.obj
 0001:00012d70       ?Decrypt@WAes@@SAXAEBV?$FunctionCallbackInfo@VValue@v8@@@Nan@@@Z 0000000180013d70 f   w_aes.obj
 0001:000130c0       ?EncryptEcb@WAes@@SAXAEBV?$FunctionCallbackInfo@VValue@v8@@@Nan@@@Z 00000001800140c0 f   w_aes.obj
 0001:00013260       ?DecryptEcb@WAes@@SAXAEBV?$FunctionCallbackInfo@VValue@v8@@@Nan@@@Z 0000000180014260 f   w_aes.obj
 0001:00013400       ?Export@WHmac@@SAXAEBV?$FunctionCallbackInfo@VValue@v8@@@Nan@@@Z 0000000180014400 f   w_hmac.obj
 0001:00013400       ?Export@WAes@@SAXAEBV?$FunctionCallbackInfo@VValue@v8@@@Nan@@@Z 0000000180014400 f   w_aes.obj
 0001:00013500       ?Import@WAes@@SAXAEBV?$FunctionCallbackInfo@VValue@v8@@@Nan@@@Z 0000000180014500 f   w_aes.obj
 0001:00013650       ?EncryptGcm@WAes@@SAXAEBV?$FunctionCallbackInfo@VValue@v8@@@Nan@@@Z 0000000180014650 f   w_aes.obj
 0001:00013960       ?DecryptGcm@WAes@@SAXAEBV?$FunctionCallbackInfo@VValue@v8@@@Nan@@@Z 0000000180014960 f   w_aes.obj
 0001:00013c70       ?WrapKey@WAes@@SAXAEBV?$FunctionCallbackInfo@VValue@v8@@@Nan@@@Z 0000000180014c70 f   w_aes.obj
 0001:00013e10       ?UnwrapKey@WAes@@SAXAEBV?$FunctionCallbackInfo@VValue@v8@@@Nan@@@Z 0000000180014e10 f   w_aes.obj
 0001:00013fb0       ?EncryptCtr@WAes@@SAXAEBV?$FunctionCallbackInfo@VValue@v8@@@Nan@@@Z 0000000180014fb0 f   w_aes.obj
 0001:00014260       ?DecryptCtr@WAes@@SAXAEBV?$FunctionCallbackInfo@VValue@v8@@@Nan@@@Z 0000000180015260 f   w_aes.obj
 0001:00014510       ??1AsyncHmacGenerateKey@@UEAA@XZ 0000000180015510 f i w_hmac.obj
 0001:00014590       ??_GAsyncHmacGenerateKey@@UEAAPEAXI@Z 0000000180015590 f i w_hmac.obj
 0001:00014590       ??_EAsyncHmacGenerateKey@@UEAAPEAXI@Z 0000000180015590 f i * CIL library *:* CIL module *
 0001:000145d0       ??0AsyncHmacImport@@QEAA@PEAVCallback@Nan@@V?$shared_ptr@V?$basic_string@DU?$char_traits@D@std@@V?$allocator@D@2@@std@@@std@@@Z 00000001800155d0 f i w_hmac.obj
 0001:00014680       ??1AsyncHmacImport@@UEAA@XZ 0000000180015680 f i w_hmac.obj
 0001:00014730       ??_EAsyncHmacImport@@UEAAPEAXI@Z 0000000180015730 f i * CIL library *:* CIL module *
 0001:00014730       ??_GAsyncHmacImport@@UEAAPEAXI@Z 0000000180015730 f i w_hmac.obj
 0001:00014770       ??0AsyncHmacSign@@QEAA@PEAVCallback@Nan@@PEBUenv_md_st@@V?$shared_ptr@VScopedHMAC@@@std@@V?$shared_ptr@V?$basic_string@DU?$char_traits@D@std@@V?$allocator@D@2@@std@@@5@@Z 0000000180015770 f i w_hmac.obj
 0001:00014890       ??1AsyncHmacSign@@UEAA@XZ  0000000180015890 f i w_hmac.obj
 0001:00014980       ??_EAsyncHmacSign@@UEAAPEAXI@Z 0000000180015980 f i * CIL library *:* CIL module *
 0001:00014980       ??_GAsyncHmacSign@@UEAAPEAXI@Z 0000000180015980 f i w_hmac.obj
 0001:000149c0       ??0AsyncHmacVerify@@QEAA@PEAVCallback@Nan@@PEBUenv_md_st@@V?$shared_ptr@VScopedHMAC@@@std@@V?$shared_ptr@V?$basic_string@DU?$char_traits@D@std@@V?$allocator@D@2@@std@@@5@3@Z 00000001800159c0 f i w_hmac.obj
 0001:00014b30       ??1AsyncHmacVerify@@UEAA@XZ 0000000180015b30 f i w_hmac.obj
 0001:00014c20       ??_EAsyncHmacVerify@@UEAAPEAXI@Z 0000000180015c20 f i * CIL library *:* CIL module *
 0001:00014c20       ??_GAsyncHmacVerify@@UEAAPEAXI@Z 0000000180015c20 f i w_hmac.obj
 0001:00014c60       ?constructor@WHmac@@KAAEAV?$Persistent@VFunction@v8@@V?$NonCopyablePersistentTraits@VFunction@v8@@@2@@Nan@@XZ 0000000180015c60 f i w_hmac.obj
 0001:00014cd0       ?Init@WHmac@@SAXV?$Local@VObject@v8@@@v8@@@Z 0000000180015cd0 f   w_hmac.obj
 0001:00014ff0       ?New@WHmac@@SAXAEBV?$FunctionCallbackInfo@VValue@v8@@@Nan@@@Z 0000000180015ff0 f   w_hmac.obj
 0001:00015120       ?Generate@WHmac@@SAXAEBV?$FunctionCallbackInfo@VValue@v8@@@Nan@@@Z 0000000180016120 f   w_hmac.obj
 0001:00015230       ?Import@WHmac@@SAXAEBV?$FunctionCallbackInfo@VValue@v8@@@Nan@@@Z 0000000180016230 f   w_hmac.obj
 0001:00015380       ?Sign@WHmac@@SAXAEBV?$FunctionCallbackInfo@VValue@v8@@@Nan@@@Z 0000000180016380 f   w_hmac.obj
 0001:00015620       ?Verify@WHmac@@SAXAEBV?$FunctionCallbackInfo@VValue@v8@@@Nan@@@Z 0000000180016620 f   w_hmac.obj
 0001:00015990       ?convert@?$ToFactory@VNumber@v8@@@imp@Nan@@SA?AV?$MaybeLocal@VNumber@v8@@@v8@@V?$Local@VValue@v8@@@5@@Z 0000000180016990 f i w_pbkdf2.obj
 0001:00015a10       ??0AsyncPbkdf2Import@@QEAA@PEAVCallback@Nan@@V?$shared_ptr@V?$basic_string@DU?$char_traits@D@std@@V?$allocator@D@2@@std@@@std@@@Z 0000000180016a10 f i w_pbkdf2.obj
 0001:00015ac0       ??1AsyncPbkdf2Import@@UEAA@XZ 0000000180016ac0 f i w_pbkdf2.obj
 0001:00015b70       ??_EAsyncPbkdf2Import@@UEAAPEAXI@Z 0000000180016b70 f i * CIL library *:* CIL module *
 0001:00015b70       ??_GAsyncPbkdf2Import@@UEAAPEAXI@Z 0000000180016b70 f i w_pbkdf2.obj
 0001:00015bb0       ??0AsyncPbkdf2DeriveBits@@QEAA@PEAVCallback@Nan@@V?$shared_ptr@VScopedPbkdf2@@@std@@PEBUenv_md_st@@V?$shared_ptr@V?$basic_string@DU?$char_traits@D@std@@V?$allocator@D@2@@std@@@4@HH@Z 0000000180016bb0 f i w_pbkdf2.obj
 0001:00015ce0       ??1AsyncPbkdf2DeriveBits@@UEAA@XZ 0000000180016ce0 f i w_pbkdf2.obj
 0001:00015dd0       ??_EAsyncPbkdf2DeriveBits@@UEAAPEAXI@Z 0000000180016dd0 f i * CIL library *:* CIL module *
 0001:00015dd0       ??_GAsyncPbkdf2DeriveBits@@UEAAPEAXI@Z 0000000180016dd0 f i w_pbkdf2.obj
 0001:00015e10       ?constructor@WPbkdf2@@KAAEAV?$Persistent@VFunction@v8@@V?$NonCopyablePersistentTraits@VFunction@v8@@@2@@Nan@@XZ 0000000180016e10 f i w_pbkdf2.obj
 0001:00015e80       ?Init@WPbkdf2@@SAXV?$Local@VObject@v8@@@v8@@@Z 0000000180016e80 f   w_pbkdf2.obj
 0001:000160d0       ?New@WPbkdf2@@SAXAEBV?$FunctionCallbackInfo@VValue@v8@@@Nan@@@Z 00000001800170d0 f   w_pbkdf2.obj
 0001:00016200       ?ImportKey@WPbkdf2@@SAXAEBV?$FunctionCallbackInfo@VValue@v8@@@Nan@@@Z 0000000180017200 f   w_pbkdf2.obj
 0001:00016350       ?DeriveBits@WPbkdf2@@SAXAEBV?$FunctionCallbackInfo@VValue@v8@@@Nan@@@Z 0000000180017350 f   w_pbkdf2.obj
 0001:00016660       ??0AsyncDigest@@QEAA@PEAVCallback@Nan@@V?$shared_ptr@V?$basic_string@DU?$char_traits@D@std@@V?$allocator@D@2@@std@@@std@@1@Z 0000000180017660 f i w_core.obj
 0001:00016770       ??1AsyncDigest@@UEAA@XZ    0000000180017770 f i w_core.obj
 0001:00016860       ??_GAsyncDigest@@UEAAPEAXI@Z 0000000180017860 f i w_core.obj
 0001:00016860       ??_EAsyncDigest@@UEAAPEAXI@Z 0000000180017860 f i * CIL library *:* CIL module *
 0001:000168a0       ?constructor@WCore@@KAAEAV?$Persistent@VFunction@v8@@V?$NonCopyablePersistentTraits@VFunction@v8@@@2@@Nan@@XZ 00000001800178a0 f i w_core.obj
 0001:00016910       ?Init@WCore@@SAXV?$Local@VObject@v8@@@v8@@@Z 0000000180017910 f   w_core.obj
 0001:00016b50       ?New@WCore@@SAXAEBV?$FunctionCallbackInfo@VValue@v8@@@Nan@@@Z 0000000180017b50 f   w_core.obj
 0001:00016c70       ?Digest@WCore@@SAXAEBV?$FunctionCallbackInfo@VValue@v8@@@Nan@@@Z 0000000180017c70 f   w_core.obj
 0001:00016ed0       ?SetErrorMessage@AsyncWorker@Nan@@IEAAXPEBD@Z 0000000180017ed0 f i async_rsa.obj
 0001:00016f30       ?Execute@AsyncEncrypDecryptRsaOAEP@@UEAAXXZ 0000000180017f30 f   async_rsa.obj
 0001:00017060       ?HandleOKCallback@AsyncEncrypDecryptRsaOAEP@@UEAAXXZ 0000000180018060 f   async_rsa.obj
 0001:00017110       ?Execute@AsyncRsaGenerateKey@@UEAAXXZ 0000000180018110 f   async_rsa.obj
 0001:000171a0       ?HandleOKCallback@AsyncRsaGenerateKey@@UEAAXXZ 00000001800181a0 f   async_rsa.obj
 0001:000171a0       ?HandleOKCallback@AsyncEcGenerateKey@@UEAAXXZ 00000001800181a0 f   async_ec.obj
 0001:00017240       ?Execute@AsyncExportJwkRsa@@UEAAXXZ 0000000180018240 f   async_rsa.obj
 0001:000172f0       ?HandleOKCallback@AsyncExportJwkRsa@@UEAAXXZ 00000001800182f0 f   async_rsa.obj
 0001:00017700       ?Execute@AsyncExportSpki@@UEAAXXZ 0000000180018700 f   async_rsa.obj
 0001:00017780       ?HandleOKCallback@AsyncExportPkcs8@@UEAAXXZ 0000000180018780 f   async_rsa.obj
 0001:00017780       ?HandleOKCallback@AsyncExportSpki@@UEAAXXZ 0000000180018780 f   async_rsa.obj
 0001:00017840       ?Execute@AsyncExportPkcs8@@UEAAXXZ 0000000180018840 f   async_rsa.obj
 0001:000178c0       ?Execute@AsyncImportPkcs8@@UEAAXXZ 00000001800188c0 f   async_rsa.obj
 0001:00017970       ?HandleOKCallback@AsyncImportSpki@@UEAAXXZ 0000000180018970 f   async_rsa.obj
 0001:00017970       ?HandleOKCallback@AsyncImportPkcs8@@UEAAXXZ 0000000180018970 f   async_rsa.obj
 0001:00017a10       ?Execute@AsyncImportSpki@@UEAAXXZ 0000000180018a10 f   async_rsa.obj
 0001:00017ac0       ?Execute@AsyncImportJwkRsa@@UEAAXXZ 0000000180018ac0 f   async_rsa.obj
 0001:00017b50       ?HandleOKCallback@AsyncEcImportJwk@@UEAAXXZ 0000000180018b50 f   async_ec.obj
 0001:00017b50       ?HandleOKCallback@AsyncImportJwkRsa@@UEAAXXZ 0000000180018b50 f   async_rsa.obj
 0001:00017bf0       ?Execute@AsyncSignRsa@@UEAAXXZ 0000000180018bf0 f   async_rsa.obj
 0001:00017cd0       ?HandleOKCallback@AsyncSignRsa@@UEAAXXZ 0000000180018cd0 f   async_rsa.obj
 0001:00017cd0       ?HandleOKCallback@AsyncEcdsaSign@@UEAAXXZ 0000000180018cd0 f   async_ec.obj
 0001:00017cd0       ?HandleOKCallback@AsyncHmacSign@@UEAAXXZ 0000000180018cd0 f   async_hmac.obj
 0001:00017d90       ?Execute@AsyncVerifyRsa@@UEAAXXZ 0000000180018d90 f   async_rsa.obj
 0001:00017e50       ?HandleOKCallback@AsyncHmacVerify@@UEAAXXZ 0000000180018e50 f   async_hmac.obj
 0001:00017e50       ?HandleOKCallback@AsyncVerifyRsa@@UEAAXXZ 0000000180018e50 f   async_rsa.obj
 0001:00017e50       ?HandleOKCallback@AsyncEcdsaVerify@@UEAAXXZ 0000000180018e50 f   async_ec.obj
 0001:00017ee0       ?Execute@AsyncSignRsaPSS@@UEAAXXZ 0000000180018ee0 f   async_rsa.obj
 0001:00017fd0       ?HandleOKCallback@AsyncSignRsaPSS@@UEAAXXZ 0000000180018fd0 f   async_rsa.obj
 0001:00018090       ?Execute@AsyncVerifyRsaPSS@@UEAAXXZ 0000000180019090 f   async_rsa.obj
 0001:00018160       ?HandleOKCallback@AsyncVerifyRsaPSS@@UEAAXXZ 0000000180019160 f   async_rsa.obj
 0001:000181f0       ?Execute@AsyncEcGenerateKey@@UEAAXXZ 00000001800191f0 f   async_ec.obj
 0001:00018270       ?Execute@AsyncEcdhDeriveKey@@UEAAXXZ 0000000180019270 f   async_ec.obj
 0001:00018350       ?HandleOKCallback@AsyncAesWrapKey@@UEAAXXZ 0000000180019350 f   async_aes.obj
 0001:00018350       ?HandleOKCallback@AsyncEcdhDeriveKey@@UEAAXXZ 0000000180019350 f   async_ec.obj
 0001:00018350       ?HandleOKCallback@AsyncAesEncryptECB@@UEAAXXZ 0000000180019350 f   async_aes.obj
 0001:00018350       ?HandleOKCallback@AsyncEcdhDeriveBits@@UEAAXXZ 0000000180019350 f   async_ec.obj
 0001:00018400       ?Execute@AsyncEcExportJwk@@UEAAXXZ 0000000180019400 f   async_ec.obj
 0001:000184b0       ?HandleOKCallback@AsyncEcExportJwk@@UEAAXXZ 00000001800194b0 f   async_ec.obj
 0001:00018760       ?Execute@AsyncEcImportJwk@@UEAAXXZ 0000000180019760 f   async_ec.obj
 0001:000187f0       ?Execute@AsyncEcdsaSign@@UEAAXXZ 00000001800197f0 f   async_ec.obj
 0001:000188d0       ?Execute@AsyncEcdsaVerify@@UEAAXXZ 00000001800198d0 f   async_ec.obj
 0001:00018990       ?Execute@AsyncEcdhDeriveBits@@UEAAXXZ 0000000180019990 f   async_ec.obj
 0001:00018a80       ??0ScopedAES@@QEAA@V?$shared_ptr@V?$basic_string@DU?$char_traits@D@std@@V?$allocator@D@2@@std@@@std@@@Z 0000000180019a80 f i async_aes.obj
 0001:00018b00       ?NewInstance@WAes@@SA?AV?$Local@VObject@v8@@@v8@@XZ 0000000180019b00 f i async_aes.obj
 0001:00018bc0       ?Execute@AsyncAesGenerateKey@@UEAAXXZ 0000000180019bc0 f   async_aes.obj
 0001:00018c40       ?HandleOKCallback@AsyncAesGenerateKey@@UEAAXXZ 0000000180019c40 f   async_aes.obj
 0001:00018ce0       ?Execute@AsyncAesEncryptCBC@@UEAAXXZ 0000000180019ce0 f   async_aes.obj
 0001:00018e50       ?HandleOKCallback@AsyncAesEncryptCBC@@UEAAXXZ 0000000180019e50 f   async_aes.obj
 0001:00018e50       ?HandleOKCallback@AsyncAesEncryptCTR@@UEAAXXZ 0000000180019e50 f   async_aes.obj
 0001:00018f00       ?Execute@AsyncAesEncryptECB@@UEAAXXZ 0000000180019f00 f   async_aes.obj
 0001:00019000       ?Execute@AsyncHmacExport@@UEAAXXZ 000000018001a000 f   async_hmac.obj
 0001:00019000       ?Execute@AsyncAesExport@@UEAAXXZ 000000018001a000 f   async_aes.obj
 0001:00019020       ?HandleOKCallback@AsyncAesExport@@UEAAXXZ 000000018001a020 f   async_aes.obj
 0001:00019020       ?HandleOKCallback@AsyncHmacExport@@UEAAXXZ 000000018001a020 f   async_hmac.obj
 0001:000190d0       ?Execute@AsyncAesImport@@UEAAXXZ 000000018001a0d0 f   async_aes.obj
 0001:000191d0       ?HandleOKCallback@AsyncAesImport@@UEAAXXZ 000000018001a1d0 f   async_aes.obj
 0001:00019270       ?Execute@AsyncAesEncryptGCM@@UEAAXXZ 000000018001a270 f   async_aes.obj
 0001:00019470       ?HandleOKCallback@AsyncAesEncryptGCM@@UEAAXXZ 000000018001a470 f   async_aes.obj
 0001:00019520       ?Execute@AsyncAesWrapKey@@UEAAXXZ 000000018001a520 f   async_aes.obj
 0001:00019620       ?Execute@AsyncAesEncryptCTR@@UEAAXXZ 000000018001a620 f   async_aes.obj
 0001:000197b0       ??0ScopedHMAC@@QEAA@V?$shared_ptr@V?$basic_string@DU?$char_traits@D@std@@V?$allocator@D@2@@std@@@std@@@Z 000000018001a7b0 f i async_hmac.obj
 0001:00019840       ?NewInstance@WHmac@@SA?AV?$Local@VObject@v8@@@v8@@XZ 000000018001a840 f i async_hmac.obj
 0001:00019900       ?Execute@AsyncHmacGenerateKey@@UEAAXXZ 000000018001a900 f   async_hmac.obj
 0001:00019980       ?HandleOKCallback@AsyncHmacGenerateKey@@UEAAXXZ 000000018001a980 f   async_hmac.obj
 0001:00019a20       ?Execute@AsyncHmacImport@@UEAAXXZ 000000018001aa20 f   async_hmac.obj
 0001:00019b20       ?HandleOKCallback@AsyncHmacImport@@UEAAXXZ 000000018001ab20 f   async_hmac.obj
 0001:00019bc0       ?Execute@AsyncHmacSign@@UEAAXXZ 000000018001abc0 f   async_hmac.obj
 0001:00019c80       ?Execute@AsyncHmacVerify@@UEAAXXZ 000000018001ac80 f   async_hmac.obj
 0001:00019d20       ??0ScopedPbkdf2@@QEAA@V?$shared_ptr@V?$basic_string@DU?$char_traits@D@std@@V?$allocator@D@2@@std@@@std@@@Z 000000018001ad20 f i async_pbkdf2.obj
 0001:00019db0       ?NewInstance@WPbkdf2@@SA?AV?$Local@VObject@v8@@@v8@@XZ 000000018001adb0 f i async_pbkdf2.obj
 0001:00019e70       ?Execute@AsyncPbkdf2Import@@UEAAXXZ 000000018001ae70 f   async_pbkdf2.obj
 0001:00019f70       ?HandleOKCallback@AsyncPbkdf2Import@@UEAAXXZ 000000018001af70 f   async_pbkdf2.obj
 0001:0001a010       ?Execute@AsyncPbkdf2DeriveBits@@UEAAXXZ 000000018001b010 f   async_pbkdf2.obj
 0001:0001a0e0       ?HandleOKCallback@AsyncPbkdf2DeriveBits@@UEAAXXZ 000000018001b0e0 f   async_pbkdf2.obj
 0001:0001a190       ?Execute@AsyncDigest@@UEAAXXZ 000000018001b190 f   async_core.obj
 0001:0001a260       ?HandleOKCallback@AsyncDigest@@UEAAXXZ 000000018001b260 f   async_core.obj
 0001:0001a35c       __imp_load_?GetCurrent@Isolate@v8@@SAPEAV12@XZ 000000018001b35c f   node:node.exe
 0001:0001a368       __tailMerge_node_exe       000000018001b368 f i node:node.exe
 0001:0001a3e1       __imp_load_??1HandleScope@v8@@QEAA@XZ 000000018001b3e1 f   node:node.exe
 0001:0001a3ed       __imp_load_??0HandleScope@v8@@QEAA@PEAVIsolate@1@@Z 000000018001b3ed f   node:node.exe
 0001:0001a3f9       __imp_load_?ToLocalEmpty@V8@v8@@CAXXZ 000000018001b3f9 f   node:node.exe
 0001:0001a405       __imp_load_?NewFromUtf8@String@v8@@SA?AV?$MaybeLocal@VString@v8@@@2@PEAVIsolate@2@PEBDW4NewStringType@2@H@Z 000000018001b405 f   node:node.exe
 0001:0001a411       __imp_load_?New@Number@v8@@SA?AV?$Local@VNumber@v8@@@2@PEAVIsolate@2@N@Z 000000018001b411 f   node:node.exe
 0001:0001a41d       __imp_load_?New@Object@v8@@SA?AV?$Local@VObject@v8@@@2@PEAVIsolate@2@@Z 000000018001b41d f   node:node.exe
 0001:0001a429       __imp_load_?Set@Object@v8@@QEAA_NV?$Local@VValue@v8@@@2@0@Z 000000018001b429 f   node:node.exe
 0001:0001a435       __imp_load_?Set@Object@v8@@QEAA_NIV?$Local@VValue@v8@@@2@@Z 000000018001b435 f   node:node.exe
 0001:0001a441       __imp_load_node_module_register 000000018001b441 f   node:node.exe
 0001:0001a44d       __imp_load_OPENSSL_add_all_algorithms_noconf 000000018001b44d f   node:node.exe
 0001:0001a459       __imp_load_ERR_load_crypto_strings 000000018001b459 f   node:node.exe
 0001:0001a465       __imp_load_OPENSSL_init    000000018001b465 f   node:node.exe
 0001:0001a471       __imp_load_BIO_new_mem_buf 000000018001b471 f   node:node.exe
 0001:0001a47d       __imp_load_i2d_PUBKEY_bio  000000018001b47d f   node:node.exe
 0001:0001a489       __imp_load_d2i_PUBKEY_bio  000000018001b489 f   node:node.exe
 0001:0001a495       __imp_load_i2d_PKCS8PrivateKeyInfo_bio 000000018001b495 f   node:node.exe
 0001:0001a4a1       __imp_load_BIO_s_mem       000000018001b4a1 f   node:node.exe
 0001:0001a4ad       __imp_load_d2i_PrivateKey_bio 000000018001b4ad f   node:node.exe
 0001:0001a4b9       __imp_load_BIO_ctrl        000000018001b4b9 f   node:node.exe
 0001:0001a4c5       __imp_load_BIO_new         000000018001b4c5 f   node:node.exe
 0001:0001a4d1       __imp_load_EVP_CIPHER_CTX_free 000000018001b4d1 f   node:node.exe
 0001:0001a4dd       __imp_load_BN_CTX_free     000000018001b4dd f   node:node.exe
 0001:0001a4e9       __imp_load_EVP_MD_CTX_destroy 000000018001b4e9 f   node:node.exe
 0001:0001a4f5       __imp_load_BIO_free        000000018001b4f5 f   node:node.exe
 0001:0001a501       __imp_load_EC_GROUP_free   000000018001b501 f   node:node.exe
 0001:0001a50d       __imp_load_EVP_PKEY_free   000000018001b50d f   node:node.exe
 0001:0001a519       __imp_load_ECDSA_SIG_free  000000018001b519 f   node:node.exe
 0001:0001a525       __imp_load_EC_KEY_free     000000018001b525 f   node:node.exe
 0001:0001a531       __imp_load_BN_free         000000018001b531 f   node:node.exe
 0001:0001a53d       __imp_load_RSA_free        000000018001b53d f   node:node.exe
 0001:0001a549       __imp_load_EVP_PKEY_CTX_free 000000018001b549 f   node:node.exe
 0001:0001a555       __imp_load_ERR_print_errors 000000018001b555 f   node:node.exe
 0001:0001a561       __imp_load_EVP_Digest      000000018001b561 f   node:node.exe
 0001:0001a56d       __imp_load_BN_new          000000018001b56d f   node:node.exe
 0001:0001a579       __imp_load_EVP_PKEY_assign 000000018001b579 f   node:node.exe
 0001:0001a585       __imp_load_BN_set_word     000000018001b585 f   node:node.exe
 0001:0001a591       __imp_load_RSA_new         000000018001b591 f   node:node.exe
 0001:0001a59d       __imp_load_EVP_PKEY_new    000000018001b59d f   node:node.exe
 0001:0001a5a9       __imp_load_RSA_generate_key_ex 000000018001b5a9 f   node:node.exe
 0001:0001a5b5       __imp_load_BN_dup          000000018001b5b5 f   node:node.exe
 0001:0001a5c1       __imp_load_EVP_DigestVerifyInit 000000018001b5c1 f   node:node.exe
 0001:0001a5cd       __imp_load_EVP_DigestSignInit 000000018001b5cd f   node:node.exe
 0001:0001a5d9       __imp_load_EVP_DigestVerifyFinal 000000018001b5d9 f   node:node.exe
 0001:0001a5e5       __imp_load_EVP_DigestSignFinal 000000018001b5e5 f   node:node.exe
 0001:0001a5f1       __imp_load_EVP_MD_CTX_create 000000018001b5f1 f   node:node.exe
 0001:0001a5fd       __imp_load_EVP_DigestUpdate 000000018001b5fd f   node:node.exe
 0001:0001a609       __imp_load_EVP_PKEY_CTX_new 000000018001b609 f   node:node.exe
 0001:0001a615       __imp_load_EVP_PKEY_CTX_ctrl 000000018001b615 f   node:node.exe
 0001:0001a621       __imp_load_EVP_PKEY_encrypt 000000018001b621 f   node:node.exe
 0001:0001a62d       __imp_load_CRYPTO_malloc   000000018001b62d f   node:node.exe
 0001:0001a639       __imp_load_EVP_PKEY_decrypt 000000018001b639 f   node:node.exe
 0001:0001a645       __imp_load_EVP_PKEY_encrypt_init 000000018001b645 f   node:node.exe
 0001:0001a651       __imp_load_EVP_PKEY_decrypt_init 000000018001b651 f   node:node.exe
 0001:0001a65d       __imp_load_EC_KEY_new_by_curve_name 000000018001b65d f   node:node.exe
 0001:0001a669       __imp_load_EC_KEY_get0_group 000000018001b669 f   node:node.exe
 0001:0001a675       __imp_load_EC_GROUP_set_asn1_flag 000000018001b675 f   node:node.exe
 0001:0001a681       __imp_load_EC_KEY_generate_key 000000018001b681 f   node:node.exe
 0001:0001a68d       __imp_load_i2d_ECDSA_SIG   000000018001b68d f   node:node.exe
 0001:0001a699       __imp_load_BN_bin2bn       000000018001b699 f   node:node.exe
 0001:0001a6a5       __imp_load_ECDSA_SIG_new   000000018001b6a5 f   node:node.exe
 0001:0001a6b1       __imp_load_BN_num_bits     000000018001b6b1 f   node:node.exe
 0001:0001a6bd       __imp_load_CRYPTO_free     000000018001b6bd f   node:node.exe
 0001:0001a6c9       __imp_load_d2i_ECDSA_SIG   000000018001b6c9 f   node:node.exe
 0001:0001a6d5       __imp_load_EC_GROUP_get_order 000000018001b6d5 f   node:node.exe
 0001:0001a6e1       __imp_load_EC_GROUP_get_degree 000000018001b6e1 f   node:node.exe
 0001:0001a6ed       __imp_load_EC_KEY_get0_private_key 000000018001b6ed f   node:node.exe
 0001:0001a6f9       __imp_load_EC_GROUP_get_curve_name 000000018001b6f9 f   node:node.exe
 0001:0001a705       __imp_load_EVP_PKEY_derive 000000018001b705 f   node:node.exe
 0001:0001a711       __imp_load_EVP_PKEY_derive_init 000000018001b711 f   node:node.exe
 0001:0001a71d       __imp_load_EC_KEY_get0_public_key 000000018001b71d f   node:node.exe
 0001:0001a729       __imp_load_EVP_PKEY_derive_set_peer 000000018001b729 f   node:node.exe
 0001:0001a735       __imp_load_EVP_PKEY_get1_EC_KEY 000000018001b735 f   node:node.exe
 0001:0001a741       __imp_load_ECDH_compute_key 000000018001b741 f   node:node.exe
 0001:0001a74d       __imp_load_EC_GROUP_new_by_curve_name 000000018001b74d f   node:node.exe
 0001:0001a759       __imp_load_BN_CTX_new      000000018001b759 f   node:node.exe
 0001:0001a765       __imp_load_EC_KEY_new      000000018001b765 f   node:node.exe
 0001:0001a771       __imp_load_EC_KEY_set_group 000000018001b771 f   node:node.exe
 0001:0001a77d       __imp_load_BN_CTX_get      000000018001b77d f   node:node.exe
 0001:0001a789       __imp_load_EC_POINT_get_affine_coordinates_GFp 000000018001b789 f   node:node.exe
 0001:0001a795       __imp_load_EC_KEY_set_private_key 000000018001b795 f   node:node.exe
 0001:0001a7a1       __imp_load_EC_KEY_set_public_key_affine_coordinates 000000018001b7a1 f   node:node.exe
 0001:0001a7ad       __imp_load_RAND_bytes      000000018001b7ad f   node:node.exe
 0001:0001a7b9       __imp_load_EVP_aes_256_ecb 000000018001b7b9 f   node:node.exe
 0001:0001a7c5       __imp_load_EVP_CipherFinal_ex 000000018001b7c5 f   node:node.exe
 0001:0001a7d1       __imp_load_EVP_aes_192_ecb 000000018001b7d1 f   node:node.exe
 0001:0001a7dd       __imp_load_EVP_CipherInit_ex 000000018001b7dd f   node:node.exe
 0001:0001a7e9       __imp_load_EVP_aes_128_ecb 000000018001b7e9 f   node:node.exe
 0001:0001a7f5       __imp_load_EVP_CipherUpdate 000000018001b7f5 f   node:node.exe
 0001:0001a801       __imp_load_EVP_CIPHER_CTX_new 000000018001b801 f   node:node.exe
 0001:0001a80d       __imp_load_AES_set_decrypt_key 000000018001b80d f   node:node.exe
 0001:0001a819       __imp_load_AES_wrap_key    000000018001b819 f   node:node.exe
 0001:0001a825       __imp_load_EVP_aes_192_cbc 000000018001b825 f   node:node.exe
 0001:0001a831       __imp_load_EVP_aes_128_cbc 000000018001b831 f   node:node.exe
 0001:0001a83d       __imp_load_AES_set_encrypt_key 000000018001b83d f   node:node.exe
 0001:0001a849       __imp_load_AES_unwrap_key  000000018001b849 f   node:node.exe
 0001:0001a855       __imp_load_EVP_aes_256_cbc 000000018001b855 f   node:node.exe
 0001:0001a861       __imp_load_EVP_aes_128_gcm 000000018001b861 f   node:node.exe
 0001:0001a86d       __imp_load_EVP_EncryptUpdate 000000018001b86d f   node:node.exe
 0001:0001a879       __imp_load_EVP_aes_256_gcm 000000018001b879 f   node:node.exe
 0001:0001a885       __imp_load_EVP_CIPHER_CTX_ctrl 000000018001b885 f   node:node.exe
 0001:0001a891       __imp_load_EVP_EncryptFinal_ex 000000018001b891 f   node:node.exe
 0001:0001a89d       __imp_load_EVP_DecryptInit_ex 000000018001b89d f   node:node.exe
 0001:0001a8a9       __imp_load_EVP_EncryptInit_ex 000000018001b8a9 f   node:node.exe
 0001:0001a8b5       __imp_load_EVP_DecryptFinal_ex 000000018001b8b5 f   node:node.exe
 0001:0001a8c1       __imp_load_EVP_aes_192_gcm 000000018001b8c1 f   node:node.exe
 0001:0001a8cd       __imp_load_EVP_CIPHER_block_size 000000018001b8cd f   node:node.exe
 0001:0001a8d9       __imp_load_EVP_DecryptUpdate 000000018001b8d9 f   node:node.exe
 0001:0001a8e5       __imp_load_AES_ctr128_encrypt 000000018001b8e5 f   node:node.exe
 0001:0001a8f1       __imp_load_HMAC            000000018001b8f1 f   node:node.exe
 0001:0001a8fd       __imp_load_EVP_MD_size     000000018001b8fd f   node:node.exe
 0001:0001a909       __imp_load_PKCS5_PBKDF2_HMAC 000000018001b909 f   node:node.exe
 0001:0001a915       __imp_load_?New@Buffer@node@@YA?AV?$MaybeLocal@VObject@v8@@@v8@@PEAVIsolate@4@_K@Z 000000018001b915 f   node:node.exe
 0001:0001a921       __imp_load_?Data@Buffer@node@@YAPEADV?$Local@VObject@v8@@@v8@@@Z 000000018001b921 f   node:node.exe
 0001:0001a92d       __imp_load_?Length@Buffer@node@@YA_KV?$Local@VObject@v8@@@v8@@@Z 000000018001b92d f   node:node.exe
 0001:0001a939       __imp_load_BN_bn2bin       000000018001b939 f   node:node.exe
 0001:0001a945       __imp_load_?ToObject@Value@v8@@QEBA?AV?$Local@VObject@v8@@@2@XZ 000000018001b945 f   node:node.exe
 0001:0001a951       __imp_load_uv_queue_work   000000018001b951 f   node:node.exe
 0001:0001a95d       __imp_load_?Global@Context@v8@@QEAA?AV?$Local@VObject@v8@@@2@XZ 000000018001b95d f   node:node.exe
 0001:0001a969       __imp_load_?Value@External@v8@@QEBAPEAXXZ 000000018001b969 f   node:node.exe
 0001:0001a975       __imp_load_?New@External@v8@@SA?AV?$Local@VExternal@v8@@@2@PEAVIsolate@2@PEAX@Z 000000018001b975 f   node:node.exe
 0001:0001a981       __imp_load_?New@Signature@v8@@SA?AV?$Local@VSignature@v8@@@2@PEAVIsolate@2@V?$Local@VFunctionTemplate@v8@@@2@@Z 000000018001b981 f   node:node.exe
 0001:0001a98d       __imp_load_?ThrowException@Isolate@v8@@QEAA?AV?$Local@VValue@v8@@@2@V32@@Z 000000018001b98d f   node:node.exe
 0001:0001a999       __imp_load_?GetCurrentContext@Isolate@v8@@QEAA?AV?$Local@VContext@v8@@@2@XZ 000000018001b999 f   node:node.exe
 0001:0001a9a5       __imp_load_?CreateHandle@HandleScope@v8@@KAPEAPEAVObject@internal@2@PEAVIsolate@42@PEAV342@@Z 000000018001b9a5 f   node:node.exe
 0001:0001a9b1       __imp_load_?CreateHandle@HandleScope@v8@@CAPEAPEAVObject@internal@2@PEAVHeapObject@42@PEAV342@@Z 000000018001b9b1 f   node:node.exe
 0001:0001a9bd       __imp_load_?Set@Template@v8@@QEAAXV?$Local@VName@v8@@@2@V?$Local@VData@v8@@@2@W4PropertyAttribute@2@@Z 000000018001b9bd f   node:node.exe
 0001:0001a9c9       __imp_load_?Error@Exception@v8@@SA?AV?$Local@VValue@v8@@@2@V?$Local@VString@v8@@@2@@Z 000000018001b9c9 f   node:node.exe
 0001:0001a9d5       __imp_load_?SetClassName@FunctionTemplate@v8@@QEAAXV?$Local@VString@v8@@@2@@Z 000000018001b9d5 f   node:node.exe
 0001:0001a9e1       __imp_load_?PrototypeTemplate@FunctionTemplate@v8@@QEAA?AV?$Local@VObjectTemplate@v8@@@2@XZ 000000018001b9e1 f   node:node.exe
 0001:0001a9ed       __imp_load_?InstanceTemplate@FunctionTemplate@v8@@QEAA?AV?$Local@VObjectTemplate@v8@@@2@XZ 000000018001b9ed f   node:node.exe
 0001:0001a9f9       __imp_load_?GetFunction@FunctionTemplate@v8@@QEAA?AV?$Local@VFunction@v8@@@2@XZ 000000018001b9f9 f   node:node.exe
 0001:0001aa05       __imp_load_?GetFunction@FunctionTemplate@v8@@QEAA?AV?$MaybeLocal@VFunction@v8@@@2@V?$Local@VContext@v8@@@2@@Z 000000018001ba05 f   node:node.exe
 0001:0001aa11       __imp_load_?New@FunctionTemplate@v8@@SA?AV?$Local@VFunctionTemplate@v8@@@2@PEAVIsolate@2@P6AXAEBV?$FunctionCallbackInfo@VValue@v8@@@2@@ZV?$Local@VValue@v8@@@2@V?$Local@VSignature@v8@@@2@HW4ConstructorBehavior@2@@Z 000000018001ba11 f   node:node.exe
 0001:0001aa1d       __imp_load_?FromJustIsNothing@V8@v8@@CAXXZ 000000018001ba1d f   node:node.exe
 0001:0001aa29       __imp_load_?ClearWeak@V8@v8@@CAPEAXPEAPEAVObject@internal@2@@Z 000000018001ba29 f   node:node.exe
 0001:0001aa35       __imp_load_?MakeWeak@V8@v8@@CAXPEAPEAVObject@internal@2@PEAXP6AXAEBV?$WeakCallbackInfo@X@2@@ZW4WeakCallbackType@2@@Z 000000018001ba35 f   node:node.exe
 0001:0001aa41       __imp_load_?DisposeGlobal@V8@v8@@CAXPEAPEAVObject@internal@2@@Z 000000018001ba41 f   node:node.exe
 0001:0001aa4d       __imp_load_?GlobalizeReference@V8@v8@@CAPEAPEAVObject@internal@2@PEAVIsolate@42@PEAPEAV342@@Z 000000018001ba4d f   node:node.exe
 0001:0001aa59       __imp_load_?Int32Value@Value@v8@@QEBA?AV?$Maybe@H@2@V?$Local@VContext@v8@@@2@@Z 000000018001ba59 f   node:node.exe
 0001:0001aa65       __imp_load_?BooleanValue@Value@v8@@QEBA_NXZ 000000018001ba65 f   node:node.exe
 0001:0001aa71       __imp_load_?ToObject@Value@v8@@QEBA?AV?$MaybeLocal@VObject@v8@@@2@V?$Local@VContext@v8@@@2@@Z 000000018001ba71 f   node:node.exe
 0001:0001aa7d       __imp_load_?Escape@EscapableHandleScope@v8@@AEAAPEAPEAVObject@internal@2@PEAPEAV342@@Z 000000018001ba7d f   node:node.exe
 0001:0001aa89       __imp_load_??0EscapableHandleScope@v8@@QEAA@PEAVIsolate@1@@Z 000000018001ba89 f   node:node.exe
 0001:0001aa95       __imp_load_??1Utf8Value@String@v8@@QEAA@XZ 000000018001ba95 f   node:node.exe
 0001:0001aaa1       __imp_load_??0Utf8Value@String@v8@@QEAA@V?$Local@VValue@v8@@@2@@Z 000000018001baa1 f   node:node.exe
 0001:0001aaad       __imp_load_?SlowGetAlignedPointerFromInternalField@Object@v8@@AEAAPEAXH@Z 000000018001baad f   node:node.exe
 0001:0001aab9       __imp_load_?SlowGetInternalField@Object@v8@@AEAA?AV?$Local@VValue@v8@@@2@H@Z 000000018001bab9 f   node:node.exe
 0001:0001aac5       __imp_load_?CallAsFunction@Object@v8@@QEAA?AV?$MaybeLocal@VValue@v8@@@2@V?$Local@VContext@v8@@@2@V?$Local@VValue@v8@@@2@HQEAV52@@Z 000000018001bac5 f   node:node.exe
 0001:0001aad1       __imp_load_?SetAlignedPointerInInternalField@Object@v8@@QEAAXHPEAX@Z 000000018001bad1 f   node:node.exe
 0001:0001aadd       __imp_load_?SetInternalField@Object@v8@@QEAAXHV?$Local@VValue@v8@@@2@@Z 000000018001badd f   node:node.exe
 0001:0001aae9       __imp_load_?InternalFieldCount@Object@v8@@QEAAHXZ 000000018001bae9 f   node:node.exe
 0001:0001aaf5       __imp_load_?Get@Object@v8@@QEAA?AV?$MaybeLocal@VValue@v8@@@2@V?$Local@VContext@v8@@@2@V?$Local@VValue@v8@@@2@@Z 000000018001baf5 f   node:node.exe
 0001:0001ab01       __imp_load_?Set@Object@v8@@QEAA?AV?$Maybe@_N@2@V?$Local@VContext@v8@@@2@V?$Local@VValue@v8@@@2@1@Z 000000018001bb01 f   node:node.exe
 0001:0001ab0d       __imp_load_?NewInstance@Function@v8@@QEBA?AV?$MaybeLocal@VObject@v8@@@2@V?$Local@VContext@v8@@@2@HQEAV?$Local@VValue@v8@@@2@@Z 000000018001bb0d f   node:node.exe
 0001:0001ab19       __imp_load_?SetInternalFieldCount@ObjectTemplate@v8@@QEAAXH@Z 000000018001bb19 f   node:node.exe
 0001:0001ab25       __imp_load_?SetAccessor@ObjectTemplate@v8@@QEAAXV?$Local@VName@v8@@@2@P6AX0AEBV?$PropertyCallbackInfo@VValue@v8@@@2@@ZP6AX0V?$Local@VValue@v8@@@2@AEBV?$PropertyCallbackInfo@X@2@@Z3W4AccessControl@2@W4PropertyAttribute@2@V?$Local@VAccessorSignature@v8@@@2@@Z 000000018001bb25 f   node:node.exe
 0001:0001ab31       __imp_load_?NewInstance@ObjectTemplate@v8@@QEAA?AV?$MaybeLocal@VObject@v8@@@2@V?$Local@VContext@v8@@@2@@Z 000000018001bb31 f   node:node.exe
 0001:0001ab3d       __imp_load_?New@ObjectTemplate@v8@@SA?AV?$Local@VObjectTemplate@v8@@@2@PEAVIsolate@2@V?$Local@VFunctionTemplate@v8@@@2@@Z 000000018001bb3d f   node:node.exe
 0001:0001ab49       __imp_load_?MakeCallback@node@@YA?AV?$Local@VValue@v8@@@v8@@PEAVIsolate@3@V?$Local@VObject@v8@@@3@V?$Local@VFunction@v8@@@3@HPEAV23@@Z 000000018001bb49 f   node:node.exe
 0001:0001ab55       __imp_load_RSA_size        000000018001bb55 f   node:node.exe
 0001:0001ab61       __imp_load_EVP_PKEY_get1_RSA 000000018001bb61 f   node:node.exe
 0001:0001ab6d       __imp_load_EVP_get_digestbyname 000000018001bb6d f   node:node.exe
 0001:0001ab79       __imp_load_uv_default_loop 000000018001bb79 f   node:node.exe
 0001:0001ab85       __imp_load_?ToString@Value@v8@@QEBA?AV?$Local@VString@v8@@@2@XZ 000000018001bb85 f   node:node.exe
 0001:0001ab91       __imp_load_??1EscapableHandleScope@v8@@QEAA@XZ 000000018001bb91 f   node:node.exe
 0001:0001ab9d       __imp_load_?IsFunction@Value@v8@@QEBA_NXZ 000000018001bb9d f   node:node.exe
 0001:0001aba9       __imp_load_?Call@Function@v8@@QEAA?AV?$MaybeLocal@VValue@v8@@@2@V?$Local@VContext@v8@@@2@V?$Local@VValue@v8@@@2@HQEAV52@@Z 000000018001bba9 f   node:node.exe
 0001:0001abb5       __imp_load_?Uint32Value@Value@v8@@QEBAIXZ 000000018001bbb5 f   node:node.exe
 0001:0001abc1       __imp_load_?ToNumber@Value@v8@@QEBA?AV?$MaybeLocal@VNumber@v8@@@2@V?$Local@VContext@v8@@@2@@Z 000000018001bbc1 f   node:node.exe
 0001:0001abd0       ??0bad_alloc@std@@QEAA@AEBV01@@Z 000000018001bbd0 f i libcpmt:xthrow.obj
 0001:0001ac10       ??0bad_alloc@std@@QEAA@XZ  000000018001bc10 f i libcpmt:xthrow.obj
 0001:0001ac30       ??0exception@std@@QEAA@AEBV01@@Z 000000018001bc30 f i libcpmt:xthrow.obj
 0001:0001ac68       ??0length_error@std@@QEAA@AEBV01@@Z 000000018001bc68 f i libcpmt:xthrow.obj
 0001:0001aca8       ??0length_error@std@@QEAA@PEBD@Z 000000018001bca8 f i libcpmt:xthrow.obj
 0001:0001acf4       ??0logic_error@std@@QEAA@AEBV01@@Z 000000018001bcf4 f i libcpmt:xthrow.obj
 0001:0001ad34       ??0out_of_range@std@@QEAA@AEBV01@@Z 000000018001bd34 f i libcpmt:xthrow.obj
 0001:0001ad74       ??0out_of_range@std@@QEAA@PEBD@Z 000000018001bd74 f i libcpmt:xthrow.obj
 0001:0001adc0       ??_Ebad_alloc@std@@UEAAPEAXI@Z 000000018001bdc0 f i libcpmt:xthrow.obj
 0001:0001adc0       ??_Elogic_error@std@@UEAAPEAXI@Z 000000018001bdc0 f i libcpmt:xthrow.obj
 0001:0001adc0       ??_Gbad_exception@std@@UEAAPEAXI@Z 000000018001bdc0 f i libvcruntime:frame.obj
 0001:0001adc0       ??_Gout_of_range@std@@UEAAPEAXI@Z 000000018001bdc0 f i libcpmt:xthrow.obj
 0001:0001adc0       ??_Elength_error@std@@UEAAPEAXI@Z 000000018001bdc0 f i libcpmt:xthrow.obj
 0001:0001adc0       ??_Ebad_array_new_length@std@@UEAAPEAXI@Z 000000018001bdc0 f i LIBCMT:throw_bad_alloc.obj
 0001:0001adc0       ??_Eexception@std@@UEAAPEAXI@Z 000000018001bdc0 f i libcpmt:xthrow.obj
 0001:0001adc0       ??_Glogic_error@std@@UEAAPEAXI@Z 000000018001bdc0 f i libcpmt:xthrow.obj
 0001:0001adc0       ??_Gbad_array_new_length@std@@UEAAPEAXI@Z 000000018001bdc0 f i LIBCMT:throw_bad_alloc.obj
 0001:0001adc0       ??_Ebad_exception@std@@UEAAPEAXI@Z 000000018001bdc0 f i libvcruntime:frame.obj
 0001:0001adc0       ??_Gexception@std@@UEAAPEAXI@Z 000000018001bdc0 f i libcpmt:xthrow.obj
 0001:0001adc0       ??_Glength_error@std@@UEAAPEAXI@Z 000000018001bdc0 f i libcpmt:xthrow.obj
 0001:0001adc0       ??_Gbad_alloc@std@@UEAAPEAXI@Z 000000018001bdc0 f i libcpmt:xthrow.obj
 0001:0001adc0       ??_Eout_of_range@std@@UEAAPEAXI@Z 000000018001bdc0 f i libcpmt:xthrow.obj
 0001:0001ae04       ?__scrt_throw_std_bad_alloc@@YAXXZ 000000018001be04 f   LIBCMT:throw_bad_alloc.obj
 0001:0001ae04       ?_Xbad_alloc@std@@YAXXZ    000000018001be04 f   libcpmt:xthrow.obj
 0001:0001ae24       ?_Xlength_error@std@@YAXPEBD@Z 000000018001be24 f   libcpmt:xthrow.obj
 0001:0001ae48       ?_Xout_of_range@std@@YAXPEBD@Z 000000018001be48 f   libcpmt:xthrow.obj
 0001:0001ae6c       ?what@exception@std@@UEBAPEBDXZ 000000018001be6c f i libcpmt:xthrow.obj
 0001:0001ae90       __security_check_cookie    000000018001be90 f   LIBCMT:_amdsecgs_.obj
 0001:0001aeb4       ??2@YAPEAX_K@Z             000000018001beb4 f   LIBCMT:new_scalar.obj
 0001:0001aef0       ??3@YAXPEAX@Z              000000018001bef0 f   LIBCMT:delete_scalar.obj
 0001:0001aef8       ??_V@YAXPEAX@Z             000000018001bef8 f   LIBCMT:delete_array.obj
 0001:0001aef8       ??3@YAXPEAX_K@Z            000000018001bef8 f   LIBCMT:delete_scalar_size.obj
 0001:0001af00       ??_Etype_info@@UEAAPEAXI@Z 000000018001bf00 f i LIBCMT:std_type_info_static.obj
 0001:0001af00       ??_Gtype_info@@UEAAPEAXI@Z 000000018001bf00 f i LIBCMT:std_type_info_static.obj
 0001:0001b074       _Init_thread_footer        000000018001c074 f   LIBCMT:thread_safe_statics.obj
 0001:0001b0d4       _Init_thread_header        000000018001c0d4 f   LIBCMT:thread_safe_statics.obj
 0001:0001b13c       _Init_thread_notify        000000018001c13c f   LIBCMT:thread_safe_statics.obj
 0001:0001b198       _Init_thread_wait          000000018001c198 f   LIBCMT:thread_safe_statics.obj
 0001:0001b230       __scrt_acquire_startup_lock 000000018001c230 f   LIBCMT:utility.obj
 0001:0001b26c       __scrt_dllmain_after_initialize_c 000000018001c26c f   LIBCMT:utility.obj
 0001:0001b2a0       __scrt_dllmain_before_initialize_c 000000018001c2a0 f   LIBCMT:utility.obj
 0001:0001b2b8       __scrt_dllmain_crt_thread_attach 000000018001c2b8 f   LIBCMT:utility.obj
 0001:0001b2e0       __scrt_dllmain_crt_thread_detach 000000018001c2e0 f   LIBCMT:utility.obj
 0001:0001b2f8       __scrt_dllmain_exception_filter 000000018001c2f8 f   LIBCMT:utility.obj
 0001:0001b35c       __scrt_dllmain_uninitialize_c 000000018001c35c f   LIBCMT:utility.obj
 0001:0001b38c       __scrt_dllmain_uninitialize_critical 000000018001c38c f   LIBCMT:utility.obj
 0001:0001b3a0       __scrt_initialize_crt      000000018001c3a0 f   LIBCMT:utility.obj
 0001:0001b3ec       __scrt_initialize_onexit_tables 000000018001c3ec f   LIBCMT:utility.obj
 0001:0001b4b8       __scrt_is_nonwritable_in_current_image 000000018001c4b8 f   LIBCMT:utility.obj
 0001:0001b554       __scrt_release_startup_lock 000000018001c554 f   LIBCMT:utility.obj
 0001:0001b578       __scrt_uninitialize_crt    000000018001c578 f   LIBCMT:utility.obj
 0001:0001b5a4       _onexit                    000000018001c5a4 f   LIBCMT:utility.obj
 0001:0001b5f4       atexit                     000000018001c5f4 f   LIBCMT:utility.obj
 0001:0001b60c       ??_U@YAPEAX_K@Z            000000018001c60c f   LIBCMT:new_array.obj
 0001:0001b960       _DllMainCRTStartup         000000018001c960 f   LIBCMT:dll_dllmain.obj
 0001:0001b9a0       __raise_securityfailure    000000018001c9a0 f   LIBCMT:gs_report.obj
 0001:0001b9d4       __report_gsfailure         000000018001c9d4 f   LIBCMT:gs_report.obj
 0001:0001baa8       __report_rangecheckfailure 000000018001caa8 f   LIBCMT:gs_report.obj
 0001:0001babc       __report_securityfailure   000000018001cabc f   LIBCMT:gs_report.obj
 0001:0001bc3c       ??0bad_array_new_length@std@@QEAA@AEBV01@@Z 000000018001cc3c f i LIBCMT:throw_bad_alloc.obj
 0001:0001bc7c       ??0bad_array_new_length@std@@QEAA@XZ 000000018001cc7c f i LIBCMT:throw_bad_alloc.obj
 0001:0001bc9c       ??1out_of_range@std@@UEAA@XZ 000000018001cc9c f i libcpmt:xthrow.obj
 0001:0001bc9c       ??1bad_alloc@std@@UEAA@XZ  000000018001cc9c f i libcpmt:xthrow.obj
 0001:0001bc9c       ??1bad_exception@std@@UEAA@XZ 000000018001cc9c f i libvcruntime:frame.obj
 0001:0001bc9c       ??1length_error@std@@UEAA@XZ 000000018001cc9c f i libcpmt:xthrow.obj
 0001:0001bc9c       ??1bad_array_new_length@std@@UEAA@XZ 000000018001cc9c f i LIBCMT:throw_bad_alloc.obj
 0001:0001bcb0       ?__scrt_throw_std_bad_array_new_length@@YAXXZ 000000018001ccb0 f   LIBCMT:throw_bad_alloc.obj
 0001:0001bcd0       __crt_debugger_hook        000000018001ccd0 f   LIBCMT:utility_desktop.obj
 0001:0001bcd8       __scrt_fastfail            000000018001ccd8 f   LIBCMT:utility_desktop.obj
 0001:0001be20       _guard_check_icall         000000018001ce20 f i LIBCMT:checkcfg.obj
 0001:0001be28       __isa_available_init       000000018001ce28 f   LIBCMT:_cpu_disp_.obj
 0001:0001bff0       __scrt_is_ucrt_dll_in_use  000000018001cff0 f   LIBCMT:ucrt_detection.obj
 0001:0001bffc       __security_init_cookie     000000018001cffc f   LIBCMT:gs_support.obj
 0001:0001c0a8       _get_startup_argv_mode     000000018001d0a8 f   LIBCMT:argv_mode.obj
 0001:0001c0a8       DllMain                    000000018001d0a8 f   LIBCMT:dll_dllmain_stub.obj
 0001:0001c0b0       ?__scrt_initialize_type_info@@YAXXZ 000000018001d0b0 f   LIBCMT:tncleanup.obj
 0001:0001c0c0       ?__scrt_uninitialize_type_info@@YAXXZ 000000018001d0c0 f   LIBCMT:tncleanup.obj
 0001:0001c0cc       __local_stdio_printf_options 000000018001d0cc f i LIBCMT:default_local_stdio_options.obj
 0001:0001c0d4       __local_stdio_scanf_options 000000018001d0d4 f i LIBCMT:default_local_stdio_options.obj
 0001:0001c0dc       __scrt_initialize_default_local_stdio_options 000000018001d0dc f   LIBCMT:default_local_stdio_options.obj
 0001:0001c0f8       __scrt_get_dyn_tls_init_callback 000000018001d0f8 f   LIBCMT:dyn_tls_init.obj
 0001:0001c100       _RTC_Initialize            000000018001d100 f   LIBCMT:_initsect_.obj
 0001:0001c14c       _RTC_Terminate             000000018001d14c f   LIBCMT:_initsect_.obj
 0001:0001c1a0       __DestructExceptionObject  000000018001d1a0 f   libvcruntime:frame.obj
 0001:0001c228       ??0bad_exception@std@@QEAA@AEBV01@@Z 000000018001d228 f i libvcruntime:frame.obj
 0001:0001c268       ??0bad_exception@std@@QEAA@XZ 000000018001d268 f i libvcruntime:frame.obj
 0001:0001cbe4       ?_CallMemberFunction0@@YAXPEAXP6AX0@Z@Z 000000018001dbe4 f i libvcruntime:frame.obj
 0001:0001cbe8       ?_CallMemberFunction1@@YAXPEAXP6AX0@Z0@Z 000000018001dbe8 f i libvcruntime:frame.obj
 0001:0001cbf4       ?_CallMemberFunction2@@YAXPEAXP6AX0@Z0H@Z 000000018001dbf4 f i libvcruntime:frame.obj
 0001:0001cc04       __AdjustPointer            000000018001dc04 f   libvcruntime:frame.obj
 0001:0001cc28       __BuildCatchObject         000000018001dc28 f   libvcruntime:frame.obj
 0001:0001ccec       __BuildCatchObjectHelper   000000018001dcec f   libvcruntime:frame.obj
 0001:0001cecc       __CxxCallCatchBlock        000000018001decc f   libvcruntime:frame.obj
 0001:0001d0b8       __FrameUnwindFilter        000000018001e0b8 f   libvcruntime:frame.obj
 0001:0001d104       __FrameUnwindToState       000000018001e104 f   libvcruntime:frame.obj
 0001:0001d298       __InternalCxxFrameHandler  000000018001e298 f   libvcruntime:frame.obj
 0001:0001d4f0       __TypeMatch                000000018001e4f0 f   libvcruntime:frame.obj
 0001:0001d630       __std_terminate            000000018001e630 f   libvcruntime:frame.obj
 0001:0001d650       memmove                    000000018001e650 f   libvcruntime:memcpy.obj
 0001:0001d650       memcpy                     000000018001e650 f   libvcruntime:memcpy.obj
 0001:0001da88       _purecall                  000000018001ea88 f   libvcruntime:purevirt.obj
 0001:0001dac4       __std_exception_copy       000000018001eac4 f   libvcruntime:std_exception.obj
 0001:0001db54       __std_exception_destroy    000000018001eb54 f   libvcruntime:std_exception.obj
 0001:0001db7c       _CxxThrowException         000000018001eb7c f   libvcruntime:throw.obj
 0001:0001de1c       __vcrt_FlsAlloc            000000018001ee1c f   libvcruntime:winapi_downlevel.obj
 0001:0001de70       __vcrt_FlsFree             000000018001ee70 f   libvcruntime:winapi_downlevel.obj
 0001:0001dec4       __vcrt_FlsGetValue         000000018001eec4 f   libvcruntime:winapi_downlevel.obj
 0001:0001df18       __vcrt_FlsSetValue         000000018001ef18 f   libvcruntime:winapi_downlevel.obj
 0001:0001df80       __vcrt_InitializeCriticalSectionEx 000000018001ef80 f   libvcruntime:winapi_downlevel.obj
 0001:0001dff8       __vcrt_initialize_winapi_thunks 000000018001eff8 f   libvcruntime:winapi_downlevel.obj
 0001:0001e044       __vcrt_uninitialize_winapi_thunks 000000018001f044 f   libvcruntime:winapi_downlevel.obj
 0001:0001e084       __vcrt_initialize          000000018001f084 f   libvcruntime:initialization.obj
 0001:0001e0b8       __vcrt_thread_attach       000000018001f0b8 f   libvcruntime:initialization.obj
 0001:0001e0cc       __vcrt_thread_detach       000000018001f0cc f   libvcruntime:initialization.obj
 0001:0001e0e0       __vcrt_uninitialize        000000018001f0e0 f   libvcruntime:initialization.obj
 0001:0001e100       __vcrt_uninitialize_critical 000000018001f100 f   libvcruntime:initialization.obj
 0001:0001e110       __C_specific_handler       000000018001f110 f   libvcruntime:_chandler_.obj
 0001:0001e320       memset                     000000018001f320 f   libvcruntime:memset.obj
 0001:0001e4c0       __std_type_info_compare    000000018001f4c0 f   libvcruntime:std_type_info.obj
 0001:0001e4e8       __std_type_info_destroy_list 000000018001f4e8 f   libvcruntime:std_type_info.obj
 0001:0001e514       __vcrt_freefls             000000018001f514 f   libvcruntime:per_thread_data.obj
 0001:0001e534       __vcrt_freeptd             000000018001f534 f   libvcruntime:per_thread_data.obj
 0001:0001e584       __vcrt_getptd              000000018001f584 f   libvcruntime:per_thread_data.obj
 0001:0001e5a0       __vcrt_getptd_noexit       000000018001f5a0 f   libvcruntime:per_thread_data.obj
 0001:0001e658       __vcrt_initialize_ptd      000000018001f658 f   libvcruntime:per_thread_data.obj
 0001:0001e698       __vcrt_uninitialize_ptd    000000018001f698 f   libvcruntime:per_thread_data.obj
 0001:0001e6bc       ?__GetCurrentState@@YAHPEA_KPEAU_xDISPATCHER_CONTEXT@@PEBU_s_FuncInfo@@@Z 000000018001f6bc f   libvcruntime:ehstate.obj
 0001:0001e6e4       ?__GetUnwindTryBlock@@YAHPEA_KPEAU_xDISPATCHER_CONTEXT@@PEBU_s_FuncInfo@@@Z 000000018001f6e4 f   libvcruntime:ehstate.obj
 0001:0001e710       ?__SetState@@YAXPEA_KPEAU_xDISPATCHER_CONTEXT@@PEBU_s_FuncInfo@@H@Z 000000018001f710 f   libvcruntime:ehstate.obj
 0001:0001e71c       ?__SetUnwindTryBlock@@YAXPEA_KPEAU_xDISPATCHER_CONTEXT@@PEBU_s_FuncInfo@@H@Z 000000018001f71c f   libvcruntime:ehstate.obj
 0001:0001e758       ?__StateFromControlPc@@YAHPEBU_s_FuncInfo@@PEAU_xDISPATCHER_CONTEXT@@@Z 000000018001f758 f   libvcruntime:ehstate.obj
 0001:0001e760       ?__StateFromIp@@YAHPEBU_s_FuncInfo@@PEAU_xDISPATCHER_CONTEXT@@_J@Z 000000018001f760 f   libvcruntime:ehstate.obj
 0001:0001e7e0       _CallSettingFrame          000000018001f7e0 f   libvcruntime:handlers.obj
 0001:0001e820       ?_ExecutionInCatch@@YAHPEAU_xDISPATCHER_CONTEXT@@PEBU_s_FuncInfo@@@Z 000000018001f820 f   libvcruntime:trnsctrl.obj
 0001:0001e894       ?_GetEstablisherFrame@@YAPEA_KPEA_KPEAU_xDISPATCHER_CONTEXT@@PEBU_s_FuncInfo@@0@Z 000000018001f894 f   libvcruntime:trnsctrl.obj
 0001:0001e960       ?_GetRangeOfTrysToCheck@@YAPEBU_s_TryBlockMapEntry@@PEA_KPEBU_s_FuncInfo@@HHPEAI2PEAU_xDISPATCHER_CONTEXT@@@Z 000000018001f960 f   libvcruntime:trnsctrl.obj
 0001:0001ea8c       ?__FrameUnwindToEmptyState@@YAXPEA_KPEAU_xDISPATCHER_CONTEXT@@PEBU_s_FuncInfo@@@Z 000000018001fa8c f   libvcruntime:trnsctrl.obj
 0001:0001eb20       ?__SehTransFilter@@YAHPEAU_EXCEPTION_POINTERS@@PEAUEHExceptionRecord@@PEA_KPEAU_CONTEXT@@PEAU_xDISPATCHER_CONTEXT@@PEBU_s_FuncInfo@@PEAH@Z 000000018001fb20 f   libvcruntime:trnsctrl.obj
 0001:0001ebb8       _CallSETranslator          000000018001fbb8 f   libvcruntime:trnsctrl.obj
 0001:0001ec10       _CreateFrameInfo           000000018001fc10 f   libvcruntime:trnsctrl.obj
 0001:0001ec4c       _FindAndUnlinkFrame        000000018001fc4c f   libvcruntime:trnsctrl.obj
 0001:0001eca4       _GetImageBase              000000018001fca4 f   libvcruntime:trnsctrl.obj
 0001:0001ecb8       _GetThrowImageBase         000000018001fcb8 f   libvcruntime:trnsctrl.obj
 0001:0001eccc       _IsExceptionObjectToBeDestroyed 000000018001fccc f   libvcruntime:trnsctrl.obj
 0001:0001ecfc       _SetImageBase              000000018001fcfc f   libvcruntime:trnsctrl.obj
 0001:0001ed14       _SetThrowImageBase         000000018001fd14 f   libvcruntime:trnsctrl.obj
 0001:0001ed2c       _UnwindNestedFrames        000000018001fd2c f   libvcruntime:trnsctrl.obj
 0001:0001ee50       __CxxFrameHandler3         000000018001fe50 f   libvcruntime:trnsctrl.obj
 0001:0001eee0       _local_unwind              000000018001fee0 f   libvcruntime:_jmpuwind_.obj
 0001:0001ef10       _NLG_Notify                000000018001ff10 f   libvcruntime:_jmpuwind_.obj
 0001:0001ef30       __NLG_Dispatch2            000000018001ff30 f   libvcruntime:_jmpuwind_.obj
 0001:0001ef40       __NLG_Return2              000000018001ff40 f   libvcruntime:_jmpuwind_.obj
 0001:0001ef44       __vcrt_initialize_pure_virtual_call_handler 000000018001ff44 f   libvcruntime:purevirt_data.obj
 0001:0001ef68       __vcrt_initialize_locks    000000018001ff68 f   libvcruntime:locks.obj
 0001:0001efb0       __vcrt_uninitialize_locks  000000018001ffb0 f   libvcruntime:locks.obj
 0001:0001efe8       __acrt_call_reportfault    000000018001ffe8 f   libucrt:invalid_parameter.obj
 0001:0001f144       __acrt_initialize_invalid_parameter_handler 0000000180020144 f   libucrt:invalid_parameter.obj
 0001:0001f14c       _invalid_parameter         000000018002014c f   libucrt:invalid_parameter.obj
 0001:0001f1f4       _invalid_parameter_noinfo  00000001800201f4 f   libucrt:invalid_parameter.obj
 0001:0001f214       _invalid_parameter_noinfo_noreturn 0000000180020214 f   libucrt:invalid_parameter.obj
 0001:0001f244       _invoke_watson             0000000180020244 f   libucrt:invalid_parameter.obj
 0001:0001fc74       ??$ftprintf@PEAU_iobuf@@PEB_WAEBQEB_WAEBQEB_WAEBI@?$__crt_char_traits@_W@@SAH$$QEAPEAU_iobuf@@$$QEAPEB_WAEBQEB_W2AEBI@Z 0000000180020c74 f i libucrt:assert.obj
 0001:0001fc9c       _wassert                   0000000180020c9c f   libucrt:assert.obj
 0001:0001fd20       fwprintf                   0000000180020d20 f i libucrt:assert.obj
 0001:0001fd64       swprintf                   0000000180020d64 f i libucrt:assert.obj
 0001:0001fdb8       ??0_LocaleUpdate@@QEAA@QEAU__crt_locale_pointers@@@Z 0000000180020db8 f i libucrt:stricmp.obj
 0001:0001fe48       __ascii_stricmp            0000000180020e48 f   libucrt:stricmp.obj
 0001:0001fe84       _stricmp                   0000000180020e84 f   libucrt:stricmp.obj
 0001:0001fecc       _stricmp_l                 0000000180020ecc f   libucrt:stricmp.obj
 0001:0001ff80       __acrt_initialize_new_handler 0000000180020f80 f   libucrt:new_handler.obj
 0001:0001ff88       _callnewh                  0000000180020f88 f   libucrt:new_handler.obj
 0001:0001ffc8       _query_new_handler         0000000180020fc8 f   libucrt:new_handler.obj
 0001:0001fffc       malloc                     0000000180020ffc f   libucrt:malloc.obj
 0001:00020004       free                       0000000180021004 f   libucrt:free.obj
 0001:0002000c       _seh_filter_dll            000000018002100c f   libucrt:exception_filter.obj
 0001:00020020       _seh_filter_exe            0000000180021020 f   libucrt:exception_filter.obj
 0001:000203e0       __acrt_initialize_thread_local_exit_callback 00000001800213e0 f   libucrt:exit.obj
 0001:000203e8       _cexit                     00000001800213e8 f   libucrt:exit.obj
 0001:000203f8       _exit                      00000001800213f8 f   libucrt:exit.obj
 0001:00020404       _is_c_termination_complete 0000000180021404 f   libucrt:exit.obj
 0001:000205c8       __acrt_allocate_buffer_for_argv 00000001800215c8 f   libucrt:argv_parsing.obj
 0001:0002062c       _configure_narrow_argv     000000018002162c f   libucrt:argv_parsing.obj
 0001:00020988       __dcrt_uninitialize_environments_nolock 0000000180021988 f   libucrt:environment_initialization.obj
 0001:000209c0       _initialize_narrow_environment 00000001800219c0 f   libucrt:environment_initialization.obj
 0001:000209c8       ??$?RV<lambda_b8c45f8f788dd370798f47cfe8ac3a86>@@AEAV<lambda_4e60a939b0d047cfe11ddc22648dfba9>@@V<lambda_332c3edc96d0294ec56c57d38c1cdfd5>@@@?$__crt_seh_guarded_call@H@@QEAAH$$QEAV<lambda_b8c45f8f788dd370798f47cfe8ac3a86>@@AEAV<lambda_4e60a939b0d047cfe11ddc22648dfba9>@@$$QEAV<lambda_332c3edc96d0294ec56c57d38c1cdfd5>@@@Z 00000001800219c8 f i libucrt:onexit.obj
 0001:00020a04       ??$?RV<lambda_e24bbb7b643b32fcea6fa61b31d4c984>@@AEAV<lambda_275893d493268fdec8709772e3fcec0e>@@V<lambda_9d71df4d7cf3f480f8d633942495c3b0>@@@?$__crt_seh_guarded_call@H@@QEAAH$$QEAV<lambda_e24bbb7b643b32fcea6fa61b31d4c984>@@AEAV<lambda_275893d493268fdec8709772e3fcec0e>@@$$QEAV<lambda_9d71df4d7cf3f480f8d633942495c3b0>@@@Z 0000000180021a04 f i libucrt:onexit.obj
 0001:00020d80       _crt_atexit                0000000180021d80 f   libucrt:onexit.obj
 0001:00020d90       _execute_onexit_table      0000000180021d90 f   libucrt:onexit.obj
 0001:00020dcc       _initialize_onexit_table   0000000180021dcc f   libucrt:onexit.obj
 0001:00020e0c       _register_onexit_function  0000000180021e0c f   libucrt:onexit.obj
 0001:00020f88       __acrt_uninitialize_command_line 0000000180021f88 f   libucrt:argv_data.obj
 0001:00020f8c       __acrt_initialize          0000000180021f8c f   libucrt:initialization.obj
 0001:00020fa0       __acrt_thread_attach       0000000180021fa0 f   libucrt:initialization.obj
 0001:00020fb4       __acrt_thread_detach       0000000180021fb4 f   libucrt:initialization.obj
 0001:00020fc4       __acrt_uninitialize        0000000180021fc4 f   libucrt:initialization.obj
 0001:00020fd8       __acrt_uninitialize_critical 0000000180021fd8 f   libucrt:initialization.obj
 0001:00020fe8       _initterm                  0000000180021fe8 f   libucrt:initterm.obj
 0001:00021060       _initterm_e                0000000180022060 f   libucrt:initterm.obj
 0001:000210ac       terminate                  00000001800220ac f   libucrt:terminate.obj
 0001:000210d4       abort                      00000001800220d4 f   libucrt:abort.obj
 0001:0002112c       strcpy_s                   000000018002212c f   libucrt:strcpy_s.obj
 0001:0002118c       _free_base                 000000018002218c f   libucrt:free_base.obj
 0001:000211cc       _malloc_base               00000001800221cc f   libucrt:malloc_base.obj
 0001:0002122c       _calloc_base               000000018002222c f   libucrt:calloc_base.obj
 0001:000212a4       ??$?RV<lambda_7b91131dde12e1c3dfc74ff76b3f2eac>@@AEAV<lambda_dd75445284c072d0bd3768540cc698fa>@@V<lambda_16bc4ecb55b4718497c16bceaea2ceaf>@@@?$__crt_seh_guarded_call@H@@QEAAH$$QEAV<lambda_7b91131dde12e1c3dfc74ff76b3f2eac>@@AEAV<lambda_dd75445284c072d0bd3768540cc698fa>@@$$QEAV<lambda_16bc4ecb55b4718497c16bceaea2ceaf>@@@Z 00000001800222a4 f i libucrt:output.obj
 0001:000212e4       ??$ensure_buffer_is_big_enough@D@formatting_buffer@__crt_stdio_output@@QEAA_N_K@Z 00000001800222e4 f i libucrt:output.obj
 0001:00021390       ??$is_wide_character_specifier@_W@__crt_stdio_output@@YA_N_K_WW4length_modifier@0@@Z 0000000180022390 f i libucrt:output.obj
 0001:000213d4       ??$type_case_integer_parse_into_buffer@I@?$output_processor@_WV?$stream_output_adapter@_W@__crt_stdio_output@@V?$standard_base@_WV?$stream_output_adapter@_W@__crt_stdio_output@@@2@@__crt_stdio_output@@AEAAXII_N@Z 00000001800223d4 f i libucrt:output.obj
 0001:000213d4       ??$type_case_integer_parse_into_buffer@I@?$output_processor@_WV?$string_output_adapter@_W@__crt_stdio_output@@V?$standard_base@_WV?$string_output_adapter@_W@__crt_stdio_output@@@2@@__crt_stdio_output@@AEAAXII_N@Z 00000001800223d4 f i libucrt:output.obj
 0001:00021470       ??$type_case_integer_parse_into_buffer@_K@?$output_processor@_WV?$string_output_adapter@_W@__crt_stdio_output@@V?$standard_base@_WV?$string_output_adapter@_W@__crt_stdio_output@@@2@@__crt_stdio_output@@AEAAX_KI_N@Z 0000000180022470 f i libucrt:output.obj
 0001:00021470       ??$type_case_integer_parse_into_buffer@_K@?$output_processor@_WV?$stream_output_adapter@_W@__crt_stdio_output@@V?$standard_base@_WV?$stream_output_adapter@_W@__crt_stdio_output@@@2@@__crt_stdio_output@@AEAAX_KI_N@Z 0000000180022470 f i libucrt:output.obj
 0001:0002150c       ??$write_multiple_characters@V?$stream_output_adapter@_W@__crt_stdio_output@@D@__crt_stdio_output@@YAXAEBV?$stream_output_adapter@_W@0@DHQEAH@Z 000000018002250c f i libucrt:output.obj
 0001:0002159c       ??$write_multiple_characters@V?$string_output_adapter@_W@__crt_stdio_output@@D@__crt_stdio_output@@YAXAEBV?$string_output_adapter@_W@0@DHQEAH@Z 000000018002259c f i libucrt:output.obj
 0001:0002160c       ??0?$output_processor@_WV?$string_output_adapter@_W@__crt_stdio_output@@V?$standard_base@_WV?$string_output_adapter@_W@__crt_stdio_output@@@2@@__crt_stdio_output@@QEAA@AEBV?$string_output_adapter@_W@1@_KQEB_WQEAU__crt_locale_pointers@@QEAD@Z 000000018002260c f i libucrt:output.obj
 0001:0002160c       ??0?$output_processor@_WV?$stream_output_adapter@_W@__crt_stdio_output@@V?$standard_base@_WV?$stream_output_adapter@_W@__crt_stdio_output@@@2@@__crt_stdio_output@@QEAA@AEBV?$stream_output_adapter@_W@1@_KQEB_WQEAU__crt_locale_pointers@@QEAD@Z 000000018002260c f i libucrt:output.obj
 0001:0002177c       ?force_decimal_point@__crt_stdio_output@@YAXPEADQEAU__crt_locale_pointers@@@Z 000000018002277c f i libucrt:output.obj
 0001:000217ec       ?parse_int_from_format_string@?$output_processor@_WV?$stream_output_adapter@_W@__crt_stdio_output@@V?$standard_base@_WV?$stream_output_adapter@_W@__crt_stdio_output@@@2@@__crt_stdio_output@@AEAA_NQEAH@Z 00000001800227ec f i libucrt:output.obj
 0001:000217ec       ?parse_int_from_format_string@?$output_processor@_WV?$string_output_adapter@_W@__crt_stdio_output@@V?$standard_base@_WV?$string_output_adapter@_W@__crt_stdio_output@@@2@@__crt_stdio_output@@AEAA_NQEAH@Z 00000001800227ec f i libucrt:output.obj
 0001:0002186c       ?process@?$output_processor@_WV?$stream_output_adapter@_W@__crt_stdio_output@@V?$standard_base@_WV?$stream_output_adapter@_W@__crt_stdio_output@@@2@@__crt_stdio_output@@QEAAHXZ 000000018002286c f i libucrt:output.obj
 0001:00021ae4       ?process@?$output_processor@_WV?$string_output_adapter@_W@__crt_stdio_output@@V?$standard_base@_WV?$string_output_adapter@_W@__crt_stdio_output@@@2@@__crt_stdio_output@@QEAAHXZ 0000000180022ae4 f i libucrt:output.obj
 0001:00021d60       ?state_case_size@?$output_processor@_WV?$stream_output_adapter@_W@__crt_stdio_output@@V?$standard_base@_WV?$stream_output_adapter@_W@__crt_stdio_output@@@2@@__crt_stdio_output@@AEAA_NXZ 0000000180022d60 f i libucrt:output.obj
 0001:00021f04       ?state_case_size@?$output_processor@_WV?$string_output_adapter@_W@__crt_stdio_output@@V?$standard_base@_WV?$string_output_adapter@_W@__crt_stdio_output@@@2@@__crt_stdio_output@@AEAA_NXZ 0000000180022f04 f i libucrt:output.obj
 0001:000220a8       ?state_case_type@?$output_processor@_WV?$stream_output_adapter@_W@__crt_stdio_output@@V?$standard_base@_WV?$stream_output_adapter@_W@__crt_stdio_output@@@2@@__crt_stdio_output@@AEAA_NXZ 00000001800230a8 f i libucrt:output.obj
 0001:00022374       ?state_case_type@?$output_processor@_WV?$string_output_adapter@_W@__crt_stdio_output@@V?$standard_base@_WV?$string_output_adapter@_W@__crt_stdio_output@@@2@@__crt_stdio_output@@AEAA_NXZ 0000000180023374 f i libucrt:output.obj
 0001:00022640       ?type_case_Z@?$output_processor@_WV?$string_output_adapter@_W@__crt_stdio_output@@V?$standard_base@_WV?$string_output_adapter@_W@__crt_stdio_output@@@2@@__crt_stdio_output@@AEAA_NXZ 0000000180023640 f i libucrt:output.obj
 0001:00022640       ?type_case_Z@?$output_processor@_WV?$stream_output_adapter@_W@__crt_stdio_output@@V?$standard_base@_WV?$stream_output_adapter@_W@__crt_stdio_output@@@2@@__crt_stdio_output@@AEAA_NXZ 0000000180023640 f i libucrt:output.obj
 0001:000226c0       ?type_case_a@?$output_processor@_WV?$string_output_adapter@_W@__crt_stdio_output@@V?$standard_base@_WV?$string_output_adapter@_W@__crt_stdio_output@@@2@@__crt_stdio_output@@AEAA_NXZ 00000001800236c0 f i libucrt:output.obj
 0001:000226c0       ?type_case_a@?$output_processor@_WV?$stream_output_adapter@_W@__crt_stdio_output@@V?$standard_base@_WV?$stream_output_adapter@_W@__crt_stdio_output@@@2@@__crt_stdio_output@@AEAA_NXZ 00000001800236c0 f i libucrt:output.obj
 0001:00022904       ?type_case_c_tchar@?$output_processor@_WV?$stream_output_adapter@_W@__crt_stdio_output@@V?$standard_base@_WV?$stream_output_adapter@_W@__crt_stdio_output@@@2@@__crt_stdio_output@@AEAA_N_W@Z 0000000180023904 f i libucrt:output.obj
 0001:00022904       ?type_case_c_tchar@?$output_processor@_WV?$string_output_adapter@_W@__crt_stdio_output@@V?$standard_base@_WV?$string_output_adapter@_W@__crt_stdio_output@@@2@@__crt_stdio_output@@AEAA_N_W@Z 0000000180023904 f i libucrt:output.obj
 0001:000229ac       ?type_case_integer@?$output_processor@_WV?$stream_output_adapter@_W@__crt_stdio_output@@V?$standard_base@_WV?$stream_output_adapter@_W@__crt_stdio_output@@@2@@__crt_stdio_output@@AEAA_NI_N@Z 00000001800239ac f i libucrt:output.obj
 0001:000229ac       ?type_case_integer@?$output_processor@_WV?$string_output_adapter@_W@__crt_stdio_output@@V?$standard_base@_WV?$string_output_adapter@_W@__crt_stdio_output@@@2@@__crt_stdio_output@@AEAA_NI_N@Z 00000001800239ac f i libucrt:output.obj
 0001:00022b4c       ?type_case_n@?$output_processor@_WV?$stream_output_adapter@_W@__crt_stdio_output@@V?$standard_base@_WV?$stream_output_adapter@_W@__crt_stdio_output@@@2@@__crt_stdio_output@@AEAA_NXZ 0000000180023b4c f i libucrt:output.obj
 0001:00022b4c       ?type_case_n@?$output_processor@_WV?$string_output_adapter@_W@__crt_stdio_output@@V?$standard_base@_WV?$string_output_adapter@_W@__crt_stdio_output@@@2@@__crt_stdio_output@@AEAA_NXZ 0000000180023b4c f i libucrt:output.obj
 0001:00022c28       ?type_case_s@?$output_processor@_WV?$stream_output_adapter@_W@__crt_stdio_output@@V?$standard_base@_WV?$stream_output_adapter@_W@__crt_stdio_output@@@2@@__crt_stdio_output@@AEAA_NXZ 0000000180023c28 f i libucrt:output.obj
 0001:00022c28       ?type_case_s@?$output_processor@_WV?$string_output_adapter@_W@__crt_stdio_output@@V?$standard_base@_WV?$string_output_adapter@_W@__crt_stdio_output@@@2@@__crt_stdio_output@@AEAA_NXZ 0000000180023c28 f i libucrt:output.obj
 0001:00022cf0       ?write_stored_string_tchar@?$output_processor@_WV?$stream_output_adapter@_W@__crt_stdio_output@@V?$standard_base@_WV?$stream_output_adapter@_W@__crt_stdio_output@@@2@@__crt_stdio_output@@AEAA_N_W@Z 0000000180023cf0 f i libucrt:output.obj
 0001:00022ddc       ?write_stored_string_tchar@?$output_processor@_WV?$string_output_adapter@_W@__crt_stdio_output@@V?$standard_base@_WV?$string_output_adapter@_W@__crt_stdio_output@@@2@@__crt_stdio_output@@AEAA_N_W@Z 0000000180023ddc f i libucrt:output.obj
 0001:00022ecc       ?write_string@?$stream_output_adapter@_W@__crt_stdio_output@@QEBAXQEB_WHQEAH1@Z 0000000180023ecc f i libucrt:output.obj
 0001:00022fd8       ?write_string@?$string_output_adapter@_W@__crt_stdio_output@@QEBAXQEB_WHQEAH1@Z 0000000180023fd8 f i libucrt:output.obj
 0001:00023098       __stdio_common_vfwprintf   0000000180024098 f   libucrt:output.obj
 0001:00023124       __stdio_common_vswprintf   0000000180024124 f   libucrt:output.obj
 0001:0002335c       ??$is_overflow_condition@K@__crt_strtox@@YA_NIK@Z 000000018002435c f i libucrt:atox.obj
 0001:00023388       ??$parse_integer@KV?$c_string_character_source@_W@__crt_strtox@@@__crt_strtox@@YAKQEAU__crt_locale_pointers@@V?$c_string_character_source@_W@0@H_N@Z 0000000180024388 f i libucrt:atox.obj
 0001:00023a5c       ??$?RV<lambda_46352004c1216016012b18bd6f87e700>@@AEAV<lambda_3bd07e1a1191394380780325891bf33f>@@V<lambda_334532d3f185bcaa59b5be82d7d22bff>@@@?$__crt_seh_guarded_call@X@@QEAAX$$QEAV<lambda_46352004c1216016012b18bd6f87e700>@@AEAV<lambda_3bd07e1a1191394380780325891bf33f>@@$$QEAV<lambda_334532d3f185bcaa59b5be82d7d22bff>@@@Z 0000000180024a5c f i libucrt:per_thread_data.obj
 0001:00023abc       ??$?RV<lambda_5e887d1dcbef67a5eb4283622ba103bf>@@AEAV<lambda_4466841279450cc726390878d4a41900>@@V<lambda_341c25c0346d94847f1f3c463c57e077>@@@?$__crt_seh_guarded_call@X@@QEAAX$$QEAV<lambda_5e887d1dcbef67a5eb4283622ba103bf>@@AEAV<lambda_4466841279450cc726390878d4a41900>@@$$QEAV<lambda_341c25c0346d94847f1f3c463c57e077>@@@Z 0000000180024abc f i libucrt:per_thread_data.obj
 0001:00023b04       ??$?RV<lambda_72d1df2b273a38828b1ce30cbf4cdab5>@@AEAV<lambda_876a65b173b8412d3a47c70a915b0cf4>@@V<lambda_41932305e351933ebe8f8be3ed8bb5dc>@@@?$__crt_seh_guarded_call@X@@QEAAX$$QEAV<lambda_72d1df2b273a38828b1ce30cbf4cdab5>@@AEAV<lambda_876a65b173b8412d3a47c70a915b0cf4>@@$$QEAV<lambda_41932305e351933ebe8f8be3ed8bb5dc>@@@Z 0000000180024b04 f i libucrt:per_thread_data.obj
 0001:00023b44       ??$?RV<lambda_fb3a7dec4e47f37f22dae91bb15c9095>@@AEAV<lambda_698284760c8add0bfb0756c19673e34b>@@V<lambda_dfb8eca1e75fef3034a8fb18dd509707>@@@?$__crt_seh_guarded_call@X@@QEAAX$$QEAV<lambda_fb3a7dec4e47f37f22dae91bb15c9095>@@AEAV<lambda_698284760c8add0bfb0756c19673e34b>@@$$QEAV<lambda_dfb8eca1e75fef3034a8fb18dd509707>@@@Z 0000000180024b44 f i libucrt:per_thread_data.obj
 0001:00023dd4       __acrt_freeptd             0000000180024dd4 f   libucrt:per_thread_data.obj
 0001:00023e18       __acrt_getptd              0000000180024e18 f   libucrt:per_thread_data.obj
 0001:00023eac       __acrt_getptd_noexit       0000000180024eac f   libucrt:per_thread_data.obj
 0001:00023f4c       __acrt_initialize_ptd      0000000180024f4c f   libucrt:per_thread_data.obj
 0001:00023f88       __acrt_uninitialize_ptd    0000000180024f88 f   libucrt:per_thread_data.obj
 0001:00023fac       _query_app_type            0000000180024fac f   libucrt:report_runtime_error.obj
 0001:00023fb4       __acrt_errno_from_os_error 0000000180024fb4 f   libucrt:errno.obj
 0001:00023ffc       __acrt_errno_map_os_error  0000000180024ffc f   libucrt:errno.obj
 0001:0002404c       __doserrno                 000000018002504c f   libucrt:errno.obj
 0001:0002406c       _errno                     000000018002506c f   libucrt:errno.obj
 0001:000241b4       _itow_s                    00000001800251b4 f   libucrt:xtoa.obj
 0001:000241d4       _set_error_mode            00000001800251d4 f   libucrt:set_error_mode.obj
 0001:00024214       wcscat_s                   0000000180025214 f   libucrt:wcscat_s.obj
 0001:00024294       wcscpy_s                   0000000180025294 f   libucrt:wcscpy_s.obj
 0001:000242fc       wcsncat_s                  00000001800252fc f   libucrt:wcsncat_s.obj
 0001:00024424       __acrt_show_wide_message_box 0000000180025424 f   libucrt:crtmbox.obj
 0001:00024540       __acrt_initialize_stdio    0000000180025540 f   libucrt:_file.obj
 0001:00024660       __acrt_iob_func            0000000180025660 f   libucrt:_file.obj
 0001:00024674       __acrt_uninitialize_stdio  0000000180025674 f   libucrt:_file.obj
 0001:000246d0       _lock_file                 00000001800256d0 f   libucrt:_file.obj
 0001:000246dc       _unlock_file               00000001800256dc f   libucrt:_file.obj
 0001:000246e8       __acrt_stdio_flush_nolock  00000001800256e8 f   libucrt:fflush.obj
 0001:00024760       _fflush_nolock             0000000180025760 f   libucrt:fflush.obj
 0001:000247ac       _flushall                  00000001800257ac f   libucrt:fflush.obj
 0001:0002489c       fflush                     000000018002589c f   libucrt:fflush.obj
 0001:000248e0       ??$?RV<lambda_7a5ef57ff966f610505f1d28a3d40618>@@AEAV<lambda_b721fa326cdb32351d23dfa67958c160>@@V<lambda_5e0fb27672408a07956fe59e48ccb2aa>@@@?$__crt_seh_guarded_call@H@@QEAAH$$QEAV<lambda_7a5ef57ff966f610505f1d28a3d40618>@@AEAV<lambda_b721fa326cdb32351d23dfa67958c160>@@$$QEAV<lambda_5e0fb27672408a07956fe59e48ccb2aa>@@@Z 00000001800258e0 f i libucrt:setvbuf.obj
 0001:00024a10       setvbuf                    0000000180025a10 f   libucrt:setvbuf.obj
 0001:00024ab0       ??$?RV<lambda_c36588078e9f5dfd39652860aa6b3aaf>@@AEAV<lambda_ec61778202f4f5fc7e7711acc23c3bca>@@V<lambda_dc9d2797ccde5d239b4a0efae8ebd7db>@@@?$__crt_seh_guarded_call@P6AXH@Z@@QEAAP6AXH@Z$$QEAV<lambda_c36588078e9f5dfd39652860aa6b3aaf>@@AEAV<lambda_ec61778202f4f5fc7e7711acc23c3bca>@@$$QEAV<lambda_dc9d2797ccde5d239b4a0efae8ebd7db>@@@Z 0000000180025ab0 f i libucrt:signal.obj
 0001:00024af8       __acrt_get_sigabrt_handler 0000000180025af8 f   libucrt:signal.obj
 0001:00024b28       __acrt_initialize_signal_handlers 0000000180025b28 f   libucrt:signal.obj
 0001:00024b48       raise                      0000000180025b48 f   libucrt:signal.obj
 0001:00024e34       _tolower_l                 0000000180025e34 f   libucrt:tolower_toupper.obj
 0001:00024f74       tolower                    0000000180025f74 f   libucrt:tolower_toupper.obj
 0001:00024fa0       __acrt_update_locale_info  0000000180025fa0 f   libucrt:locale_update.obj
 0001:00024fd4       __acrt_update_multibyte_info 0000000180025fd4 f   libucrt:locale_update.obj
 0001:00025008       __acrt_set_locale_changed  0000000180026008 f   libucrt:wsetlocale.obj
 0001:00025014       __acrt_uninitialize_locale 0000000180026014 f   libucrt:wsetlocale.obj
 0001:0002505c       __acrt_initialize_locks    000000018002605c f   libucrt:locks.obj
 0001:000250a4       __acrt_lock                00000001800260a4 f   libucrt:locks.obj
 0001:000250c0       __acrt_uninitialize_locks  00000001800260c0 f   libucrt:locks.obj
 0001:000250f8       __acrt_unlock              00000001800260f8 f   libucrt:locks.obj
 0001:000252b4       __acrt_FlsAlloc            00000001800262b4 f   libucrt:winapi_thunks.obj
 0001:0002530c       __acrt_FlsFree             000000018002630c f   libucrt:winapi_thunks.obj
 0001:00025364       __acrt_FlsGetValue         0000000180026364 f   libucrt:winapi_thunks.obj
 0001:000253bc       __acrt_FlsSetValue         00000001800263bc f   libucrt:winapi_thunks.obj
 0001:00025424       __acrt_InitializeCriticalSectionEx 0000000180026424 f   libucrt:winapi_thunks.obj
 0001:0002549c       __acrt_LCMapStringEx       000000018002649c f   libucrt:winapi_thunks.obj
 0001:0002558c       __acrt_LocaleNameToLCID    000000018002658c f   libucrt:winapi_thunks.obj
 0001:000255f4       __acrt_MessageBoxW         00000001800265f4 f   libucrt:winapi_thunks.obj
 0001:0002567c       __acrt_can_show_message_box 000000018002667c f   libucrt:winapi_thunks.obj
 0001:000256d8       __acrt_get_parent_window   00000001800266d8 f   libucrt:winapi_thunks.obj
 0001:00025768       __acrt_initialize_winapi_thunks 0000000180026768 f   libucrt:winapi_thunks.obj
 0001:000257a0       __acrt_is_interactive      00000001800267a0 f   libucrt:winapi_thunks.obj
 0001:00025874       __acrt_is_packaged_app     0000000180026874 f   libucrt:winapi_thunks.obj
 0001:000258fc       __acrt_uninitialize_winapi_thunks 00000001800268fc f   libucrt:winapi_thunks.obj
 0001:00025e1c       ?expand_if_necessary@?$argument_list@D@?A0xca0879c4@@AEAAHXZ 0000000180026e1c f i libucrt:argv_wildcards.obj
 0001:00025ee4       __acrt_expand_narrow_argv_wildcards 0000000180026ee4 f   libucrt:argv_wildcards.obj
 0001:00025eec       ??$?RV<lambda_99476a1ad63dd22509b5d3e65b0ffc95>@@AEAV<lambda_ad1ced32f4ac17aa236e5ef05d6b3b7c>@@V<lambda_f7424dd8d45958661754dc4f2697e9c3>@@@?$__crt_seh_guarded_call@X@@QEAAX$$QEAV<lambda_99476a1ad63dd22509b5d3e65b0ffc95>@@AEAV<lambda_ad1ced32f4ac17aa236e5ef05d6b3b7c>@@$$QEAV<lambda_f7424dd8d45958661754dc4f2697e9c3>@@@Z 0000000180026eec f i libucrt:mbctype.obj
 0001:000265e8       __acrt_initialize_multibyte 00000001800275e8 f   libucrt:mbctype.obj
 0001:00026610       __acrt_update_thread_multibyte_data 0000000180027610 f   libucrt:mbctype.obj
 0001:000266d0       _setmbcp_nolock            00000001800276d0 f   libucrt:mbctype.obj
 0001:000269f0       _ismbblead                 00000001800279f0 f   libucrt:ismbbyte.obj
 0001:00026a04       __acrt_initialize_command_line 0000000180027a04 f   libucrt:argv_data.obj
 0001:00026a2c       __dcrt_get_narrow_environment_from_os 0000000180027a2c f   libucrt:get_environment_from_os.obj
 0001:00026b30       _recalloc                  0000000180027b30 f   libucrt:recalloc.obj
 0001:00026b38       _recalloc_base             0000000180027b38 f   libucrt:recalloc.obj
 0001:00026bd0       __acrt_initialize_heap     0000000180027bd0 f   libucrt:heap_handle.obj
 0001:00026bec       __acrt_uninitialize_heap   0000000180027bec f   libucrt:heap_handle.obj
 0001:00026de0       __acrt_initialize_lowio    0000000180027de0 f   libucrt:ioinit.obj
 0001:00026e1c       __acrt_uninitialize_lowio  0000000180027e1c f   libucrt:ioinit.obj
 0001:00026e5c       __acrt_execute_initializers 0000000180027e5c f   libucrt:shared_initialization.obj
 0001:00026ef0       __acrt_execute_uninitializers 0000000180027ef0 f   libucrt:shared_initialization.obj
 0001:00026f40       __acrt_has_user_matherr    0000000180027f40 f   libucrt:matherr.obj
 0001:00026f60       __acrt_initialize_user_matherr 0000000180027f60 f   libucrt:matherr.obj
 0001:00026f68       __acrt_invoke_user_matherr 0000000180027f68 f   libucrt:matherr.obj
 0001:00026fb0       __acrt_stdio_begin_temporary_buffering_nolock 0000000180027fb0 f   libucrt:_sftbuf.obj
 0001:00027080       __acrt_stdio_end_temporary_buffering_nolock 0000000180028080 f   libucrt:_sftbuf.obj
 0001:000270bc       _query_new_mode            00000001800280bc f   libucrt:new_mode.obj
 0001:000270c4       isdigit                    00000001800280c4 f i libucrt:_ctype.obj
 0001:00027138       ??$make_c_string_character_source@_WPEAPEA_W@__crt_strtox@@YA?AV?$c_string_character_source@_W@0@QEB_WQEAPEA_W@Z 0000000180028138 f i libucrt:strtox.obj
 0001:0002714c       wcstol                     000000018002814c f   libucrt:strtox.obj
 0001:0002717c       _mbtowc_l                  000000018002817c f   libucrt:mbtowc.obj
 0001:000272c4       mbtowc                     00000001800282c4 f   libucrt:mbtowc.obj
 0001:000272cc       _wctomb_s_l                00000001800282cc f   libucrt:wctomb.obj
 0001:00027450       wctomb_s                   0000000180028450 f   libucrt:wctomb.obj
 0001:00027464       wcsnlen                    0000000180028464 f   libucrt:strnlen.obj
 0001:00027654       ?__acrt_fp_classify@@YA?AW4__acrt_fp_class@@AEBN@Z 0000000180028654 f i libucrt:cvt.obj
 0001:0002808c       __acrt_fp_format           000000018002908c f   libucrt:cvt.obj
 0001:000282d0       _fputwc_nolock             00000001800292d0 f   libucrt:fputwc.obj
 0001:0002844c       _fileno                    000000018002944c f   libucrt:fileno.obj
 0001:00028474       _fputc_nolock              0000000180029474 f   libucrt:fputc.obj
 0001:0002848c       _get_printf_count_output   000000018002948c f   libucrt:printf_count_output.obj
 0001:000284a4       __pctype_func              00000001800294a4 f   libucrt:ctype.obj
 0001:000284d4       iswctype                   00000001800294d4 f   libucrt:iswctype.obj
 0001:00028544       _isctype_l                 0000000180029544 f   libucrt:isctype.obj
 0001:00028654       __acrt_add_locale_ref      0000000180029654 f   libucrt:locale_refcounting.obj
 0001:000286e0       __acrt_free_locale         00000001800296e0 f   libucrt:locale_refcounting.obj
 0001:00028858       __acrt_locale_add_lc_time_reference 0000000180029858 f   libucrt:locale_refcounting.obj
 0001:00028880       __acrt_locale_free_lc_time_if_unreferenced 0000000180029880 f   libucrt:locale_refcounting.obj
 0001:000288b8       __acrt_locale_release_lc_time_reference 00000001800298b8 f   libucrt:locale_refcounting.obj
 0001:000288e0       __acrt_release_locale_ref  00000001800298e0 f   libucrt:locale_refcounting.obj
 0001:00028988       __acrt_update_thread_locale_data 0000000180029988 f   libucrt:locale_refcounting.obj
 0001:000289f8       _updatetlocinfoEx_nolock   00000001800299f8 f   libucrt:locale_refcounting.obj
 0001:00028a60       _fcloseall                 0000000180029a60 f   libucrt:closeall.obj
 0001:00028b14       __acrt_stdio_free_buffer_nolock 0000000180029b14 f   libucrt:_freebuf.obj
 0001:00028b54       ??$?RV<lambda_b521505b218e5242e90febf6bfebc422>@@AEAV<lambda_6978c1fb23f02e42e1d9e99668cc68aa>@@V<lambda_314360699dd331753a4119843814e9a7>@@@?$__crt_seh_guarded_call@H@@QEAAH$$QEAV<lambda_b521505b218e5242e90febf6bfebc422>@@AEAV<lambda_6978c1fb23f02e42e1d9e99668cc68aa>@@$$QEAV<lambda_314360699dd331753a4119843814e9a7>@@@Z 0000000180029b54 f i libucrt:commit.obj
 0001:00028be0       _commit                    0000000180029be0 f   libucrt:commit.obj
 0001:00029214       _write                     000000018002a214 f   libucrt:write.obj
 0001:00029300       _write_nolock              000000018002a300 f   libucrt:write.obj
 0001:000295e4       _isleadbyte_l              000000018002a5e4 f i libucrt:_wctype.obj
 0001:00029980       __acrt_LCMapStringA        000000018002a980 f   libucrt:lcmapstringa.obj
 0001:00029a18       __acrt_locale_free_monetary 000000018002aa18 f   libucrt:initmon.obj
 0001:00029b24       __acrt_locale_free_numeric 000000018002ab24 f   libucrt:initnum.obj
 0001:00029be8       __acrt_locale_free_time    000000018002abe8 f   libucrt:inittime.obj
 0001:00029cf0       __acrt_GetStringTypeA      000000018002acf0 f   libucrt:getstringtypea.obj
 0001:00029f6c       __acrt_DownlevelLocaleNameToLCID 000000018002af6c f   libucrt:lcidtoname_downlevel.obj
 0001:0002a070       qsort                      000000018002b070 f   libucrt:qsort.obj
 0001:0002a3a4       strncpy_s                  000000018002b3a4 f   libucrt:strncpy_s.obj
 0001:0002a478       strpbrk                    000000018002b478 f   libucrt:strpbrk.obj
 0001:0002a518       _mbsdec                    000000018002b518 f   libucrt:mbsdec.obj
 0001:0002a520       _mbsdec_l                  000000018002b520 f   libucrt:mbsdec.obj
 0001:0002a5d0       _msize                     000000018002b5d0 f   libucrt:msize.obj
 0001:0002a60c       _realloc_base              000000018002b60c f   libucrt:realloc_base.obj
 0001:0002a690       __acrt_lowio_create_handle_array 000000018002b690 f   libucrt:osfinfo.obj
 0001:0002a728       __acrt_lowio_destroy_handle_array 000000018002b728 f   libucrt:osfinfo.obj
 0001:0002a778       __acrt_lowio_ensure_fh_exists 000000018002b778 f   libucrt:osfinfo.obj
 0001:0002a830       __acrt_lowio_lock_fh       000000018002b830 f   libucrt:osfinfo.obj
 0001:0002a854       __acrt_lowio_unlock_fh     000000018002b854 f   libucrt:osfinfo.obj
 0001:0002a878       _free_osfhnd               000000018002b878 f   libucrt:osfinfo.obj
 0001:0002a934       _get_osfhandle             000000018002b934 f   libucrt:osfinfo.obj
 0001:0002a9ac       _isatty                    000000018002b9ac f   libucrt:isatty.obj
 0001:0002aa0c       __acrt_fp_strflt_to_string 000000018002ba0c f   libucrt:_fptostr.obj
 0001:0002aad0       ?divide@__crt_strtox@@YA_KAEAUbig_integer@1@AEBU21@@Z 000000018002bad0 f i libucrt:cfout.obj
 0001:0002afa0       __acrt_fltout              000000018002bfa0 f   libucrt:cfout.obj
 0001:0002c5a4       __acrt_stdio_flush_and_write_narrow_nolock 000000018002d5a4 f   libucrt:_flsbuf.obj
 0001:0002c68c       __acrt_stdio_flush_and_write_wide_nolock 000000018002d68c f   libucrt:_flsbuf.obj
 0001:0002c778       _fclose_nolock             000000018002d778 f   libucrt:fclose.obj
 0001:0002c7fc       fclose                     000000018002d7fc f   libucrt:fclose.obj
 0001:0002c9f4       _lseeki64                  000000018002d9f4 f   libucrt:lseek.obj
 0001:0002c9fc       _lseeki64_nolock           000000018002d9fc f   libucrt:lseek.obj
 0001:0002ca04       _putwch_nolock             000000018002da04 f   libucrt:putwch.obj
 0001:0002ca60       __strncnt                  000000018002da60 f   libucrt:strncnt.obj
 0001:0002ca78       fegetenv                   000000018002da78 f   libucrt:fegetenv.obj
 0001:0002ca98       fesetenv                   000000018002da98 f   libucrt:fesetenv.obj
 0001:0002cae4       feholdexcept               000000018002dae4 f   libucrt:feholdexcept.obj
 0001:0002cb34       ceil                       000000018002db34 f   libucrt:ceil.obj
 0001:0002cc00       log10                      000000018002dc00 f   libucrt:log10.obj
 0001:0002d1ac       __acrt_stdio_allocate_buffer_nolock 000000018002e1ac f   libucrt:_getbuf.obj
 0001:0002d210       ??$?RV<lambda_bfedae4ebbf01fab1bb6dcc6a9e276e0>@@AEAV<lambda_2fe9b910cf3cbf4a0ab98a02ba45b3ec>@@V<lambda_237c231691f317818eb88cc1d5d642d6>@@@?$__crt_seh_guarded_call@H@@QEAAH$$QEAV<lambda_bfedae4ebbf01fab1bb6dcc6a9e276e0>@@AEAV<lambda_2fe9b910cf3cbf4a0ab98a02ba45b3ec>@@$$QEAV<lambda_237c231691f317818eb88cc1d5d642d6>@@@Z 000000018002e210 f i libucrt:close.obj
 0001:0002d284       _close                     000000018002e284 f   libucrt:close.obj
 0001:0002d328       _close_nolock              000000018002e328 f   libucrt:close.obj
 0001:0002d3e4       ?__acrt_stdio_free_stream@@YAXV__crt_stdio_stream@@@Z 000000018002e3e4 f   libucrt:stream.obj
 0001:0002d428       __dcrt_lowio_initialize_console_output 000000018002e428 f   libucrt:initcon.obj
 0001:0002d464       __dcrt_terminate_console_output 000000018002e464 f   libucrt:initcon.obj
 0001:0002d484       _getfpcontrolword          000000018002e484 f   libucrt:_fenvutils.obj
 0001:0002d49c       _getfpstatusword           000000018002e49c f   libucrt:_fenvutils.obj
 0001:0002d4b0       _setfpcontrolword          000000018002e4b0 f   libucrt:_fenvutils.obj
 0001:0002d4bc       _setfpstatusword           000000018002e4bc f   libucrt:_fenvutils.obj
 0001:0002d50c       _clearfp                   000000018002e50c f   libucrt:ieee.obj
 0001:0002d560       _controlfp                 000000018002e560 f   libucrt:ieee.obj
 0001:0002d56c       _statusfp                  000000018002e56c f   libucrt:ieee.obj
 0001:0002d970       _handle_error              000000018002e970 f   libucrt:libm_error.obj
 0001:0002da98       _handle_nan                000000018002ea98 f   libucrt:libm_error.obj
 0001:0002dac0       __acrt_initialize_fma3     000000018002eac0 f   libucrt:fma3_available.obj
 0001:0002db30       _log10_special             000000018002eb30 f   libucrt:log_special.obj
 0001:0002dc00       _get_fpsr                  000000018002ec00 f   libucrt:fpsr.obj
 0001:0002dc10       _set_fpsr                  000000018002ec10 f   libucrt:fpsr.obj
 0001:0002dc1a       _fclrf                     000000018002ec1a f   libucrt:fpsr.obj
 0001:0002dc2e       _frnd                      000000018002ec2e f   libucrt:fpsr.obj
 0001:0002dc50       _raise_exc                 000000018002ec50 f   libucrt:fpexcept.obj
 0001:0002dc78       _raise_exc_ex              000000018002ec78 f   libucrt:fpexcept.obj
 0001:0002df80       _set_errno_from_matherr    000000018002ef80 f   libucrt:fpexcept.obj
 0001:0002dfb0       _clrfp                     000000018002efb0 f   libucrt:fpctrl.obj
 0001:0002dfd0       _ctrlfp                    000000018002efd0 f   libucrt:fpctrl.obj
 0001:0002e04c       _set_statfp                000000018002f04c f   libucrt:fpctrl.obj
 0001:0002e06c       _statfp                    000000018002f06c f   libucrt:fpctrl.obj
 0001:0002e07e       IsProcessorFeaturePresent  000000018002f07e f   kernel32:KERNEL32.dll
 0001:0002e084       RtlUnwindEx                000000018002f084 f   kernel32:KERNEL32.dll
 0001:0002e08c       ?DloadAcquireSectionWriteAccess@@YAXXZ 000000018002f08c f i DelayImp:delayhlp.obj
 0001:0002e148       ?DloadGetSRWLockFunctionPointers@@YAEXZ 000000018002f148 f i DelayImp:delayhlp.obj
 0001:0002e1e4       ?DloadMakePermanentImageCommit@@YAXPEAX_K@Z 000000018002f1e4 f i DelayImp:delayhlp.obj
 0001:0002e27c       ?DloadObtainSection@@YAPEAXPEAK0@Z 000000018002f27c f i DelayImp:delayhlp.obj
 0001:0002e314       ?DloadProtectSection@@YAXKPEAK@Z 000000018002f314 f i DelayImp:delayhlp.obj
 0001:0002e3a4       ?DloadReleaseSectionWriteAccess@@YAXXZ 000000018002f3a4 f i DelayImp:delayhlp.obj
 0001:0002e448       __delayLoadHelper2         000000018002f448 f   DelayImp:delayhlp.obj
 0001:0002e750       _FindPESection             000000018002f750 f   LIBCMT:pesect.obj
 0001:0002e7a0       _IsNonwritableInCurrentImage 000000018002f7a0 f   LIBCMT:pesect.obj
 0001:0002e7f0       _ValidateImageBase         000000018002f7f0 f   LIBCMT:pesect.obj
 0001:0002e820       __GSHandlerCheck           000000018002f820 f   LIBCMT:_gshandler_.obj
 0001:0002e840       __GSHandlerCheckCommon     000000018002f840 f   LIBCMT:_gshandler_.obj
 0001:0002e8b0       _alloca_probe              000000018002f8b0 f   LIBCMT:_chkstk_.obj
 0001:0002e8b0       __chkstk                   000000018002f8b0 f   LIBCMT:_chkstk_.obj
 0001:0002e920       memcmp                     000000018002f920 f   libvcruntime:memcmp.obj
 0001:0002e9e8       strrchr                    000000018002f9e8 f   libvcruntime:strrchr.obj
 0001:0002eb28       __GSHandlerCheck_EH        000000018002fb28 f   LIBCMT:gshandlereh.obj
 0001:0002ebc0       _guard_dispatch_icall_nop  000000018002fbc0 f   LIBCMT:_guard_dispatch_.obj
 0001:00031250       ??__Fmy_constructor@?1??constructor@WKey@@KAAEAV?$Persistent@VFunction@v8@@V?$NonCopyablePersistentTraits@VFunction@v8@@@2@@Nan@@XZ@YAXXZ 0000000180032250 f i w_key.obj
 0001:00031270       ??__Fmy_constructor@?1??constructor@WAes@@KAAEAV?$Persistent@VFunction@v8@@V?$NonCopyablePersistentTraits@VFunction@v8@@@2@@Nan@@XZ@YAXXZ 0000000180032270 f i w_aes.obj
 0001:00031290       ??__Fmy_constructor@?1??constructor@WHmac@@KAAEAV?$Persistent@VFunction@v8@@V?$NonCopyablePersistentTraits@VFunction@v8@@@2@@Nan@@XZ@YAXXZ 0000000180032290 f i w_hmac.obj
 0001:000312b0       ??__Fmy_constructor@?1??constructor@WPbkdf2@@KAAEAV?$Persistent@VFunction@v8@@V?$NonCopyablePersistentTraits@VFunction@v8@@@2@@Nan@@XZ@YAXXZ 00000001800322b0 f i w_pbkdf2.obj
 0001:000312d0       ??__Fmy_constructor@?1??constructor@WCore@@KAAEAV?$Persistent@VFunction@v8@@V?$NonCopyablePersistentTraits@VFunction@v8@@@2@@Nan@@XZ@YAXXZ 00000001800322d0 f i w_core.obj
 0002:00000000       __imp_GetModuleHandleA     0000000180033000     kernel32:KERNEL32.dll
 0002:00000008       __imp_CloseHandle          0000000180033008     kernel32:KERNEL32.dll
 0002:00000010       __imp_EnterCriticalSection 0000000180033010     kernel32:KERNEL32.dll
 0002:00000018       __imp_LeaveCriticalSection 0000000180033018     kernel32:KERNEL32.dll
 0002:00000020       __imp_DeleteCriticalSection 0000000180033020     kernel32:KERNEL32.dll
 0002:00000028       __imp_SetEvent             0000000180033028     kernel32:KERNEL32.dll
 0002:00000030       __imp_ResetEvent           0000000180033030     kernel32:KERNEL32.dll
 0002:00000038       __imp_WaitForSingleObjectEx 0000000180033038     kernel32:KERNEL32.dll
 0002:00000040       __imp_CreateEventW         0000000180033040     kernel32:KERNEL32.dll
 0002:00000048       __imp_GetModuleHandleW     0000000180033048     kernel32:KERNEL32.dll
 0002:00000050       __imp_GetProcAddress       0000000180033050     kernel32:KERNEL32.dll
 0002:00000058       __imp_RtlCaptureContext    0000000180033058     kernel32:KERNEL32.dll
 0002:00000060       __imp_RtlLookupFunctionEntry 0000000180033060     kernel32:KERNEL32.dll
 0002:00000068       __imp_RtlVirtualUnwind     0000000180033068     kernel32:KERNEL32.dll
 0002:00000070       __imp_UnhandledExceptionFilter 0000000180033070     kernel32:KERNEL32.dll
 0002:00000078       __imp_SetUnhandledExceptionFilter 0000000180033078     kernel32:KERNEL32.dll
 0002:00000080       __imp_GetCurrentProcess    0000000180033080     kernel32:KERNEL32.dll
 0002:00000088       __imp_TerminateProcess     0000000180033088     kernel32:KERNEL32.dll
 0002:00000090       __imp_IsProcessorFeaturePresent 0000000180033090     kernel32:KERNEL32.dll
 0002:00000098       __imp_IsDebuggerPresent    0000000180033098     kernel32:KERNEL32.dll
 0002:000000a0       __imp_GetStartupInfoW      00000001800330a0     kernel32:KERNEL32.dll
 0002:000000a8       __imp_QueryPerformanceCounter 00000001800330a8     kernel32:KERNEL32.dll
 0002:000000b0       __imp_GetCurrentProcessId  00000001800330b0     kernel32:KERNEL32.dll
 0002:000000b8       __imp_GetCurrentThreadId   00000001800330b8     kernel32:KERNEL32.dll
 0002:000000c0       __imp_GetSystemTimeAsFileTime 00000001800330c0     kernel32:KERNEL32.dll
 0002:000000c8       __imp_InitializeSListHead  00000001800330c8     kernel32:KERNEL32.dll
 0002:000000d0       __imp_RtlPcToFileHeader    00000001800330d0     kernel32:KERNEL32.dll
 0002:000000d8       __imp_EncodePointer        00000001800330d8     kernel32:KERNEL32.dll
 0002:000000e0       __imp_RaiseException       00000001800330e0     kernel32:KERNEL32.dll
 0002:000000e8       __imp_GetLastError         00000001800330e8     kernel32:KERNEL32.dll
 0002:000000f0       __imp_InitializeCriticalSectionAndSpinCount 00000001800330f0     kernel32:KERNEL32.dll
 0002:000000f8       __imp_TlsAlloc             00000001800330f8     kernel32:KERNEL32.dll
 0002:00000100       __imp_TlsGetValue          0000000180033100     kernel32:KERNEL32.dll
 0002:00000108       __imp_TlsSetValue          0000000180033108     kernel32:KERNEL32.dll
 0002:00000110       __imp_TlsFree              0000000180033110     kernel32:KERNEL32.dll
 0002:00000118       __imp_FreeLibrary          0000000180033118     kernel32:KERNEL32.dll
 0002:00000120       __imp_LoadLibraryExW       0000000180033120     kernel32:KERNEL32.dll
 0002:00000128       __imp_RtlUnwindEx          0000000180033128     kernel32:KERNEL32.dll
 0002:00000130       __imp_InterlockedFlushSList 0000000180033130     kernel32:KERNEL32.dll
 0002:00000138       __imp_SetLastError         0000000180033138     kernel32:KERNEL32.dll
 0002:00000140       __imp_GetStdHandle         0000000180033140     kernel32:KERNEL32.dll
 0002:00000148       __imp_GetFileType          0000000180033148     kernel32:KERNEL32.dll
 0002:00000150       __imp_GetModuleFileNameA   0000000180033150     kernel32:KERNEL32.dll
 0002:00000158       __imp_GetModuleFileNameW   0000000180033158     kernel32:KERNEL32.dll
 0002:00000160       __imp_GetModuleHandleExW   0000000180033160     kernel32:KERNEL32.dll
 0002:00000168       __imp_WriteConsoleW        0000000180033168     kernel32:KERNEL32.dll
 0002:00000170       __imp_ExitProcess          0000000180033170     kernel32:KERNEL32.dll
 0002:00000178       __imp_MultiByteToWideChar  0000000180033178     kernel32:KERNEL32.dll
 0002:00000180       __imp_WideCharToMultiByte  0000000180033180     kernel32:KERNEL32.dll
 0002:00000188       __imp_HeapFree             0000000180033188     kernel32:KERNEL32.dll
 0002:00000190       __imp_HeapAlloc            0000000180033190     kernel32:KERNEL32.dll
 0002:00000198       __imp_WriteFile            0000000180033198     kernel32:KERNEL32.dll
 0002:000001a0       __imp_OutputDebugStringW   00000001800331a0     kernel32:KERNEL32.dll
 0002:000001a8       __imp_CreateThread         00000001800331a8     kernel32:KERNEL32.dll
 0002:000001b0       __imp_GetACP               00000001800331b0     kernel32:KERNEL32.dll
 0002:000001b8       __imp_LCMapStringW         00000001800331b8     kernel32:KERNEL32.dll
 0002:000001c0       __imp_FindClose            00000001800331c0     kernel32:KERNEL32.dll
 0002:000001c8       __imp_FindFirstFileExA     00000001800331c8     kernel32:KERNEL32.dll
 0002:000001d0       __imp_FindNextFileA        00000001800331d0     kernel32:KERNEL32.dll
 0002:000001d8       __imp_IsValidCodePage      00000001800331d8     kernel32:KERNEL32.dll
 0002:000001e0       __imp_GetOEMCP             00000001800331e0     kernel32:KERNEL32.dll
 0002:000001e8       __imp_GetCPInfo            00000001800331e8     kernel32:KERNEL32.dll
 0002:000001f0       __imp_GetCommandLineA      00000001800331f0     kernel32:KERNEL32.dll
 0002:000001f8       __imp_GetCommandLineW      00000001800331f8     kernel32:KERNEL32.dll
 0002:00000200       __imp_GetEnvironmentStringsW 0000000180033200     kernel32:KERNEL32.dll
 0002:00000208       __imp_FreeEnvironmentStringsW 0000000180033208     kernel32:KERNEL32.dll
 0002:00000210       __imp_GetProcessHeap       0000000180033210     kernel32:KERNEL32.dll
 0002:00000218       __imp_GetStringTypeW       0000000180033218     kernel32:KERNEL32.dll
 0002:00000220       __imp_FlushFileBuffers     0000000180033220     kernel32:KERNEL32.dll
 0002:00000228       __imp_GetConsoleCP         0000000180033228     kernel32:KERNEL32.dll
 0002:00000230       __imp_GetConsoleMode       0000000180033230     kernel32:KERNEL32.dll
 0002:00000238       __imp_HeapSize             0000000180033238     kernel32:KERNEL32.dll
 0002:00000240       __imp_HeapReAlloc          0000000180033240     kernel32:KERNEL32.dll
 0002:00000248       __imp_SetStdHandle         0000000180033248     kernel32:KERNEL32.dll
 0002:00000250       __imp_SetFilePointerEx     0000000180033250     kernel32:KERNEL32.dll
 0002:00000258       __imp_CreateFileW          0000000180033258     kernel32:KERNEL32.dll
 0002:00000260       __imp_GetSystemInfo        0000000180033260     kernel32:KERNEL32.dll
 0002:00000268       __imp_VirtualProtect       0000000180033268     kernel32:KERNEL32.dll
 0002:00000270       __imp_VirtualQuery         0000000180033270     kernel32:KERNEL32.dll
 0002:00000278       __imp_LoadLibraryExA       0000000180033278     kernel32:KERNEL32.dll
 0002:00000280       \177KERNEL32_NULL_THUNK_DATA 0000000180033280     kernel32:KERNEL32.dll
 0002:00000288       __guard_check_icall_fptr   0000000180033288     LIBCMT:guard_support.obj
 0002:00000290       __guard_dispatch_icall_fptr 0000000180033290     LIBCMT:guard_support.obj
 0002:00000298       __xc_a                     0000000180033298     LIBCMT:initializers.obj
 0002:000002a0       _register_nodessl_         00000001800332a0     main.obj
 0002:000002a8       __xc_z                     00000001800332a8     LIBCMT:initializers.obj
 0002:000002b0       __xi_a                     00000001800332b0     LIBCMT:initializers.obj
 0002:000002c0       __acrt_stdio_initializer   00000001800332c0     libucrt:stdio_initializer.obj
 0002:000002c8       __acrt_multibyte_initializer 00000001800332c8     libucrt:multibyte_initializer.obj
 0002:000002d0       __acrt_tran_fma3_initializer 00000001800332d0     libucrt:fma3_initializer.obj
 0002:000002d8       __xi_z                     00000001800332d8     LIBCMT:initializers.obj
 0002:000002e0       __xl_a                     00000001800332e0     LIBCMT:tlssup.obj
 0002:000002e8       __xl_z                     00000001800332e8     LIBCMT:tlssup.obj
 0002:000002f0       __xp_a                     00000001800332f0     LIBCMT:initializers.obj
 0002:000002f8       __acrt_locale_terminator   00000001800332f8     libucrt:locale_initializer.obj
 0002:00000300       __dcrt_console_output_terminator 0000000180033300     libucrt:console_output_initializer.obj
 0002:00000308       __acrt_stdio_terminator    0000000180033308     libucrt:stdio_initializer.obj
 0002:00000310       __xp_z                     0000000180033310     LIBCMT:initializers.obj
 0002:00000318       __xt_a                     0000000180033318     LIBCMT:initializers.obj
 0002:00000320       __xt_z                     0000000180033320     LIBCMT:initializers.obj
 0002:00000330       __sz_node_exe              0000000180033330     node:node.exe
 0002:00000348       ??_7exception@std@@6B@     0000000180033348     libcpmt:xthrow.obj
 0002:00000358       ??_C@_0BC@EOODALEL@Unknown?5exception?$AA@ 0000000180033358     libcpmt:xthrow.obj
 0002:00000378       ??_7bad_alloc@std@@6B@     0000000180033378     libcpmt:xthrow.obj
 0002:00000388       ??_C@_0P@GHFPNOJB@bad?5allocation?$AA@ 0000000180033388     libcpmt:xthrow.obj
 0002:000003a0       ??_7logic_error@std@@6B@   00000001800333a0     libcpmt:xthrow.obj
 0002:000003b8       ??_7length_error@std@@6B@  00000001800333b8     libcpmt:xthrow.obj
 0002:000003d0       ??_7out_of_range@std@@6B@  00000001800333d0     libcpmt:xthrow.obj
 0002:000003e8       ??_7runtime_error@std@@6B@ 00000001800333e8     libcpmt:xthrow.obj
 0002:00000400       ??_7type_info@@6B@         0000000180033400     LIBCMT:std_type_info_static.obj
 0002:00000408       ??_C@_1BK@MGMFAEKH@?$AAk?$AAe?$AAr?$AAn?$AAe?$AAl?$AA3?$AA2?$AA?4?$AAd?$AAl?$AAl?$AA?$AA@ 0000000180033408     LIBCMT:thread_safe_statics.obj
 0002:00000428       ??_C@_0BM@HLJJNPAH@InitializeConditionVariable?$AA@ 0000000180033428     LIBCMT:thread_safe_statics.obj
 0002:00000448       ??_C@_0BJ@JEBJOJFJ@SleepConditionVariableCS?$AA@ 0000000180033448     LIBCMT:thread_safe_statics.obj
 0002:00000468       ??_C@_0BJ@PGPPEPCC@WakeAllConditionVariable?$AA@ 0000000180033468     LIBCMT:thread_safe_statics.obj
 0002:00000488       _pDefaultRawDllMain        0000000180033488     LIBCMT:dll_dllmain.obj
 0002:00000488       _pRawDllMain               0000000180033488     LIBCMT:dll_dllmain.obj
 0002:000004a8       ??_7bad_array_new_length@std@@6B@ 00000001800334a8     LIBCMT:throw_bad_alloc.obj
 0002:000004b8       ??_C@_0BF@KINCDENJ@bad?5array?5new?5length?$AA@ 00000001800334b8     LIBCMT:throw_bad_alloc.obj
 0002:000004d0       _pDestructExceptionObject  00000001800334d0     libvcruntime:frame.obj
 0002:000004e0       ??_7bad_exception@std@@6B@ 00000001800334e0     libvcruntime:frame.obj
 0002:000004f0       ??_C@_0O@DPKOEFFH@bad?5exception?$AA@ 00000001800334f0     libvcruntime:frame.obj
 0002:00000560       ??_C@_1BC@DNHGCMLG@?$AAa?$AAd?$AAv?$AAa?$AAp?$AAi?$AA3?$AA2?$AA?$AA@ 0000000180033560     libvcruntime:winapi_downlevel.obj
 0002:00000578       ??_C@_1DM@KHCHBNEB@?$AAa?$AAp?$AAi?$AA?9?$AAm?$AAs?$AA?9?$AAw?$AAi?$AAn?$AA?9?$AAc?$AAo?$AAr?$AAe?$AA?9?$AAf?$AAi?$AAb?$AAe?$AAr?$AAs?$AA?9?$AAl?$AA1?$AA?9?$AA1?$AA?9?$AA1?$AA?$AA@ 0000000180033578     libvcruntime:winapi_downlevel.obj
 0002:000005b8       ??_C@_1DK@LPPGFMPP@?$AAa?$AAp?$AAi?$AA?9?$AAm?$AAs?$AA?9?$AAw?$AAi?$AAn?$AA?9?$AAc?$AAo?$AAr?$AAe?$AA?9?$AAs?$AAy?$AAn?$AAc?$AAh?$AA?9?$AAl?$AA1?$AA?9?$AA2?$AA?9?$AA0?$AA?$AA@ 00000001800335b8     libvcruntime:winapi_downlevel.obj
 0002:000005f8       ??_C@_1BC@GDMECMAK@?$AAk?$AAe?$AAr?$AAn?$AAe?$AAl?$AA3?$AA2?$AA?$AA@ 00000001800335f8     libvcruntime:winapi_downlevel.obj
 0002:00000618       ??_C@_08KNHFBNJ@FlsAlloc?$AA@ 0000000180033618     libvcruntime:winapi_downlevel.obj
 0002:00000630       ??_C@_07PEJMOBNF@FlsFree?$AA@ 0000000180033630     libvcruntime:winapi_downlevel.obj
 0002:00000640       ??_C@_0M@GDNOONDI@FlsGetValue?$AA@ 0000000180033640     libvcruntime:winapi_downlevel.obj
 0002:00000658       ??_C@_0M@JCPCPOEF@FlsSetValue?$AA@ 0000000180033658     libvcruntime:winapi_downlevel.obj
 0002:00000670       ??_C@_0BM@HCFOFFN@InitializeCriticalSectionEx?$AA@ 0000000180033670     libvcruntime:winapi_downlevel.obj
 0002:00000a50       ??_C@_08EHJDFFNH@__based?$CI?$AA@ 0000000180033a50     libvcruntime:undname.obj
 0002:00000a60       ??_C@_07KOLFKCDI@__cdecl?$AA@ 0000000180033a60     libvcruntime:undname.obj
 0002:00000a68       ??_C@_08GHMPAG@__pascal?$AA@ 0000000180033a68     libvcruntime:undname.obj
 0002:00000a78       ??_C@_09IFJBGAPI@__stdcall?$AA@ 0000000180033a78     libvcruntime:undname.obj
 0002:00000a88       ??_C@_0L@NPHFGOKO@__thiscall?$AA@ 0000000180033a88     libvcruntime:undname.obj
 0002:00000a98       ??_C@_0L@JMKHOMEK@__fastcall?$AA@ 0000000180033a98     libvcruntime:undname.obj
 0002:00000aa8       ??_C@_0N@BCKKPABJ@__vectorcall?$AA@ 0000000180033aa8     libvcruntime:undname.obj
 0002:00000ab8       ??_C@_09HIJEGCPM@__clrcall?$AA@ 0000000180033ab8     libvcruntime:undname.obj
 0002:00000ac4       ??_C@_06GHPCKEAG@__eabi?$AA@ 0000000180033ac4     libvcruntime:undname.obj
 0002:00000ad0       ??_C@_07JOMMBBKO@__ptr64?$AA@ 0000000180033ad0     libvcruntime:undname.obj
 0002:00000ad8       ??_C@_0L@PILCLIHE@__restrict?$AA@ 0000000180033ad8     libvcruntime:undname.obj
 0002:00000ae8       ??_C@_0M@GFIIJFMG@__unaligned?$AA@ 0000000180033ae8     libvcruntime:undname.obj
 0002:00000af8       ??_C@_09DHDLOLLB@restrict?$CI?$AA@ 0000000180033af8     libvcruntime:undname.obj
 0002:00000b04       ??_C@_04NIHEBCM@?5new?$AA@ 0000000180033b04     libvcruntime:undname.obj
 0002:00000b10       ??_C@_07FPCDHGMM@?5delete?$AA@ 0000000180033b10     libvcruntime:undname.obj
 0002:00000b18       ??_C@_01NEMOKFLO@?$DN?$AA@ 0000000180033b18     libvcruntime:undname.obj
 0002:00000b1c       ??_C@_02GPIOPFAK@?$DO?$DO?$AA@ 0000000180033b1c     libvcruntime:undname.obj
 0002:00000b20       ??_C@_02FODMEDOG@?$DM?$DM?$AA@ 0000000180033b20     libvcruntime:undname.obj
 0002:00000b24       ??_C@_01DCLJPIOD@?$CB?$AA@ 0000000180033b24     libvcruntime:undname.obj
 0002:00000b28       ??_C@_02EGOFBIJA@?$DN?$DN?$AA@ 0000000180033b28     libvcruntime:undname.obj
 0002:00000b2c       ??_C@_02FDNJECIE@?$CB?$DN?$AA@ 0000000180033b2c     libvcruntime:undname.obj
 0002:00000b30       ??_C@_02GPECMEKF@?$FL?$FN?$AA@ 0000000180033b30     libvcruntime:undname.obj
 0002:00000b38       ??_C@_08LHJFAFGD@operator?$AA@ 0000000180033b38     libvcruntime:undname.obj
 0002:00000b44       ??_C@_02HBOOOICD@?9?$DO?$AA@ 0000000180033b44     libvcruntime:undname.obj
 0002:00000b48       ??_C@_01NBENCBCI@?$CK?$AA@ 0000000180033b48     libvcruntime:undname.obj
 0002:00000b4c       ??_C@_02ECNGHCIF@?$CL?$CL?$AA@ 0000000180033b4c     libvcruntime:undname.obj
 0002:00000b50       ??_C@_02BAABKJLB@?9?9?$AA@ 0000000180033b50     libvcruntime:undname.obj
 0002:00000b54       ??_C@_01JOAMLHOP@?9?$AA@   0000000180033b54     libvcruntime:undname.obj
 0002:00000b58       ??_C@_01MIFGBAGJ@?$CL?$AA@ 0000000180033b58     libvcruntime:undname.obj
 0002:00000b5c       ??_C@_01HNPIGOCE@?$CG?$AA@ 0000000180033b5c     libvcruntime:undname.obj
 0002:00000b60       ??_C@_03MNHNFDLC@?9?$DO?$CK?$AA@ 0000000180033b60     libvcruntime:undname.obj
 0002:00000b64       ??_C@_01KMDKNFGN@?1?$AA@   0000000180033b64     libvcruntime:undname.obj
 0002:00000b68       ??_C@_01FGNFDNOH@?$CF?$AA@ 0000000180033b68     libvcruntime:undname.obj
 0002:00000b6c       ??_C@_01MNNFJEPP@?$DM?$AA@ 0000000180033b6c     libvcruntime:undname.obj
 0002:00000b70       ??_C@_02EHCHHCKH@?$DM?$DN?$AA@ 0000000180033b70     libvcruntime:undname.obj
 0002:00000b74       ??_C@_01PPODPGHN@?$DO?$AA@ 0000000180033b74     libvcruntime:undname.obj
 0002:00000b78       ??_C@_02EEKDKGMJ@?$DO?$DN?$AA@ 0000000180033b78     libvcruntime:undname.obj
 0002:00000b7c       ??_C@_01IHBHIGKO@?0?$AA@   0000000180033b7c     libvcruntime:undname.obj
 0002:00000b80       ??_C@_02HCKGKOFO@?$CI?$CJ?$AA@ 0000000180033b80     libvcruntime:undname.obj
 0002:00000b84       ??_C@_01PJKLJHI@?$HO?$AA@  0000000180033b84     libvcruntime:undname.obj
 0002:00000b88       ??_C@_01JKBOJNNK@?$FO?$AA@ 0000000180033b88     libvcruntime:undname.obj
 0002:00000b8c       ??_C@_01DNKMNLPK@?$HM?$AA@ 0000000180033b8c     libvcruntime:undname.obj
 0002:00000b90       ??_C@_02PPKAJPJL@?$CG?$CG?$AA@ 0000000180033b90     libvcruntime:undname.obj
 0002:00000b94       ??_C@_02NONPIBCD@?$HM?$HM?$AA@ 0000000180033b94     libvcruntime:undname.obj
 0002:00000b98       ??_C@_02FPIMKNGF@?$CK?$DN?$AA@ 0000000180033b98     libvcruntime:undname.obj
 0002:00000b9c       ??_C@_02FOEOMHFC@?$CL?$DN?$AA@ 0000000180033b9c     libvcruntime:undname.obj
 0002:00000ba0       ??_C@_02FKMDLLOA@?9?$DN?$AA@ 0000000180033ba0     libvcruntime:undname.obj
 0002:00000ba4       ??_C@_02FJEHGPIO@?1?$DN?$AA@ 0000000180033ba4     libvcruntime:undname.obj
 0002:00000ba8       ??_C@_02FENAOKFI@?$CF?$DN?$AA@ 0000000180033ba8     libvcruntime:undname.obj
 0002:00000bac       ??_C@_03IKFCCPFF@?$DO?$DO?$DN?$AA@ 0000000180033bac     libvcruntime:undname.obj
 0002:00000bb0       ??_C@_03CDNPDDLA@?$DM?$DM?$DN?$AA@ 0000000180033bb0     libvcruntime:undname.obj
 0002:00000bb4       ??_C@_02FGJGFEAB@?$CG?$DN?$AA@ 0000000180033bb4     libvcruntime:undname.obj
 0002:00000bb8       ??_C@_02DHLNPPGH@?$HM?$DN?$AA@ 0000000180033bb8     libvcruntime:undname.obj
 0002:00000bbc       ??_C@_02MHEGNOJ@?$FO?$DN?$AA@ 0000000180033bbc     libvcruntime:undname.obj
 0002:00000bc0       ??_C@_09IFPLHPGF@?$GAvftable?8?$AA@ 0000000180033bc0     libvcruntime:undname.obj
 0002:00000bd0       ??_C@_09BLBHBJP@?$GAvbtable?8?$AA@ 0000000180033bd0     libvcruntime:undname.obj
 0002:00000be0       ??_C@_07FEEIOKP@?$GAvcall?8?$AA@ 0000000180033be0     libvcruntime:undname.obj
 0002:00000be8       ??_C@_08LLFFHHDJ@?$GAtypeof?8?$AA@ 0000000180033be8     libvcruntime:undname.obj
 0002:00000bf8       ??_C@_0BF@KDPPACIK@?$GAlocal?5static?5guard?8?$AA@ 0000000180033bf8     libvcruntime:undname.obj
 0002:00000c10       ??_C@_08OBABFOLI@?$GAstring?8?$AA@ 0000000180033c10     libvcruntime:undname.obj
 0002:00000c20       ??_C@_0BD@JDLKDPAB@?$GAvbase?5destructor?8?$AA@ 0000000180033c20     libvcruntime:undname.obj
 0002:00000c38       ??_C@_0BN@DEGPLNFK@?$GAvector?5deleting?5destructor?8?$AA@ 0000000180033c38     libvcruntime:undname.obj
 0002:00000c58       ??_C@_0BO@OBMKPJIG@?$GAdefault?5constructor?5closure?8?$AA@ 0000000180033c58     libvcruntime:undname.obj
 0002:00000c78       ??_C@_0BN@IMDCHIKM@?$GAscalar?5deleting?5destructor?8?$AA@ 0000000180033c78     libvcruntime:undname.obj
 0002:00000c98       ??_C@_0BO@PFGOCPJJ@?$GAvector?5constructor?5iterator?8?$AA@ 0000000180033c98     libvcruntime:undname.obj
 0002:00000cb8       ??_C@_0BN@LFPFMEDL@?$GAvector?5destructor?5iterator?8?$AA@ 0000000180033cb8     libvcruntime:undname.obj
 0002:00000cd8       ??_C@_0CE@IKBNEHA@?$GAvector?5vbase?5constructor?5iterat@ 0000000180033cd8     libvcruntime:undname.obj
 0002:00000d00       ??_C@_0BL@NILFHHPC@?$GAvirtual?5displacement?5map?8?$AA@ 0000000180033d00     libvcruntime:undname.obj
 0002:00000d20       ??_C@_0CB@JONCMFFK@?$GAeh?5vector?5constructor?5iterator?8@ 0000000180033d20     libvcruntime:undname.obj
 0002:00000d48       ??_C@_0CA@GCEOPDGL@?$GAeh?5vector?5destructor?5iterator?8?$AA@ 0000000180033d48     libvcruntime:undname.obj
 0002:00000d68       ??_C@_0CH@OOJPLCPH@?$GAeh?5vector?5vbase?5constructor?5ite@ 0000000180033d68     libvcruntime:undname.obj
 0002:00000d90       ??_C@_0BL@LLKPOHJI@?$GAcopy?5constructor?5closure?8?$AA@ 0000000180033d90     libvcruntime:undname.obj
 0002:00000db0       ??_C@_0BA@KBCDOMBN@?$GAudt?5returning?8?$AA@ 0000000180033db0     libvcruntime:undname.obj
 0002:00000dc0       ??_C@_03KLGMFNMG@?$GAEH?$AA@ 0000000180033dc0     libvcruntime:undname.obj
 0002:00000dc4       ??_C@_05KHLCHHI@?$GARTTI?$AA@ 0000000180033dc4     libvcruntime:undname.obj
 0002:00000dd0       ??_C@_0BA@KKLDJDLB@?$GAlocal?5vftable?8?$AA@ 0000000180033dd0     libvcruntime:undname.obj
 0002:00000de0       ??_C@_0CE@IIHCMGGL@?$GAlocal?5vftable?5constructor?5closu@ 0000000180033de0     libvcruntime:undname.obj
 0002:00000e04       ??_C@_06FHBGPFGH@?5new?$FL?$FN?$AA@ 0000000180033e04     libvcruntime:undname.obj
 0002:00000e10       ??_C@_09LBNFPBCA@?5delete?$FL?$FN?$AA@ 0000000180033e10     libvcruntime:undname.obj
 0002:00000e20       ??_C@_0P@HJKNJFNN@?$GAomni?5callsig?8?$AA@ 0000000180033e20     libvcruntime:undname.obj
 0002:00000e30       ??_C@_0BL@CNOONJFP@?$GAplacement?5delete?5closure?8?$AA@ 0000000180033e30     libvcruntime:undname.obj
 0002:00000e50       ??_C@_0BN@CKNJLHMB@?$GAplacement?5delete?$FL?$FN?5closure?8?$AA@ 0000000180033e50     libvcruntime:undname.obj
 0002:00000e70       ??_C@_0CG@CFDHKGGD@?$GAmanaged?5vector?5constructor?5iter@ 0000000180033e70     libvcruntime:undname.obj
 0002:00000e98       ??_C@_0CF@IMGKMJNO@?$GAmanaged?5vector?5destructor?5itera@ 0000000180033e98     libvcruntime:undname.obj
 0002:00000ec0       ??_C@_0CG@HLDDJMAG@?$GAeh?5vector?5copy?5constructor?5iter@ 0000000180033ec0     libvcruntime:undname.obj
 0002:00000ee8       ??_C@_0CM@FCBBDIGB@?$GAeh?5vector?5vbase?5copy?5constructo@ 0000000180033ee8     libvcruntime:undname.obj
 0002:00000f18       ??_C@_0BL@CLIPGLGB@?$GAdynamic?5initializer?5for?5?8?$AA@ 0000000180033f18     libvcruntime:undname.obj
 0002:00000f38       ??_C@_0CB@PDBIFEP@?$GAdynamic?5atexit?5destructor?5for?5?8@ 0000000180033f38     libvcruntime:undname.obj
 0002:00000f60       ??_C@_0CD@CGAJBKEJ@?$GAvector?5copy?5constructor?5iterato@ 0000000180033f60     libvcruntime:undname.obj
 0002:00000f88       ??_C@_0CJ@GJELGAMM@?$GAvector?5vbase?5copy?5constructor?5i@ 0000000180033f88     libvcruntime:undname.obj
 0002:00000fb8       ??_C@_0CL@FGIJHLCE@?$GAmanaged?5vector?5copy?5constructor@ 0000000180033fb8     libvcruntime:undname.obj
 0002:00000fe8       ??_C@_0BM@PMGGMLDN@?$GAlocal?5static?5thread?5guard?8?$AA@ 0000000180033fe8     libvcruntime:undname.obj
 0002:00001008       ??_C@_0N@BDNMDMOL@operator?5?$CC?$CC?5?$AA@ 0000000180034008     libvcruntime:undname.obj
 0002:00001018       ??_C@_0BC@DAFEJGAK@?5Type?5Descriptor?8?$AA@ 0000000180034018     libvcruntime:undname.obj
 0002:00001030       ??_C@_0BM@LDKODKLH@?5Base?5Class?5Descriptor?5at?5?$CI?$AA@ 0000000180034030     libvcruntime:undname.obj
 0002:00001050       ??_C@_0BD@LGICGFMM@?5Base?5Class?5Array?8?$AA@ 0000000180034050     libvcruntime:undname.obj
 0002:00001068       ??_C@_0BN@MECKDCOJ@?5Class?5Hierarchy?5Descriptor?8?$AA@ 0000000180034068     libvcruntime:undname.obj
 0002:00001088       ??_C@_0BK@CFCOFLF@?5Complete?5Object?5Locator?8?$AA@ 0000000180034088     libvcruntime:undname.obj
 0002:000010b0       ??_C@_1EK@MBDPDCGA@?$AAM?$AAi?$AAc?$AAr?$AAo?$AAs?$AAo?$AAf?$AAt?$AA?5?$AAV?$AAi?$AAs?$AAu?$AAa?$AAl?$AA?5?$AAC?$AA?$CL?$AA?$CL?$AA?5?$AAR?$AAu?$AAn?$AAt?$AAi?$AAm?$AAe?$AA?5?$AAL?$AAi?$AAb@ 00000001800340b0     libucrt:assert.obj
 0002:00001100       ??_C@_1FE@LHBLIKM@?$AAA?$AAs?$AAs?$AAe?$AAr?$AAt?$AAi?$AAo?$AAn?$AA?5?$AAf?$AAa?$AAi?$AAl?$AAe?$AAd?$AA?3?$AA?5?$AA?$CF?$AAT?$AAs?$AA?0?$AA?5?$AAf?$AAi?$AAl?$AAe?$AA?5?$AA?$CF?$AAT?$AAs?$AA?0@ 0000000180034100     libucrt:assert.obj
 0002:00001158       ??_C@_1CE@OJBNHDMO@?$AAA?$AAs?$AAs?$AAe?$AAr?$AAt?$AAi?$AAo?$AAn?$AA?5?$AAf?$AAa?$AAi?$AAl?$AAe?$AAd?$AA?$CB?$AA?$AA@ 0000000180034158     libucrt:assert.obj
 0002:00001180       ??_C@_1BE@PHKBBGE@?$AAP?$AAr?$AAo?$AAg?$AAr?$AAa?$AAm?$AA?3?$AA?5?$AA?$AA@ 0000000180034180     libucrt:assert.obj
 0002:00001198       ??_C@_1O@HEMHKNDC@?$AAF?$AAi?$AAl?$AAe?$AA?3?$AA?5?$AA?$AA@ 0000000180034198     libucrt:assert.obj
 0002:000011a8       ??_C@_1O@KCAFKHJE@?$AAL?$AAi?$AAn?$AAe?$AA?3?$AA?5?$AA?$AA@ 00000001800341a8     libucrt:assert.obj
 0002:000011b8       ??_C@_1BK@PEDCIPMA@?$AAE?$AAx?$AAp?$AAr?$AAe?$AAs?$AAs?$AAi?$AAo?$AAn?$AA?3?$AA?5?$AA?$AA@ 00000001800341b8     libucrt:assert.obj
 0002:000011e0       ??_C@_1OA@EGMLFBHJ@?$AAF?$AAo?$AAr?$AA?5?$AAi?$AAn?$AAf?$AAo?$AAr?$AAm?$AAa?$AAt?$AAi?$AAo?$AAn?$AA?5?$AAo?$AAn?$AA?5?$AAh?$AAo?$AAw?$AA?5?$AAy?$AAo?$AAu?$AAr?$AA?5?$AAp?$AAr?$AAo?$AAg@ 00000001800341e0     libucrt:assert.obj
 0002:000012c0       ??_C@_1HK@POCJMFGK@?$AA?$CI?$AAP?$AAr?$AAe?$AAs?$AAs?$AA?5?$AAR?$AAe?$AAt?$AAr?$AAy?$AA?5?$AAt?$AAo?$AA?5?$AAd?$AAe?$AAb?$AAu?$AAg?$AA?5?$AAt?$AAh?$AAe?$AA?5?$AAa?$AAp?$AAp?$AAl?$AAi?$AAc@ 00000001800342c0     libucrt:assert.obj
 0002:00001340       ??_C@_17LGKOMLJ@?$AA?4?$AA?4?$AA?4?$AA?$AA@ 0000000180034340     libucrt:assert.obj
 0002:00001348       ??_C@_13LBAGMAIH@?$AA?6?$AA?$AA@ 0000000180034348     libucrt:assert.obj
 0002:0000134c       ??_C@_15IABLJNFO@?$AA?6?$AA?6?$AA?$AA@ 000000018003434c     libucrt:assert.obj
 0002:00001358       ??_C@_1CO@EAEJAADC@?$AA?$DM?$AAp?$AAr?$AAo?$AAg?$AAr?$AAa?$AAm?$AA?5?$AAn?$AAa?$AAm?$AAe?$AA?5?$AAu?$AAn?$AAk?$AAn?$AAo?$AAw?$AAn?$AA?$DO?$AA?$AA@ 0000000180034358     libucrt:assert.obj
 0002:00001390       __acrt_exception_action_table 0000000180034390     libucrt:exception_filter.obj
 0002:00001450       __acrt_signal_action_table_count 0000000180034450     libucrt:exception_filter.obj
 0002:00001458       __acrt_signal_action_first_fpe_index 0000000180034458     libucrt:exception_filter.obj
 0002:00001460       __acrt_signal_action_fpe_count 0000000180034460     libucrt:exception_filter.obj
 0002:00001468       ??_C@_1BI@BGOHAHKC@?$AAm?$AAs?$AAc?$AAo?$AAr?$AAe?$AAe?$AA?4?$AAd?$AAl?$AAl?$AA?$AA@ 0000000180034468     libucrt:exit.obj
 0002:00001480       ??_C@_0P@MIGLKIOC@CorExitProcess?$AA@ 0000000180034480     libucrt:exit.obj
 0002:00001580       standard_lookup_table      0000000180034580     libucrt:output.obj
 0002:000015dc       ??_C@_06OJHGLDPL@?$CInull?$CJ?$AA@ 00000001800345dc     libucrt:output.obj
 0002:000015e8       ??_C@_1O@CEDCILHN@?$AA?$CI?$AAn?$AAu?$AAl?$AAl?$AA?$CJ?$AA?$AA@ 00000001800345e8     libucrt:output.obj
 0002:00001770       __lc_time_c                0000000180034770     libucrt:nlsdata.obj
 0002:00001a30       ??_C@_03KOEHGMDN@Sun?$AA@  0000000180034a30     libucrt:nlsdata.obj
 0002:00001a34       ??_C@_03PDAGKDH@Mon?$AA@   0000000180034a34     libucrt:nlsdata.obj
 0002:00001a38       ??_C@_03NAGEINEP@Tue?$AA@  0000000180034a38     libucrt:nlsdata.obj
 0002:00001a3c       ??_C@_03MHOMLAJA@Wed?$AA@  0000000180034a3c     libucrt:nlsdata.obj
 0002:00001a40       ??_C@_03IOFIKPDN@Thu?$AA@  0000000180034a40     libucrt:nlsdata.obj
 0002:00001a44       ??_C@_03IDIOELNC@Fri?$AA@  0000000180034a44     libucrt:nlsdata.obj
 0002:00001a48       ??_C@_03FEFJNEK@Sat?$AA@   0000000180034a48     libucrt:nlsdata.obj
 0002:00001a4c       ??_C@_06OOPIFAJ@Sunday?$AA@ 0000000180034a4c     libucrt:nlsdata.obj
 0002:00001a54       ??_C@_06JLEDEDGH@Monday?$AA@ 0000000180034a54     libucrt:nlsdata.obj
 0002:00001a60       ??_C@_07BAAGCFCM@Tuesday?$AA@ 0000000180034a60     libucrt:nlsdata.obj
 0002:00001a68       ??_C@_09DLIGFAKA@Wednesday?$AA@ 0000000180034a68     libucrt:nlsdata.obj
 0002:00001a78       ??_C@_08HACCIKIA@Thursday?$AA@ 0000000180034a78     libucrt:nlsdata.obj
 0002:00001a84       ??_C@_06JECMNKMI@Friday?$AA@ 0000000180034a84     libucrt:nlsdata.obj
 0002:00001a90       ??_C@_08INBOOONO@Saturday?$AA@ 0000000180034a90     libucrt:nlsdata.obj
 0002:00001a9c       ??_C@_03JIHJHPIE@Jan?$AA@  0000000180034a9c     libucrt:nlsdata.obj
 0002:00001aa0       ??_C@_03HJBDCHOM@Feb?$AA@  0000000180034aa0     libucrt:nlsdata.obj
 0002:00001aa4       ??_C@_03ODNJBKGA@Mar?$AA@  0000000180034aa4     libucrt:nlsdata.obj
 0002:00001aa8       ??_C@_03LEOLGMJP@Apr?$AA@  0000000180034aa8     libucrt:nlsdata.obj
 0002:00001aac       ??_C@_03CNMDKL@May?$AA@    0000000180034aac     libucrt:nlsdata.obj
 0002:00001ab0       ??_C@_03IDFGHECI@Jun?$AA@  0000000180034ab0     libucrt:nlsdata.obj
 0002:00001ab4       ??_C@_03LBGABGKK@Jul?$AA@  0000000180034ab4     libucrt:nlsdata.obj
 0002:00001ab8       ??_C@_03IFJFEIGA@Aug?$AA@  0000000180034ab8     libucrt:nlsdata.obj
 0002:00001abc       ??_C@_03GGCAPAJC@Sep?$AA@  0000000180034abc     libucrt:nlsdata.obj
 0002:00001ac0       ??_C@_03BMAOKBAD@Oct?$AA@  0000000180034ac0     libucrt:nlsdata.obj
 0002:00001ac4       ??_C@_03JPJOFNIA@Nov?$AA@  0000000180034ac4     libucrt:nlsdata.obj
 0002:00001ac8       ??_C@_03MKABNOCG@Dec?$AA@  0000000180034ac8     libucrt:nlsdata.obj
 0002:00001ad0       ??_C@_07CGJPFGJA@January?$AA@ 0000000180034ad0     libucrt:nlsdata.obj
 0002:00001ad8       ??_C@_08GNJGEPFN@February?$AA@ 0000000180034ad8     libucrt:nlsdata.obj
 0002:00001ae4       ??_C@_05HPCKOFNC@March?$AA@ 0000000180034ae4     libucrt:nlsdata.obj
 0002:00001aec       ??_C@_05DMJDNLEJ@April?$AA@ 0000000180034aec     libucrt:nlsdata.obj
 0002:00001af4       ??_C@_04CNLMGBGM@June?$AA@ 0000000180034af4     libucrt:nlsdata.obj
 0002:00001afc       ??_C@_04MIEPOIFP@July?$AA@ 0000000180034afc     libucrt:nlsdata.obj
 0002:00001b04       ??_C@_06LBBHFDDG@August?$AA@ 0000000180034b04     libucrt:nlsdata.obj
 0002:00001b10       ??_C@_09BHHEALKD@September?$AA@ 0000000180034b10     libucrt:nlsdata.obj
 0002:00001b20       ??_C@_07JJNFCEND@October?$AA@ 0000000180034b20     libucrt:nlsdata.obj
 0002:00001b28       ??_C@_08HCHEGEOA@November?$AA@ 0000000180034b28     libucrt:nlsdata.obj
 0002:00001b38       ??_C@_08EDHMEBNP@December?$AA@ 0000000180034b38     libucrt:nlsdata.obj
 0002:00001b44       ??_C@_02DEDBPAFC@AM?$AA@   0000000180034b44     libucrt:nlsdata.obj
 0002:00001b48       ??_C@_02CJNFDJBF@PM?$AA@   0000000180034b48     libucrt:nlsdata.obj
 0002:00001b50       ??_C@_08BPBNCDIB@MM?1dd?1yy?$AA@ 0000000180034b50     libucrt:nlsdata.obj
 0002:00001b60       ??_C@_0BE@CKGJFCPC@dddd?0?5MMMM?5dd?0?5yyyy?$AA@ 0000000180034b60     libucrt:nlsdata.obj
 0002:00001b78       ??_C@_08JCCMCCIL@HH?3mm?3ss?$AA@ 0000000180034b78     libucrt:nlsdata.obj
 0002:00001b88       ??_C@_17MBGCMIPB@?$AAS?$AAu?$AAn?$AA?$AA@ 0000000180034b88     libucrt:nlsdata.obj
 0002:00001b90       ??_C@_17KBOMKBF@?$AAM?$AAo?$AAn?$AA?$AA@ 0000000180034b90     libucrt:nlsdata.obj
 0002:00001b98       ??_C@_17BMKGEGOJ@?$AAT?$AAu?$AAe?$AA?$AA@ 0000000180034b98     libucrt:nlsdata.obj
 0002:00001ba0       ??_C@_17CJEDCEPE@?$AAW?$AAe?$AAd?$AA?$AA@ 0000000180034ba0     libucrt:nlsdata.obj
 0002:00001ba8       ??_C@_17PDPHAADD@?$AAT?$AAh?$AAu?$AA?$AA@ 0000000180034ba8     libucrt:nlsdata.obj
 0002:00001bb0       ??_C@_17HFOLPPLP@?$AAF?$AAr?$AAi?$AA?$AA@ 0000000180034bb0     libucrt:nlsdata.obj
 0002:00001bb8       ??_C@_17GGIBDPIH@?$AAS?$AAa?$AAt?$AA?$AA@ 0000000180034bb8     libucrt:nlsdata.obj
 0002:00001bc0       ??_C@_1O@IHNHDHPB@?$AAS?$AAu?$AAn?$AAd?$AAa?$AAy?$AA?$AA@ 0000000180034bc0     libucrt:nlsdata.obj
 0002:00001bd0       ??_C@_1O@MMNBFLIA@?$AAM?$AAo?$AAn?$AAd?$AAa?$AAy?$AA?$AA@ 0000000180034bd0     libucrt:nlsdata.obj
 0002:00001be0       ??_C@_1BA@ENFBFFEK@?$AAT?$AAu?$AAe?$AAs?$AAd?$AAa?$AAy?$AA?$AA@ 0000000180034be0     libucrt:nlsdata.obj
 0002:00001bf0       ??_C@_1BE@EBOGMDOH@?$AAW?$AAe?$AAd?$AAn?$AAe?$AAs?$AAd?$AAa?$AAy?$AA?$AA@ 0000000180034bf0     libucrt:nlsdata.obj
 0002:00001c08       ??_C@_1BC@HHMNLIHE@?$AAT?$AAh?$AAu?$AAr?$AAs?$AAd?$AAa?$AAy?$AA?$AA@ 0000000180034c08     libucrt:nlsdata.obj
 0002:00001c20       ??_C@_1O@PDICJHAG@?$AAF?$AAr?$AAi?$AAd?$AAa?$AAy?$AA?$AA@ 0000000180034c20     libucrt:nlsdata.obj
 0002:00001c30       ??_C@_1BC@ENMNNPAJ@?$AAS?$AAa?$AAt?$AAu?$AAr?$AAd?$AAa?$AAy?$AA?$AA@ 0000000180034c30     libucrt:nlsdata.obj
 0002:00001c48       ??_C@_17DKNBKCHM@?$AAJ?$AAa?$AAn?$AA?$AA@ 0000000180034c48     libucrt:nlsdata.obj
 0002:00001c50       ??_C@_17LMDJEKJN@?$AAF?$AAe?$AAb?$AA?$AA@ 0000000180034c50     libucrt:nlsdata.obj
 0002:00001c58       ??_C@_17CKNLEDEC@?$AAM?$AAa?$AAr?$AA?$AA@ 0000000180034c58     libucrt:nlsdata.obj
 0002:00001c60       ??_C@_17LFPOIHDD@?$AAA?$AAp?$AAr?$AA?$AA@ 0000000180034c60     libucrt:nlsdata.obj
 0002:00001c68       ??_C@_17PNNKMEED@?$AAM?$AAa?$AAy?$AA?$AA@ 0000000180034c68     libucrt:nlsdata.obj
 0002:00001c70       ??_C@_17KCJGOCPB@?$AAJ?$AAu?$AAn?$AA?$AA@ 0000000180034c70     libucrt:nlsdata.obj
 0002:00001c78       ??_C@_17IJPCKHK@?$AAJ?$AAu?$AAl?$AA?$AA@ 0000000180034c78     libucrt:nlsdata.obj
 0002:00001c80       ??_C@_17ICPELBCN@?$AAA?$AAu?$AAg?$AA?$AA@ 0000000180034c80     libucrt:nlsdata.obj
 0002:00001c88       ??_C@_17HCHCOKMG@?$AAS?$AAe?$AAp?$AA?$AA@ 0000000180034c88     libucrt:nlsdata.obj
 0002:00001c90       ??_C@_17FNLKOI@?$AAO?$AAc?$AAt?$AA?$AA@ 0000000180034c90     libucrt:nlsdata.obj
 0002:00001c98       ??_C@_17BBDMLCIG@?$AAN?$AAo?$AAv?$AA?$AA@ 0000000180034c98     libucrt:nlsdata.obj
 0002:00001ca0       ??_C@_17EGKACKIF@?$AAD?$AAe?$AAc?$AA?$AA@ 0000000180034ca0     libucrt:nlsdata.obj
 0002:00001ca8       ??_C@_1BA@EFMEIEBA@?$AAJ?$AAa?$AAn?$AAu?$AAa?$AAr?$AAy?$AA?$AA@ 0000000180034ca8     libucrt:nlsdata.obj
 0002:00001cb8       ??_C@_1BC@JGDDFFAM@?$AAF?$AAe?$AAb?$AAr?$AAu?$AAa?$AAr?$AAy?$AA?$AA@ 0000000180034cb8     libucrt:nlsdata.obj
 0002:00001cd0       ??_C@_1M@IKEENEDF@?$AAM?$AAa?$AAr?$AAc?$AAh?$AA?$AA@ 0000000180034cd0     libucrt:nlsdata.obj
 0002:00001ce0       ??_C@_1M@GJNLMHFD@?$AAA?$AAp?$AAr?$AAi?$AAl?$AA?$AA@ 0000000180034ce0     libucrt:nlsdata.obj
 0002:00001cf0       ??_C@_19EPFLPGAP@?$AAJ?$AAu?$AAn?$AAe?$AA?$AA@ 0000000180034cf0     libucrt:nlsdata.obj
 0002:00001d00       ??_C@_19BIFMLPCD@?$AAJ?$AAu?$AAl?$AAy?$AA?$AA@ 0000000180034d00     libucrt:nlsdata.obj
 0002:00001d10       ??_C@_1O@PAHLKOAC@?$AAA?$AAu?$AAg?$AAu?$AAs?$AAt?$AA?$AA@ 0000000180034d10     libucrt:nlsdata.obj
 0002:00001d20       ??_C@_1BE@DKAAMBJL@?$AAS?$AAe?$AAp?$AAt?$AAe?$AAm?$AAb?$AAe?$AAr?$AA?$AA@ 0000000180034d20     libucrt:nlsdata.obj
 0002:00001d38       ??_C@_1BA@EPANDLNG@?$AAO?$AAc?$AAt?$AAo?$AAb?$AAe?$AAr?$AA?$AA@ 0000000180034d38     libucrt:nlsdata.obj
 0002:00001d48       ??_C@_1BC@BGLIFPF@?$AAN?$AAo?$AAv?$AAe?$AAm?$AAb?$AAe?$AAr?$AA?$AA@ 0000000180034d48     libucrt:nlsdata.obj
 0002:00001d60       ??_C@_1BC@FEMKIFH@?$AAD?$AAe?$AAc?$AAe?$AAm?$AAb?$AAe?$AAr?$AA?$AA@ 0000000180034d60     libucrt:nlsdata.obj
 0002:00001d74       ??_C@_15ODEHAHHF@?$AAA?$AAM?$AA?$AA@ 0000000180034d74     libucrt:nlsdata.obj
 0002:00001d7c       ??_C@_15CLMNNGEL@?$AAP?$AAM?$AA?$AA@ 0000000180034d7c     libucrt:nlsdata.obj
 0002:00001d88       ??_C@_1BC@IEBCMHCM@?$AAM?$AAM?$AA?1?$AAd?$AAd?$AA?1?$AAy?$AAy?$AA?$AA@ 0000000180034d88     libucrt:nlsdata.obj
 0002:00001da0       ??_C@_1CI@KNAKOEBC@?$AAd?$AAd?$AAd?$AAd?$AA?0?$AA?5?$AAM?$AAM?$AAM?$AAM?$AA?5?$AAd?$AAd?$AA?0?$AA?5?$AAy?$AAy?$AAy?$AAy?$AA?$AA@ 0000000180034da0     libucrt:nlsdata.obj
 0002:00001dc8       ??_C@_1BC@GDGBMEMK@?$AAH?$AAH?$AA?3?$AAm?$AAm?$AA?3?$AAs?$AAs?$AA?$AA@ 0000000180034dc8     libucrt:nlsdata.obj
 0002:00001de0       ??_C@_1M@BMHNFIME@?$AAe?$AAn?$AA?9?$AAU?$AAS?$AA?$AA@ 0000000180034de0     libucrt:nlsdata.obj
 0002:00001e90       ??_C@_1EG@CNNIPFIM@?$AAa?$AAp?$AAi?$AA?9?$AAm?$AAs?$AA?9?$AAw?$AAi?$AAn?$AA?9?$AAa?$AAp?$AAp?$AAm?$AAo?$AAd?$AAe?$AAl?$AA?9?$AAr?$AAu?$AAn?$AAt?$AAi?$AAm?$AAe?$AA?9?$AAl?$AA1?$AA?9?$AA1@ 0000000180034e90     libucrt:winapi_thunks.obj
 0002:00001ee0       ??_C@_1EA@JGEFHKEI@?$AAa?$AAp?$AAi?$AA?9?$AAm?$AAs?$AA?9?$AAw?$AAi?$AAn?$AA?9?$AAc?$AAo?$AAr?$AAe?$AA?9?$AAd?$AAa?$AAt?$AAe?$AAt?$AAi?$AAm?$AAe?$AA?9?$AAl?$AA1?$AA?9?$AA1?$AA?9?$AA1?$AA?$AA@ 0000000180034ee0     libucrt:winapi_thunks.obj
 0002:00001f20       ??_C@_1DI@GCIAAENM@?$AAa?$AAp?$AAi?$AA?9?$AAm?$AAs?$AA?9?$AAw?$AAi?$AAn?$AA?9?$AAc?$AAo?$AAr?$AAe?$AA?9?$AAf?$AAi?$AAl?$AAe?$AA?9?$AAl?$AA2?$AA?9?$AA1?$AA?9?$AA1?$AA?$AA@ 0000000180034f20     libucrt:winapi_thunks.obj
 0002:00001f60       ??_C@_1EI@MPIAOHOC@?$AAa?$AAp?$AAi?$AA?9?$AAm?$AAs?$AA?9?$AAw?$AAi?$AAn?$AA?9?$AAc?$AAo?$AAr?$AAe?$AA?9?$AAl?$AAo?$AAc?$AAa?$AAl?$AAi?$AAz?$AAa?$AAt?$AAi?$AAo?$AAn?$AA?9?$AAl?$AA1?$AA?9@ 0000000180034f60     libucrt:winapi_thunks.obj
 0002:00001fb0       ??_C@_1FK@FPHCKFIE@?$AAa?$AAp?$AAi?$AA?9?$AAm?$AAs?$AA?9?$AAw?$AAi?$AAn?$AA?9?$AAc?$AAo?$AAr?$AAe?$AA?9?$AAl?$AAo?$AAc?$AAa?$AAl?$AAi?$AAz?$AAa?$AAt?$AAi?$AAo?$AAn?$AA?9?$AAo?$AAb?$AAs@ 0000000180034fb0     libucrt:winapi_thunks.obj
 0002:00002010       ??_C@_1EM@DILCGIIO@?$AAa?$AAp?$AAi?$AA?9?$AAm?$AAs?$AA?9?$AAw?$AAi?$AAn?$AA?9?$AAc?$AAo?$AAr?$AAe?$AA?9?$AAp?$AAr?$AAo?$AAc?$AAe?$AAs?$AAs?$AAt?$AAh?$AAr?$AAe?$AAa?$AAd?$AAs?$AA?9?$AAl@ 0000000180035010     libucrt:winapi_thunks.obj
 0002:00002060       ??_C@_1DM@LNCGDDPN@?$AAa?$AAp?$AAi?$AA?9?$AAm?$AAs?$AA?9?$AAw?$AAi?$AAn?$AA?9?$AAc?$AAo?$AAr?$AAe?$AA?9?$AAs?$AAt?$AAr?$AAi?$AAn?$AAg?$AA?9?$AAl?$AA1?$AA?9?$AA1?$AA?9?$AA0?$AA?$AA@ 0000000180035060     libucrt:winapi_thunks.obj
 0002:000020a0       ??_C@_1DO@FPAPJEMD@?$AAa?$AAp?$AAi?$AA?9?$AAm?$AAs?$AA?9?$AAw?$AAi?$AAn?$AA?9?$AAc?$AAo?$AAr?$AAe?$AA?9?$AAs?$AAy?$AAs?$AAi?$AAn?$AAf?$AAo?$AA?9?$AAl?$AA1?$AA?9?$AA2?$AA?9?$AA1?$AA?$AA@ 00000001800350a0     libucrt:winapi_thunks.obj
 0002:000020e0       ??_C@_1DK@NDHNAHIO@?$AAa?$AAp?$AAi?$AA?9?$AAm?$AAs?$AA?9?$AAw?$AAi?$AAn?$AA?9?$AAc?$AAo?$AAr?$AAe?$AA?9?$AAw?$AAi?$AAn?$AAr?$AAt?$AA?9?$AAl?$AA1?$AA?9?$AA1?$AA?9?$AA0?$AA?$AA@ 00000001800350e0     libucrt:winapi_thunks.obj
 0002:00002120       ??_C@_1DM@KGHDGBCM@?$AAa?$AAp?$AAi?$AA?9?$AAm?$AAs?$AA?9?$AAw?$AAi?$AAn?$AA?9?$AAc?$AAo?$AAr?$AAe?$AA?9?$AAx?$AAs?$AAt?$AAa?$AAt?$AAe?$AA?9?$AAl?$AA2?$AA?9?$AA1?$AA?9?$AA0?$AA?$AA@ 0000000180035120     libucrt:winapi_thunks.obj
 0002:00002160       ??_C@_1EO@IJIOEFOH@?$AAa?$AAp?$AAi?$AA?9?$AAm?$AAs?$AA?9?$AAw?$AAi?$AAn?$AA?9?$AAr?$AAt?$AAc?$AAo?$AAr?$AAe?$AA?9?$AAn?$AAt?$AAu?$AAs?$AAe?$AAr?$AA?9?$AAw?$AAi?$AAn?$AAd?$AAo?$AAw?$AA?9@ 0000000180035160     libucrt:winapi_thunks.obj
 0002:000021b0       ??_C@_1FG@HHGEKANL@?$AAa?$AAp?$AAi?$AA?9?$AAm?$AAs?$AA?9?$AAw?$AAi?$AAn?$AA?9?$AAs?$AAe?$AAc?$AAu?$AAr?$AAi?$AAt?$AAy?$AA?9?$AAs?$AAy?$AAs?$AAt?$AAe?$AAm?$AAf?$AAu?$AAn?$AAc?$AAt?$AAi@ 00000001800351b0     libucrt:winapi_thunks.obj
 0002:00002210       ??_C@_1FG@NCKKOLKO@?$AAe?$AAx?$AAt?$AA?9?$AAm?$AAs?$AA?9?$AAw?$AAi?$AAn?$AA?9?$AAk?$AAe?$AAr?$AAn?$AAe?$AAl?$AA3?$AA2?$AA?9?$AAp?$AAa?$AAc?$AAk?$AAa?$AAg?$AAe?$AA?9?$AAc?$AAu?$AAr?$AAr@ 0000000180035210     libucrt:winapi_thunks.obj
 0002:00002270       ??_C@_1EG@DBIOJECG@?$AAe?$AAx?$AAt?$AA?9?$AAm?$AAs?$AA?9?$AAw?$AAi?$AAn?$AA?9?$AAn?$AAt?$AAu?$AAs?$AAe?$AAr?$AA?9?$AAd?$AAi?$AAa?$AAl?$AAo?$AAg?$AAb?$AAo?$AAx?$AA?9?$AAl?$AA1?$AA?9?$AA1@ 0000000180035270     libucrt:winapi_thunks.obj
 0002:000022c0       ??_C@_1EO@FIHMJCLF@?$AAe?$AAx?$AAt?$AA?9?$AAm?$AAs?$AA?9?$AAw?$AAi?$AAn?$AA?9?$AAn?$AAt?$AAu?$AAs?$AAe?$AAr?$AA?9?$AAw?$AAi?$AAn?$AAd?$AAo?$AAw?$AAs?$AAt?$AAa?$AAt?$AAi?$AAo?$AAn?$AA?9@ 00000001800352c0     libucrt:winapi_thunks.obj
 0002:00002310       ??_C@_1O@BCCLBEOE@?$AAu?$AAs?$AAe?$AAr?$AA3?$AA2?$AA?$AA@ 0000000180035310     libucrt:winapi_thunks.obj
 0002:00002348       ??_C@_0BA@HNOPNCHB@GetActiveWindow?$AA@ 0000000180035348     libucrt:winapi_thunks.obj
 0002:00002360       ??_C@_0BE@JOGNEJCI@GetCurrentPackageId?$AA@ 0000000180035360     libucrt:winapi_thunks.obj
 0002:00002380       ??_C@_0BD@HHGDFDBJ@GetLastActivePopup?$AA@ 0000000180035380     libucrt:winapi_thunks.obj
 0002:000023a0       ??_C@_0BI@DFKBFLJE@GetProcessWindowStation?$AA@ 00000001800353a0     libucrt:winapi_thunks.obj
 0002:000023c0       ??_C@_0BK@DEKFELLI@GetUserObjectInformationW?$AA@ 00000001800353c0     libucrt:winapi_thunks.obj
 0002:000023f0       ??_C@_0O@KKBNKAPF@LCMapStringEx?$AA@ 00000001800353f0     libucrt:winapi_thunks.obj
 0002:00002408       ??_C@_0BB@HBDEELFH@LocaleNameToLCID?$AA@ 0000000180035408     libucrt:winapi_thunks.obj
 0002:00002428       ??_C@_0M@CHKKJDAI@MessageBoxA?$AA@ 0000000180035428     libucrt:winapi_thunks.obj
 0002:00002440       ??_C@_0M@DLDCCGNP@MessageBoxW?$AA@ 0000000180035440     libucrt:winapi_thunks.obj
 0002:00002470       ??_C@_1M@HPNHIDJI@?$AAj?$AAa?$AA?9?$AAJ?$AAP?$AA?$AA@ 0000000180035470     libucrt:mbctype.obj
 0002:00002480       ??_C@_1M@BIBDDEMK@?$AAz?$AAh?$AA?9?$AAC?$AAN?$AA?$AA@ 0000000180035480     libucrt:mbctype.obj
 0002:00002490       ??_C@_1M@JLOOOEGK@?$AAk?$AAo?$AA?9?$AAK?$AAR?$AA?$AA@ 0000000180035490     libucrt:mbctype.obj
 0002:000024a0       ??_C@_1M@CLNBBOPM@?$AAz?$AAh?$AA?9?$AAT?$AAW?$AA?$AA@ 00000001800354a0     libucrt:mbctype.obj
 0002:000024ac       ??_C@_03OEIAHPBN@INF?$AA@  00000001800354ac     libucrt:cvt.obj
 0002:000024b0       ??_C@_03OJHLLCGB@inf?$AA@  00000001800354b0     libucrt:cvt.obj
 0002:000024b4       ??_C@_03LKNCIKJB@NAN?$AA@  00000001800354b4     libucrt:cvt.obj
 0002:000024b8       ??_C@_03LHCJEHON@nan?$AA@  00000001800354b8     libucrt:cvt.obj
 0002:000024c0       ??_C@_09OFJJIMPC@NAN?$CISNAN?$CJ?$AA@ 00000001800354c0     libucrt:cvt.obj
 0002:000024d0       ??_C@_09IPFBKMDL@nan?$CIsnan?$CJ?$AA@ 00000001800354d0     libucrt:cvt.obj
 0002:000024e0       ??_C@_08IKHNHAJ@NAN?$CIIND?$CJ?$AA@ 00000001800354e0     libucrt:cvt.obj
 0002:000024f0       ??_C@_08OFCDMILK@nan?$CIind?$CJ?$AA@ 00000001800354f0     libucrt:cvt.obj
 0002:000024fc       ??_C@_05KLBDPFGC@e?$CL000?$AA@ 00000001800354fc     libucrt:cvt.obj
 0002:00002510       __newctype                 0000000180035510     libucrt:ctype.obj
 0002:00002810       __newclmap                 0000000180035810     libucrt:ctype.obj
 0002:00002990       __newcumap                 0000000180035990     libucrt:ctype.obj
 0002:00002b10       _wctype                    0000000180035b10     libucrt:ctype.obj
 0002:00002d14       ??_C@_15PJPFLCCM@?$AAu?$AAk?$AA?$AA@ 0000000180035d14     libucrt:get_qualified_locale.obj
 0002:00003b60       ??_C@_15EMKDOKLE@?$AAa?$AAr?$AA?$AA@ 0000000180036b60     libucrt:lcidtoname_downlevel.obj
 0002:00003b68       ??_C@_15KNPADPLH@?$AAb?$AAg?$AA?$AA@ 0000000180036b68     libucrt:lcidtoname_downlevel.obj
 0002:00003b70       ??_C@_15EDMHLDMO@?$AAc?$AAa?$AA?$AA@ 0000000180036b70     libucrt:lcidtoname_downlevel.obj
 0002:00003b78       ??_C@_1O@BPEAJADD@?$AAz?$AAh?$AA?9?$AAC?$AAH?$AAS?$AA?$AA@ 0000000180036b78     libucrt:lcidtoname_downlevel.obj
 0002:00003b88       ??_C@_15LJNHCMNK@?$AAc?$AAs?$AA?$AA@ 0000000180036b88     libucrt:lcidtoname_downlevel.obj
 0002:00003b90       ??_C@_15FOMCIDHG@?$AAd?$AAa?$AA?$AA@ 0000000180036b90     libucrt:lcidtoname_downlevel.obj
 0002:00003b98       ??_C@_15NBKABECB@?$AAd?$AAe?$AA?$AA@ 0000000180036b98     libucrt:lcidtoname_downlevel.obj
 0002:00003ba0       ??_C@_15GHPEIIAO@?$AAe?$AAl?$AA?$AA@ 0000000180036ba0     libucrt:lcidtoname_downlevel.obj
 0002:00003ba8       ??_C@_15MNPNEAIF@?$AAe?$AAn?$AA?$AA@ 0000000180036ba8     libucrt:lcidtoname_downlevel.obj
 0002:00003bb0       ??_C@_15GPIOMPMH@?$AAe?$AAs?$AA?$AA@ 0000000180036bb0     libucrt:lcidtoname_downlevel.obj
 0002:00003bb8       ??_C@_15NGLOAKJC@?$AAf?$AAi?$AA?$AA@ 0000000180036bb8     libucrt:lcidtoname_downlevel.obj
 0002:00003bc0       ??_C@_15FBKGNKAM@?$AAf?$AAr?$AA?$AA@ 0000000180036bc0     libucrt:lcidtoname_downlevel.obj
 0002:00003bc8       ??_C@_15KGGCNEFK@?$AAh?$AAe?$AA?$AA@ 0000000180036bc8     libucrt:lcidtoname_downlevel.obj
 0002:00003bd0       ??_C@_15PGHLIDMF@?$AAh?$AAu?$AA?$AA@ 0000000180036bd0     libucrt:lcidtoname_downlevel.obj
 0002:00003bd8       ??_C@_15BIEMAPLM@?$AAi?$AAs?$AA?$AA@ 0000000180036bd8     libucrt:lcidtoname_downlevel.obj
 0002:00003be0       ??_C@_15IFJLDHAF@?$AAi?$AAt?$AA?$AA@ 0000000180036be0     libucrt:lcidtoname_downlevel.obj
 0002:00003be8       ??_C@_15GEMIOCAG@?$AAj?$AAa?$AA?$AA@ 0000000180036be8     libucrt:lcidtoname_downlevel.obj
 0002:00003bf0       ??_C@_15EPELEGJA@?$AAk?$AAo?$AA?$AA@ 0000000180036bf0     libucrt:lcidtoname_downlevel.obj
 0002:00003bf8       ??_C@_15NDDHIMN@?$AAn?$AAl?$AA?$AA@ 0000000180036bf8     libucrt:lcidtoname_downlevel.obj
 0002:00003c00       ??_C@_15BPIGNHCD@?$AAn?$AAo?$AA?$AA@ 0000000180036c00     libucrt:lcidtoname_downlevel.obj
 0002:00003c08       ??_C@_15DEOPBLCG@?$AAp?$AAl?$AA?$AA@ 0000000180036c08     libucrt:lcidtoname_downlevel.obj
 0002:00003c10       ??_C@_15KBECGEFG@?$AAp?$AAt?$AA?$AA@ 0000000180036c10     libucrt:lcidtoname_downlevel.obj
 0002:00003c18       ??_C@_15GLJCBFMD@?$AAr?$AAo?$AA?$AA@ 0000000180036c18     libucrt:lcidtoname_downlevel.obj
 0002:00003c20       ??_C@_15FEDGKCDI@?$AAr?$AAu?$AA?$AA@ 0000000180036c20     libucrt:lcidtoname_downlevel.obj
 0002:00003c28       ??_C@_15GLKMLLHM@?$AAh?$AAr?$AA?$AA@ 0000000180036c28     libucrt:lcidtoname_downlevel.obj
 0002:00003c30       ??_C@_15CPKMFBDB@?$AAs?$AAk?$AA?$AA@ 0000000180036c30     libucrt:lcidtoname_downlevel.obj
 0002:00003c38       ??_C@_15BAAIOGMK@?$AAs?$AAq?$AA?$AA@ 0000000180036c38     libucrt:lcidtoname_downlevel.obj
 0002:00003c40       ??_C@_15INNPNOHD@?$AAs?$AAv?$AA?$AA@ 0000000180036c40     libucrt:lcidtoname_downlevel.obj
 0002:00003c48       ??_C@_15CABMMOGH@?$AAt?$AAh?$AA?$AA@ 0000000180036c48     libucrt:lcidtoname_downlevel.obj
 0002:00003c50       ??_C@_15BPLIHJJM@?$AAt?$AAr?$AA?$AA@ 0000000180036c50     libucrt:lcidtoname_downlevel.obj
 0002:00003c58       ??_C@_15NEOEKKDJ@?$AAu?$AAr?$AA?$AA@ 0000000180036c58     libucrt:lcidtoname_downlevel.obj
 0002:00003c60       ??_C@_15NFICGAJK@?$AAi?$AAd?$AA?$AA@ 0000000180036c60     libucrt:lcidtoname_downlevel.obj
 0002:00003c68       ??_C@_15HPJPHDM@?$AAb?$AAe?$AA?$AA@ 0000000180036c68     libucrt:lcidtoname_downlevel.obj
 0002:00003c70       ??_C@_15LCHLGJII@?$AAs?$AAl?$AA?$AA@ 0000000180036c70     libucrt:lcidtoname_downlevel.obj
 0002:00003c78       ??_C@_15PCFJPHHO@?$AAe?$AAt?$AA?$AA@ 0000000180036c78     libucrt:lcidtoname_downlevel.obj
 0002:00003c80       ??_C@_15HPFPGODN@?$AAl?$AAv?$AA?$AA@ 0000000180036c80     libucrt:lcidtoname_downlevel.obj
 0002:00003c88       ??_C@_15NFFGKGLG@?$AAl?$AAt?$AA?$AA@ 0000000180036c88     libucrt:lcidtoname_downlevel.obj
 0002:00003c90       ??_C@_15BDAKCCHN@?$AAf?$AAa?$AA?$AA@ 0000000180036c90     libucrt:lcidtoname_downlevel.obj
 0002:00003c98       ??_C@_15NFGIAIAJ@?$AAv?$AAi?$AA?$AA@ 0000000180036c98     libucrt:lcidtoname_downlevel.obj
 0002:00003ca0       ??_C@_15LMKNDMHN@?$AAh?$AAy?$AA?$AA@ 0000000180036ca0     libucrt:lcidtoname_downlevel.obj
 0002:00003ca8       ??_C@_15IJBHMCFL@?$AAa?$AAz?$AA?$AA@ 0000000180036ca8     libucrt:lcidtoname_downlevel.obj
 0002:00003cb0       ??_C@_15EKOFJABL@?$AAe?$AAu?$AA?$AA@ 0000000180036cb0     libucrt:lcidtoname_downlevel.obj
 0002:00003cb8       ??_C@_15BGHADCNK@?$AAm?$AAk?$AA?$AA@ 0000000180036cb8     libucrt:lcidtoname_downlevel.obj
 0002:00003cc0       ??_C@_15JDNICKHM@?$AAa?$AAf?$AA?$AA@ 0000000180036cc0     libucrt:lcidtoname_downlevel.obj
 0002:00003cc8       ??_C@_15KPJEDBKD@?$AAk?$AAa?$AA?$AA@ 0000000180036cc8     libucrt:lcidtoname_downlevel.obj
 0002:00003cd0       ??_C@_15PDNFFFEO@?$AAf?$AAo?$AA?$AA@ 0000000180036cd0     libucrt:lcidtoname_downlevel.obj
 0002:00003cd8       ??_C@_15OMLEGLOC@?$AAh?$AAi?$AA?$AA@ 0000000180036cd8     libucrt:lcidtoname_downlevel.obj
 0002:00003ce0       ??_C@_15IDNNENKK@?$AAm?$AAs?$AA?$AA@ 0000000180036ce0     libucrt:lcidtoname_downlevel.obj
 0002:00003ce8       ??_C@_15MACJNBMH@?$AAk?$AAk?$AA?$AA@ 0000000180036ce8     libucrt:lcidtoname_downlevel.obj
 0002:00003cf0       ??_C@_15DKDJEOND@?$AAk?$AAy?$AA?$AA@ 0000000180036cf0     libucrt:lcidtoname_downlevel.obj
 0002:00003cf8       ??_C@_15DFGDLJBG@?$AAs?$AAw?$AA?$AA@ 0000000180036cf8     libucrt:lcidtoname_downlevel.obj
 0002:00003d00       ??_C@_15BBFAICNG@?$AAu?$AAz?$AA?$AA@ 0000000180036d00     libucrt:lcidtoname_downlevel.obj
 0002:00003d08       ??_C@_15DKNDCGEA@?$AAt?$AAt?$AA?$AA@ 0000000180036d08     libucrt:lcidtoname_downlevel.obj
 0002:00003d10       ??_C@_15MGIFMDPL@?$AAp?$AAa?$AA?$AA@ 0000000180036d10     libucrt:lcidtoname_downlevel.obj
 0002:00003d18       ??_C@_15HCNDBBA@?$AAg?$AAu?$AA?$AA@ 0000000180036d18     libucrt:lcidtoname_downlevel.obj
 0002:00003d20       ??_C@_15FNBEIBON@?$AAt?$AAa?$AA?$AA@ 0000000180036d20     libucrt:lcidtoname_downlevel.obj
 0002:00003d28       ??_C@_15NCHGBGLK@?$AAt?$AAe?$AA?$AA@ 0000000180036d28     libucrt:lcidtoname_downlevel.obj
 0002:00003d30       ??_C@_15PHPHCBPF@?$AAk?$AAn?$AA?$AA@ 0000000180036d30     libucrt:lcidtoname_downlevel.obj
 0002:00003d38       ??_C@_15DLGBCKMP@?$AAm?$AAr?$AA?$AA@ 0000000180036d38     libucrt:lcidtoname_downlevel.obj
 0002:00003d40       ??_C@_15EABBLBFF@?$AAs?$AAa?$AA?$AA@ 0000000180036d40     libucrt:lcidtoname_downlevel.obj
 0002:00003d48       ??_C@_15CBKOMCOI@?$AAm?$AAn?$AA?$AA@ 0000000180036d48     libucrt:lcidtoname_downlevel.obj
 0002:00003d50       ??_C@_15CKDMCJAF@?$AAg?$AAl?$AA?$AA@ 0000000180036d50     libucrt:lcidtoname_downlevel.obj
 0002:00003d58       ??_C@_17CNJFBPG@?$AAk?$AAo?$AAk?$AA?$AA@ 0000000180036d58     libucrt:lcidtoname_downlevel.obj
 0002:00003d60       ??_C@_17FFBJICPL@?$AAs?$AAy?$AAr?$AA?$AA@ 0000000180036d60     libucrt:lcidtoname_downlevel.obj
 0002:00003d68       ??_C@_17KPNDCPAF@?$AAd?$AAi?$AAv?$AA?$AA@ 0000000180036d68     libucrt:lcidtoname_downlevel.obj
 0002:00003d70       ??_C@_11LOCGONAA@?$AA?$AA@ 0000000180036d70     libucrt:lcidtoname_downlevel.obj
 0002:00003d78       ??_C@_1M@OKAHONE@?$AAa?$AAr?$AA?9?$AAS?$AAA?$AA?$AA@ 0000000180036d78     libucrt:lcidtoname_downlevel.obj
 0002:00003d88       ??_C@_1M@FFFIGIGK@?$AAb?$AAg?$AA?9?$AAB?$AAG?$AA?$AA@ 0000000180036d88     libucrt:lcidtoname_downlevel.obj
 0002:00003d98       ??_C@_1M@BJNKEDC@?$AAc?$AAa?$AA?9?$AAE?$AAS?$AA?$AA@ 0000000180036d98     libucrt:lcidtoname_downlevel.obj
 0002:00003da8       ??_C@_1M@IJJHFJHA@?$AAc?$AAs?$AA?9?$AAC?$AAZ?$AA?$AA@ 0000000180036da8     libucrt:lcidtoname_downlevel.obj
 0002:00003db8       ??_C@_1M@CLPEOBGI@?$AAd?$AAa?$AA?9?$AAD?$AAK?$AA?$AA@ 0000000180036db8     libucrt:lcidtoname_downlevel.obj
 0002:00003dc8       ??_C@_1M@MCMADGCB@?$AAd?$AAe?$AA?9?$AAD?$AAE?$AA?$AA@ 0000000180036dc8     libucrt:lcidtoname_downlevel.obj
 0002:00003dd8       ??_C@_1M@OOCKEMAM@?$AAe?$AAl?$AA?9?$AAG?$AAR?$AA?$AA@ 0000000180036dd8     libucrt:lcidtoname_downlevel.obj
 0002:00003de8       ??_C@_1M@DDNJFGID@?$AAf?$AAi?$AA?9?$AAF?$AAI?$AA?$AA@ 0000000180036de8     libucrt:lcidtoname_downlevel.obj
 0002:00003df8       ??_C@_1M@GLIPPMAC@?$AAf?$AAr?$AA?9?$AAF?$AAR?$AA?$AA@ 0000000180036df8     libucrt:lcidtoname_downlevel.obj
 0002:00003e08       ??_C@_1M@GFMCHPE@?$AAh?$AAe?$AA?9?$AAI?$AAL?$AA?$AA@ 0000000180036e08     libucrt:lcidtoname_downlevel.obj
 0002:00003e18       ??_C@_1M@MHLPGNKM@?$AAh?$AAu?$AA?9?$AAH?$AAU?$AA?$AA@ 0000000180036e18     libucrt:lcidtoname_downlevel.obj
 0002:00003e28       ??_C@_1M@LPDDNNPN@?$AAi?$AAs?$AA?9?$AAI?$AAS?$AA?$AA@ 0000000180036e28     libucrt:lcidtoname_downlevel.obj
 0002:00003e38       ??_C@_1M@MADIPODN@?$AAi?$AAt?$AA?9?$AAI?$AAT?$AA?$AA@ 0000000180036e38     libucrt:lcidtoname_downlevel.obj
 0002:00003e48       ??_C@_1M@IHBJJGG@?$AAn?$AAl?$AA?9?$AAN?$AAL?$AA?$AA@ 0000000180036e48     libucrt:lcidtoname_downlevel.obj
 0002:00003e58       ??_C@_1M@EANAGDL@?$AAn?$AAb?$AA?9?$AAN?$AAO?$AA?$AA@ 0000000180036e58     libucrt:lcidtoname_downlevel.obj
 0002:00003e68       ??_C@_1M@NEIEMEGP@?$AAp?$AAl?$AA?9?$AAP?$AAL?$AA?$AA@ 0000000180036e68     libucrt:lcidtoname_downlevel.obj
 0002:00003e78       ??_C@_1M@BOCFIGEP@?$AAp?$AAt?$AA?9?$AAB?$AAR?$AA?$AA@ 0000000180036e78     libucrt:lcidtoname_downlevel.obj
 0002:00003e88       ??_C@_1M@IMPFOPBG@?$AAr?$AAo?$AA?9?$AAR?$AAO?$AA?$AA@ 0000000180036e88     libucrt:lcidtoname_downlevel.obj
 0002:00003e98       ??_C@_1M@IDNNEJMM@?$AAr?$AAu?$AA?9?$AAR?$AAU?$AA?$AA@ 0000000180036e98     libucrt:lcidtoname_downlevel.obj
 0002:00003ea8       ??_C@_1M@LILEEOGM@?$AAh?$AAr?$AA?9?$AAH?$AAR?$AA?$AA@ 0000000180036ea8     libucrt:lcidtoname_downlevel.obj
 0002:00003eb8       ??_C@_1M@FKIFEHPB@?$AAs?$AAk?$AA?9?$AAS?$AAK?$AA?$AA@ 0000000180036eb8     libucrt:lcidtoname_downlevel.obj
 0002:00003ec8       ??_C@_1M@LJMAMNPJ@?$AAs?$AAq?$AA?9?$AAA?$AAL?$AA?$AA@ 0000000180036ec8     libucrt:lcidtoname_downlevel.obj
 0002:00003ed8       ??_C@_1M@GIAKDKJK@?$AAs?$AAv?$AA?9?$AAS?$AAE?$AA?$AA@ 0000000180036ed8     libucrt:lcidtoname_downlevel.obj
 0002:00003ee8       ??_C@_1M@MKJKIKCL@?$AAt?$AAh?$AA?9?$AAT?$AAH?$AA?$AA@ 0000000180036ee8     libucrt:lcidtoname_downlevel.obj
 0002:00003ef8       ??_C@_1M@MFLCCMPB@?$AAt?$AAr?$AA?9?$AAT?$AAR?$AA?$AA@ 0000000180036ef8     libucrt:lcidtoname_downlevel.obj
 0002:00003f08       ??_C@_1M@OIJHDKJN@?$AAu?$AAr?$AA?9?$AAP?$AAK?$AA?$AA@ 0000000180036f08     libucrt:lcidtoname_downlevel.obj
 0002:00003f18       ??_C@_1M@LHIPCIEK@?$AAi?$AAd?$AA?9?$AAI?$AAD?$AA?$AA@ 0000000180036f18     libucrt:lcidtoname_downlevel.obj
 0002:00003f28       ??_C@_1M@MFMOBGI@?$AAu?$AAk?$AA?9?$AAU?$AAA?$AA?$AA@ 0000000180036f28     libucrt:lcidtoname_downlevel.obj
 0002:00003f38       ??_C@_1M@OBGLJIPL@?$AAb?$AAe?$AA?9?$AAB?$AAY?$AA?$AA@ 0000000180036f38     libucrt:lcidtoname_downlevel.obj
 0002:00003f48       ??_C@_1M@BCFAJEAD@?$AAs?$AAl?$AA?9?$AAS?$AAI?$AA?$AA@ 0000000180036f48     libucrt:lcidtoname_downlevel.obj
 0002:00003f58       ??_C@_1M@FKFFEDDN@?$AAe?$AAt?$AA?9?$AAE?$AAE?$AA?$AA@ 0000000180036f58     libucrt:lcidtoname_downlevel.obj
 0002:00003f68       ??_C@_1M@KGKKAACI@?$AAl?$AAv?$AA?9?$AAL?$AAV?$AA?$AA@ 0000000180036f68     libucrt:lcidtoname_downlevel.obj
 0002:00003f78       ??_C@_1M@IFGBIJO@?$AAl?$AAt?$AA?9?$AAL?$AAT?$AA?$AA@ 0000000180036f78     libucrt:lcidtoname_downlevel.obj
 0002:00003f88       ??_C@_1M@FGEAHEDM@?$AAf?$AAa?$AA?9?$AAI?$AAR?$AA?$AA@ 0000000180036f88     libucrt:lcidtoname_downlevel.obj
 0002:00003f98       ??_C@_1M@KBMAIBFN@?$AAv?$AAi?$AA?9?$AAV?$AAN?$AA?$AA@ 0000000180036f98     libucrt:lcidtoname_downlevel.obj
 0002:00003fa8       ??_C@_1M@GPCBKDJK@?$AAh?$AAy?$AA?9?$AAA?$AAM?$AA?$AA@ 0000000180036fa8     libucrt:lcidtoname_downlevel.obj
 0002:00003fb8       ??_C@_1BG@BECMDDJB@?$AAa?$AAz?$AA?9?$AAA?$AAZ?$AA?9?$AAL?$AAa?$AAt?$AAn?$AA?$AA@ 0000000180036fb8     libucrt:lcidtoname_downlevel.obj
 0002:00003fd0       ??_C@_1M@MAOFCAEA@?$AAe?$AAu?$AA?9?$AAE?$AAS?$AA?$AA@ 0000000180036fd0     libucrt:lcidtoname_downlevel.obj
 0002:00003fe0       ??_C@_1M@IGHABKPI@?$AAm?$AAk?$AA?9?$AAM?$AAK?$AA?$AA@ 0000000180036fe0     libucrt:lcidtoname_downlevel.obj
 0002:00003ff0       ??_C@_1M@IAIGNEJG@?$AAt?$AAn?$AA?9?$AAZ?$AAA?$AA?$AA@ 0000000180036ff0     libucrt:lcidtoname_downlevel.obj
 0002:00004000       ??_C@_1M@IIJCOJFA@?$AAx?$AAh?$AA?9?$AAZ?$AAA?$AA?$AA@ 0000000180037000     libucrt:lcidtoname_downlevel.obj
 0002:00004010       ??_C@_1M@LGPJHNJH@?$AAz?$AAu?$AA?9?$AAZ?$AAA?$AA?$AA@ 0000000180037010     libucrt:lcidtoname_downlevel.obj
 0002:00004020       ??_C@_1M@HOKAOIO@?$AAa?$AAf?$AA?9?$AAZ?$AAA?$AA?$AA@ 0000000180037020     libucrt:lcidtoname_downlevel.obj
 0002:00004030       ??_C@_1M@DPCLHLIE@?$AAk?$AAa?$AA?9?$AAG?$AAE?$AA?$AA@ 0000000180037030     libucrt:lcidtoname_downlevel.obj
 0002:00004040       ??_C@_1M@BLKMHJBI@?$AAf?$AAo?$AA?9?$AAF?$AAO?$AA?$AA@ 0000000180037040     libucrt:lcidtoname_downlevel.obj
 0002:00004050       ??_C@_1M@LGGJAPPB@?$AAh?$AAi?$AA?9?$AAI?$AAN?$AA?$AA@ 0000000180037050     libucrt:lcidtoname_downlevel.obj
 0002:00004060       ??_C@_1M@FIKPIHFE@?$AAm?$AAt?$AA?9?$AAM?$AAT?$AA?$AA@ 0000000180037060     libucrt:lcidtoname_downlevel.obj
 0002:00004070       ??_C@_1M@HEGGPBFA@?$AAs?$AAe?$AA?9?$AAN?$AAO?$AA?$AA@ 0000000180037070     libucrt:lcidtoname_downlevel.obj
 0002:00004080       ??_C@_1M@EIBJEEPA@?$AAm?$AAs?$AA?9?$AAM?$AAY?$AA?$AA@ 0000000180037080     libucrt:lcidtoname_downlevel.obj
 0002:00004090       ??_C@_1M@FHLBGMPP@?$AAk?$AAk?$AA?9?$AAK?$AAZ?$AA?$AA@ 0000000180037090     libucrt:lcidtoname_downlevel.obj
 0002:000040a0       ??_C@_1M@NGJJLCGI@?$AAk?$AAy?$AA?9?$AAK?$AAG?$AA?$AA@ 00000001800370a0     libucrt:lcidtoname_downlevel.obj
 0002:000040b0       ??_C@_1M@GIENNBFC@?$AAs?$AAw?$AA?9?$AAK?$AAE?$AA?$AA@ 00000001800370b0     libucrt:lcidtoname_downlevel.obj
 0002:000040c0       ??_C@_1BG@NDGMJIMJ@?$AAu?$AAz?$AA?9?$AAU?$AAZ?$AA?9?$AAL?$AAa?$AAt?$AAn?$AA?$AA@ 00000001800370c0     libucrt:lcidtoname_downlevel.obj
 0002:000040d8       ??_C@_1M@IDCCIHBC@?$AAt?$AAt?$AA?9?$AAR?$AAU?$AA?$AA@ 00000001800370d8     libucrt:lcidtoname_downlevel.obj
 0002:000040e8       ??_C@_1M@LOICPMOJ@?$AAb?$AAn?$AA?9?$AAI?$AAN?$AA?$AA@ 00000001800370e8     libucrt:lcidtoname_downlevel.obj
 0002:000040f8       ??_C@_1M@KPKKNEAH@?$AAp?$AAa?$AA?9?$AAI?$AAN?$AA?$AA@ 00000001800370f8     libucrt:lcidtoname_downlevel.obj
 0002:00004108       ??_C@_1M@PJGPPBOG@?$AAg?$AAu?$AA?9?$AAI?$AAN?$AA?$AA@ 0000000180037108     libucrt:lcidtoname_downlevel.obj
 0002:00004118       ??_C@_1M@KMKMOPHI@?$AAt?$AAa?$AA?9?$AAI?$AAN?$AA?$AA@ 0000000180037118     libucrt:lcidtoname_downlevel.obj
 0002:00004128       ??_C@_1M@KFEHEPAC@?$AAt?$AAe?$AA?9?$AAI?$AAN?$AA?$AA@ 0000000180037128     libucrt:lcidtoname_downlevel.obj
 0002:00004138       ??_C@_1M@CDCLMGHI@?$AAk?$AAn?$AA?9?$AAI?$AAN?$AA?$AA@ 0000000180037138     libucrt:lcidtoname_downlevel.obj
 0002:00004148       ??_C@_1M@MIODLDKF@?$AAm?$AAl?$AA?9?$AAI?$AAN?$AA?$AA@ 0000000180037148     libucrt:lcidtoname_downlevel.obj
 0002:00004158       ??_C@_1M@PBIEACPO@?$AAm?$AAr?$AA?9?$AAI?$AAN?$AA?$AA@ 0000000180037158     libucrt:lcidtoname_downlevel.obj
 0002:00004168       ??_C@_1M@NIDEAGPH@?$AAs?$AAa?$AA?9?$AAI?$AAN?$AA?$AA@ 0000000180037168     libucrt:lcidtoname_downlevel.obj
 0002:00004178       ??_C@_1M@FHIHCBIO@?$AAm?$AAn?$AA?9?$AAM?$AAN?$AA?$AA@ 0000000180037178     libucrt:lcidtoname_downlevel.obj
 0002:00004188       ??_C@_1M@JAIJPENP@?$AAc?$AAy?$AA?9?$AAG?$AAB?$AA?$AA@ 0000000180037188     libucrt:lcidtoname_downlevel.obj
 0002:00004198       ??_C@_1M@PHGFBEPN@?$AAg?$AAl?$AA?9?$AAE?$AAS?$AA?$AA@ 0000000180037198     libucrt:lcidtoname_downlevel.obj
 0002:000041a8       ??_C@_1O@KPIPDNCP@?$AAk?$AAo?$AAk?$AA?9?$AAI?$AAN?$AA?$AA@ 00000001800371a8     libucrt:lcidtoname_downlevel.obj
 0002:000041b8       ??_C@_1O@KNHJLDJA@?$AAs?$AAy?$AAr?$AA?9?$AAS?$AAY?$AA?$AA@ 00000001800371b8     libucrt:lcidtoname_downlevel.obj
 0002:000041c8       ??_C@_1O@MKEKBLAH@?$AAd?$AAi?$AAv?$AA?9?$AAM?$AAV?$AA?$AA@ 00000001800371c8     libucrt:lcidtoname_downlevel.obj
 0002:000041d8       ??_C@_1O@OHDCKDDF@?$AAq?$AAu?$AAz?$AA?9?$AAB?$AAO?$AA?$AA@ 00000001800371d8     libucrt:lcidtoname_downlevel.obj
 0002:000041e8       ??_C@_1M@LEPJNLFD@?$AAn?$AAs?$AA?9?$AAZ?$AAA?$AA?$AA@ 00000001800371e8     libucrt:lcidtoname_downlevel.obj
 0002:000041f8       ??_C@_1M@OMLEIIJB@?$AAm?$AAi?$AA?9?$AAN?$AAZ?$AA?$AA@ 00000001800371f8     libucrt:lcidtoname_downlevel.obj
 0002:00004208       ??_C@_1M@PMPEAILG@?$AAa?$AAr?$AA?9?$AAI?$AAQ?$AA?$AA@ 0000000180037208     libucrt:lcidtoname_downlevel.obj
 0002:00004218       ??_C@_1M@CNKPNOEE@?$AAd?$AAe?$AA?9?$AAC?$AAH?$AA?$AA@ 0000000180037218     libucrt:lcidtoname_downlevel.obj
 0002:00004228       ??_C@_1M@LKMGMLKO@?$AAe?$AAn?$AA?9?$AAG?$AAB?$AA?$AA@ 0000000180037228     libucrt:lcidtoname_downlevel.obj
 0002:00004238       ??_C@_1M@PGKJFFGL@?$AAe?$AAs?$AA?9?$AAM?$AAX?$AA?$AA@ 0000000180037238     libucrt:lcidtoname_downlevel.obj
 0002:00004248       ??_C@_1M@DNNANBDC@?$AAf?$AAr?$AA?9?$AAB?$AAE?$AA?$AA@ 0000000180037248     libucrt:lcidtoname_downlevel.obj
 0002:00004258       ??_C@_1M@HLGMDFHM@?$AAi?$AAt?$AA?9?$AAC?$AAH?$AA?$AA@ 0000000180037258     libucrt:lcidtoname_downlevel.obj
 0002:00004268       ??_C@_1M@CLLBGJH@?$AAn?$AAl?$AA?9?$AAB?$AAE?$AA?$AA@ 0000000180037268     libucrt:lcidtoname_downlevel.obj
 0002:00004278       ??_C@_1M@BODBOGLF@?$AAn?$AAn?$AA?9?$AAN?$AAO?$AA?$AA@ 0000000180037278     libucrt:lcidtoname_downlevel.obj
 0002:00004288       ??_C@_1M@HFFAHKAD@?$AAp?$AAt?$AA?9?$AAP?$AAT?$AA?$AA@ 0000000180037288     libucrt:lcidtoname_downlevel.obj
 0002:00004298       ??_C@_1BG@LNOAKHIE@?$AAs?$AAr?$AA?9?$AAS?$AAP?$AA?9?$AAL?$AAa?$AAt?$AAn?$AA?$AA@ 0000000180037298     libucrt:lcidtoname_downlevel.obj
 0002:000042b0       ??_C@_1M@HBMHBGAK@?$AAs?$AAv?$AA?9?$AAF?$AAI?$AA?$AA@ 00000001800372b0     libucrt:lcidtoname_downlevel.obj
 0002:000042c0       ??_C@_1BG@DGCJGJBE@?$AAa?$AAz?$AA?9?$AAA?$AAZ?$AA?9?$AAC?$AAy?$AAr?$AAl?$AA?$AA@ 00000001800372c0     libucrt:lcidtoname_downlevel.obj
 0002:000042d8       ??_C@_1M@KEJDAAHB@?$AAs?$AAe?$AA?9?$AAS?$AAE?$AA?$AA@ 00000001800372d8     libucrt:lcidtoname_downlevel.obj
 0002:000042e8       ??_C@_1M@HEIBJJAD@?$AAm?$AAs?$AA?9?$AAB?$AAN?$AA?$AA@ 00000001800372e8     libucrt:lcidtoname_downlevel.obj
 0002:000042f8       ??_C@_1BG@PBGJMCEM@?$AAu?$AAz?$AA?9?$AAU?$AAZ?$AA?9?$AAC?$AAy?$AAr?$AAl?$AA?$AA@ 00000001800372f8     libucrt:lcidtoname_downlevel.obj
 0002:00004310       ??_C@_1O@LAOBCMDF@?$AAq?$AAu?$AAz?$AA?9?$AAE?$AAC?$AA?$AA@ 0000000180037310     libucrt:lcidtoname_downlevel.obj
 0002:00004320       ??_C@_1M@POEEMAIO@?$AAa?$AAr?$AA?9?$AAE?$AAG?$AA?$AA@ 0000000180037320     libucrt:lcidtoname_downlevel.obj
 0002:00004330       ??_C@_1M@EFAKDEDL@?$AAz?$AAh?$AA?9?$AAH?$AAK?$AA?$AA@ 0000000180037330     libucrt:lcidtoname_downlevel.obj
 0002:00004340       ??_C@_1M@HKKIJHGI@?$AAd?$AAe?$AA?9?$AAA?$AAT?$AA?$AA@ 0000000180037340     libucrt:lcidtoname_downlevel.obj
 0002:00004350       ??_C@_1M@KBFBEHJF@?$AAe?$AAn?$AA?9?$AAA?$AAU?$AA?$AA@ 0000000180037350     libucrt:lcidtoname_downlevel.obj
 0002:00004360       ??_C@_1M@MNPLFAAH@?$AAe?$AAs?$AA?9?$AAE?$AAS?$AA?$AA@ 0000000180037360     libucrt:lcidtoname_downlevel.obj
 0002:00004370       ??_C@_1M@HJOOJFMA@?$AAf?$AAr?$AA?9?$AAC?$AAA?$AA?$AA@ 0000000180037370     libucrt:lcidtoname_downlevel.obj
 0002:00004380       ??_C@_1BG@JPOFPNAB@?$AAs?$AAr?$AA?9?$AAS?$AAP?$AA?9?$AAC?$AAy?$AAr?$AAl?$AA?$AA@ 0000000180037380     libucrt:lcidtoname_downlevel.obj
 0002:00004398       ??_C@_1M@LNFOCMOB@?$AAs?$AAe?$AA?9?$AAF?$AAI?$AA?$AA@ 0000000180037398     libucrt:lcidtoname_downlevel.obj
 0002:000043a8       ??_C@_1O@MGJBOAMB@?$AAq?$AAu?$AAz?$AA?9?$AAP?$AAE?$AA?$AA@ 00000001800373a8     libucrt:lcidtoname_downlevel.obj
 0002:000043b8       ??_C@_1M@GJINLBOK@?$AAa?$AAr?$AA?9?$AAL?$AAY?$AA?$AA@ 00000001800373b8     libucrt:lcidtoname_downlevel.obj
 0002:000043c8       ??_C@_1M@GGMNHJNL@?$AAz?$AAh?$AA?9?$AAS?$AAG?$AA?$AA@ 00000001800373c8     libucrt:lcidtoname_downlevel.obj
 0002:000043d8       ??_C@_1M@HOIKODND@?$AAd?$AAe?$AA?9?$AAL?$AAU?$AA?$AA@ 00000001800373d8     libucrt:lcidtoname_downlevel.obj
 0002:000043e8       ??_C@_1M@DDOCCGFG@?$AAe?$AAn?$AA?9?$AAC?$AAA?$AA?$AA@ 00000001800373e8     libucrt:lcidtoname_downlevel.obj
 0002:000043f8       ??_C@_1M@BNOEMJLF@?$AAe?$AAs?$AA?9?$AAG?$AAT?$AA?$AA@ 00000001800373f8     libucrt:lcidtoname_downlevel.obj
 0002:00004408       ??_C@_1M@EOGNKEK@?$AAf?$AAr?$AA?9?$AAC?$AAH?$AA?$AA@ 0000000180037408     libucrt:lcidtoname_downlevel.obj
 0002:00004418       ??_C@_1M@FLIDJFHL@?$AAh?$AAr?$AA?9?$AAB?$AAA?$AA?$AA@ 0000000180037418     libucrt:lcidtoname_downlevel.obj
 0002:00004428       ??_C@_1O@FMCELNAJ@?$AAs?$AAm?$AAj?$AA?9?$AAN?$AAO?$AA?$AA@ 0000000180037428     libucrt:lcidtoname_downlevel.obj
 0002:00004438       ??_C@_1M@JHGLJMGJ@?$AAa?$AAr?$AA?9?$AAD?$AAZ?$AA?$AA@ 0000000180037438     libucrt:lcidtoname_downlevel.obj
 0002:00004448       ??_C@_1M@JKKFDCNP@?$AAz?$AAh?$AA?9?$AAM?$AAO?$AA?$AA@ 0000000180037448     libucrt:lcidtoname_downlevel.obj
 0002:00004458       ??_C@_1M@GEEFALPE@?$AAd?$AAe?$AA?9?$AAL?$AAI?$AA?$AA@ 0000000180037458     libucrt:lcidtoname_downlevel.obj
 0002:00004468       ??_C@_1M@IGEOFBG@?$AAe?$AAn?$AA?9?$AAN?$AAZ?$AA?$AA@ 0000000180037468     libucrt:lcidtoname_downlevel.obj
 0002:00004478       ??_C@_1M@KDBONEHP@?$AAe?$AAs?$AA?9?$AAC?$AAR?$AA?$AA@ 0000000180037478     libucrt:lcidtoname_downlevel.obj
 0002:00004488       ??_C@_1M@FHMDOHNN@?$AAf?$AAr?$AA?9?$AAL?$AAU?$AA?$AA@ 0000000180037488     libucrt:lcidtoname_downlevel.obj
 0002:00004498       ??_C@_1BG@NFKKMAFG@?$AAb?$AAs?$AA?9?$AAB?$AAA?$AA?9?$AAL?$AAa?$AAt?$AAn?$AA?$AA@ 0000000180037498     libucrt:lcidtoname_downlevel.obj
 0002:000044b0       ??_C@_1O@IMNBEMCI@?$AAs?$AAm?$AAj?$AA?9?$AAS?$AAE?$AA?$AA@ 00000001800374b0     libucrt:lcidtoname_downlevel.obj
 0002:000044c0       ??_C@_1M@DHHMBNDP@?$AAa?$AAr?$AA?9?$AAM?$AAA?$AA?$AA@ 00000001800374c0     libucrt:lcidtoname_downlevel.obj
 0002:000044d0       ??_C@_1M@BNBLJCGH@?$AAe?$AAn?$AA?9?$AAI?$AAE?$AA?$AA@ 00000001800374d0     libucrt:lcidtoname_downlevel.obj
 0002:000044e0       ??_C@_1M@GEPAFMDL@?$AAe?$AAs?$AA?9?$AAP?$AAA?$AA?$AA@ 00000001800374e0     libucrt:lcidtoname_downlevel.obj
 0002:000044f0       ??_C@_1M@OJONDMDL@?$AAf?$AAr?$AA?9?$AAM?$AAC?$AA?$AA@ 00000001800374f0     libucrt:lcidtoname_downlevel.obj
 0002:00004500       ??_C@_1BG@OBCNFJB@?$AAs?$AAr?$AA?9?$AAB?$AAA?$AA?9?$AAL?$AAa?$AAt?$AAn?$AA?$AA@ 0000000180037500     libucrt:lcidtoname_downlevel.obj
 0002:00004518       ??_C@_1O@KEMEEGPO@?$AAs?$AAm?$AAa?$AA?9?$AAN?$AAO?$AA?$AA@ 0000000180037518     libucrt:lcidtoname_downlevel.obj
 0002:00004528       ??_C@_1M@ELMGFODK@?$AAa?$AAr?$AA?9?$AAT?$AAN?$AA?$AA@ 0000000180037528     libucrt:lcidtoname_downlevel.obj
 0002:00004538       ??_C@_1M@BHDLHFAF@?$AAe?$AAn?$AA?9?$AAZ?$AAA?$AA?$AA@ 0000000180037538     libucrt:lcidtoname_downlevel.obj
 0002:00004548       ??_C@_1M@BMGIGLIF@?$AAe?$AAs?$AA?9?$AAD?$AAO?$AA?$AA@ 0000000180037548     libucrt:lcidtoname_downlevel.obj
 0002:00004558       ??_C@_1BG@CMBHIPBE@?$AAs?$AAr?$AA?9?$AAB?$AAA?$AA?9?$AAC?$AAy?$AAr?$AAl?$AA?$AA@ 0000000180037558     libucrt:lcidtoname_downlevel.obj
 0002:00004570       ??_C@_1O@HEDBLHNP@?$AAs?$AAm?$AAa?$AA?9?$AAS?$AAE?$AA?$AA@ 0000000180037570     libucrt:lcidtoname_downlevel.obj
 0002:00004580       ??_C@_1M@DAGCADIM@?$AAa?$AAr?$AA?9?$AAO?$AAM?$AA?$AA@ 0000000180037580     libucrt:lcidtoname_downlevel.obj
 0002:00004590       ??_C@_1M@FODLMICG@?$AAe?$AAn?$AA?9?$AAJ?$AAM?$AA?$AA@ 0000000180037590     libucrt:lcidtoname_downlevel.obj
 0002:000045a0       ??_C@_1M@DNMLCIHB@?$AAe?$AAs?$AA?9?$AAV?$AAE?$AA?$AA@ 00000001800375a0     libucrt:lcidtoname_downlevel.obj
 0002:000045b0       ??_C@_1O@EOKHMKJK@?$AAs?$AAm?$AAs?$AA?9?$AAF?$AAI?$AA?$AA@ 00000001800375b0     libucrt:lcidtoname_downlevel.obj
 0002:000045c0       ??_C@_1M@CAFJMKOF@?$AAa?$AAr?$AA?9?$AAY?$AAE?$AA?$AA@ 00000001800375c0     libucrt:lcidtoname_downlevel.obj
 0002:000045d0       ??_C@_1M@CBFHIJLI@?$AAe?$AAn?$AA?9?$AAC?$AAB?$AA?$AA@ 00000001800375d0     libucrt:lcidtoname_downlevel.obj
 0002:000045e0       ??_C@_1M@BGNFLDN@?$AAe?$AAs?$AA?9?$AAC?$AAO?$AA?$AA@ 00000001800375e0     libucrt:lcidtoname_downlevel.obj
 0002:000045f0       ??_C@_1O@JMPHMAMC@?$AAs?$AAm?$AAn?$AA?9?$AAF?$AAI?$AA?$AA@ 00000001800375f0     libucrt:lcidtoname_downlevel.obj
 0002:00004600       ??_C@_1M@JLANABKE@?$AAa?$AAr?$AA?9?$AAS?$AAY?$AA?$AA@ 0000000180037600     libucrt:lcidtoname_downlevel.obj
 0002:00004610       ??_C@_1M@HPKGCFGN@?$AAe?$AAn?$AA?9?$AAB?$AAZ?$AA?$AA@ 0000000180037610     libucrt:lcidtoname_downlevel.obj
 0002:00004620       ??_C@_1M@OLJCMLGM@?$AAe?$AAs?$AA?9?$AAP?$AAE?$AA?$AA@ 0000000180037620     libucrt:lcidtoname_downlevel.obj
 0002:00004630       ??_C@_1M@MKKGFKLE@?$AAa?$AAr?$AA?9?$AAJ?$AAO?$AA?$AA@ 0000000180037630     libucrt:lcidtoname_downlevel.obj
 0002:00004640       ??_C@_1M@EKPGLDNI@?$AAe?$AAn?$AA?9?$AAT?$AAT?$AA?$AA@ 0000000180037640     libucrt:lcidtoname_downlevel.obj
 0002:00004650       ??_C@_1M@OONGHFHE@?$AAe?$AAs?$AA?9?$AAA?$AAR?$AA?$AA@ 0000000180037650     libucrt:lcidtoname_downlevel.obj
 0002:00004660       ??_C@_1M@OOJFGBHE@?$AAa?$AAr?$AA?9?$AAL?$AAB?$AA?$AA@ 0000000180037660     libucrt:lcidtoname_downlevel.obj
 0002:00004670       ??_C@_1M@GCEJHNEG@?$AAe?$AAn?$AA?9?$AAZ?$AAW?$AA?$AA@ 0000000180037670     libucrt:lcidtoname_downlevel.obj
 0002:00004680       ??_C@_1M@JNOCAHJI@?$AAe?$AAs?$AA?9?$AAE?$AAC?$AA?$AA@ 0000000180037680     libucrt:lcidtoname_downlevel.obj
 0002:00004690       ??_C@_1M@JEFHPGGB@?$AAa?$AAr?$AA?9?$AAK?$AAW?$AA?$AA@ 0000000180037690     libucrt:lcidtoname_downlevel.obj
 0002:000046a0       ??_C@_1M@MLKIBJOJ@?$AAe?$AAn?$AA?9?$AAP?$AAH?$AA?$AA@ 00000001800376a0     libucrt:lcidtoname_downlevel.obj
 0002:000046b0       ??_C@_1M@BDNIPEND@?$AAe?$AAs?$AA?9?$AAC?$AAL?$AA?$AA@ 00000001800376b0     libucrt:lcidtoname_downlevel.obj
 0002:000046c0       ??_C@_1M@MPNMEKBD@?$AAa?$AAr?$AA?9?$AAA?$AAE?$AA?$AA@ 00000001800376c0     libucrt:lcidtoname_downlevel.obj
 0002:000046d0       ??_C@_1M@KBJALCPI@?$AAe?$AAs?$AA?9?$AAU?$AAY?$AA?$AA@ 00000001800376d0     libucrt:lcidtoname_downlevel.obj
 0002:000046e0       ??_C@_1M@LLCCOAGA@?$AAa?$AAr?$AA?9?$AAB?$AAH?$AA?$AA@ 00000001800376e0     libucrt:lcidtoname_downlevel.obj
 0002:000046f0       ??_C@_1M@PBFNCDEL@?$AAe?$AAs?$AA?9?$AAP?$AAY?$AA?$AA@ 00000001800376f0     libucrt:lcidtoname_downlevel.obj
 0002:00004700       ??_C@_1M@EDGINPNP@?$AAa?$AAr?$AA?9?$AAQ?$AAA?$AA?$AA@ 0000000180037700     libucrt:lcidtoname_downlevel.obj
 0002:00004710       ??_C@_1M@MKDBIIJI@?$AAe?$AAs?$AA?9?$AAB?$AAO?$AA?$AA@ 0000000180037710     libucrt:lcidtoname_downlevel.obj
 0002:00004720       ??_C@_1M@CPKKEBLD@?$AAe?$AAs?$AA?9?$AAS?$AAV?$AA?$AA@ 0000000180037720     libucrt:lcidtoname_downlevel.obj
 0002:00004730       ??_C@_1M@NDBGMMJL@?$AAe?$AAs?$AA?9?$AAH?$AAN?$AA?$AA@ 0000000180037730     libucrt:lcidtoname_downlevel.obj
 0002:00004740       ??_C@_1M@JIJIBHDP@?$AAe?$AAs?$AA?9?$AAN?$AAI?$AA?$AA@ 0000000180037740     libucrt:lcidtoname_downlevel.obj
 0002:00004750       ??_C@_1M@CGFMKEEK@?$AAe?$AAs?$AA?9?$AAP?$AAR?$AA?$AA@ 0000000180037750     libucrt:lcidtoname_downlevel.obj
 0002:00004760       ??_C@_1O@ICJHKIIK@?$AAz?$AAh?$AA?9?$AAC?$AAH?$AAT?$AA?$AA@ 0000000180037760     libucrt:lcidtoname_downlevel.obj
 0002:00004770       ??_C@_15CLNEJCE@?$AAs?$AAr?$AA?$AA@ 0000000180037770     libucrt:lcidtoname_downlevel.obj
 0002:000055c0       ??_C@_1M@KAHEKEIG@?$AAa?$AAf?$AA?9?$AAz?$AAa?$AA?$AA@ 00000001800385c0     libucrt:lcidtoname_downlevel.obj
 0002:000055d0       ??_C@_1M@GIECOABL@?$AAa?$AAr?$AA?9?$AAa?$AAe?$AA?$AA@ 00000001800385d0     libucrt:lcidtoname_downlevel.obj
 0002:000055e0       ??_C@_1M@BMLMEKGI@?$AAa?$AAr?$AA?9?$AAb?$AAh?$AA?$AA@ 00000001800385e0     libucrt:lcidtoname_downlevel.obj
 0002:000055f0       ??_C@_1M@DAPFDGGB@?$AAa?$AAr?$AA?9?$AAd?$AAz?$AA?$AA@ 00000001800385f0     libucrt:lcidtoname_downlevel.obj
 0002:00005600       ??_C@_1M@FJNKGKIG@?$AAa?$AAr?$AA?9?$AAe?$AAg?$AA?$AA@ 0000000180038600     libucrt:lcidtoname_downlevel.obj
 0002:00005610       ??_C@_1M@FLGKKCLO@?$AAa?$AAr?$AA?9?$AAi?$AAq?$AA?$AA@ 0000000180038610     libucrt:lcidtoname_downlevel.obj
 0002:00005620       ??_C@_1M@GNDIPALM@?$AAa?$AAr?$AA?9?$AAj?$AAo?$AA?$AA@ 0000000180038620     libucrt:lcidtoname_downlevel.obj
 0002:00005630       ??_C@_1M@DDMJFMGJ@?$AAa?$AAr?$AA?9?$AAk?$AAw?$AA?$AA@ 0000000180038630     libucrt:lcidtoname_downlevel.obj
 0002:00005640       ??_C@_1M@EJALMLHM@?$AAa?$AAr?$AA?9?$AAl?$AAb?$AA?$AA@ 0000000180038640     libucrt:lcidtoname_downlevel.obj
 0002:00005650       ??_C@_1M@MOBDBLOC@?$AAa?$AAr?$AA?9?$AAl?$AAy?$AA?$AA@ 0000000180038650     libucrt:lcidtoname_downlevel.obj
 0002:00005660       ??_C@_1M@JAOCLHDH@?$AAa?$AAr?$AA?9?$AAm?$AAa?$AA?$AA@ 0000000180038660     libucrt:lcidtoname_downlevel.obj
 0002:00005670       ??_C@_1M@JHPMKJIE@?$AAa?$AAr?$AA?9?$AAo?$AAm?$AA?$AA@ 0000000180038670     libucrt:lcidtoname_downlevel.obj
 0002:00005680       ??_C@_1M@OEPGHFNH@?$AAa?$AAr?$AA?9?$AAq?$AAa?$AA?$AA@ 0000000180038680     libucrt:lcidtoname_downlevel.obj
 0002:00005690       ??_C@_1M@KJDONENM@?$AAa?$AAr?$AA?9?$AAs?$AAa?$AA?$AA@ 0000000180038690     libucrt:lcidtoname_downlevel.obj
 0002:000056a0       ??_C@_1M@DMJDKLKM@?$AAa?$AAr?$AA?9?$AAs?$AAy?$AA?$AA@ 00000001800386a0     libucrt:lcidtoname_downlevel.obj
 0002:000056b0       ??_C@_1M@OMFIPEDC@?$AAa?$AAr?$AA?9?$AAt?$AAn?$AA?$AA@ 00000001800386b0     libucrt:lcidtoname_downlevel.obj
 0002:000056c0       ??_C@_1M@IHMHGAON@?$AAa?$AAr?$AA?9?$AAy?$AAe?$AA?$AA@ 00000001800386c0     libucrt:lcidtoname_downlevel.obj
 0002:000056d0       ??_C@_1BG@KDCPGJGB@?$AAa?$AAz?$AA?9?$AAa?$AAz?$AA?9?$AAc?$AAy?$AAr?$AAl?$AA?$AA@ 00000001800386d0     libucrt:lcidtoname_downlevel.obj
 0002:000056e8       ??_C@_1BG@IBCKDDOE@?$AAa?$AAz?$AA?9?$AAa?$AAz?$AA?9?$AAl?$AAa?$AAt?$AAn?$AA?$AA@ 00000001800386e8     libucrt:lcidtoname_downlevel.obj
 0002:00005700       ??_C@_1M@EGPFDCPD@?$AAb?$AAe?$AA?9?$AAb?$AAy?$AA?$AA@ 0000000180038700     libucrt:lcidtoname_downlevel.obj
 0002:00005710       ??_C@_1M@PCMGMCGC@?$AAb?$AAg?$AA?9?$AAb?$AAg?$AA?$AA@ 0000000180038710     libucrt:lcidtoname_downlevel.obj
 0002:00005720       ??_C@_1M@BJBMFGOB@?$AAb?$AAn?$AA?9?$AAi?$AAn?$AA?$AA@ 0000000180038720     libucrt:lcidtoname_downlevel.obj
 0002:00005730       ??_C@_1BG@EAKMMACD@?$AAb?$AAs?$AA?9?$AAb?$AAa?$AA?9?$AAl?$AAa?$AAt?$AAn?$AA?$AA@ 0000000180038730     libucrt:lcidtoname_downlevel.obj
 0002:00005748       ??_C@_1M@KGADAODK@?$AAc?$AAa?$AA?9?$AAe?$AAs?$AA?$AA@ 0000000180038748     libucrt:lcidtoname_downlevel.obj
 0002:00005758       ??_C@_1M@COAJPDHI@?$AAc?$AAs?$AA?9?$AAc?$AAz?$AA?$AA@ 0000000180038758     libucrt:lcidtoname_downlevel.obj
 0002:00005768       ??_C@_1M@DHBHFONH@?$AAc?$AAy?$AA?9?$AAg?$AAb?$AA?$AA@ 0000000180038768     libucrt:lcidtoname_downlevel.obj
 0002:00005778       ??_C@_1M@IMGKELGA@?$AAd?$AAa?$AA?9?$AAd?$AAk?$AA?$AA@ 0000000180038778     libucrt:lcidtoname_downlevel.obj
 0002:00005788       ??_C@_1M@NNDGDNGA@?$AAd?$AAe?$AA?9?$AAa?$AAt?$AA?$AA@ 0000000180038788     libucrt:lcidtoname_downlevel.obj
 0002:00005798       ??_C@_1M@IKDBHEEM@?$AAd?$AAe?$AA?9?$AAc?$AAh?$AA?$AA@ 0000000180038798     libucrt:lcidtoname_downlevel.obj
 0002:000057a8       ??_C@_1M@GFFOJMCJ@?$AAd?$AAe?$AA?9?$AAd?$AAe?$AA?$AA@ 00000001800387a8     libucrt:lcidtoname_downlevel.obj
 0002:000057b8       ??_C@_1M@MDNLKBPM@?$AAd?$AAe?$AA?9?$AAl?$AAi?$AA?$AA@ 00000001800387b8     libucrt:lcidtoname_downlevel.obj
 0002:000057c8       ??_C@_1M@NJBEEJNL@?$AAd?$AAe?$AA?9?$AAl?$AAu?$AA?$AA@ 00000001800387c8     libucrt:lcidtoname_downlevel.obj
 0002:000057d8       ??_C@_1O@GNNELBAP@?$AAd?$AAi?$AAv?$AA?9?$AAm?$AAv?$AA?$AA@ 00000001800387d8     libucrt:lcidtoname_downlevel.obj
 0002:000057e8       ??_C@_1M@EJLEOGAE@?$AAe?$AAl?$AA?9?$AAg?$AAr?$AA?$AA@ 00000001800387e8     libucrt:lcidtoname_downlevel.obj
 0002:000057f8       ??_C@_1M@GMPONJN@?$AAe?$AAn?$AA?9?$AAa?$AAu?$AA?$AA@ 00000001800387f8     libucrt:lcidtoname_downlevel.obj
 0002:00005808       ??_C@_1M@NIDIIPGF@?$AAe?$AAn?$AA?9?$AAb?$AAz?$AA?$AA@ 0000000180038808     libucrt:lcidtoname_downlevel.obj
 0002:00005818       ??_C@_1M@JEHMIMFO@?$AAe?$AAn?$AA?9?$AAc?$AAa?$AA?$AA@ 0000000180038818     libucrt:lcidtoname_downlevel.obj
 0002:00005828       ??_C@_1M@IGMJCDLA@?$AAe?$AAn?$AA?9?$AAc?$AAb?$AA?$AA@ 0000000180038828     libucrt:lcidtoname_downlevel.obj
 0002:00005838       ??_C@_1M@BNFIGBKG@?$AAe?$AAn?$AA?9?$AAg?$AAb?$AA?$AA@ 0000000180038838     libucrt:lcidtoname_downlevel.obj
 0002:00005848       ??_C@_1M@LKIFDIGP@?$AAe?$AAn?$AA?9?$AAi?$AAe?$AA?$AA@ 0000000180038848     libucrt:lcidtoname_downlevel.obj
 0002:00005858       ??_C@_1M@PJKFGCCO@?$AAe?$AAn?$AA?9?$AAj?$AAm?$AA?$AA@ 0000000180038858     libucrt:lcidtoname_downlevel.obj
 0002:00005868       ??_C@_1M@KPPKEPBO@?$AAe?$AAn?$AA?9?$AAn?$AAz?$AA?$AA@ 0000000180038868     libucrt:lcidtoname_downlevel.obj
 0002:00005878       ??_C@_1M@GMDGLDOB@?$AAe?$AAn?$AA?9?$AAp?$AAh?$AA?$AA@ 0000000180038878     libucrt:lcidtoname_downlevel.obj
 0002:00005888       ??_C@_1M@ONGIBJNA@?$AAe?$AAn?$AA?9?$AAt?$AAt?$AA?$AA@ 0000000180038888     libucrt:lcidtoname_downlevel.obj
 0002:00005898       ??_C@_1M@LLODPCMM@?$AAe?$AAn?$AA?9?$AAu?$AAs?$AA?$AA@ 0000000180038898     libucrt:lcidtoname_downlevel.obj
 0002:000058a8       ??_C@_1M@LAKFNPAN@?$AAe?$AAn?$AA?9?$AAz?$AAa?$AA?$AA@ 00000001800388a8     libucrt:lcidtoname_downlevel.obj
 0002:000058b8       ??_C@_1M@MFNHNHEO@?$AAe?$AAn?$AA?9?$AAz?$AAw?$AA?$AA@ 00000001800388b8     libucrt:lcidtoname_downlevel.obj
 0002:000058c8       ??_C@_1M@EJEINPHM@?$AAe?$AAs?$AA?9?$AAa?$AAr?$AA?$AA@ 00000001800388c8     libucrt:lcidtoname_downlevel.obj
 0002:000058d8       ??_C@_1M@GNKPCCJA@?$AAe?$AAs?$AA?9?$AAb?$AAo?$AA?$AA@ 00000001800388d8     libucrt:lcidtoname_downlevel.obj
 0002:000058e8       ??_C@_1M@LEEGFONL@?$AAe?$AAs?$AA?9?$AAc?$AAl?$AA?$AA@ 00000001800388e8     libucrt:lcidtoname_downlevel.obj
 0002:000058f8       ??_C@_1M@KGPDPBDF@?$AAe?$AAs?$AA?9?$AAc?$AAo?$AA?$AA@ 00000001800388f8     libucrt:lcidtoname_downlevel.obj
 0002:00005908       ??_C@_1M@EIAHOHH@?$AAe?$AAs?$AA?9?$AAc?$AAr?$AA?$AA@ 0000000180038908     libucrt:lcidtoname_downlevel.obj
 0002:00005918       ??_C@_1M@LLPGMBIN@?$AAe?$AAs?$AA?9?$AAd?$AAo?$AA?$AA@ 0000000180038918     libucrt:lcidtoname_downlevel.obj
 0002:00005928       ??_C@_1M@DKHMKNJA@?$AAe?$AAs?$AA?9?$AAe?$AAc?$AA?$AA@ 0000000180038928     libucrt:lcidtoname_downlevel.obj
 0002:00005938       ??_C@_1M@GKGFPKAP@?$AAe?$AAs?$AA?9?$AAe?$AAs?$AA?$AA@ 0000000180038938     libucrt:lcidtoname_downlevel.obj
 0002:00005948       ??_C@_1M@LKHKGDLN@?$AAe?$AAs?$AA?9?$AAg?$AAt?$AA?$AA@ 0000000180038948     libucrt:lcidtoname_downlevel.obj
 0002:00005958       ??_C@_1M@HEIIGGJD@?$AAe?$AAs?$AA?9?$AAh?$AAn?$AA?$AA@ 0000000180038958     libucrt:lcidtoname_downlevel.obj
 0002:00005968       ??_C@_1M@FBDHPPGD@?$AAe?$AAs?$AA?9?$AAm?$AAx?$AA?$AA@ 0000000180038968     libucrt:lcidtoname_downlevel.obj
 0002:00005978       ??_C@_1M@DPAGLNDH@?$AAe?$AAs?$AA?9?$AAn?$AAi?$AA?$AA@ 0000000180038978     libucrt:lcidtoname_downlevel.obj
 0002:00005988       ??_C@_1M@MDGOPGDD@?$AAe?$AAs?$AA?9?$AAp?$AAa?$AA?$AA@ 0000000180038988     libucrt:lcidtoname_downlevel.obj
 0002:00005998       ??_C@_1M@EMAMGBGE@?$AAe?$AAs?$AA?9?$AAp?$AAe?$AA?$AA@ 0000000180038998     libucrt:lcidtoname_downlevel.obj
 0002:000059a8       ??_C@_1M@IBMCAOEC@?$AAe?$AAs?$AA?9?$AAp?$AAr?$AA?$AA@ 00000001800389a8     libucrt:lcidtoname_downlevel.obj
 0002:000059b8       ??_C@_1M@FGMDIJED@?$AAe?$AAs?$AA?9?$AAp?$AAy?$AA?$AA@ 00000001800389b8     libucrt:lcidtoname_downlevel.obj
 0002:000059c8       ??_C@_1M@IIDEOLLL@?$AAe?$AAs?$AA?9?$AAs?$AAv?$AA?$AA@ 00000001800389c8     libucrt:lcidtoname_downlevel.obj
 0002:000059d8       ??_C@_1M@GAOBIPA@?$AAe?$AAs?$AA?9?$AAu?$AAy?$AA?$AA@ 00000001800389d8     libucrt:lcidtoname_downlevel.obj
 0002:000059e8       ??_C@_1M@JKFFICHJ@?$AAe?$AAs?$AA?9?$AAv?$AAe?$AA?$AA@ 00000001800389e8     libucrt:lcidtoname_downlevel.obj
 0002:000059f8       ??_C@_1M@PNMLOJDF@?$AAe?$AAt?$AA?9?$AAe?$AAe?$AA?$AA@ 00000001800389f8     libucrt:lcidtoname_downlevel.obj
 0002:00005a08       ??_C@_1M@GHHLIKEI@?$AAe?$AAu?$AA?9?$AAe?$AAs?$AA?$AA@ 0000000180038a08     libucrt:lcidtoname_downlevel.obj
 0002:00005a18       ??_C@_1M@PBNONODE@?$AAf?$AAa?$AA?9?$AAi?$AAr?$AA?$AA@ 0000000180038a18     libucrt:lcidtoname_downlevel.obj
 0002:00005a28       ??_C@_1M@JEEHPMIL@?$AAf?$AAi?$AA?9?$AAf?$AAi?$AA?$AA@ 0000000180038a28     libucrt:lcidtoname_downlevel.obj
 0002:00005a38       ??_C@_1M@LMDCNDBA@?$AAf?$AAo?$AA?9?$AAf?$AAo?$AA?$AA@ 0000000180038a38     libucrt:lcidtoname_downlevel.obj
 0002:00005a48       ??_C@_1M@JKEOHLDK@?$AAf?$AAr?$AA?9?$AAb?$AAe?$AA?$AA@ 0000000180038a48     libucrt:lcidtoname_downlevel.obj
 0002:00005a58       ??_C@_1M@NOHADPMI@?$AAf?$AAr?$AA?9?$AAc?$AAa?$AA?$AA@ 0000000180038a58     libucrt:lcidtoname_downlevel.obj
 0002:00005a68       ??_C@_1M@KDHIHAEC@?$AAf?$AAr?$AA?9?$AAc?$AAh?$AA?$AA@ 0000000180038a68     libucrt:lcidtoname_downlevel.obj
 0002:00005a78       ??_C@_1M@MMBBFGAK@?$AAf?$AAr?$AA?9?$AAf?$AAr?$AA?$AA@ 0000000180038a78     libucrt:lcidtoname_downlevel.obj
 0002:00005a88       ??_C@_1M@PAFNENNF@?$AAf?$AAr?$AA?9?$AAl?$AAu?$AA?$AA@ 0000000180038a88     libucrt:lcidtoname_downlevel.obj
 0002:00005a98       ??_C@_1M@EOHDJGDD@?$AAf?$AAr?$AA?9?$AAm?$AAc?$AA?$AA@ 0000000180038a98     libucrt:lcidtoname_downlevel.obj
 0002:00005aa8       ??_C@_1M@FAPLLOPF@?$AAg?$AAl?$AA?9?$AAe?$AAs?$AA?$AA@ 0000000180038aa8     libucrt:lcidtoname_downlevel.obj
 0002:00005ab8       ??_C@_1M@FOPBFLOO@?$AAg?$AAu?$AA?9?$AAi?$AAn?$AA?$AA@ 0000000180038ab8     libucrt:lcidtoname_downlevel.obj
 0002:00005ac8       ??_C@_1M@KBMCINPM@?$AAh?$AAe?$AA?9?$AAi?$AAl?$AA?$AA@ 0000000180038ac8     libucrt:lcidtoname_downlevel.obj
 0002:00005ad8       ??_C@_1M@BBPHKFPJ@?$AAh?$AAi?$AA?9?$AAi?$AAn?$AA?$AA@ 0000000180038ad8     libucrt:lcidtoname_downlevel.obj
 0002:00005ae8       ??_C@_1M@PMBNDPHD@?$AAh?$AAr?$AA?9?$AAb?$AAa?$AA?$AA@ 0000000180038ae8     libucrt:lcidtoname_downlevel.obj
 0002:00005af8       ??_C@_1M@BPCKOEGE@?$AAh?$AAr?$AA?9?$AAh?$AAr?$AA?$AA@ 0000000180038af8     libucrt:lcidtoname_downlevel.obj
 0002:00005b08       ??_C@_1M@GACBMHKE@?$AAh?$AAu?$AA?9?$AAh?$AAu?$AA?$AA@ 0000000180038b08     libucrt:lcidtoname_downlevel.obj
 0002:00005b18       ??_C@_1M@MILPAJJC@?$AAh?$AAy?$AA?9?$AAa?$AAm?$AA?$AA@ 0000000180038b18     libucrt:lcidtoname_downlevel.obj
 0002:00005b28       ??_C@_1M@BABBICEC@?$AAi?$AAd?$AA?9?$AAi?$AAd?$AA?$AA@ 0000000180038b28     libucrt:lcidtoname_downlevel.obj
 0002:00005b38       ??_C@_1M@BIKNHHPF@?$AAi?$AAs?$AA?9?$AAi?$AAs?$AA?$AA@ 0000000180038b38     libucrt:lcidtoname_downlevel.obj
 0002:00005b48       ??_C@_1M@NMPCJPHE@?$AAi?$AAt?$AA?9?$AAc?$AAh?$AA?$AA@ 0000000180038b48     libucrt:lcidtoname_downlevel.obj
 0002:00005b58       ??_C@_1M@GHKGFEDF@?$AAi?$AAt?$AA?9?$AAi?$AAt?$AA?$AA@ 0000000180038b58     libucrt:lcidtoname_downlevel.obj
 0002:00005b68       ??_C@_1M@NIEJCJJA@?$AAj?$AAa?$AA?9?$AAj?$AAp?$AA?$AA@ 0000000180038b68     libucrt:lcidtoname_downlevel.obj
 0002:00005b78       ??_C@_1M@JILFNBIM@?$AAk?$AAa?$AA?9?$AAg?$AAe?$AA?$AA@ 0000000180038b78     libucrt:lcidtoname_downlevel.obj
 0002:00005b88       ??_C@_1M@PACPMGPH@?$AAk?$AAk?$AA?9?$AAk?$AAz?$AA?$AA@ 0000000180038b88     libucrt:lcidtoname_downlevel.obj
 0002:00005b98       ??_C@_1M@IELFGMHA@?$AAk?$AAn?$AA?9?$AAi?$AAn?$AA?$AA@ 0000000180038b98     libucrt:lcidtoname_downlevel.obj
 0002:00005ba8       ??_C@_1O@IBBJHCH@?$AAk?$AAo?$AAk?$AA?9?$AAi?$AAn?$AA?$AA@ 0000000180038ba8     libucrt:lcidtoname_downlevel.obj
 0002:00005bb8       ??_C@_1M@DMHAEOGC@?$AAk?$AAo?$AA?9?$AAk?$AAr?$AA?$AA@ 0000000180038bb8     libucrt:lcidtoname_downlevel.obj
 0002:00005bc8       ??_C@_1M@HBAHBIGA@?$AAk?$AAy?$AA?9?$AAk?$AAg?$AA?$AA@ 0000000180038bc8     libucrt:lcidtoname_downlevel.obj
 0002:00005bd8       ??_C@_1M@KPMILCJG@?$AAl?$AAt?$AA?9?$AAl?$AAt?$AA?$AA@ 0000000180038bd8     libucrt:lcidtoname_downlevel.obj
 0002:00005be8       ??_C@_1M@BDEKKCA@?$AAl?$AAv?$AA?9?$AAl?$AAv?$AA?$AA@ 0000000180038be8     libucrt:lcidtoname_downlevel.obj
 0002:00005bf8       ??_C@_1M@ELCKCCJJ@?$AAm?$AAi?$AA?9?$AAn?$AAz?$AA?$AA@ 0000000180038bf8     libucrt:lcidtoname_downlevel.obj
 0002:00005c08       ??_C@_1M@CBOOLAPA@?$AAm?$AAk?$AA?9?$AAm?$AAk?$AA?$AA@ 0000000180038c08     libucrt:lcidtoname_downlevel.obj
 0002:00005c18       ??_C@_1M@GPHNBJKN@?$AAm?$AAl?$AA?9?$AAi?$AAn?$AA?$AA@ 0000000180038c18     libucrt:lcidtoname_downlevel.obj
 0002:00005c28       ??_C@_1M@PABJILIG@?$AAm?$AAn?$AA?9?$AAm?$AAn?$AA?$AA@ 0000000180038c28     libucrt:lcidtoname_downlevel.obj
 0002:00005c38       ??_C@_1M@FGBKKIPG@?$AAm?$AAr?$AA?9?$AAi?$AAn?$AA?$AA@ 0000000180038c38     libucrt:lcidtoname_downlevel.obj
 0002:00005c48       ??_C@_1M@NDBPDDAL@?$AAm?$AAs?$AA?9?$AAb?$AAn?$AA?$AA@ 0000000180038c48     libucrt:lcidtoname_downlevel.obj
 0002:00005c58       ??_C@_1M@OPIHOOPI@?$AAm?$AAs?$AA?9?$AAm?$AAy?$AA?$AA@ 0000000180038c58     libucrt:lcidtoname_downlevel.obj
 0002:00005c68       ??_C@_1M@PPDBCNFM@?$AAm?$AAt?$AA?9?$AAm?$AAt?$AA?$AA@ 0000000180038c68     libucrt:lcidtoname_downlevel.obj
 0002:00005c78       ??_C@_1M@KDJDKMDD@?$AAn?$AAb?$AA?9?$AAn?$AAo?$AA?$AA@ 0000000180038c78     libucrt:lcidtoname_downlevel.obj
 0002:00005c88       ??_C@_1M@KFCFLMJP@?$AAn?$AAl?$AA?9?$AAb?$AAe?$AA?$AA@ 0000000180038c88     libucrt:lcidtoname_downlevel.obj
 0002:00005c98       ??_C@_1M@KPOPDDGO@?$AAn?$AAl?$AA?9?$AAn?$AAl?$AA?$AA@ 0000000180038c98     libucrt:lcidtoname_downlevel.obj
 0002:00005ca8       ??_C@_1M@LJKPEMLN@?$AAn?$AAn?$AA?9?$AAn?$AAo?$AA?$AA@ 0000000180038ca8     libucrt:lcidtoname_downlevel.obj
 0002:00005cb8       ??_C@_1M@BDGHHBFL@?$AAn?$AAs?$AA?9?$AAz?$AAa?$AA?$AA@ 0000000180038cb8     libucrt:lcidtoname_downlevel.obj
 0002:00005cc8       ??_C@_1M@IDEHOAP@?$AAp?$AAa?$AA?9?$AAi?$AAn?$AA?$AA@ 0000000180038cc8     libucrt:lcidtoname_downlevel.obj
 0002:00005cd8       ??_C@_1M@HDBKGOGH@?$AAp?$AAl?$AA?9?$AAp?$AAl?$AA?$AA@ 0000000180038cd8     libucrt:lcidtoname_downlevel.obj
 0002:00005ce8       ??_C@_1M@LJLLCMEH@?$AAp?$AAt?$AA?9?$AAb?$AAr?$AA?$AA@ 0000000180038ce8     libucrt:lcidtoname_downlevel.obj
 0002:00005cf8       ??_C@_1M@NCMONAAL@?$AAp?$AAt?$AA?9?$AAp?$AAt?$AA?$AA@ 0000000180038cf8     libucrt:lcidtoname_downlevel.obj
 0002:00005d08       ??_C@_1O@EAKMAJDN@?$AAq?$AAu?$AAz?$AA?9?$AAb?$AAo?$AA?$AA@ 0000000180038d08     libucrt:lcidtoname_downlevel.obj
 0002:00005d18       ??_C@_1O@BHHPIGDN@?$AAq?$AAu?$AAz?$AA?9?$AAe?$AAc?$AA?$AA@ 0000000180038d18     libucrt:lcidtoname_downlevel.obj
 0002:00005d28       ??_C@_1O@GBAPEKMJ@?$AAq?$AAu?$AAz?$AA?9?$AAp?$AAe?$AA?$AA@ 0000000180038d28     libucrt:lcidtoname_downlevel.obj
 0002:00005d38       ??_C@_1M@CLGLEFBO@?$AAr?$AAo?$AA?9?$AAr?$AAo?$AA?$AA@ 0000000180038d38     libucrt:lcidtoname_downlevel.obj
 0002:00005d48       ??_C@_1M@CEEDODME@?$AAr?$AAu?$AA?9?$AAr?$AAu?$AA?$AA@ 0000000180038d48     libucrt:lcidtoname_downlevel.obj
 0002:00005d58       ??_C@_1M@HPKKKMPP@?$AAs?$AAa?$AA?9?$AAi?$AAn?$AA?$AA@ 0000000180038d58     libucrt:lcidtoname_downlevel.obj
 0002:00005d68       ??_C@_1M@BKMAIGOJ@?$AAs?$AAe?$AA?9?$AAf?$AAi?$AA?$AA@ 0000000180038d68     libucrt:lcidtoname_downlevel.obj
 0002:00005d78       ??_C@_1M@NDPIFLFI@?$AAs?$AAe?$AA?9?$AAn?$AAo?$AA?$AA@ 0000000180038d78     libucrt:lcidtoname_downlevel.obj
 0002:00005d88       ??_C@_1M@DANKKHJ@?$AAs?$AAe?$AA?9?$AAs?$AAe?$AA?$AA@ 0000000180038d88     libucrt:lcidtoname_downlevel.obj
 0002:00005d98       ??_C@_1M@PNBLONPJ@?$AAs?$AAk?$AA?9?$AAs?$AAk?$AA?$AA@ 0000000180038d98     libucrt:lcidtoname_downlevel.obj
 0002:00005da8       ??_C@_1M@LFMODOAL@?$AAs?$AAl?$AA?9?$AAs?$AAi?$AA?$AA@ 0000000180038da8     libucrt:lcidtoname_downlevel.obj
 0002:00005db8       ??_C@_1O@DFKOMPG@?$AAs?$AAm?$AAa?$AA?9?$AAn?$AAo?$AA?$AA@ 0000000180038db8     libucrt:lcidtoname_downlevel.obj
 0002:00005dc8       ??_C@_1O@NDKPBNNH@?$AAs?$AAm?$AAa?$AA?9?$AAs?$AAe?$AA?$AA@ 0000000180038dc8     libucrt:lcidtoname_downlevel.obj
 0002:00005dd8       ??_C@_1O@PLLKBHAB@?$AAs?$AAm?$AAj?$AA?9?$AAn?$AAo?$AA?$AA@ 0000000180038dd8     libucrt:lcidtoname_downlevel.obj
 0002:00005de8       ??_C@_1O@CLEPOGCA@?$AAs?$AAm?$AAj?$AA?9?$AAs?$AAe?$AA?$AA@ 0000000180038de8     libucrt:lcidtoname_downlevel.obj
 0002:00005df8       ??_C@_1O@DLGJGKMK@?$AAs?$AAm?$AAn?$AA?9?$AAf?$AAi?$AA?$AA@ 0000000180038df8     libucrt:lcidtoname_downlevel.obj
 0002:00005e08       ??_C@_1O@OJDJGAJC@?$AAs?$AAm?$AAs?$AA?9?$AAf?$AAi?$AA?$AA@ 0000000180038e08     libucrt:lcidtoname_downlevel.obj
 0002:00005e18       ??_C@_1M@BOFOGHPB@?$AAs?$AAq?$AA?9?$AAa?$AAl?$AA?$AA@ 0000000180038e18     libucrt:lcidtoname_downlevel.obj
 0002:00005e28       ??_C@_1BG@LJBBIPGB@?$AAs?$AAr?$AA?9?$AAb?$AAa?$AA?9?$AAc?$AAy?$AAr?$AAl?$AA?$AA@ 0000000180038e28     libucrt:lcidtoname_downlevel.obj
 0002:00005e40       ??_C@_1BG@JLBENFOE@?$AAs?$AAr?$AA?9?$AAb?$AAa?$AA?9?$AAl?$AAa?$AAt?$AAn?$AA?$AA@ 0000000180038e40     libucrt:lcidtoname_downlevel.obj
 0002:00005e58       ??_C@_1BG@KODPNHE@?$AAs?$AAr?$AA?9?$AAs?$AAp?$AA?9?$AAc?$AAy?$AAr?$AAl?$AA?$AA@ 0000000180038e58     libucrt:lcidtoname_downlevel.obj
 0002:00005e70       ??_C@_1BG@CIOGKHPB@?$AAs?$AAr?$AA?9?$AAs?$AAp?$AA?9?$AAl?$AAa?$AAt?$AAn?$AA?$AA@ 0000000180038e70     libucrt:lcidtoname_downlevel.obj
 0002:00005e88       ??_C@_1M@NGFJLMAC@?$AAs?$AAv?$AA?9?$AAf?$AAi?$AA?$AA@ 0000000180038e88     libucrt:lcidtoname_downlevel.obj
 0002:00005e98       ??_C@_1M@MPJEJAJC@?$AAs?$AAv?$AA?9?$AAs?$AAe?$AA?$AA@ 0000000180038e98     libucrt:lcidtoname_downlevel.obj
 0002:00005ea8       ??_C@_1M@MPNDHLFK@?$AAs?$AAw?$AA?9?$AAk?$AAe?$AA?$AA@ 0000000180038ea8     libucrt:lcidtoname_downlevel.obj
 0002:00005eb8       ??_C@_1O@KOHBJJI@?$AAs?$AAy?$AAr?$AA?9?$AAs?$AAy?$AA?$AA@ 0000000180038eb8     libucrt:lcidtoname_downlevel.obj
 0002:00005ec8       ??_C@_1M@LDCEFHA@?$AAt?$AAa?$AA?9?$AAi?$AAn?$AA?$AA@ 0000000180038ec8     libucrt:lcidtoname_downlevel.obj
 0002:00005ed8       ??_C@_1M@CNJOFAK@?$AAt?$AAe?$AA?9?$AAi?$AAn?$AA?$AA@ 0000000180038ed8     libucrt:lcidtoname_downlevel.obj
 0002:00005ee8       ??_C@_1M@GNAECACD@?$AAt?$AAh?$AA?9?$AAt?$AAh?$AA?$AA@ 0000000180038ee8     libucrt:lcidtoname_downlevel.obj
 0002:00005ef8       ??_C@_1M@CHBIHOJO@?$AAt?$AAn?$AA?9?$AAz?$AAa?$AA?$AA@ 0000000180038ef8     libucrt:lcidtoname_downlevel.obj
 0002:00005f08       ??_C@_1M@GCCMIGPJ@?$AAt?$AAr?$AA?9?$AAt?$AAr?$AA?$AA@ 0000000180038f08     libucrt:lcidtoname_downlevel.obj
 0002:00005f18       ??_C@_1M@CELMCNBK@?$AAt?$AAt?$AA?9?$AAr?$AAu?$AA?$AA@ 0000000180038f18     libucrt:lcidtoname_downlevel.obj
 0002:00005f28       ??_C@_1M@KLMCELGA@?$AAu?$AAk?$AA?9?$AAu?$AAa?$AA?$AA@ 0000000180038f28     libucrt:lcidtoname_downlevel.obj
 0002:00005f38       ??_C@_1M@EPAJJAJF@?$AAu?$AAr?$AA?9?$AAp?$AAk?$AA?$AA@ 0000000180038f38     libucrt:lcidtoname_downlevel.obj
 0002:00005f48       ??_C@_1BG@GEGPMCDJ@?$AAu?$AAz?$AA?9?$AAu?$AAz?$AA?9?$AAc?$AAy?$AAr?$AAl?$AA?$AA@ 0000000180038f48     libucrt:lcidtoname_downlevel.obj
 0002:00005f60       ??_C@_1BG@EGGKJILM@?$AAu?$AAz?$AA?9?$AAu?$AAz?$AA?9?$AAl?$AAa?$AAt?$AAn?$AA?$AA@ 0000000180038f60     libucrt:lcidtoname_downlevel.obj
 0002:00005f78       ??_C@_1M@GFOCLFF@?$AAv?$AAi?$AA?9?$AAv?$AAn?$AA?$AA@ 0000000180038f78     libucrt:lcidtoname_downlevel.obj
 0002:00005f88       ??_C@_1M@CPAMEDFI@?$AAx?$AAh?$AA?9?$AAz?$AAa?$AA?$AA@ 0000000180038f88     libucrt:lcidtoname_downlevel.obj
 0002:00005f98       ??_C@_1O@EBKIFIGN@?$AAz?$AAh?$AA?9?$AAc?$AAh?$AAs?$AA?$AA@ 0000000180038f98     libucrt:lcidtoname_downlevel.obj
 0002:00005fa8       ??_C@_1O@NMHPGANE@?$AAz?$AAh?$AA?9?$AAc?$AAh?$AAt?$AA?$AA@ 0000000180038fa8     libucrt:lcidtoname_downlevel.obj
 0002:00005fb8       ??_C@_1M@LPINJOMC@?$AAz?$AAh?$AA?9?$AAc?$AAn?$AA?$AA@ 0000000180038fb8     libucrt:lcidtoname_downlevel.obj
 0002:00005fc8       ??_C@_1M@OCJEJODD@?$AAz?$AAh?$AA?9?$AAh?$AAk?$AA?$AA@ 0000000180038fc8     libucrt:lcidtoname_downlevel.obj
 0002:00005fd8       ??_C@_1M@DNDLJINH@?$AAz?$AAh?$AA?9?$AAm?$AAo?$AA?$AA@ 0000000180038fd8     libucrt:lcidtoname_downlevel.obj
 0002:00005fe8       ??_C@_1M@MBFDNDND@?$AAz?$AAh?$AA?9?$AAs?$AAg?$AA?$AA@ 0000000180038fe8     libucrt:lcidtoname_downlevel.obj
 0002:00005ff8       ??_C@_1M@IMEPLEPE@?$AAz?$AAh?$AA?9?$AAt?$AAw?$AA?$AA@ 0000000180038ff8     libucrt:lcidtoname_downlevel.obj
 0002:00006008       ??_C@_1M@BBGHNHJP@?$AAz?$AAu?$AA?9?$AAz?$AAa?$AA?$AA@ 0000000180039008     libucrt:lcidtoname_downlevel.obj
 0002:00006020       ?large_power_data@?1??multiply_by_power_of_ten@__crt_strtox@@YA_NAEAUbig_integer@2@I@Z@4QBIB 0000000180039020     libucrt:cfout.obj
 0002:00006930       ?large_power_indices@?1??multiply_by_power_of_ten@__crt_strtox@@YA_NAEAUbig_integer@2@I@Z@4QBUunpack_index@?1??12@YA_N0I@Z@B 0000000180039930     libucrt:cfout.obj
 0002:000069c8       ?small_powers_of_ten@?6??multiply_by_power_of_ten@__crt_strtox@@YA_NAEAUbig_integer@2@I@Z@4QBIB 00000001800399c8     libucrt:cfout.obj
 0002:000069ec       ??_C@_01GBGANLPD@0?$AA@    00000001800399ec     libucrt:cfout.obj
 0002:000069f0       ??_C@_05DNEBIAHO@1?$CDINF?$AA@ 00000001800399f0     libucrt:cfout.obj
 0002:000069f8       ??_C@_06IMKFLFPG@1?$CDQNAN?$AA@ 00000001800399f8     libucrt:cfout.obj
 0002:00006a00       ??_C@_06PGGFOGJG@1?$CDSNAN?$AA@ 0000000180039a00     libucrt:cfout.obj
 0002:00006a08       ??_C@_05PHHOCPM@1?$CDIND?$AA@ 0000000180039a08     libucrt:cfout.obj
 0002:00006c60       ??_C@_1BA@BALFACEM@?$AAC?$AAO?$AAN?$AAO?$AAU?$AAT?$AA$?$AA?$AA@ 0000000180039c60     libucrt:initcon.obj
 0002:00006c70       __log10_256_lead           0000000180039c70     libucrt:log10_256_lead_tail_table.obj
 0002:00007480       __log10_256_tail           000000018003a480     libucrt:log10_256_lead_tail_table.obj
 0002:00007c90       __log_F_inv_qword          000000018003ac90     libucrt:log_f_inv_qword_table.obj
 0002:000084a0       ??_C@_05HGHHAHAP@log10?$AA@ 000000018003b4a0     libucrt:log_special.obj
 0002:000084c0       ??_C@_1BK@DBDEIDLH@?$AAK?$AAE?$AAR?$AAN?$AAE?$AAL?$AA3?$AA2?$AA?4?$AAD?$AAL?$AAL?$AA?$AA@ 000000018003b4c0     DelayImp:delayhlp.obj
 0002:000084e0       ??_C@_0BI@OMNLIJDB@AcquireSRWLockExclusive?$AA@ 000000018003b4e0     DelayImp:delayhlp.obj
 0002:000084f8       ??_C@_0BI@HMIEPCNJ@ReleaseSRWLockExclusive?$AA@ 000000018003b4f8     DelayImp:delayhlp.obj
 0002:00008510       __pfnDliFailureHook2       000000018003b510     DelayImp:delayhk1.obj
 0002:00008520       _load_config_used          000000018003b520     LIBCMT:loadcfg.obj
 0002:000085b8       ??_C@_09DNJONEBC@secp112r1?$AA@ 000000018003b5b8     main.obj
 0002:000085c8       ??_C@_09BGLDIHNB@secp112r2?$AA@ 000000018003b5c8     main.obj
 0002:000085d8       ??_C@_09BFIDEOKG@secp128r1?$AA@ 000000018003b5d8     main.obj
 0002:000085e8       ??_C@_09DOKOBNGF@secp128r2?$AA@ 000000018003b5e8     main.obj
 0002:000085f8       ??_C@_09DGEAFIHG@secp160k1?$AA@ 000000018003b5f8     main.obj
 0002:00008608       ??_C@_09CFLHMAIJ@secp160r1?$AA@ 000000018003b608     main.obj
 0002:00008618       ??_C@_09OJKJDEK@secp160r2?$AA@ 000000018003b618     main.obj
 0002:00008628       ??_C@_09NOOJPND@secp192r1?$AA@ 000000018003b628     main.obj
 0002:00008638       ??_C@_09BOBJAHCM@secp192k1?$AA@ 000000018003b638     main.obj
 0002:00008648       ??_C@_09MKDGBLEP@secp224k1?$AA@ 000000018003b648     main.obj
 0002:00008658       ??_C@_09NJMBIDLA@secp224r1?$AA@ 000000018003b658     main.obj
 0002:00008668       ??_C@_09NCBPAPNE@secp256k1?$AA@ 000000018003b668     main.obj
 0002:00008678       ??_C@_09MBOIJHCL@secp256r1?$AA@ 000000018003b678     main.obj
 0002:00008688       ??_C@_09FICNEILE@secp384r1?$AA@ 000000018003b688     main.obj
 0002:00008698       ??_C@_09PDBKEDDK@secp521r1?$AA@ 000000018003b698     main.obj
 0002:000086a8       ??_C@_09HBGNJHGE@sect113r1?$AA@ 000000018003b6a8     main.obj
 0002:000086b8       ??_C@_09FKEAMEKH@sect113r2?$AA@ 000000018003b6b8     main.obj
 0002:000086c8       ??_C@_09KBKEAMIP@sect131r1?$AA@ 000000018003b6c8     main.obj
 0002:000086d8       ??_C@_09IKIJFPEM@sect131r2?$AA@ 000000018003b6d8     main.obj
 0002:000086e8       ??_C@_09NALKNDIL@sect163k1?$AA@ 000000018003b6e8     main.obj
 0002:000086f8       ??_C@_09MDENELHE@sect163r1?$AA@ 000000018003b6f8     main.obj
 0002:00008708       ??_C@_09OIGABILH@sect163r2?$AA@ 000000018003b708     main.obj
 0002:00008718       ??_C@_09EBBNNMKF@sect193r1?$AA@ 000000018003b718     main.obj
 0002:00008728       ??_C@_09GKDAIPGG@sect193r2?$AA@ 000000018003b728     main.obj
 0002:00008738       ??_C@_09JOMOCOFF@sect233k1?$AA@ 000000018003b738     main.obj
 0002:00008748       ??_C@_09INDJLGKK@sect233r1?$AA@ 000000018003b748     main.obj
 0002:00008758       ??_C@_09PBHDMODB@sect239k1?$AA@ 000000018003b758     main.obj
 0002:00008768       ??_C@_09OJBOBPEE@sect283k1?$AA@ 000000018003b768     main.obj
 0002:00008778       ??_C@_09PKOJIHLL@sect283r1?$AA@ 000000018003b778     main.obj
 0002:00008788       ??_C@_09GAIKFHPM@sect409k1?$AA@ 000000018003b788     main.obj
 0002:00008798       ??_C@_09HDHNMPAD@sect409r1?$AA@ 000000018003b798     main.obj
 0002:000087a8       ??_C@_09NMECHAKG@sect571k1?$AA@ 000000018003b7a8     main.obj
 0002:000087b8       ??_C@_09MPLFOIFJ@sect571r1?$AA@ 000000018003b7b8     main.obj
 0002:000087c8       ??_C@_0O@NPGHPNMP@EcNamedCurves?$AA@ 000000018003b7c8     main.obj
 0002:000087d8       ??_C@_05MAOLHBFO@RSA_3?$AA@ 000000018003b7d8     main.obj
 0002:000087e0       ??_C@_06GFADMOMO@RSA_F4?$AA@ 000000018003b7e0     main.obj
 0002:000087e8       ??_C@_0BC@MGGIKLOM@RsaPublicExponent?$AA@ 000000018003b7e8     main.obj
 0002:000087fc       ??_C@_06EKOLBGFH@PUBLIC?$AA@ 000000018003b7fc     main.obj
 0002:00008808       ??_C@_07CBKGEIHF@PRIVATE?$AA@ 000000018003b808     main.obj
 0002:00008810       ??_C@_07IMFGLAMJ@KeyType?$AA@ 000000018003b810     main.obj
 0002:00008818       ??_C@_0BA@FIPBKFBN@?4?4?2src?2main?4cpp?$AA@ 000000018003b818     main.obj
 0002:00008828       ??_C@_07GIAOGLC@nodessl?$AA@ 000000018003b828     main.obj
 0002:00008830       ??_C@_0BC@BDKFLDHL@unknown?5exception?$AA@ 000000018003b830     key_exp.obj
 0002:00008848       ??_C@_0BA@JFNIOLAK@string?5too?5long?$AA@ 000000018003b848     key_exp.obj
 0002:00008858       ??_C@_0BI@CFPLBAOH@invalid?5string?5position?$AA@ 000000018003b858     key_exp.obj
 0002:00008870       ??_7?$_Ref_count@V?$basic_string@DU?$char_traits@D@std@@V?$allocator@D@2@@std@@@std@@6B@ 000000018003b870     key_exp.obj
 0002:00008890       ??_7?$_Ref_count@V?$ScopedSSL@Uevp_pkey_st@@$1?ScopedEVP_PKEY_free@@YAXPEAX@Z@@@std@@6B@ 000000018003b890     key_exp.obj
 0002:000088b0       ??_7_Ref_count_base@std@@6B@ 000000018003b8b0     key_exp.obj
 0002:000088d0       ??_7exception@stdext@@6B@  000000018003b8d0     key_exp.obj
 0002:000088e8       ??_C@_0P@GKFECDFN@EVP_MD?5is?5NULL?$AA@ 000000018003b8e8     digest.obj
 0002:000088f8       ??_C@_0CB@FBKINMMN@Unsupported?5publicExponent?5value@ 000000018003b8f8     rsa_gen.obj
 0002:0000891c       ??_C@_03DICHAJGH@RSA?$AA@  000000018003b91c     rsa_jwk.obj
 0002:00008920       ??_C@_0BI@DCNGCDG@Wrong?5value?5of?5key_type?$AA@ 000000018003b920     rsa_jwk.obj
 0002:00008938       ??_C@_0BF@BEONMJLH@Key?5value?5is?5nullptr?$AA@ 000000018003b938     rsa_jwk.obj
 0002:00008950       ??_C@_0BE@BIKHACCC@Key?5is?5not?5RSA?5type?$AA@ 000000018003b950     rsa_jwk.obj
 0002:00008968       ??_C@_0BD@JFJKJBNJ@JWK?5key?5is?5not?5RSA?$AA@ 000000018003b968     rsa_jwk.obj
 0002:00008980       ??_7?$_Ref_count@VJwkRsa@@@std@@6B@ 000000018003b980     rsa_jwk.obj
 0002:000089a0       ??_C@_0BI@DOHIBDJD@?4?4?2src?2rsa?2rsa_oaep?4cpp?$AA@ 000000018003b9a0     rsa_oaep.obj
 0002:000089b8       ??_C@_0CE@KAFMPMDJ@GetEcGroupOrderSize?3?5Key?5is?5null@ 000000018003b9b8     ec_dsa.obj
 0002:000089e0       ??_C@_0CD@HJKNMMIE@GetEcGroupOrderSize?3?5Key?5is?5not?5@ 000000018003b9e0     ec_dsa.obj
 0002:00008a08       ??_C@_0BI@KMPPCAKA@Wrong?5leng?5for?5truncate?$AA@ 000000018003ba08     ec_dh.obj
 0002:00008a20       ??_C@_0DB@DOFHAAFP@EVP_PKEY_get1_EC_KEY?4?5Can?5not?5ge@ 000000018003ba20     ec_dh.obj
 0002:00008a58       ??_C@_0CH@DHJFKNEE@Named?5corves?5of?5EC?5keys?5are?5not?5@ 000000018003ba58     ec_dh.obj
 0002:00008a80       ??_C@_0BE@CFAIDCFN@ECDH?5length?5too?5big?$AA@ 000000018003ba80     ec_dh.obj
 0002:00008a94       ??_C@_02KNLLHFAA@EC?$AA@   000000018003ba94     ec_jwk.obj
 0002:00008a98       ??_C@_0BD@PIAINEEO@Key?5is?5not?5EC?5type?$AA@ 000000018003ba98     ec_jwk.obj
 0002:00008ab0       ??_7?$_Ref_count@VJwkEc@@@std@@6B@ 000000018003bab0     ec_jwk.obj
 0002:00008ad0       ??_C@_0BJ@GFIJIPC@Error?5on?5AES?5key?5getting?$AA@ 000000018003bad0     aes_ecb.obj
 0002:00008af0       ??_C@_0BF@PAOJCMKC@Input?5data?5too?5large?$AA@ 000000018003baf0     aes_ecb.obj
 0002:00008b08       ??_C@_0BJ@MLGFNLFE@Unknown?5AES?5CBC?5key?5size?$AA@ 000000018003bb08     aes_ecb.obj
 0002:00008b28       ??_C@_0BE@GGKPKCBB@Incorrect?5IV?5length?$AA@ 000000018003bb28     aes_cbc.obj
 0002:00008b40       ??_C@_0FD@MLHPLIIE@The?5AES?9KW?5input?5data?5length?5is?5@ 000000018003bb40     aes_cbc.obj
 0002:00008ba0       ??_C@_0ED@MHIIPGME@The?5AES?9KW?5input?5data?5length?5is?5@ 000000018003bba0     aes_cbc.obj
 0002:00008bf0       ??_C@_0FD@GDDEEJBC@The?5AES?9KW?5input?5data?5length?5is?5@ 000000018003bbf0     aes_cbc.obj
 0002:00008c48       ??_C@_0BJ@MCAPNGKL@Unknown?5AES?5GCM?5key?5size?$AA@ 000000018003bc48     aes_gcm.obj
 0002:00008c61       ??_C@_00CNPNBAHC@?$AA@     000000018003bc61     aes_ctr.obj
 0002:00008c68       ??_C@_0BI@BHOGLKFO@Wrong?5size?5of?5?8counter?8?$AA@ 000000018003bc68     aes_ctr.obj
 0002:00008c80       ??_C@_0DF@LECHJMOO@Incorrect?5value?5?8length?8?4?5Must?5b@ 000000018003bc80     aes_ctr.obj
 0002:00008cb8       ??_C@_0BG@KBLAMBLD@Size?5of?5key?5too?5small?$AA@ 000000018003bcb8     hmac_gen.obj
 0002:00008cd0       ??_7?$_Ref_count@VScopedHMAC@@@std@@6B@ 000000018003bcd0     hmac_gen.obj
 0002:00008cd0       ??_7?$_Ref_count@VScopedAES@@@std@@6B@ 000000018003bcd0     aes_gen.obj
 0002:00008cd0       ??_7?$_Ref_count@VScopedPbkdf2@@@std@@6B@ 000000018003bcd0     async_pbkdf2.obj
 0002:00008cf0       ??_C@_0BG@NLOKODAK@Parameter?5md?5is?5empty?$AA@ 000000018003bcf0     hmac_sign.obj
 0002:00008d08       ??_C@_0DE@NFGNMJNO@Signature?5length?5is?5not?5equal?5to@ 000000018003bd08     hmac_sign.obj
 0002:00008d40       ??_C@_0CJ@LGHALHJC@PBKDF2?3?5Derive?5bits?5length?5not?5s@ 000000018003bd40     pbkdf2_derive.obj
 0002:00008d70       ??_C@_0DF@GDFOEJIF@PBKDF2?3?5Derive?5bits?5length?5not?5a@ 000000018003bd70     pbkdf2_derive.obj
 0002:00008da8       ??_C@_0BO@OJDPHANA@PBKDF2?3?5Iterations?5can?8t?5be?50?$AA@ 000000018003bda8     pbkdf2_derive.obj
 0002:00008dc8       ??_C@_0CK@OELGDBJH@PBKDF2?3?5Message?5digest?5algorithm@ 000000018003bdc8     pbkdf2_derive.obj
 0002:00008e00       ??_C@_1IO@LMPMPLHK@?$AAC?$AA?3?$AA?2?$AAU?$AAs?$AAe?$AAr?$AAs?$AA?2?$AAH?$AAP?$AA?2?$AAD?$AAe?$AAs?$AAk?$AAt?$AAo?$AAp?$AA?2?$AAn?$AAo?$AAd?$AAe?$AAb?$AAo?$AAo?$AAk?$AA?2?$AAb?$AAa?$AAb@ 000000018003be00     common.obj
 0002:00008e90       ??_C@_1FM@LOELJOFK@?$AAs?$AAi?$AAz?$AAe?$AA?5?$AA?$DM?$AA?$DN?$AA?5?$AAi?$AAm?$AAp?$AA?3?$AA?3?$AAk?$AAM?$AAa?$AAx?$AAL?$AAe?$AAn?$AAg?$AAt?$AAh?$AA?5?$AA?$CG?$AA?$CG?$AA?5?$AA?$CC?$AAt?$AAo?$AAo?$AA?5@ 000000018003be90     common.obj
 0002:00008ef0       ??_C@_1HI@KFCOAJNC@?$AAC?$AA?3?$AA?2?$AAU?$AAs?$AAe?$AAr?$AAs?$AA?2?$AAH?$AAP?$AA?2?$AA?4?$AAn?$AAo?$AAd?$AAe?$AA?9?$AAg?$AAy?$AAp?$AA?2?$AA8?$AA?4?$AA9?$AA?4?$AA4?$AA?2?$AAi?$AAn?$AAc?$AAl@ 000000018003bef0     w_key.obj
 0002:00008f68       ??_C@_1CO@EGNPJLKI@?$AAp?$AAe?$AAr?$AAs?$AAi?$AAs?$AAt?$AAe?$AAn?$AAt?$AA?$CI?$AA?$CJ?$AA?4?$AAI?$AAs?$AAE?$AAm?$AAp?$AAt?$AAy?$AA?$CI?$AA?$CJ?$AA?$AA@ 000000018003bf68     w_key.obj
 0002:00008f98       ??_C@_1DG@OKCGPKIB@?$AAp?$AAe?$AAr?$AAs?$AAi?$AAs?$AAt?$AAe?$AAn?$AAt?$AA?$CI?$AA?$CJ?$AA?4?$AAI?$AAs?$AAN?$AAe?$AAa?$AAr?$AAD?$AAe?$AAa?$AAt?$AAh?$AA?$CI?$AA?$CJ?$AA?$AA@ 000000018003bf98     w_key.obj
 0002:00008fd0       ??_C@_1DA@FBGAEOIO@?$AA?$CB?$AAp?$AAe?$AAr?$AAs?$AAi?$AAs?$AAt?$AAe?$AAn?$AAt?$AA?$CI?$AA?$CJ?$AA?4?$AAI?$AAs?$AAE?$AAm?$AAp?$AAt?$AAy?$AA?$CI?$AA?$CJ?$AA?$AA@ 000000018003bfd0     w_key.obj
 0002:00009000       ??_C@_1EC@NOLNIHNJ@?$AAh?$AAa?$AAn?$AAd?$AAl?$AAe?$AA?9?$AA?$DO?$AAI?$AAn?$AAt?$AAe?$AAr?$AAn?$AAa?$AAl?$AAF?$AAi?$AAe?$AAl?$AAd?$AAC?$AAo?$AAu?$AAn?$AAt?$AA?$CI?$AA?$CJ?$AA?5?$AA?$DO?$AA?5?$AA0@ 000000018003c000     w_key.obj
 0002:00009048       ??_C@_1BE@GMLLOIPJ@?$AAr?$AAe?$AAf?$AAs?$AA_?$AA?5?$AA?$DO?$AA?5?$AA0?$AA?$AA@ 000000018003c048     w_key.obj
 0002:00009060       ??_C@_1CO@JCKLEFMA@?$AA?$CB?$AAp?$AAe?$AAr?$AAs?$AAi?$AAs?$AAt?$AAe?$AAn?$AAt?$AA?$CI?$AA?$CJ?$AA?4?$AAI?$AAs?$AAW?$AAe?$AAa?$AAk?$AA?$CI?$AA?$CJ?$AA?$AA@ 000000018003c060     w_key.obj
 0002:00009090       ??_C@_1CC@GBFLAAPF@?$AAw?$AAr?$AAa?$AAp?$AA?9?$AA?$DO?$AAr?$AAe?$AAf?$AAs?$AA_?$AA?5?$AA?$DN?$AA?$DN?$AA?5?$AA0?$AA?$AA@ 000000018003c090     w_key.obj
 0002:000090b8       ??_C@_09NIMIAKMJ@exportJwk?$AA@ 000000018003c0b8     w_key.obj
 0002:000090c4       ??_C@_03CCEPDEKL@Key?$AA@  000000018003c0c4     w_key.obj
 0002:000090c8       ??_C@_0M@HJCMEELC@exportPkcs8?$AA@ 000000018003c0c8     w_key.obj
 0002:000090d8       ??_C@_0L@KGHIKPLK@exportSpki?$AA@ 000000018003c0d8     w_key.obj
 0002:000090e4       ??_C@_06MCIJCFHC@verify?$AA@ 000000018003c0e4     w_key.obj
 0002:000090ec       ??_C@_04HHGHLBPI@sign?$AA@ 000000018003c0ec     w_key.obj
 0002:000090f8       ??_C@_0L@GIKHFBIL@RsaPssSign?$AA@ 000000018003c0f8     w_key.obj
 0002:00009108       ??_C@_0O@HDDMKJJF@RsaOaepEncDec?$AA@ 000000018003c108     w_key.obj
 0002:00009118       ??_C@_0O@JIIHHHHN@EcdhDeriveKey?$AA@ 000000018003c118     w_key.obj
 0002:00009128       ??_C@_0N@GGJBPCPP@RsaPssVerify?$AA@ 000000018003c128     w_key.obj
 0002:00009138       ??_C@_0O@GOEMINKB@modulusLength?$AA@ 000000018003c138     w_key.obj
 0002:00009148       ??_C@_0P@GFCAOOFJ@EcdhDeriveBits?$AA@ 000000018003c148     w_key.obj
 0002:00009158       ??_C@_04GPMDFGEJ@type?$AA@ 000000018003c158     w_key.obj
 0002:00009160       ??_C@_0P@MPJIJHMC@publicExponent?$AA@ 000000018003c160     w_key.obj
 0002:00009170       ??_C@_0L@FGIHNNPJ@generateEc?$AA@ 000000018003c170     w_key.obj
 0002:00009180       ??_C@_0M@GJDJFLNF@generateRsa?$AA@ 000000018003c180     w_key.obj
 0002:00009190       ??_C@_09CEKDONHJ@importJwk?$AA@ 000000018003c190     w_key.obj
 0002:000091a0       ??_C@_0M@KDIHGBLK@importPkcs8?$AA@ 000000018003c1a0     w_key.obj
 0002:000091b0       ??_C@_0P@KKGKLOBM@Key?5is?5not?5RSA?$AA@ 000000018003c1b0     w_key.obj
 0002:000091c0       ??_C@_0L@GNOFHHNB@importSpki?$AA@ 000000018003c1c0     w_key.obj
 0002:000091cc       ??_C@_03JPJJFCNC@kty?$AA@  000000018003c1cc     w_key.obj
 0002:000091d0       ??_C@_0BH@LKAOFEHL@Unsupported?5Key?5in?5use?$AA@ 000000018003c1d0     w_key.obj
 0002:000091e8       ??_C@_01KGKMHCOC@e?$AA@    000000018003c1e8     w_key.obj
 0002:000091ec       ??_C@_01EFFIKLCJ@n?$AA@    000000018003c1ec     w_key.obj
 0002:000091f0       ??_C@_01JBBJJEPG@p?$AA@    000000018003c1f0     w_key.obj
 0002:000091f4       ??_C@_01LPLHEDKD@d?$AA@    000000018003c1f4     w_key.obj
 0002:000091f8       ??_C@_02GAFPDMOH@dp?$AA@   000000018003c1f8     w_key.obj
 0002:000091fc       ??_C@_01IIACKFLH@q?$AA@    000000018003c1fc     w_key.obj
 0002:00009200       ??_C@_02OBLCPEGE@qi?$AA@   000000018003c200     w_key.obj
 0002:00009204       ??_C@_02HJEEANKG@dq?$AA@   000000018003c204     w_key.obj
 0002:00009208       ??_C@_01FJMABOPO@x?$AA@    000000018003c208     w_key.obj
 0002:0000920c       ??_C@_03NJDIBKEA@crv?$AA@  000000018003c20c     w_key.obj
 0002:00009210       ??_C@_0BE@OCDHFEIL@Unknown?5digest?5name?$AA@ 000000018003c210     w_key.obj
 0002:00009224       ??_C@_01EANLCPLP@y?$AA@    000000018003c224     w_key.obj
 0002:00009228       ??_C@_1CE@IAEMMFJ@?$AA?$CB?$AAh?$AAa?$AAn?$AAd?$AAl?$AAe?$AA?4?$AAI?$AAs?$AAE?$AAm?$AAp?$AAt?$AAy?$AA?$CI?$AA?$CJ?$AA?$AA@ 000000018003c228     w_key.obj
 0002:00009250       ??_7AsyncWorker@Nan@@6B@   000000018003c250     w_key.obj
 0002:00009280       ??_7AsyncEcdhDeriveKey@@6B@ 000000018003c280     w_key.obj
 0002:000092b0       ??_7AsyncSignRsa@@6B@      000000018003c2b0     w_key.obj
 0002:000092e0       ??_7AsyncEcdhDeriveBits@@6B@ 000000018003c2e0     w_key.obj
 0002:00009310       ??_7AsyncEcGenerateKey@@6B@ 000000018003c310     w_key.obj
 0002:00009340       ??_7AsyncEcdsaVerify@@6B@  000000018003c340     w_key.obj
 0002:00009370       ??_7AsyncImportJwkRsa@@6B@ 000000018003c370     w_key.obj
 0002:000093a0       ??_7AsyncEcExportJwk@@6B@  000000018003c3a0     w_key.obj
 0002:000093d0       ??_7AsyncExportSpki@@6B@   000000018003c3d0     w_key.obj
 0002:00009400       ??_7AsyncVerifyRsaPSS@@6B@ 000000018003c400     w_key.obj
 0002:00009430       ?ClassName@WKey@@2PEBDEB   000000018003c430     w_key.obj
 0002:00009438       ?ClassName@WAes@@2PEBDEB   000000018003c438     w_aes.obj
 0002:00009440       ?ClassName@WHmac@@2PEBDEB  000000018003c440     w_hmac.obj
 0002:00009448       ?ClassName@WPbkdf2@@2PEBDEB 000000018003c448     w_pbkdf2.obj
 0002:00009450       ?ClassName@WCore@@2PEBDEB  000000018003c450     w_core.obj
 0002:00009458       __pfnDliNotifyHook2        000000018003c458     win_delay_load_hook.obj
 0002:00009460       ??_7AsyncEcdsaSign@@6B@    000000018003c460     w_key.obj
 0002:00009490       ??_7AsyncSignRsaPSS@@6B@   000000018003c490     w_key.obj
 0002:000094c0       ??_7AsyncImportSpki@@6B@   000000018003c4c0     w_key.obj
 0002:000094f0       ??_7AsyncExportPkcs8@@6B@  000000018003c4f0     w_key.obj
 0002:00009520       ??_7AsyncEncrypDecryptRsaOAEP@@6B@ 000000018003c520     w_key.obj
 0002:00009550       ??_7AsyncExportJwkRsa@@6B@ 000000018003c550     w_key.obj
 0002:00009580       ??_7AsyncVerifyRsa@@6B@    000000018003c580     w_key.obj
 0002:000095b0       ??_7AsyncEcImportJwk@@6B@  000000018003c5b0     w_key.obj
 0002:000095e0       ??_7AsyncImportPkcs8@@6B@  000000018003c5e0     w_key.obj
 0002:00009610       ??_7AsyncRsaGenerateKey@@6B@ 000000018003c610     w_key.obj
 0002:00009640       ??_C@_07NNLIEMBO@encrypt?$AA@ 000000018003c640     w_aes.obj
 0002:00009648       ??_C@_06JKFAEOPC@AesKey?$AA@ 000000018003c648     w_aes.obj
 0002:00009650       ??_C@_07IBDBFBGF@wrapKey?$AA@ 000000018003c650     w_aes.obj
 0002:00009658       ??_C@_07BDBFBIHK@decrypt?$AA@ 000000018003c658     w_aes.obj
 0002:00009660       ??_C@_0L@DOFOGBED@encryptEcb?$AA@ 000000018003c660     w_aes.obj
 0002:00009670       ??_C@_09IDFIPCJA@unwrapKey?$AA@ 000000018003c670     w_aes.obj
 0002:00009680       ??_C@_0L@BDMPLFAH@encryptGcm?$AA@ 000000018003c680     w_aes.obj
 0002:00009690       ??_C@_0L@HDAEFHE@decryptEcb?$AA@ 000000018003c690     w_aes.obj
 0002:000096a0       ??_C@_0L@EIJOJJDL@encryptCtr?$AA@ 000000018003c6a0     w_aes.obj
 0002:000096b0       ??_C@_0L@CKKBJBDA@decryptGcm?$AA@ 000000018003c6b0     w_aes.obj
 0002:000096bc       ??_C@_06NKNNMLDJ@export?$AA@ 000000018003c6bc     w_aes.obj
 0002:000096c8       ??_C@_0L@HBPALNAM@decryptCtr?$AA@ 000000018003c6c8     w_aes.obj
 0002:000096d4       ??_C@_06EOGGDCGF@import?$AA@ 000000018003c6d4     w_aes.obj
 0002:000096e0       ??_C@_08HBLFHMBF@generate?$AA@ 000000018003c6e0     w_aes.obj
 0002:000096f0       ??_C@_0BE@HLJGMNFE@Unknown?5cipher?5name?$AA@ 000000018003c6f0     w_aes.obj
 0002:00009704       ??_C@_03PPFAJCFI@CBC?$AA@  000000018003c704     w_aes.obj
 0002:00009708       ??_C@_0CL@CNFJINGL@Wrong?5size?5of?5?8counter?8?4?5Must?5be@ 000000018003c708     w_aes.obj
 0002:00009738       ??_7AsyncAesEncryptECB@@6B@ 000000018003c738     w_aes.obj
 0002:00009768       ??_7AsyncAesGenerateKey@@6B@ 000000018003c768     w_aes.obj
 0002:00009798       ??_7AsyncAesImport@@6B@    000000018003c798     w_aes.obj
 0002:000097c8       ??_7AsyncAesWrapKey@@6B@   000000018003c7c8     w_aes.obj
 0002:000097f8       ??_7AsyncAesEncryptCTR@@6B@ 000000018003c7f8     w_aes.obj
 0002:00009828       ??_7WKey@@6B@              000000018003c828     w_key.obj
 0002:00009828       ??_7WHmac@@6B@             000000018003c828     w_hmac.obj
 0002:00009828       ??_7WPbkdf2@@6B@           000000018003c828     w_pbkdf2.obj
 0002:00009828       ??_7WAes@@6B@              000000018003c828     w_aes.obj
 0002:00009840       ??_7AsyncAesExport@@6B@    000000018003c840     w_aes.obj
 0002:00009840       ??_7AsyncHmacExport@@6B@   000000018003c840     w_hmac.obj
 0002:00009870       ??_7AsyncAesEncryptGCM@@6B@ 000000018003c870     w_aes.obj
 0002:000098a0       ??_7AsyncAesEncryptCBC@@6B@ 000000018003c8a0     w_aes.obj
 0002:000098d0       ??_C@_07GLAKBBMB@HmacKey?$AA@ 000000018003c8d0     w_hmac.obj
 0002:000098d8       ??_7AsyncHmacGenerateKey@@6B@ 000000018003c8d8     w_hmac.obj
 0002:00009908       ??_7AsyncHmacImport@@6B@   000000018003c908     w_hmac.obj
 0002:00009938       ??_7AsyncHmacVerify@@6B@   000000018003c938     w_hmac.obj
 0002:00009968       ??_7AsyncHmacSign@@6B@     000000018003c968     w_hmac.obj
 0002:00009998       ??_C@_0L@LGDMBGLP@deriveBits?$AA@ 000000018003c998     w_pbkdf2.obj
 0002:000099a8       ??_C@_09NMDEHPBB@Pbkdf2Key?$AA@ 000000018003c9a8     w_pbkdf2.obj
 0002:000099b8       ??_C@_09PLEJINNB@importKey?$AA@ 000000018003c9b8     w_pbkdf2.obj
 0002:000099c8       ??_7AsyncPbkdf2DeriveBits@@6B@ 000000018003c9c8     w_pbkdf2.obj
 0002:000099f8       ??_7AsyncPbkdf2Import@@6B@ 000000018003c9f8     w_pbkdf2.obj
 0002:00009a28       ??_C@_04KDEOOPC@Core?$AA@  000000018003ca28     w_core.obj
 0002:00009a30       ??_C@_06IJPNAHC@digest?$AA@ 000000018003ca30     w_core.obj
 0002:00009a38       ??_7ObjectWrap@node@@6B@   000000018003ca38     w_key.obj
 0002:00009a38       ??_7WCore@@6B@             000000018003ca38     w_core.obj
 0002:00009a50       ??_7AsyncDigest@@6B@       000000018003ca50     w_core.obj
 0002:00009a80       ??_C@_08JDDNMFDB@node?4exe?$AA@ 000000018003ca80     win_delay_load_hook.obj
 0002:00009a90       ??_C@_08HCOMDCCD@iojs?4exe?$AA@ 000000018003ca90     win_delay_load_hook.obj
 0002:00009ac8       __real@3ff0000000000000    000000018003cac8     main.obj
 0002:00009ad0       __real@4079900000000000    000000018003cad0     main.obj
 0002:00009ad8       __real@4079f00000000000    000000018003cad8     main.obj
 0002:00009ae0       __real@4086000000000000    000000018003cae0     main.obj
 0002:00009ae8       __real@4086080000000000    000000018003cae8     main.obj
 0002:00009af0       __real@4086100000000000    000000018003caf0     main.obj
 0002:00009af8       __real@4086180000000000    000000018003caf8     main.obj
 0002:00009b00       __real@4086200000000000    000000018003cb00     main.obj
 0002:00009b08       __real@4086280000000000    000000018003cb08     main.obj
 0002:00009b10       __real@4086300000000000    000000018003cb10     main.obj
 0002:00009b18       __real@4086380000000000    000000018003cb18     main.obj
 0002:00009b20       __real@4086400000000000    000000018003cb20     main.obj
 0002:00009b28       __real@4086480000000000    000000018003cb28     main.obj
 0002:00009b30       __real@4086500000000000    000000018003cb30     main.obj
 0002:00009b38       __real@4086580000000000    000000018003cb38     main.obj
 0002:00009b40       __real@4086600000000000    000000018003cb40     main.obj
 0002:00009b48       __real@4086680000000000    000000018003cb48     main.obj
 0002:00009b50       __real@4086700000000000    000000018003cb50     main.obj
 0002:00009b58       __real@4086780000000000    000000018003cb58     main.obj
 0002:00009b60       __real@4086800000000000    000000018003cb60     main.obj
 0002:00009b68       __real@4086880000000000    000000018003cb68     main.obj
 0002:00009b70       __real@4086900000000000    000000018003cb70     main.obj
 0002:00009b78       __real@4086980000000000    000000018003cb78     main.obj
 0002:00009b80       __real@4086a00000000000    000000018003cb80     main.obj
 0002:00009b88       __real@4086a80000000000    000000018003cb88     main.obj
 0002:00009b90       __real@4086b00000000000    000000018003cb90     main.obj
 0002:00009b98       __real@4086b80000000000    000000018003cb98     main.obj
 0002:00009ba0       __real@4086c00000000000    000000018003cba0     main.obj
 0002:00009ba8       __real@4086c80000000000    000000018003cba8     main.obj
 0002:00009bb0       __real@4086d00000000000    000000018003cbb0     main.obj
 0002:00009bb8       __real@4086d80000000000    000000018003cbb8     main.obj
 0002:00009bc0       __real@4086e00000000000    000000018003cbc0     main.obj
 0002:00009bc8       __real@4086e80000000000    000000018003cbc8     main.obj
 0002:00009bd0       __real@4086f00000000000    000000018003cbd0     main.obj
 0002:0000c278       _tls_used                  000000018003f278     LIBCMT:tlssup.obj
 0002:0000c2a0       ??_R4exception@std@@6B@    000000018003f2a0     libcpmt:xthrow.obj
 0002:0000c2c8       ??_R3exception@std@@8      000000018003f2c8     libcpmt:xthrow.obj
 0002:0000c2e0       ??_R2exception@std@@8      000000018003f2e0     libcpmt:xthrow.obj
 0002:0000c2f0       ??_R1A@?0A@EA@exception@std@@8 000000018003f2f0     libcpmt:xthrow.obj
 0002:0000c318       ??_R4bad_alloc@std@@6B@    000000018003f318     libcpmt:xthrow.obj
 0002:0000c340       ??_R3bad_alloc@std@@8      000000018003f340     libcpmt:xthrow.obj
 0002:0000c358       ??_R2bad_alloc@std@@8      000000018003f358     libcpmt:xthrow.obj
 0002:0000c370       ??_R1A@?0A@EA@bad_alloc@std@@8 000000018003f370     libcpmt:xthrow.obj
 0002:0000c398       ??_R4logic_error@std@@6B@  000000018003f398     libcpmt:xthrow.obj
 0002:0000c3c0       ??_R3logic_error@std@@8    000000018003f3c0     libcpmt:xthrow.obj
 0002:0000c3d8       ??_R2logic_error@std@@8    000000018003f3d8     libcpmt:xthrow.obj
 0002:0000c3f0       ??_R1A@?0A@EA@logic_error@std@@8 000000018003f3f0     libcpmt:xthrow.obj
 0002:0000c418       ??_R4length_error@std@@6B@ 000000018003f418     libcpmt:xthrow.obj
 0002:0000c440       ??_R3length_error@std@@8   000000018003f440     libcpmt:xthrow.obj
 0002:0000c458       ??_R2length_error@std@@8   000000018003f458     libcpmt:xthrow.obj
 0002:0000c478       ??_R1A@?0A@EA@length_error@std@@8 000000018003f478     libcpmt:xthrow.obj
 0002:0000c4a0       ??_R4out_of_range@std@@6B@ 000000018003f4a0     libcpmt:xthrow.obj
 0002:0000c4c8       ??_R3out_of_range@std@@8   000000018003f4c8     libcpmt:xthrow.obj
 0002:0000c4e0       ??_R2out_of_range@std@@8   000000018003f4e0     libcpmt:xthrow.obj
 0002:0000c500       ??_R1A@?0A@EA@out_of_range@std@@8 000000018003f500     libcpmt:xthrow.obj
 0002:0000c528       ??_R4runtime_error@std@@6B@ 000000018003f528     libcpmt:xthrow.obj
 0002:0000c550       ??_R3runtime_error@std@@8  000000018003f550     libcpmt:xthrow.obj
 0002:0000c568       ??_R2runtime_error@std@@8  000000018003f568     libcpmt:xthrow.obj
 0002:0000c580       ??_R1A@?0A@EA@runtime_error@std@@8 000000018003f580     libcpmt:xthrow.obj
 0002:0000c5a8       ??_R4type_info@@6B@        000000018003f5a8     LIBCMT:std_type_info_static.obj
 0002:0000c5d0       ??_R3type_info@@8          000000018003f5d0     LIBCMT:std_type_info_static.obj
 0002:0000c5e8       ??_R2type_info@@8          000000018003f5e8     LIBCMT:std_type_info_static.obj
 0002:0000c5f8       ??_R1A@?0A@EA@type_info@@8 000000018003f5f8     LIBCMT:std_type_info_static.obj
 0002:0000c620       ??_R4bad_array_new_length@std@@6B@ 000000018003f620     LIBCMT:throw_bad_alloc.obj
 0002:0000c648       ??_R3bad_array_new_length@std@@8 000000018003f648     LIBCMT:throw_bad_alloc.obj
 0002:0000c660       ??_R2bad_array_new_length@std@@8 000000018003f660     LIBCMT:throw_bad_alloc.obj
 0002:0000c680       ??_R1A@?0A@EA@bad_array_new_length@std@@8 000000018003f680     LIBCMT:throw_bad_alloc.obj
 0002:0000c6a8       ??_R4bad_exception@std@@6B@ 000000018003f6a8     libvcruntime:frame.obj
 0002:0000c6d0       ??_R3bad_exception@std@@8  000000018003f6d0     libvcruntime:frame.obj
 0002:0000c6e8       ??_R2bad_exception@std@@8  000000018003f6e8     libvcruntime:frame.obj
 0002:0000c700       ??_R1A@?0A@EA@bad_exception@std@@8 000000018003f700     libvcruntime:frame.obj
 0002:0000cba8       __rtc_iaa                  000000018003fba8     LIBCMT:_initsect_.obj
 0002:0000cbb0       __rtc_izz                  000000018003fbb0     LIBCMT:_initsect_.obj
 0002:0000cbb8       __rtc_taa                  000000018003fbb8     LIBCMT:_initsect_.obj
 0002:0000cbc0       __rtc_tzz                  000000018003fbc0     LIBCMT:_initsect_.obj
 0002:00013440       _TI2?AVbad_alloc@std@@     0000000180046440     libcpmt:xthrow.obj
 0002:00013460       _CTA2?AVbad_alloc@std@@    0000000180046460     libcpmt:xthrow.obj
 0002:00013478       _CT??_R0?AVbad_alloc@std@@@8??0bad_alloc@std@@QEAA@AEBV01@@Z24 0000000180046478     libcpmt:xthrow.obj
 0002:000134a0       _CT??_R0?AVexception@std@@@8??0exception@std@@QEAA@AEBV01@@Z24 00000001800464a0     libcpmt:xthrow.obj
 0002:000134c8       _CT??_R0?AVlogic_error@std@@@8??0logic_error@std@@QEAA@AEBV01@@Z24 00000001800464c8     libcpmt:xthrow.obj
 0002:000134f0       _TI3?AVlength_error@std@@  00000001800464f0     libcpmt:xthrow.obj
 0002:00013510       _CTA3?AVlength_error@std@@ 0000000180046510     libcpmt:xthrow.obj
 0002:00013530       _CT??_R0?AVlength_error@std@@@8??0length_error@std@@QEAA@AEBV01@@Z24 0000000180046530     libcpmt:xthrow.obj
 0002:00013558       _TI3?AVout_of_range@std@@  0000000180046558     libcpmt:xthrow.obj
 0002:00013578       _CTA3?AVout_of_range@std@@ 0000000180046578     libcpmt:xthrow.obj
 0002:00013598       _CT??_R0?AVout_of_range@std@@@8??0out_of_range@std@@QEAA@AEBV01@@Z24 0000000180046598     libcpmt:xthrow.obj
 0002:000135c0       _TI3?AVbad_array_new_length@std@@ 00000001800465c0     LIBCMT:throw_bad_alloc.obj
 0002:000135e0       _CTA3?AVbad_array_new_length@std@@ 00000001800465e0     LIBCMT:throw_bad_alloc.obj
 0002:00013600       _CT??_R0?AVbad_array_new_length@std@@@8??0bad_array_new_length@std@@QEAA@AEBV01@@Z24 0000000180046600     LIBCMT:throw_bad_alloc.obj
 0002:00013628       _TI2?AVbad_exception@std@@ 0000000180046628     libvcruntime:frame.obj
 0002:00013648       _CTA2?AVbad_exception@std@@ 0000000180046648     libvcruntime:frame.obj
 0002:00013660       _CT??_R0?AVbad_exception@std@@@8??0bad_exception@std@@QEAA@AEBV01@@Z24 0000000180046660     libvcruntime:frame.obj
 0002:00013688       _TI2?AVruntime_error@std@@ 0000000180046688     key_exp.obj
 0002:000136a8       _CTA2?AVruntime_error@std@@ 00000001800466a8     key_exp.obj
 0002:000136c0       _CT??_R0?AVexception@stdext@@@816 00000001800466c0     key_exp.obj
 0002:000136e8       _CT??_R0?AVruntime_error@std@@@816 00000001800466e8     key_exp.obj
 0002:0001370c       __DELAY_IMPORT_DESCRIPTOR_node_exe 000000018004670c     node:node.exe
 0002:0001372c       __NULL_DELAY_IMPORT_DESCRIPTOR 000000018004672c     node:node.exe
 0002:00013ca0       \177node_NULL_THUNK_DATA_DLN 0000000180046ca0     node:node.exe
 0002:000156d8       \177node_NULL_THUNK_DATA_DLB 00000001800486d8     node:node.exe
 0002:00015c84       __IMPORT_DESCRIPTOR_KERNEL32 0000000180048c84     kernel32:KERNEL32.dll
 0002:00015c98       __NULL_IMPORT_DESCRIPTOR   0000000180048c98     kernel32:KERNEL32.dll
 0003:00000000       _Init_global_epoch         000000018004a000     LIBCMT:thread_safe_statics.obj
 0003:00000004       __scrt_native_dllmain_reason 000000018004a004     LIBCMT:utility.obj
 0003:00000008       __security_cookie          000000018004a008     LIBCMT:gs_cookie.obj
 0003:00000010       __security_cookie_complement 000000018004a010     LIBCMT:gs_cookie.obj
 0003:00000018       __isa_available            000000018004a018     LIBCMT:_cpu_disp_.obj
 0003:0000001c       __isa_enabled              000000018004a01c     LIBCMT:_cpu_disp_.obj
 0003:00000020       __memcpy_nt_iters          000000018004a020     LIBCMT:_cpu_disp_.obj
 0003:00000040       __abort_behavior           000000018004a040     libucrt:abort.obj
 0003:00000050       _iob                       000000018004a050     libucrt:_file.obj
 0003:00000160       __acrt_initial_locale_data 000000018004a160     libucrt:nlsdata.obj
 0003:000002b8       __acrt_initial_locale_pointers 000000018004a2b8     libucrt:nlsdata.obj
 0003:000002c8       __acrt_wide_c_locale_string 000000018004a2c8     libucrt:nlsdata.obj
 0003:000002d0       __acrt_initial_multibyte_data 000000018004a2d0     libucrt:mbctype.obj
 0003:000004f8       __acrt_current_multibyte_data 000000018004a4f8     libucrt:mbctype.obj
 0003:00000600       _mbctype                   000000018004a600     libucrt:mbctype.obj
 0003:00000710       _mbcasemap                 000000018004a710     libucrt:mbctype.obj
 0003:00000810       __badioinfo                000000018004a810     libucrt:ioinit.obj
 0003:00000850       _pwctype                   000000018004a850     libucrt:ctype.obj
 0003:00000858       __globallocalestatus       000000018004a858     libucrt:glstatus.obj
 0003:00000860       __acrt_lconv_c             000000018004a860     libucrt:localeconv.obj
 0003:000008f8       __acrt_lconv_static_decimal 000000018004a8f8     libucrt:localeconv.obj
 0003:000008fc       __acrt_lconv_static_W_decimal 000000018004a8fc     libucrt:localeconv.obj
 0003:00000900       __dcrt_lowio_console_output_handle 000000018004a900     libucrt:initcon.obj
 0003:00000920       _fltused                   000000018004a920     LIBCMT:fltused.obj
 0003:00000970       ??_R0?AVbad_alloc@std@@@8  000000018004a970     libcpmt:xthrow.obj
 0003:00000998       ??_R0?AVexception@std@@@8  000000018004a998     libcpmt:xthrow.obj
 0003:000009c0       ??_R0?AVlogic_error@std@@@8 000000018004a9c0     libcpmt:xthrow.obj
 0003:000009e8       ??_R0?AVlength_error@std@@@8 000000018004a9e8     libcpmt:xthrow.obj
 0003:00000a10       ??_R0?AVout_of_range@std@@@8 000000018004aa10     libcpmt:xthrow.obj
 0003:00000a38       ??_R0?AVtype_info@@@8      000000018004aa38     LIBCMT:std_type_info_static.obj
 0003:00000a58       ??_R0?AVbad_array_new_length@std@@@8 000000018004aa58     LIBCMT:throw_bad_alloc.obj
 0003:00000a88       ??_R0?AVbad_exception@std@@@8 000000018004aa88     libvcruntime:frame.obj
 0003:00000ab0       ??_R0?AVruntime_error@std@@@8 000000018004aab0     key_exp.obj
 0003:00000ad8       ??_R0?AVexception@stdext@@@8 000000018004aad8     key_exp.obj
 0003:00000b00       __imp_?GetCurrent@Isolate@v8@@SAPEAV12@XZ 000000018004ab00     node:node.exe
 0003:00000b08       __imp_??1HandleScope@v8@@QEAA@XZ 000000018004ab08     node:node.exe
 0003:00000b10       __imp_??0HandleScope@v8@@QEAA@PEAVIsolate@1@@Z 000000018004ab10     node:node.exe
 0003:00000b18       __imp_?ToLocalEmpty@V8@v8@@CAXXZ 000000018004ab18     node:node.exe
 0003:00000b20       __imp_?NewFromUtf8@String@v8@@SA?AV?$MaybeLocal@VString@v8@@@2@PEAVIsolate@2@PEBDW4NewStringType@2@H@Z 000000018004ab20     node:node.exe
 0003:00000b28       __imp_?New@Number@v8@@SA?AV?$Local@VNumber@v8@@@2@PEAVIsolate@2@N@Z 000000018004ab28     node:node.exe
 0003:00000b30       __imp_?New@Object@v8@@SA?AV?$Local@VObject@v8@@@2@PEAVIsolate@2@@Z 000000018004ab30     node:node.exe
 0003:00000b38       __imp_?Set@Object@v8@@QEAA_NV?$Local@VValue@v8@@@2@0@Z 000000018004ab38     node:node.exe
 0003:00000b40       __imp_?Set@Object@v8@@QEAA_NIV?$Local@VValue@v8@@@2@@Z 000000018004ab40     node:node.exe
 0003:00000b48       __imp_node_module_register 000000018004ab48     node:node.exe
 0003:00000b50       __imp_OPENSSL_add_all_algorithms_noconf 000000018004ab50     node:node.exe
 0003:00000b58       __imp_ERR_load_crypto_strings 000000018004ab58     node:node.exe
 0003:00000b60       __imp_OPENSSL_init         000000018004ab60     node:node.exe
 0003:00000b68       __imp_BIO_new_mem_buf      000000018004ab68     node:node.exe
 0003:00000b70       __imp_i2d_PUBKEY_bio       000000018004ab70     node:node.exe
 0003:00000b78       __imp_d2i_PUBKEY_bio       000000018004ab78     node:node.exe
 0003:00000b80       __imp_i2d_PKCS8PrivateKeyInfo_bio 000000018004ab80     node:node.exe
 0003:00000b88       __imp_BIO_s_mem            000000018004ab88     node:node.exe
 0003:00000b90       __imp_d2i_PrivateKey_bio   000000018004ab90     node:node.exe
 0003:00000b98       __imp_BIO_ctrl             000000018004ab98     node:node.exe
 0003:00000ba0       __imp_BIO_new              000000018004aba0     node:node.exe
 0003:00000ba8       __imp_EVP_CIPHER_CTX_free  000000018004aba8     node:node.exe
 0003:00000bb0       __imp_BN_CTX_free          000000018004abb0     node:node.exe
 0003:00000bb8       __imp_EVP_MD_CTX_destroy   000000018004abb8     node:node.exe
 0003:00000bc0       __imp_BIO_free             000000018004abc0     node:node.exe
 0003:00000bc8       __imp_EC_GROUP_free        000000018004abc8     node:node.exe
 0003:00000bd0       __imp_EVP_PKEY_free        000000018004abd0     node:node.exe
 0003:00000bd8       __imp_ECDSA_SIG_free       000000018004abd8     node:node.exe
 0003:00000be0       __imp_EC_KEY_free          000000018004abe0     node:node.exe
 0003:00000be8       __imp_BN_free              000000018004abe8     node:node.exe
 0003:00000bf0       __imp_RSA_free             000000018004abf0     node:node.exe
 0003:00000bf8       __imp_EVP_PKEY_CTX_free    000000018004abf8     node:node.exe
 0003:00000c00       __imp_ERR_print_errors     000000018004ac00     node:node.exe
 0003:00000c08       __imp_EVP_Digest           000000018004ac08     node:node.exe
 0003:00000c10       __imp_BN_new               000000018004ac10     node:node.exe
 0003:00000c18       __imp_EVP_PKEY_assign      000000018004ac18     node:node.exe
 0003:00000c20       __imp_BN_set_word          000000018004ac20     node:node.exe
 0003:00000c28       __imp_RSA_new              000000018004ac28     node:node.exe
 0003:00000c30       __imp_EVP_PKEY_new         000000018004ac30     node:node.exe
 0003:00000c38       __imp_RSA_generate_key_ex  000000018004ac38     node:node.exe
 0003:00000c40       __imp_BN_dup               000000018004ac40     node:node.exe
 0003:00000c48       __imp_EVP_DigestVerifyInit 000000018004ac48     node:node.exe
 0003:00000c50       __imp_EVP_DigestSignInit   000000018004ac50     node:node.exe
 0003:00000c58       __imp_EVP_DigestVerifyFinal 000000018004ac58     node:node.exe
 0003:00000c60       __imp_EVP_DigestSignFinal  000000018004ac60     node:node.exe
 0003:00000c68       __imp_EVP_MD_CTX_create    000000018004ac68     node:node.exe
 0003:00000c70       __imp_EVP_DigestUpdate     000000018004ac70     node:node.exe
 0003:00000c78       __imp_EVP_PKEY_CTX_new     000000018004ac78     node:node.exe
 0003:00000c80       __imp_EVP_PKEY_CTX_ctrl    000000018004ac80     node:node.exe
 0003:00000c88       __imp_EVP_PKEY_encrypt     000000018004ac88     node:node.exe
 0003:00000c90       __imp_CRYPTO_malloc        000000018004ac90     node:node.exe
 0003:00000c98       __imp_EVP_PKEY_decrypt     000000018004ac98     node:node.exe
 0003:00000ca0       __imp_EVP_PKEY_encrypt_init 000000018004aca0     node:node.exe
 0003:00000ca8       __imp_EVP_PKEY_decrypt_init 000000018004aca8     node:node.exe
 0003:00000cb0       __imp_EC_KEY_new_by_curve_name 000000018004acb0     node:node.exe
 0003:00000cb8       __imp_EC_KEY_get0_group    000000018004acb8     node:node.exe
 0003:00000cc0       __imp_EC_GROUP_set_asn1_flag 000000018004acc0     node:node.exe
 0003:00000cc8       __imp_EC_KEY_generate_key  000000018004acc8     node:node.exe
 0003:00000cd0       __imp_i2d_ECDSA_SIG        000000018004acd0     node:node.exe
 0003:00000cd8       __imp_BN_bin2bn            000000018004acd8     node:node.exe
 0003:00000ce0       __imp_ECDSA_SIG_new        000000018004ace0     node:node.exe
 0003:00000ce8       __imp_BN_num_bits          000000018004ace8     node:node.exe
 0003:00000cf0       __imp_CRYPTO_free          000000018004acf0     node:node.exe
 0003:00000cf8       __imp_d2i_ECDSA_SIG        000000018004acf8     node:node.exe
 0003:00000d00       __imp_EC_GROUP_get_order   000000018004ad00     node:node.exe
 0003:00000d08       __imp_EC_GROUP_get_degree  000000018004ad08     node:node.exe
 0003:00000d10       __imp_EC_KEY_get0_private_key 000000018004ad10     node:node.exe
 0003:00000d18       __imp_EC_GROUP_get_curve_name 000000018004ad18     node:node.exe
 0003:00000d20       __imp_EVP_PKEY_derive      000000018004ad20     node:node.exe
 0003:00000d28       __imp_EVP_PKEY_derive_init 000000018004ad28     node:node.exe
 0003:00000d30       __imp_EC_KEY_get0_public_key 000000018004ad30     node:node.exe
 0003:00000d38       __imp_EVP_PKEY_derive_set_peer 000000018004ad38     node:node.exe
 0003:00000d40       __imp_EVP_PKEY_get1_EC_KEY 000000018004ad40     node:node.exe
 0003:00000d48       __imp_ECDH_compute_key     000000018004ad48     node:node.exe
 0003:00000d50       __imp_EC_GROUP_new_by_curve_name 000000018004ad50     node:node.exe
 0003:00000d58       __imp_BN_CTX_new           000000018004ad58     node:node.exe
 0003:00000d60       __imp_EC_KEY_new           000000018004ad60     node:node.exe
 0003:00000d68       __imp_EC_KEY_set_group     000000018004ad68     node:node.exe
 0003:00000d70       __imp_BN_CTX_get           000000018004ad70     node:node.exe
 0003:00000d78       __imp_EC_POINT_get_affine_coordinates_GFp 000000018004ad78     node:node.exe
 0003:00000d80       __imp_EC_KEY_set_private_key 000000018004ad80     node:node.exe
 0003:00000d88       __imp_EC_KEY_set_public_key_affine_coordinates 000000018004ad88     node:node.exe
 0003:00000d90       __imp_RAND_bytes           000000018004ad90     node:node.exe
 0003:00000d98       __imp_EVP_aes_256_ecb      000000018004ad98     node:node.exe
 0003:00000da0       __imp_EVP_CipherFinal_ex   000000018004ada0     node:node.exe
 0003:00000da8       __imp_EVP_aes_192_ecb      000000018004ada8     node:node.exe
 0003:00000db0       __imp_EVP_CipherInit_ex    000000018004adb0     node:node.exe
 0003:00000db8       __imp_EVP_aes_128_ecb      000000018004adb8     node:node.exe
 0003:00000dc0       __imp_EVP_CipherUpdate     000000018004adc0     node:node.exe
 0003:00000dc8       __imp_EVP_CIPHER_CTX_new   000000018004adc8     node:node.exe
 0003:00000dd0       __imp_AES_set_decrypt_key  000000018004add0     node:node.exe
 0003:00000dd8       __imp_AES_wrap_key         000000018004add8     node:node.exe
 0003:00000de0       __imp_EVP_aes_192_cbc      000000018004ade0     node:node.exe
 0003:00000de8       __imp_EVP_aes_128_cbc      000000018004ade8     node:node.exe
 0003:00000df0       __imp_AES_set_encrypt_key  000000018004adf0     node:node.exe
 0003:00000df8       __imp_AES_unwrap_key       000000018004adf8     node:node.exe
 0003:00000e00       __imp_EVP_aes_256_cbc      000000018004ae00     node:node.exe
 0003:00000e08       __imp_EVP_aes_128_gcm      000000018004ae08     node:node.exe
 0003:00000e10       __imp_EVP_EncryptUpdate    000000018004ae10     node:node.exe
 0003:00000e18       __imp_EVP_aes_256_gcm      000000018004ae18     node:node.exe
 0003:00000e20       __imp_EVP_CIPHER_CTX_ctrl  000000018004ae20     node:node.exe
 0003:00000e28       __imp_EVP_EncryptFinal_ex  000000018004ae28     node:node.exe
 0003:00000e30       __imp_EVP_DecryptInit_ex   000000018004ae30     node:node.exe
 0003:00000e38       __imp_EVP_EncryptInit_ex   000000018004ae38     node:node.exe
 0003:00000e40       __imp_EVP_DecryptFinal_ex  000000018004ae40     node:node.exe
 0003:00000e48       __imp_EVP_aes_192_gcm      000000018004ae48     node:node.exe
 0003:00000e50       __imp_EVP_CIPHER_block_size 000000018004ae50     node:node.exe
 0003:00000e58       __imp_EVP_DecryptUpdate    000000018004ae58     node:node.exe
 0003:00000e60       __imp_AES_ctr128_encrypt   000000018004ae60     node:node.exe
 0003:00000e68       __imp_HMAC                 000000018004ae68     node:node.exe
 0003:00000e70       __imp_EVP_MD_size          000000018004ae70     node:node.exe
 0003:00000e78       __imp_PKCS5_PBKDF2_HMAC    000000018004ae78     node:node.exe
 0003:00000e80       __imp_?New@Buffer@node@@YA?AV?$MaybeLocal@VObject@v8@@@v8@@PEAVIsolate@4@_K@Z 000000018004ae80     node:node.exe
 0003:00000e88       __imp_?Data@Buffer@node@@YAPEADV?$Local@VObject@v8@@@v8@@@Z 000000018004ae88     node:node.exe
 0003:00000e90       __imp_?Length@Buffer@node@@YA_KV?$Local@VObject@v8@@@v8@@@Z 000000018004ae90     node:node.exe
 0003:00000e98       __imp_BN_bn2bin            000000018004ae98     node:node.exe
 0003:00000ea0       __imp_?ToObject@Value@v8@@QEBA?AV?$Local@VObject@v8@@@2@XZ 000000018004aea0     node:node.exe
 0003:00000ea8       __imp_uv_queue_work        000000018004aea8     node:node.exe
 0003:00000eb0       __imp_?Global@Context@v8@@QEAA?AV?$Local@VObject@v8@@@2@XZ 000000018004aeb0     node:node.exe
 0003:00000eb8       __imp_?Value@External@v8@@QEBAPEAXXZ 000000018004aeb8     node:node.exe
 0003:00000ec0       __imp_?New@External@v8@@SA?AV?$Local@VExternal@v8@@@2@PEAVIsolate@2@PEAX@Z 000000018004aec0     node:node.exe
 0003:00000ec8       __imp_?New@Signature@v8@@SA?AV?$Local@VSignature@v8@@@2@PEAVIsolate@2@V?$Local@VFunctionTemplate@v8@@@2@@Z 000000018004aec8     node:node.exe
 0003:00000ed0       __imp_?ThrowException@Isolate@v8@@QEAA?AV?$Local@VValue@v8@@@2@V32@@Z 000000018004aed0     node:node.exe
 0003:00000ed8       __imp_?GetCurrentContext@Isolate@v8@@QEAA?AV?$Local@VContext@v8@@@2@XZ 000000018004aed8     node:node.exe
 0003:00000ee0       __imp_?CreateHandle@HandleScope@v8@@KAPEAPEAVObject@internal@2@PEAVIsolate@42@PEAV342@@Z 000000018004aee0     node:node.exe
 0003:00000ee8       __imp_?CreateHandle@HandleScope@v8@@CAPEAPEAVObject@internal@2@PEAVHeapObject@42@PEAV342@@Z 000000018004aee8     node:node.exe
 0003:00000ef0       __imp_?Set@Template@v8@@QEAAXV?$Local@VName@v8@@@2@V?$Local@VData@v8@@@2@W4PropertyAttribute@2@@Z 000000018004aef0     node:node.exe
 0003:00000ef8       __imp_?Error@Exception@v8@@SA?AV?$Local@VValue@v8@@@2@V?$Local@VString@v8@@@2@@Z 000000018004aef8     node:node.exe
 0003:00000f00       __imp_?SetClassName@FunctionTemplate@v8@@QEAAXV?$Local@VString@v8@@@2@@Z 000000018004af00     node:node.exe
 0003:00000f08       __imp_?PrototypeTemplate@FunctionTemplate@v8@@QEAA?AV?$Local@VObjectTemplate@v8@@@2@XZ 000000018004af08     node:node.exe
 0003:00000f10       __imp_?InstanceTemplate@FunctionTemplate@v8@@QEAA?AV?$Local@VObjectTemplate@v8@@@2@XZ 000000018004af10     node:node.exe
 0003:00000f18       __imp_?GetFunction@FunctionTemplate@v8@@QEAA?AV?$Local@VFunction@v8@@@2@XZ 000000018004af18     node:node.exe
 0003:00000f20       __imp_?GetFunction@FunctionTemplate@v8@@QEAA?AV?$MaybeLocal@VFunction@v8@@@2@V?$Local@VContext@v8@@@2@@Z 000000018004af20     node:node.exe
 0003:00000f28       __imp_?New@FunctionTemplate@v8@@SA?AV?$Local@VFunctionTemplate@v8@@@2@PEAVIsolate@2@P6AXAEBV?$FunctionCallbackInfo@VValue@v8@@@2@@ZV?$Local@VValue@v8@@@2@V?$Local@VSignature@v8@@@2@HW4ConstructorBehavior@2@@Z 000000018004af28     node:node.exe
 0003:00000f30       __imp_?FromJustIsNothing@V8@v8@@CAXXZ 000000018004af30     node:node.exe
 0003:00000f38       __imp_?ClearWeak@V8@v8@@CAPEAXPEAPEAVObject@internal@2@@Z 000000018004af38     node:node.exe
 0003:00000f40       __imp_?MakeWeak@V8@v8@@CAXPEAPEAVObject@internal@2@PEAXP6AXAEBV?$WeakCallbackInfo@X@2@@ZW4WeakCallbackType@2@@Z 000000018004af40     node:node.exe
 0003:00000f48       __imp_?DisposeGlobal@V8@v8@@CAXPEAPEAVObject@internal@2@@Z 000000018004af48     node:node.exe
 0003:00000f50       __imp_?GlobalizeReference@V8@v8@@CAPEAPEAVObject@internal@2@PEAVIsolate@42@PEAPEAV342@@Z 000000018004af50     node:node.exe
 0003:00000f58       __imp_?Int32Value@Value@v8@@QEBA?AV?$Maybe@H@2@V?$Local@VContext@v8@@@2@@Z 000000018004af58     node:node.exe
 0003:00000f60       __imp_?BooleanValue@Value@v8@@QEBA_NXZ 000000018004af60     node:node.exe
 0003:00000f68       __imp_?ToObject@Value@v8@@QEBA?AV?$MaybeLocal@VObject@v8@@@2@V?$Local@VContext@v8@@@2@@Z 000000018004af68     node:node.exe
 0003:00000f70       __imp_?Escape@EscapableHandleScope@v8@@AEAAPEAPEAVObject@internal@2@PEAPEAV342@@Z 000000018004af70     node:node.exe
 0003:00000f78       __imp_??0EscapableHandleScope@v8@@QEAA@PEAVIsolate@1@@Z 000000018004af78     node:node.exe
 0003:00000f80       __imp_??1Utf8Value@String@v8@@QEAA@XZ 000000018004af80     node:node.exe
 0003:00000f88       __imp_??0Utf8Value@String@v8@@QEAA@V?$Local@VValue@v8@@@2@@Z 000000018004af88     node:node.exe
 0003:00000f90       __imp_?SlowGetAlignedPointerFromInternalField@Object@v8@@AEAAPEAXH@Z 000000018004af90     node:node.exe
 0003:00000f98       __imp_?SlowGetInternalField@Object@v8@@AEAA?AV?$Local@VValue@v8@@@2@H@Z 000000018004af98     node:node.exe
 0003:00000fa0       __imp_?CallAsFunction@Object@v8@@QEAA?AV?$MaybeLocal@VValue@v8@@@2@V?$Local@VContext@v8@@@2@V?$Local@VValue@v8@@@2@HQEAV52@@Z 000000018004afa0     node:node.exe
 0003:00000fa8       __imp_?SetAlignedPointerInInternalField@Object@v8@@QEAAXHPEAX@Z 000000018004afa8     node:node.exe
 0003:00000fb0       __imp_?SetInternalField@Object@v8@@QEAAXHV?$Local@VValue@v8@@@2@@Z 000000018004afb0     node:node.exe
 0003:00000fb8       __imp_?InternalFieldCount@Object@v8@@QEAAHXZ 000000018004afb8     node:node.exe
 0003:00000fc0       __imp_?Get@Object@v8@@QEAA?AV?$MaybeLocal@VValue@v8@@@2@V?$Local@VContext@v8@@@2@V?$Local@VValue@v8@@@2@@Z 000000018004afc0     node:node.exe
 0003:00000fc8       __imp_?Set@Object@v8@@QEAA?AV?$Maybe@_N@2@V?$Local@VContext@v8@@@2@V?$Local@VValue@v8@@@2@1@Z 000000018004afc8     node:node.exe
 0003:00000fd0       __imp_?NewInstance@Function@v8@@QEBA?AV?$MaybeLocal@VObject@v8@@@2@V?$Local@VContext@v8@@@2@HQEAV?$Local@VValue@v8@@@2@@Z 000000018004afd0     node:node.exe
 0003:00000fd8       __imp_?SetInternalFieldCount@ObjectTemplate@v8@@QEAAXH@Z 000000018004afd8     node:node.exe
 0003:00000fe0       __imp_?SetAccessor@ObjectTemplate@v8@@QEAAXV?$Local@VName@v8@@@2@P6AX0AEBV?$PropertyCallbackInfo@VValue@v8@@@2@@ZP6AX0V?$Local@VValue@v8@@@2@AEBV?$PropertyCallbackInfo@X@2@@Z3W4AccessControl@2@W4PropertyAttribute@2@V?$Local@VAccessorSignature@v8@@@2@@Z 000000018004afe0     node:node.exe
 0003:00000fe8       __imp_?NewInstance@ObjectTemplate@v8@@QEAA?AV?$MaybeLocal@VObject@v8@@@2@V?$Local@VContext@v8@@@2@@Z 000000018004afe8     node:node.exe
 0003:00000ff0       __imp_?New@ObjectTemplate@v8@@SA?AV?$Local@VObjectTemplate@v8@@@2@PEAVIsolate@2@V?$Local@VFunctionTemplate@v8@@@2@@Z 000000018004aff0     node:node.exe
 0003:00000ff8       __imp_?MakeCallback@node@@YA?AV?$Local@VValue@v8@@@v8@@PEAVIsolate@3@V?$Local@VObject@v8@@@3@V?$Local@VFunction@v8@@@3@HPEAV23@@Z 000000018004aff8     node:node.exe
 0003:00001000       __imp_RSA_size             000000018004b000     node:node.exe
 0003:00001008       __imp_EVP_PKEY_get1_RSA    000000018004b008     node:node.exe
 0003:00001010       __imp_EVP_get_digestbyname 000000018004b010     node:node.exe
 0003:00001018       __imp_uv_default_loop      000000018004b018     node:node.exe
 0003:00001020       __imp_?ToString@Value@v8@@QEBA?AV?$Local@VString@v8@@@2@XZ 000000018004b020     node:node.exe
 0003:00001028       __imp_??1EscapableHandleScope@v8@@QEAA@XZ 000000018004b028     node:node.exe
 0003:00001030       __imp_?IsFunction@Value@v8@@QEBA_NXZ 000000018004b030     node:node.exe
 0003:00001038       __imp_?Call@Function@v8@@QEAA?AV?$MaybeLocal@VValue@v8@@@2@V?$Local@VContext@v8@@@2@V?$Local@VValue@v8@@@2@HQEAV52@@Z 000000018004b038     node:node.exe
 0003:00001040       __imp_?Uint32Value@Value@v8@@QEBAIXZ 000000018004b040     node:node.exe
 0003:00001048       __imp_?ToNumber@Value@v8@@QEBA?AV?$MaybeLocal@VNumber@v8@@@2@V?$Local@VContext@v8@@@2@@Z 000000018004b048     node:node.exe
 0003:00001050       \177node_NULL_THUNK_DATA_DLA 000000018004b050     node:node.exe
 0003:00001060       __hmod__node_exe           000000018004b060     node:node.exe
 0003:000010b0       __scrt_current_native_startup_state 000000018004b0b0     LIBCMT:utility.obj
 0003:000010b8       __scrt_native_startup_lock 000000018004b0b8     LIBCMT:utility.obj
 0003:00001670       __scrt_debugger_hook_flag  000000018004b670     LIBCMT:utility_desktop.obj
 0003:00001674       _tls_index                 000000018004b674     LIBCMT:tlssup.obj
 0003:00001678       __favor                    000000018004b678     LIBCMT:_cpu_disp_.obj
 0003:00001680       ?__type_info_root_node@@3U__type_info_node@@A 000000018004b680     LIBCMT:tncleanup.obj
 0003:00001690       ?_OptionsStorage@?1??__local_stdio_printf_options@@9@4_KA 000000018004b690     LIBCMT:default_local_stdio_options.obj
 0003:00001698       ?_OptionsStorage@?1??__local_stdio_scanf_options@@9@4_KA 000000018004b698     LIBCMT:default_local_stdio_options.obj
 0003:000016a0       ?g_OutOfMemoryExceptionCallback@@3P6APEAXXZEA 000000018004b6a0     libvcruntime:frame.obj
 0003:00001798       __pPurecall                000000018004b798     libvcruntime:purevirt_data.obj
 0003:000017d0       ?pArgList@UnDecorator@@0PEAVReplicator@@EA 000000018004b7d0     libvcruntime:undname.obj
 0003:000017d8       ?pZNameList@UnDecorator@@0PEAVReplicator@@EA 000000018004b7d8     libvcruntime:undname.obj
 0003:000017e0       ?pTemplateArgList@UnDecorator@@0PEAVReplicator@@EA 000000018004b7e0     libvcruntime:undname.obj
 0003:000017e8       ?gName@UnDecorator@@0PEBDEB 000000018004b7e8     libvcruntime:undname.obj
 0003:000017f0       ?name@UnDecorator@@0PEBDEB 000000018004b7f0     libvcruntime:undname.obj
 0003:000017f8       ?outputString@UnDecorator@@0PEADEA 000000018004b7f8     libvcruntime:undname.obj
 0003:00001800       ?maxStringLength@UnDecorator@@0HA 000000018004b800     libvcruntime:undname.obj
 0003:00001804       ?disableFlags@UnDecorator@@0KA 000000018004b804     libvcruntime:undname.obj
 0003:00001808       ?fExplicitTemplateParams@UnDecorator@@0_NA 000000018004b808     libvcruntime:undname.obj
 0003:00001809       ?fGetTemplateArgumentList@UnDecorator@@0_NA 000000018004b809     libvcruntime:undname.obj
 0003:00001810       ?m_pGetParameter@UnDecorator@@0P6APEADJ@ZEA 000000018004b810     libvcruntime:undname.obj
 0003:00001978       _environ_table             000000018004b978     libucrt:environment_initialization.obj
 0003:00001980       _wenviron_table            000000018004b980     libucrt:environment_initialization.obj
 0003:00001988       __dcrt_initial_wide_environment 000000018004b988     libucrt:environment_initialization.obj
 0003:00001990       __dcrt_initial_narrow_environment 000000018004b990     libucrt:environment_initialization.obj
 0003:00001998       __acrt_atexit_table        000000018004b998     libucrt:onexit.obj
 0003:000019b0       __acrt_at_quick_exit_table 000000018004b9b0     libucrt:onexit.obj
 0003:000019d0       _nstream                   000000018004b9d0     libucrt:_file.obj
 0003:000019d8       __piob                     000000018004b9d8     libucrt:_file.obj
 0003:000019e0       _cflush                    000000018004b9e0     libucrt:_file.obj
 0003:00001a08       __acrt_locale_changed_data 000000018004ba08     libucrt:wsetlocale.obj
 0003:00001a10       __acrt_current_locale_data 000000018004ba10     libucrt:nlsdata.obj
 0003:00001dd4       __mbcodepage               000000018004bdd4     libucrt:mbctype.obj
 0003:00001dd8       __ismbcodepage             000000018004bdd8     libucrt:mbctype.obj
 0003:00001de0       __mbulinfo                 000000018004bde0     libucrt:mbctype.obj
 0003:00001df0       __mblocalename             000000018004bdf0     libucrt:mbctype.obj
 0003:00001dfc       __argc                     000000018004bdfc     libucrt:argv_data.obj
 0003:00001e00       __argv                     000000018004be00     libucrt:argv_data.obj
 0003:00001e08       __wargv                    000000018004be08     libucrt:argv_data.obj
 0003:00001e10       _acmdln                    000000018004be10     libucrt:argv_data.obj
 0003:00001e18       _wcmdln                    000000018004be18     libucrt:argv_data.obj
 0003:00001e20       _pgmptr                    000000018004be20     libucrt:argv_data.obj
 0003:00001e28       __acrt_heap                000000018004be28     libucrt:heap_handle.obj
 0003:00001e30       __pioinfo                  000000018004be30     libucrt:ioinit.obj
 0003:00002230       _nhandle                   000000018004c230     libucrt:ioinit.obj
 0003:00002240       __acrt_stdout_buffer       000000018004c240     libucrt:_sftbuf.obj
 0003:00002248       __acrt_stderr_buffer       000000018004c248     libucrt:_sftbuf.obj
 0003:00002260       __acrt_lconv_static_null   000000018004c260     libucrt:localeconv.obj
 0003:00002264       __acrt_lconv_static_W_null 000000018004c264     libucrt:localeconv.obj
 0003:00002268       __fma3_is_available        000000018004c268     libucrt:fma3_available.obj
 0003:0000226c       __use_fma3_lib             000000018004c26c     libucrt:fma3_available.obj
 0003:00002270       ?DloadKernel32@@3PEAUHINSTANCE__@@EA 000000018004c270     DelayImp:delayhlp.obj
 0003:00002278       ?DloadAcquireSRWLockExclusive@@3P6AXPEA_K@ZEA 000000018004c278     DelayImp:delayhlp.obj
 0003:00002280       ?DloadReleaseSRWLockExclusive@@3P6AXPEA_K@ZEA 000000018004c280     DelayImp:delayhlp.obj
 0003:00002288       ?DloadSrwLock@@3_KA        000000018004c288     DelayImp:delayhlp.obj
 0003:00002290       ?DloadSectionLockCount@@3KA 000000018004c290     DelayImp:delayhlp.obj
 0003:00002294       ?DloadSectionOldProtection@@3KA 000000018004c294     DelayImp:delayhlp.obj
 0003:00002298       ?DloadSectionCommitPermanent@@3KA 000000018004c298     DelayImp:delayhlp.obj
 0003:000022a0       ?my_constructor@?1??constructor@WKey@@KAAEAV?$Persistent@VFunction@v8@@V?$NonCopyablePersistentTraits@VFunction@v8@@@2@@Nan@@XZ@4V34@A 000000018004c2a0     w_key.obj
 0003:000022a8       ?$TSS0@?1??constructor@WKey@@KAAEAV?$Persistent@VFunction@v8@@V?$NonCopyablePersistentTraits@VFunction@v8@@@2@@Nan@@XZ@4HA 000000018004c2a8     w_key.obj
 0003:000022ac       ?$TSS0@?1??constructor@WAes@@KAAEAV?$Persistent@VFunction@v8@@V?$NonCopyablePersistentTraits@VFunction@v8@@@2@@Nan@@XZ@4HA 000000018004c2ac     w_aes.obj
 0003:000022b0       ?my_constructor@?1??constructor@WAes@@KAAEAV?$Persistent@VFunction@v8@@V?$NonCopyablePersistentTraits@VFunction@v8@@@2@@Nan@@XZ@4V34@A 000000018004c2b0     w_aes.obj
 0003:000022b8       ?my_constructor@?1??constructor@WHmac@@KAAEAV?$Persistent@VFunction@v8@@V?$NonCopyablePersistentTraits@VFunction@v8@@@2@@Nan@@XZ@4V34@A 000000018004c2b8     w_hmac.obj
 0003:000022c0       ?$TSS0@?1??constructor@WHmac@@KAAEAV?$Persistent@VFunction@v8@@V?$NonCopyablePersistentTraits@VFunction@v8@@@2@@Nan@@XZ@4HA 000000018004c2c0     w_hmac.obj
 0003:000022c8       ?my_constructor@?1??constructor@WPbkdf2@@KAAEAV?$Persistent@VFunction@v8@@V?$NonCopyablePersistentTraits@VFunction@v8@@@2@@Nan@@XZ@4V34@A 000000018004c2c8     w_pbkdf2.obj
 0003:000022d0       ?$TSS0@?1??constructor@WPbkdf2@@KAAEAV?$Persistent@VFunction@v8@@V?$NonCopyablePersistentTraits@VFunction@v8@@@2@@Nan@@XZ@4HA 000000018004c2d0     w_pbkdf2.obj
 0003:000022d4       ?$TSS0@?1??constructor@WCore@@KAAEAV?$Persistent@VFunction@v8@@V?$NonCopyablePersistentTraits@VFunction@v8@@@2@@Nan@@XZ@4HA 000000018004c2d4     w_core.obj
 0003:000022d8       ?my_constructor@?1??constructor@WCore@@KAAEAV?$Persistent@VFunction@v8@@V?$NonCopyablePersistentTraits@VFunction@v8@@@2@@Nan@@XZ@4V34@A 000000018004c2d8     w_core.obj
 0003:000022e0       __dyn_tls_init_callback    000000018004c2e0     <common>
 0003:000022e8       __scrt_ucrt_dll_is_in_use  000000018004c2e8     <common>
 0006:00000000       _tls_start                 0000000180051000     LIBCMT:tlssup.obj
 0006:00000004       _Init_thread_epoch         0000000180051004     LIBCMT:thread_safe_statics.obj
 0006:00000008       _tls_end                   0000000180051008     LIBCMT:tlssup.obj

 entry point at        0001:0001b960

 Static symbols

 0000:fffac000       .debug$S                   0000000180000000     node:node.exe
 0000:fffac000       .debug$S                   0000000180000000     kernel32:KERNEL32.dll
 0000:fffac000       .debug$S                   0000000180000000     kernel32:KERNEL32.dll
 0000:fffac000       .debug$S                   0000000180000000     kernel32:KERNEL32.dll
 0000:fffac000       .debug$S                   0000000180000000     kernel32:KERNEL32.dll
 0000:fffac000       .debug$S                   0000000180000000     kernel32:KERNEL32.dll
 0000:fffac000       .debug$S                   0000000180000000     kernel32:KERNEL32.dll
 0000:fffac000       .debug$S                   0000000180000000     kernel32:KERNEL32.dll
 0000:fffac000       .debug$S                   0000000180000000     kernel32:KERNEL32.dll
 0000:fffac000       .debug$S                   0000000180000000     kernel32:KERNEL32.dll
 0000:fffac000       .debug$S                   0000000180000000     kernel32:KERNEL32.dll
 0000:fffac000       .debug$S                   0000000180000000     kernel32:KERNEL32.dll
 0000:fffac000       .debug$S                   0000000180000000     kernel32:KERNEL32.dll
 0000:fffac000       .debug$S                   0000000180000000     kernel32:KERNEL32.dll
 0000:fffac000       .debug$S                   0000000180000000     kernel32:KERNEL32.dll
 0000:fffac000       .debug$S                   0000000180000000     kernel32:KERNEL32.dll
 0000:fffac000       .debug$S                   0000000180000000     kernel32:KERNEL32.dll
 0000:fffac000       .debug$S                   0000000180000000     node:node.exe
 0000:fffac000       .debug$S                   0000000180000000     kernel32:KERNEL32.dll
 0000:fffac000       .debug$S                   0000000180000000     kernel32:KERNEL32.dll
 0000:fffac000       .debug$S                   0000000180000000     kernel32:KERNEL32.dll
 0000:fffac000       .debug$S                   0000000180000000     node:node.exe
 0000:fffac000       .debug$S                   0000000180000000     kernel32:KERNEL32.dll
 0000:fffac000       .debug$S                   0000000180000000     kernel32:KERNEL32.dll
 0000:fffac000       .debug$S                   0000000180000000     kernel32:KERNEL32.dll
 0000:fffac000       .debug$S                   0000000180000000     kernel32:KERNEL32.dll
 0000:fffac000       .debug$S                   0000000180000000     kernel32:KERNEL32.dll
 0000:fffac000       .debug$S                   0000000180000000     kernel32:KERNEL32.dll
 0000:fffac000       .debug$S                   0000000180000000     kernel32:KERNEL32.dll
 0000:fffac000       .debug$S                   0000000180000000     kernel32:KERNEL32.dll
 0000:fffac000       .debug$S                   0000000180000000     kernel32:KERNEL32.dll
 0000:fffac000       .debug$S                   0000000180000000     kernel32:KERNEL32.dll
 0000:fffac000       .debug$S                   0000000180000000     kernel32:KERNEL32.dll
 0000:fffac000       .debug$S                   0000000180000000     kernel32:KERNEL32.dll
 0000:fffac000       .debug$S                   0000000180000000     node:node.exe
 0000:fffac000       .debug$S                   0000000180000000     node:node.exe
 0000:fffac000       .debug$S                   0000000180000000     node:node.exe
 0000:fffac000       .debug$S                   0000000180000000     node:node.exe
 0000:fffac000       .debug$S                   0000000180000000     node:node.exe
 0000:fffac000       .debug$S                   0000000180000000     node:node.exe
 0000:fffac000       .debug$S                   0000000180000000     node:node.exe
 0000:fffac000       .debug$S                   0000000180000000     node:node.exe
 0000:fffac000       .debug$S                   0000000180000000     node:node.exe
 0000:fffac000       .debug$S                   0000000180000000     node:node.exe
 0000:fffac000       .debug$S                   0000000180000000     node:node.exe
 0000:fffac000       .debug$S                   0000000180000000     node:node.exe
 0000:fffac000       .debug$S                   0000000180000000     node:node.exe
 0000:fffac000       .debug$S                   0000000180000000     kernel32:KERNEL32.dll
 0000:fffac000       .debug$S                   0000000180000000     node:node.exe
 0000:fffac000       .debug$S                   0000000180000000     kernel32:KERNEL32.dll
 0000:fffac000       .debug$S                   0000000180000000     node:node.exe
 0000:fffac000       .debug$S                   0000000180000000     kernel32:KERNEL32.dll
 0000:fffac000       .debug$S                   0000000180000000     node:node.exe
 0000:fffac000       .debug$S                   0000000180000000     kernel32:KERNEL32.dll
 0000:fffac000       .debug$S                   0000000180000000     kernel32:KERNEL32.dll
 0000:fffac000       .debug$S                   0000000180000000     kernel32:KERNEL32.dll
 0000:fffac000       .debug$S                   0000000180000000     kernel32:KERNEL32.dll
 0000:fffac000       .debug$S                   0000000180000000     kernel32:KERNEL32.dll
 0000:fffac000       .debug$S                   0000000180000000     kernel32:KERNEL32.dll
 0000:fffac000       .debug$S                   0000000180000000     node:node.exe
 0000:fffac000       .debug$S                   0000000180000000     node:node.exe
 0000:fffac000       .debug$S                   0000000180000000     node:node.exe
 0000:fffac000       .debug$S                   0000000180000000     kernel32:KERNEL32.dll
 0000:fffac000       .debug$S                   0000000180000000     node:node.exe
 0000:fffac000       .debug$S                   0000000180000000     node:node.exe
 0000:fffac000       .debug$S                   0000000180000000     node:node.exe
 0000:fffac000       .debug$S                   0000000180000000     node:node.exe
 0000:fffac000       .debug$S                   0000000180000000     node:node.exe
 0000:fffac000       .debug$S                   0000000180000000     node:node.exe
 0000:fffac000       .debug$S                   0000000180000000     node:node.exe
 0000:fffac000       .debug$S                   0000000180000000     node:node.exe
 0000:fffac000       .debug$S                   0000000180000000     node:node.exe
 0000:fffac000       .debug$S                   0000000180000000     node:node.exe
 0000:fffac000       .debug$S                   0000000180000000     node:node.exe
 0000:fffac000       .debug$S                   0000000180000000     node:node.exe
 0000:fffac000       .debug$S                   0000000180000000     node:node.exe
 0000:fffac000       .debug$S                   0000000180000000     kernel32:KERNEL32.dll
 0000:fffac000       .debug$S                   0000000180000000     kernel32:KERNEL32.dll
 0000:fffac000       .debug$S                   0000000180000000     node:node.exe
 0000:fffac000       .debug$S                   0000000180000000     node:node.exe
 0000:fffac000       .debug$S                   0000000180000000     node:node.exe
 0000:fffac000       .debug$S                   0000000180000000     kernel32:KERNEL32.dll
 0000:fffac000       .debug$S                   0000000180000000     node:node.exe
 0000:fffac000       .debug$S                   0000000180000000     node:node.exe
 0000:fffac000       .debug$S                   0000000180000000     node:node.exe
 0000:fffac000       .debug$S                   0000000180000000     kernel32:KERNEL32.dll
 0000:fffac000       .debug$S                   0000000180000000     node:node.exe
 0000:fffac000       .debug$S                   0000000180000000     kernel32:KERNEL32.dll
 0000:fffac000       .debug$S                   0000000180000000     node:node.exe
 0000:fffac000       .debug$S                   0000000180000000     node:node.exe
 0000:fffac000       .debug$S                   0000000180000000     node:node.exe
 0000:fffac000       .debug$S                   0000000180000000     node:node.exe
 0000:fffac000       .debug$S                   0000000180000000     kernel32:KERNEL32.dll
 0000:fffac000       .debug$S                   0000000180000000     kernel32:KERNEL32.dll
 0000:fffac000       .debug$S                   0000000180000000     kernel32:KERNEL32.dll
 0000:fffac000       .debug$S                   0000000180000000     node:node.exe
 0000:fffac000       .debug$S                   0000000180000000     node:node.exe
 0000:fffac000       .debug$S                   0000000180000000     node:node.exe
 0000:fffac000       .debug$S                   0000000180000000     kernel32:KERNEL32.dll
 0000:fffac000       .debug$S                   0000000180000000     node:node.exe
 0000:fffac000       .debug$S                   0000000180000000     node:node.exe
 0000:fffac000       .debug$S                   0000000180000000     kernel32:KERNEL32.dll
 0000:fffac000       .debug$S                   0000000180000000     node:node.exe
 0000:fffac000       .debug$S                   0000000180000000     node:node.exe
 0000:fffac000       .debug$S                   0000000180000000     node:node.exe
 0000:fffac000       .debug$S                   0000000180000000     kernel32:KERNEL32.dll
 0000:fffac000       .debug$S                   0000000180000000     node:node.exe
 0000:fffac000       .debug$S                   0000000180000000     node:node.exe
 0000:fffac000       .debug$S                   0000000180000000     kernel32:KERNEL32.dll
 0000:fffac000       .debug$S                   0000000180000000     node:node.exe
 0000:fffac000       .debug$S                   0000000180000000     node:node.exe
 0000:fffac000       .debug$S                   0000000180000000     node:node.exe
 0000:fffac000       .debug$S                   0000000180000000     node:node.exe
 0000:fffac000       .debug$S                   0000000180000000     node:node.exe
 0000:fffac000       .debug$S                   0000000180000000     kernel32:KERNEL32.dll
 0000:fffac000       .debug$S                   0000000180000000     kernel32:KERNEL32.dll
 0000:fffac000       .debug$S                   0000000180000000     node:node.exe
 0000:fffac000       .debug$S                   0000000180000000     node:node.exe
 0000:fffac000       .debug$S                   0000000180000000     node:node.exe
 0000:fffac000       .debug$S                   0000000180000000     node:node.exe
 0000:fffac000       .debug$S                   0000000180000000     kernel32:KERNEL32.dll
 0000:fffac000       .debug$S                   0000000180000000     node:node.exe
 0000:fffac000       .debug$S                   0000000180000000     node:node.exe
 0000:fffac000       .debug$S                   0000000180000000     node:node.exe
 0000:fffac000       .debug$S                   0000000180000000     node:node.exe
 0000:fffac000       .debug$S                   0000000180000000     kernel32:KERNEL32.dll
 0000:fffac000       .debug$S                   0000000180000000     node:node.exe
 0000:fffac000       .debug$S                   0000000180000000     kernel32:KERNEL32.dll
 0000:fffac000       .debug$S                   0000000180000000     node:node.exe
 0000:fffac000       .debug$S                   0000000180000000     kernel32:KERNEL32.dll
 0000:fffac000       .debug$S                   0000000180000000     kernel32:KERNEL32.dll
 0000:fffac000       .debug$S                   0000000180000000     kernel32:KERNEL32.dll
 0000:fffac000       .debug$S                   0000000180000000     node:node.exe
 0000:fffac000       .debug$S                   0000000180000000     node:node.exe
 0000:fffac000       .debug$S                   0000000180000000     kernel32:KERNEL32.dll
 0000:fffac000       .debug$S                   0000000180000000     node:node.exe
 0000:fffac000       .debug$S                   0000000180000000     node:node.exe
 0000:fffac000       .debug$S                   0000000180000000     kernel32:KERNEL32.dll
 0000:fffac000       .debug$S                   0000000180000000     kernel32:KERNEL32.dll
 0000:fffac000       .debug$S                   0000000180000000     kernel32:KERNEL32.dll
 0000:fffac000       .debug$S                   0000000180000000     node:node.exe
 0000:fffac000       .debug$S                   0000000180000000     node:node.exe
 0000:fffac000       .debug$S                   0000000180000000     node:node.exe
 0000:fffac000       .debug$S                   0000000180000000     node:node.exe
 0000:fffac000       .debug$S                   0000000180000000     node:node.exe
 0000:fffac000       .debug$S                   0000000180000000     kernel32:KERNEL32.dll
 0000:fffac000       .debug$S                   0000000180000000     node:node.exe
 0000:fffac000       .debug$S                   0000000180000000     kernel32:KERNEL32.dll
 0000:fffac000       .debug$S                   0000000180000000     node:node.exe
 0000:fffac000       .debug$S                   0000000180000000     kernel32:KERNEL32.dll
 0000:fffac000       .debug$S                   0000000180000000     node:node.exe
 0000:fffac000       .debug$S                   0000000180000000     node:node.exe
 0000:fffac000       .debug$S                   0000000180000000     node:node.exe
 0000:fffac000       .debug$S                   0000000180000000     node:node.exe
 0000:fffac000       .debug$S                   0000000180000000     kernel32:KERNEL32.dll
 0000:fffac000       .debug$S                   0000000180000000     node:node.exe
 0000:fffac000       .debug$S                   0000000180000000     node:node.exe
 0000:fffac000       .debug$S                   0000000180000000     node:node.exe
 0000:fffac000       .debug$S                   0000000180000000     node:node.exe
 0000:fffac000       .debug$S                   0000000180000000     kernel32:KERNEL32.dll
 0000:fffac000       .debug$S                   0000000180000000     kernel32:KERNEL32.dll
 0000:fffac000       .debug$S                   0000000180000000     kernel32:KERNEL32.dll
 0000:fffac000       .debug$S                   0000000180000000     kernel32:KERNEL32.dll
 0000:fffac000       .debug$S                   0000000180000000     kernel32:KERNEL32.dll
 0000:fffac000       .debug$S                   0000000180000000     node:node.exe
 0000:fffac000       .debug$S                   0000000180000000     node:node.exe
 0000:fffac000       .debug$S                   0000000180000000     kernel32:KERNEL32.dll
 0000:fffac000       .debug$S                   0000000180000000     node:node.exe
 0000:fffac000       .debug$S                   0000000180000000     node:node.exe
 0000:fffac000       .debug$S                   0000000180000000     node:node.exe
 0000:fffac000       .debug$S                   0000000180000000     node:node.exe
 0000:fffac000       .debug$S                   0000000180000000     kernel32:KERNEL32.dll
 0000:fffac000       .debug$S                   0000000180000000     kernel32:KERNEL32.dll
 0000:fffac000       .debug$S                   0000000180000000     node:node.exe
 0000:fffac000       .debug$S                   0000000180000000     node:node.exe
 0000:fffac000       .debug$S                   0000000180000000     kernel32:KERNEL32.dll
 0000:fffac000       .debug$S                   0000000180000000     kernel32:KERNEL32.dll
 0000:fffac000       .debug$S                   0000000180000000     kernel32:KERNEL32.dll
 0000:fffac000       .debug$S                   0000000180000000     node:node.exe
 0000:fffac000       .debug$S                   0000000180000000     kernel32:KERNEL32.dll
 0000:fffac000       .debug$S                   0000000180000000     node:node.exe
 0000:fffac000       .debug$S                   0000000180000000     kernel32:KERNEL32.dll
 0000:fffac000       .debug$S                   0000000180000000     node:node.exe
 0000:fffac000       .debug$S                   0000000180000000     kernel32:KERNEL32.dll
 0000:fffac000       .debug$S                   0000000180000000     node:node.exe
 0000:fffac000       .debug$S                   0000000180000000     kernel32:KERNEL32.dll
 0000:fffac000       .debug$S                   0000000180000000     node:node.exe
 0000:fffac000       .debug$S                   0000000180000000     kernel32:KERNEL32.dll
 0000:fffac000       .debug$S                   0000000180000000     kernel32:KERNEL32.dll
 0000:fffac000       .debug$S                   0000000180000000     kernel32:KERNEL32.dll
 0000:fffac000       .debug$S                   0000000180000000     kernel32:KERNEL32.dll
 0000:fffac000       .debug$S                   0000000180000000     kernel32:KERNEL32.dll
 0000:fffac000       .debug$S                   0000000180000000     node:node.exe
 0000:fffac000       .debug$S                   0000000180000000     kernel32:KERNEL32.dll
 0000:fffac000       .debug$S                   0000000180000000     kernel32:KERNEL32.dll
 0000:fffac000       .debug$S                   0000000180000000     node:node.exe
 0000:fffac000       .debug$S                   0000000180000000     node:node.exe
 0000:fffac000       .debug$S                   0000000180000000     node:node.exe
 0000:fffac000       .debug$S                   0000000180000000     kernel32:KERNEL32.dll
 0000:fffac000       .debug$S                   0000000180000000     kernel32:KERNEL32.dll
 0000:fffac000       .debug$S                   0000000180000000     node:node.exe
 0000:fffac000       .debug$S                   0000000180000000     node:node.exe
 0000:fffac000       .debug$S                   0000000180000000     node:node.exe
 0000:fffac000       .debug$S                   0000000180000000     node:node.exe
 0000:fffac000       .debug$S                   0000000180000000     node:node.exe
 0000:fffac000       .debug$S                   0000000180000000     node:node.exe
 0000:fffac000       .debug$S                   0000000180000000     node:node.exe
 0000:fffac000       .debug$S                   0000000180000000     node:node.exe
 0000:fffac000       .debug$S                   0000000180000000     node:node.exe
 0000:fffac000       .debug$S                   0000000180000000     node:node.exe
 0000:fffac000       .debug$S                   0000000180000000     node:node.exe
 0000:fffac000       .debug$S                   0000000180000000     node:node.exe
 0000:fffac000       .debug$S                   0000000180000000     node:node.exe
 0000:fffac000       .debug$S                   0000000180000000     node:node.exe
 0000:fffac000       .debug$S                   0000000180000000     node:node.exe
 0000:fffac000       .debug$S                   0000000180000000     node:node.exe
 0000:fffac000       .debug$S                   0000000180000000     node:node.exe
 0000:fffac000       .debug$S                   0000000180000000     node:node.exe
 0000:fffac000       .debug$S                   0000000180000000     node:node.exe
 0000:fffac000       .debug$S                   0000000180000000     node:node.exe
 0000:fffac000       .debug$S                   0000000180000000     node:node.exe
 0000:fffac000       .debug$S                   0000000180000000     node:node.exe
 0000:fffac000       .debug$S                   0000000180000000     node:node.exe
 0000:fffac000       .debug$S                   0000000180000000     node:node.exe
 0000:fffac000       .debug$S                   0000000180000000     node:node.exe
 0000:fffac000       .debug$S                   0000000180000000     node:node.exe
 0000:fffac000       .debug$S                   0000000180000000     node:node.exe
 0000:fffac000       .debug$S                   0000000180000000     kernel32:KERNEL32.dll
 0000:fffac000       .debug$S                   0000000180000000     node:node.exe
 0000:fffac000       .debug$S                   0000000180000000     node:node.exe
 0000:fffac000       .debug$S                   0000000180000000     node:node.exe
 0000:fffac000       .debug$S                   0000000180000000     node:node.exe
 0000:fffac000       .debug$S                   0000000180000000     node:node.exe
 0000:fffac000       .debug$S                   0000000180000000     nodessl.exp
 0000:fffac000       .debug$S                   0000000180000000     node:node.exe
 0000:fffac000       .debug$S                   0000000180000000     node:node.exe
 0000:fffac000       .debug$S                   0000000180000000     node:node.exe
 0000:fffac000       .debug$S                   0000000180000000     node:node.exe
 0000:fffac000       .debug$S                   0000000180000000     node:node.exe
 0000:fffac000       .debug$S                   0000000180000000     node:node.exe
 0000:fffac000       .debug$S                   0000000180000000     node:node.exe
 0000:fffac000       .debug$S                   0000000180000000     node:node.exe
 0000:fffac000       .debug$S                   0000000180000000     node:node.exe
 0000:fffac000       .debug$S                   0000000180000000     node:node.exe
 0000:fffac000       .debug$S                   0000000180000000     node:node.exe
 0000:fffac000       .debug$S                   0000000180000000     node:node.exe
 0000:fffac000       .debug$S                   0000000180000000     node:node.exe
 0000:fffac000       .debug$S                   0000000180000000     node:node.exe
 0000:fffac000       .debug$S                   0000000180000000     node:node.exe
 0000:fffac000       .debug$S                   0000000180000000     node:node.exe
 0000:fffac000       .debug$S                   0000000180000000     node:node.exe
 0000:fffac000       .debug$S                   0000000180000000     node:node.exe
 0000:fffac000       .debug$S                   0000000180000000     node:node.exe
 0000:fffac000       .debug$S                   0000000180000000     node:node.exe
 0000:fffac000       .debug$S                   0000000180000000     node:node.exe
 0000:fffac000       .debug$S                   0000000180000000     node:node.exe
 0000:fffac000       .debug$S                   0000000180000000     node:node.exe
 0000:fffac000       .debug$S                   0000000180000000     node:node.exe
 0000:fffac000       .debug$S                   0000000180000000     node:node.exe
 0000:fffac000       .debug$S                   0000000180000000     node:node.exe
 0000:fffac000       .debug$S                   0000000180000000     node:node.exe
 0000:fffac000       .debug$S                   0000000180000000     node:node.exe
 0000:fffac000       .debug$S                   0000000180000000     node:node.exe
 0000:fffac000       .debug$S                   0000000180000000     node:node.exe
 0000:fffac000       .debug$S                   0000000180000000     kernel32:KERNEL32.dll
 0000:fffac000       .debug$S                   0000000180000000     node:node.exe
 0000:fffac000       .debug$S                   0000000180000000     node:node.exe
 0000:fffac000       .debug$S                   0000000180000000     node:node.exe
 0000:fffac000       .debug$S                   0000000180000000     node:node.exe
 0000:fffac000       .debug$S                   0000000180000000     node:node.exe
 0000:fffac000       .debug$S                   0000000180000000     node:node.exe
 0000:fffac000       .debug$S                   0000000180000000     node:node.exe
 0000:fffac000       .debug$S                   0000000180000000     node:node.exe
 0000:fffac000       .debug$S                   0000000180000000     node:node.exe
 0000:fffac000       .debug$S                   0000000180000000     node:node.exe
 0000:fffac000       .debug$S                   0000000180000000     node:node.exe
 0000:fffac000       .debug$S                   0000000180000000     node:node.exe
 0000:fffac000       .debug$S                   0000000180000000     node:node.exe
 0000:fffac000       .debug$S                   0000000180000000     node:node.exe
 0001:00001ab0       _register_nodessl          0000000180002ab0 f   main.obj
 0001:00001cf0       ?KEY_export@@YA?AV?$shared_ptr@V?$basic_string@DU?$char_traits@D@std@@V?$allocator@D@2@@std@@@std@@PEAUevp_pkey_st@@P6AHPEAUbio_st@@0@Z@Z 0000000180002cf0 f   key_exp.obj
 0001:00001e70       ?KEY_import@@YA?AV?$shared_ptr@V?$ScopedSSL@Uevp_pkey_st@@$1?ScopedEVP_PKEY_free@@YAXPEAX@Z@@@std@@PEAUbio_st@@P6APEAUevp_pkey_st@@0PEAPEAU4@@Z@Z 0000000180002e70 f   key_exp.obj
 0001:00003e70       ?setRsaPssParams@@YAXPEBUenv_md_st@@HPEAUevp_pkey_ctx_st@@@Z 0000000180004e70 f   rsa_pss.obj
 0001:00004650       ?GetEcGroupOrderSize@@YA_KPEAUevp_pkey_st@@@Z 0000000180005650 f   ec_dsa.obj
 0001:00004790       ?ConvertWebCryptoSignatureToDerSignature@@YA?AV?$shared_ptr@V?$basic_string@DU?$char_traits@D@std@@V?$allocator@D@2@@std@@@std@@PEAUevp_pkey_st@@PEBEAEB_KPEA_N@Z 0000000180005790 f   ec_dsa.obj
 0001:000049c0       ?ConvertDerSignatureToWebCryptoSignature@@YA?AV?$shared_ptr@V?$basic_string@DU?$char_traits@D@std@@V?$allocator@D@2@@std@@@std@@PEAUevp_pkey_st@@PEBEAEA_K@Z 00000001800059c0 f   ec_dsa.obj
 0001:000062a0       ?AES_ECB_encrypt@@YA?AV?$shared_ptr@V?$basic_string@DU?$char_traits@D@std@@V?$allocator@D@2@@std@@@std@@V12@0_N@Z 00000001800072a0 f   aes_ecb.obj
 0001:00006810       ?AES_CBC_encrypt@@YA?AV?$shared_ptr@V?$basic_string@DU?$char_traits@D@std@@V?$allocator@D@2@@std@@@std@@V12@00_N@Z 0000000180007810 f   aes_cbc.obj
 0001:00007310       ?AES_GCM_encrypt@@YA?AV?$shared_ptr@V?$basic_string@DU?$char_traits@D@std@@V?$allocator@D@2@@std@@@std@@V12@000H@Z 0000000180008310 f   aes_gcm.obj
 0001:00007890       ?AES_GCM_decrypt@@YA?AV?$shared_ptr@V?$basic_string@DU?$char_traits@D@std@@V?$allocator@D@2@@std@@@std@@V12@000H@Z 0000000180008890 f   aes_gcm.obj
 0001:00009310       ?FunctionCallbackWrapper@imp@Nan@@YAXAEBV?$FunctionCallbackInfo@VValue@v8@@@v8@@@Z 000000018000a310 f   w_key.obj
 0001:000093e0       ?GetterCallbackWrapper@imp@Nan@@YAXV?$Local@VName@v8@@@v8@@AEBV?$PropertyCallbackInfo@VValue@v8@@@4@@Z 000000018000a3e0 f   w_key.obj
 0001:0001a310       ?load_exe_hook@@YAP6A_JXZIPEAUDelayLoadInfo@@@Z 000000018001b310 f   win_delay_load_hook.obj
 0001:0001ae80       $$000000                   000000018001be80     LIBCMT:_amdsecgs_.obj
 0001:0001af2c       ?__scrt_initialize_thread_safe_statics@@YAHXZ 000000018001bf2c f   LIBCMT:thread_safe_statics.obj
 0001:0001b04c       ?__scrt_uninitialize_thread_safe_statics@@YAXXZ 000000018001c04c f   LIBCMT:thread_safe_statics.obj
 0001:0001b614       ?dllmain_crt_dispatch@@YAHQEAUHINSTANCE__@@KQEAX@Z 000000018001c614 f   LIBCMT:dll_dllmain.obj
 0001:0001b664       ?dllmain_crt_process_attach@@YAHQEAUHINSTANCE__@@QEAX@Z 000000018001c664 f   LIBCMT:dll_dllmain.obj
 0001:0001b790       ?dllmain_crt_process_detach@@YAH_N@Z 000000018001c790 f   LIBCMT:dll_dllmain.obj
 0001:0001b814       ?dllmain_dispatch@@YAHQEAUHINSTANCE__@@KQEAX@Z 000000018001c814 f   LIBCMT:dll_dllmain.obj
 0001:0001b90c       ?dllmain_raw@@YAHQEAUHINSTANCE__@@KQEAX@Z 000000018001c90c f   LIBCMT:dll_dllmain.obj
 0001:0001bb58       capture_current_context    000000018001cb58 f   LIBCMT:gs_report.obj
 0001:0001bbc8       capture_previous_context   000000018001cbc8 f   LIBCMT:gs_report.obj
 0001:0001c288       ?CatchIt@@YAXPEAUEHExceptionRecord@@PEA_KPEAU_CONTEXT@@PEAU_xDISPATCHER_CONTEXT@@PEBU_s_FuncInfo@@PEBU_s_HandlerType@@PEBU_s_CatchableType@@PEBU_s_TryBlockMapEntry@@H1EE@Z 000000018001d288 f   libvcruntime:frame.obj
 0001:0001c34c       ?ExFilterRethrow@@YAHPEAU_EXCEPTION_POINTERS@@PEAUEHExceptionRecord@@PEAH@Z 000000018001d34c f   libvcruntime:frame.obj
 0001:0001c3d4       ?FindHandler@@YAXPEAUEHExceptionRecord@@PEA_KPEAU_CONTEXT@@PEAU_xDISPATCHER_CONTEXT@@PEBU_s_FuncInfo@@EH1@Z 000000018001d3d4 f   libvcruntime:frame.obj
 0001:0001c8a4       ?FindHandlerForForeignException@@YAXPEAUEHExceptionRecord@@PEA_KPEAU_CONTEXT@@PEAU_xDISPATCHER_CONTEXT@@PEBU_s_FuncInfo@@HH1@Z 000000018001d8a4 f   libvcruntime:frame.obj
 0001:0001cb10       ?IsInExceptionSpec@@YAEPEAUEHExceptionRecord@@PEBU_s_ESTypeList@@@Z 000000018001db10 f   libvcruntime:frame.obj
 0001:0001d640       $$000000                   000000018001e640     libvcruntime:memcpy.obj
 0001:0001d6e7       MoveSmall                  000000018001e6e7     libvcruntime:memcpy.obj
 0001:0001dc54       ?try_get_function@@YAPEAXW4function_id@?A0x679b24ab@@QEBDQEBW4module_id@2@2@Z 000000018001ec54 f   libvcruntime:winapi_downlevel.obj
 0001:0001e310       $$000000                   000000018001f310     libvcruntime:memset.obj
 0001:0001e3fc       MsetTab                    000000018001f3fc     libvcruntime:memset.obj
 0001:0001e7d0       $$000000                   000000018001f7d0     libvcruntime:handlers.obj
 0001:0001eed0       $$000000                   000000018001fed0     libvcruntime:_jmpuwind_.obj
 0001:0001f28c       ??$common_assert_to_message_box@_W@@YAXQEB_W0IQEAX@Z 000000018002028c f   libucrt:assert.obj
 0001:0001f350       ??$common_assert_to_message_box_build_string@_W@@YAXQEA_W_KQEB_W2IQEAX@Z 0000000180020350 f   libucrt:assert.obj
 0001:0001fb24       ??$common_assert_to_stderr@_W@@YAXQEB_W0I@Z 0000000180020b24 f   libucrt:assert.obj
 0001:0001fc94       ?get_assert_format@@YAPEB_W_W@Z 0000000180020c94 f   libucrt:assert.obj
 0001:000201b0       ?atexit_exception_filter@@YAHK@Z 00000001800211b0 f   libucrt:exit.obj
 0001:000201bc       ?common_exit@@YAXHW4_crt_exit_cleanup_mode@@W4_crt_exit_return_mode@@@Z 00000001800211bc f   libucrt:exit.obj
 0001:00020328       ?exit_or_terminate_process@@YAXI@Z 0000000180021328 f   libucrt:exit.obj
 0001:00020374       ?try_cor_exit_process@@YAXI@Z 0000000180021374 f   libucrt:exit.obj
 0001:0002040c       ??$parse_command_line@D@@YAXPEADPEAPEAD0PEA_K2@Z 000000018002140c f   libucrt:argv_parsing.obj
 0001:000207a4       ??$common_initialize_environment_nolock@D@@YAHXZ 00000001800217a4 f   libucrt:environment_initialization.obj
 0001:00020810       ??$create_environment@D@@YAQEAPEADQEAD@Z 0000000180021810 f   libucrt:environment_initialization.obj
 0001:0002090c       ??$free_environment@_W@@YAXQEAPEA_W@Z 000000018002190c f   libucrt:environment_initialization.obj
 0001:0002090c       ??$free_environment@D@@YAXQEAPEAD@Z 000000018002190c f   libucrt:environment_initialization.obj
 0001:00020950       ??$uninitialize_environment_internal@D@@YAXAEAPEAPEAD@Z 0000000180021950 f   libucrt:environment_initialization.obj
 0001:0002096c       ??$uninitialize_environment_internal@_W@@YAXAEAPEAPEA_W@Z 000000018002196c f   libucrt:environment_initialization.obj
 0001:00020ba4       ??R<lambda_4e60a939b0d047cfe11ddc22648dfba9>@@QEBAHXZ 0000000180021ba4 f   libucrt:onexit.obj
 0001:00020e54       initialize_global_variables 0000000180021e54 f   libucrt:initialization.obj
 0001:00020e68       initialize_c               0000000180021e68 f   libucrt:initialization.obj
 0001:00020e8c       uninitialize_environment   0000000180021e8c f   libucrt:initialization.obj
 0001:00020e9c       initialize_pointers        0000000180021e9c f   libucrt:initialization.obj
 0001:00020ef0       uninitialize_vcruntime     0000000180021ef0 f   libucrt:initialization.obj
 0001:00020ef8       uninitialize_allocated_memory 0000000180021ef8 f   libucrt:initialization.obj
 0001:00020f88       report_memory_leaks        0000000180021f88 f   libucrt:initialization.obj
 0001:00020f88       uninitialize_c             0000000180021f88 f   libucrt:initialization.obj
 0001:00020f88       initialize_environment     0000000180021f88 f   libucrt:initialization.obj
 0001:00020f88       uninitialize_global_state_isolation 0000000180021f88 f   libucrt:initialization.obj
 0001:00020f88       initialize_global_state_isolation 0000000180021f88 f   libucrt:initialization.obj
 0001:0002168c       ??R<lambda_dd75445284c072d0bd3768540cc698fa>@@QEBAHXZ 000000018002268c f   libucrt:output.obj
 0001:00023b84       ?construct_ptd_array@@YAXQEAU__acrt_ptd@@@Z 0000000180024b84 f   libucrt:per_thread_data.obj
 0001:00023c54       ?destroy_fls@@YAXPEAX@Z    0000000180024c54 f   libucrt:per_thread_data.obj
 0001:00023c74       ?destroy_ptd_array@@YAXQEAU__acrt_ptd@@@Z 0000000180024c74 f   libucrt:per_thread_data.obj
 0001:00023d6c       ?replace_current_thread_locale_nolock@@YAXQEAU__acrt_ptd@@QEAU__crt_locale_data@@@Z 0000000180024d6c f   libucrt:per_thread_data.obj
 0001:0002408c       ??$common_xtox@K_W@@YAHKQEA_W_KI_N@Z 000000018002508c f   libucrt:xtoa.obj
 0001:00024138       ??$common_xtox_s@K_W@@YAHKQEA_W_KI_N@Z 0000000180025138 f   libucrt:xtoa.obj
 0001:000243fc       ??$message_box_wait_thread@_W@@YAKQEAX@Z 00000001800253fc f   libucrt:crtmbox.obj
 0001:000247b8       common_flush_all           00000001800257b8 f   libucrt:fflush.obj
 0001:00024920       ??R<lambda_b721fa326cdb32351d23dfa67958c160>@@QEBAHXZ 0000000180025920 f   libucrt:setvbuf.obj
 0001:00024de4       ?internal_isupper_l@@YA_NHQEAU__crt_locale_pointers@@@Z 0000000180025de4 f   libucrt:tolower_toupper.obj
 0001:00025114       ?try_get_function@@YAPEAXW4function_id@?A0x63058377@@QEBDQEBW4module_id@2@2@Z 0000000180026114 f   libucrt:winapi_thunks.obj
 0001:00025940       ?<helper_func_cdecl>@<lambda_2feae5270eb4d0d5532525f423405775>@@CAHPEBX0@Z 0000000180026940 f   libucrt:argv_wildcards.obj
 0001:00025954       ??$common_expand_argv_wildcards@D@@YAHQEAPEADQEAPEAPEAD@Z 0000000180026954 f   libucrt:argv_wildcards.obj
 0001:00025b60       ??$copy_and_add_argument_to_buffer@D@@YAHQEBD0_KAEAV?$argument_list@D@?A0xca0879c4@@@Z 0000000180026b60 f   libucrt:argv_wildcards.obj
 0001:00025c70       ??$expand_argument_wildcards@D@@YAHQEAD0AEAV?$argument_list@D@?A0xca0879c4@@@Z 0000000180026c70 f   libucrt:argv_wildcards.obj
 0001:00025f24       ??R<lambda_ad1ced32f4ac17aa236e5ef05d6b3b7c>@@QEBAXXZ 0000000180026f24 f   libucrt:mbctype.obj
 0001:0002613c       ?getSystemCP@@YAHH@Z       000000018002713c f   libucrt:mbctype.obj
 0001:000261bc       ?setSBCS@@YAXPEAU__crt_multibyte_data@@@Z 00000001800271bc f   libucrt:mbctype.obj
 0001:0002624c       ?setSBUpLow@@YAXPEAU__crt_multibyte_data@@@Z 000000018002724c f   libucrt:mbctype.obj
 0001:00026430       ?setmbcp_internal@@YAHH_N@Z 0000000180027430 f   libucrt:mbctype.obj
 0001:00026978       ?x_ismbbtype_l@@YAHPEAU__crt_locale_pointers@@IHH@Z 0000000180027978 f   libucrt:ismbbyte.obj
 0001:00026bf8       ?initialize_inherited_file_handles_nolock@@YAXXZ 0000000180027bf8 f   libucrt:ioinit.obj
 0001:00026ce4       ?initialize_stdio_handles_nolock@@YAXXZ 0000000180027ce4 f   libucrt:ioinit.obj
 0001:000276bc       ?fp_format_a@@YAHQEBNPEAD_KQEAD2H_NIQEAU__crt_locale_pointers@@@Z 00000001800286bc f   libucrt:cvt.obj
 0001:00027a1c       ?fp_format_e@@YAHQEBNQEAD_K12H_NIQEAU__crt_locale_pointers@@@Z 0000000180028a1c f   libucrt:cvt.obj
 0001:00027aec       ?fp_format_e_internal@@YAHQEAD_KH_NIQEAU_strflt@@2QEAU__crt_locale_pointers@@@Z 0000000180028aec f   libucrt:cvt.obj
 0001:00027cc8       ?fp_format_f_internal@@YAHQEAD_KHQEAU_strflt@@_NQEAU__crt_locale_pointers@@@Z 0000000180028cc8 f   libucrt:cvt.obj
 0001:00027e10       ?fp_format_g@@YAHQEBNQEAD_K12H_NIQEAU__crt_locale_pointers@@@Z 0000000180028e10 f   libucrt:cvt.obj
 0001:00027f48       ?fp_format_nan_or_infinity@@YAHW4__acrt_fp_class@@_NPEAD_K1@Z 0000000180028f48 f   libucrt:cvt.obj
 0001:00028c74       ?write_double_translated_ansi_nolock@@YA?AUwrite_result@?A0x9c548279@@HQEBDI@Z 0000000180029c74 f   libucrt:write.obj
 0001:00028e7c       ?write_text_ansi_nolock@@YA?AUwrite_result@?A0x9c548279@@HQEBDI@Z 0000000180029e7c f   libucrt:write.obj
 0001:00028f84       ?write_text_utf16le_nolock@@YA?AUwrite_result@?A0x9c548279@@HQEBDI@Z 0000000180029f84 f   libucrt:write.obj
 0001:000290a0       ?write_text_utf8_nolock@@YA?AUwrite_result@?A0x9c548279@@HQEBDI@Z 000000018002a0a0 f   libucrt:write.obj
 0001:00029624       ?__acrt_LCMapStringA_stat@@YAHPEAU__crt_locale_pointers@@PEB_WKPEBDHPEADHHH@Z 000000018002a624 f   libucrt:lcmapstringa.obj
 0001:00029b90       ?free_crt_array_internal@@YAXQEAPEBX_K@Z 000000018002ab90 f   libucrt:inittime.obj
 0001:00029ea4       ?GetTableIndexFromLocaleName@@YAHPEB_W@Z 000000018002aea4 f   libucrt:lcidtoname_downlevel.obj
 0001:00029fa0       ?shortsort@@YAXPEAD0_KP6AHPEBX2@Z@Z 000000018002afa0 f   libucrt:qsort.obj
 0001:0002a5b8       ?initialize_multibyte@@YAHXZ 000000018002b5b8 f   libucrt:multibyte_initializer.obj
 0001:0002c30c       memcpy_s                   000000018002d30c f   libucrt:cfout.obj
 0001:0002c394       ??$write_buffer_nolock@D@@YA_NDV__crt_stdio_stream@@@Z 000000018002d394 f   libucrt:_flsbuf.obj
 0001:0002c498       ??$write_buffer_nolock@_W@@YA_N_WV__crt_stdio_stream@@@Z 000000018002d498 f   libucrt:_flsbuf.obj
 0001:0002c868       ??$common_lseek@_J@@YA_JH_JH@Z 000000018002d868 f   libucrt:lseek.obj
 0001:0002c958       ??$common_lseek_nolock@_J@@YA_JH_JH@Z 000000018002d958 f   libucrt:lseek.obj
 0001:0002cc00       $$000000                   000000018002dc00     libucrt:log10.obj
 0001:0002d5b4       common_control87           000000018002e5b4 f   libucrt:ieee.obj
 0001:0002d84c       _call_matherr              000000018002e84c f   libucrt:libm_error.obj
 0001:0002d8b4       _exception_enabled         000000018002e8b4 f   libucrt:libm_error.obj
 0001:0002db50       _log_special_common        000000018002eb50 f   libucrt:log_special.obj
 0001:0002dbf0       $$000000                   000000018002ebf0     libucrt:fpsr.obj
 0001:0002e8a0       $$000000                   000000018002f8a0     LIBCMT:_chkstk_.obj
 0001:0002e910       $$000000                   000000018002f910     libvcruntime:memcmp.obj
 0001:0002ebb0       $$000000                   000000018002fbb0     LIBCMT:_guard_dispatch_.obj
 0001:0002ebd0       ?dtor$0@?0??WorkComplete@AsyncWorker@Nan@@UEAAXXZ@4HA 000000018002fbd0 f   w_key.obj
 0001:0002ebd0       ?dtor$0@?0??InitModule@@YAXV?$Local@VObject@v8@@@v8@@@Z@4HA 000000018002fbd0 f   main.obj
 0001:0002ebd0       ?dtor$0@?0??ThrowError@Nan@@YAXV?$Local@VString@v8@@@v8@@@Z@4HA 000000018002fbd0 f   w_key.obj
 0001:0002ebe0       ?dtor$0@?0??KEY_export@@YA?AV?$shared_ptr@V?$basic_string@DU?$char_traits@D@std@@V?$allocator@D@2@@std@@@std@@PEAUevp_pkey_st@@P6AHPEAUbio_st@@0@Z@Z@4HA 000000018002fbe0 f   key_exp.obj
 0001:0002ebec       ?dtor$1@?0??KEY_export@@YA?AV?$shared_ptr@V?$basic_string@DU?$char_traits@D@std@@V?$allocator@D@2@@std@@@std@@PEAUevp_pkey_st@@P6AHPEAUbio_st@@0@Z@Z@4HA 000000018002fbec f   key_exp.obj
 0001:0002ebf8       ?dtor$2@?0??KEY_export@@YA?AV?$shared_ptr@V?$basic_string@DU?$char_traits@D@std@@V?$allocator@D@2@@std@@@std@@PEAUevp_pkey_st@@P6AHPEAUbio_st@@0@Z@Z@4HA 000000018002fbf8 f   key_exp.obj
 0001:0002ec20       ?dtor$0@?0??KEY_import@@YA?AV?$shared_ptr@V?$ScopedSSL@Uevp_pkey_st@@$1?ScopedEVP_PKEY_free@@YAXPEAX@Z@@@std@@PEAUbio_st@@P6APEAUevp_pkey_st@@0PEAPEAU4@@Z@Z@4HA 000000018002fc20 f   key_exp.obj
 0001:0002ec2c       ?dtor$1@?0??KEY_import@@YA?AV?$shared_ptr@V?$ScopedSSL@Uevp_pkey_st@@$1?ScopedEVP_PKEY_free@@YAXPEAX@Z@@@std@@PEAUbio_st@@P6APEAUevp_pkey_st@@0PEAPEAU4@@Z@Z@4HA 000000018002fc2c f   key_exp.obj
 0001:0002ec38       ?dtor$2@?0??KEY_import@@YA?AV?$shared_ptr@V?$ScopedSSL@Uevp_pkey_st@@$1?ScopedEVP_PKEY_free@@YAXPEAX@Z@@@std@@PEAUbio_st@@P6APEAUevp_pkey_st@@0PEAPEAU4@@Z@Z@4HA 000000018002fc38 f   key_exp.obj
 0001:0002ec50       ?dtor$0@?0??KEY_import_pkcs8@@YA?AV?$shared_ptr@V?$ScopedSSL@Uevp_pkey_st@@$1?ScopedEVP_PKEY_free@@YAXPEAX@Z@@@std@@V?$shared_ptr@V?$basic_string@DU?$char_traits@D@std@@V?$allocator@D@2@@std@@@2@@Z@4HA 000000018002fc50 f   key_exp.obj
 0001:0002ec50       ?dtor$0@?0??KEY_import_spki@@YA?AV?$shared_ptr@V?$ScopedSSL@Uevp_pkey_st@@$1?ScopedEVP_PKEY_free@@YAXPEAX@Z@@@std@@V?$shared_ptr@V?$basic_string@DU?$char_traits@D@std@@V?$allocator@D@2@@std@@@2@@Z@4HA 000000018002fc50 f   key_exp.obj
 0001:0002ec5c       ?dtor$1@?0??KEY_import_pkcs8@@YA?AV?$shared_ptr@V?$ScopedSSL@Uevp_pkey_st@@$1?ScopedEVP_PKEY_free@@YAXPEAX@Z@@@std@@V?$shared_ptr@V?$basic_string@DU?$char_traits@D@std@@V?$allocator@D@2@@std@@@2@@Z@4HA 000000018002fc5c f   key_exp.obj
 0001:0002ec5c       ?dtor$1@?0??KEY_import_spki@@YA?AV?$shared_ptr@V?$ScopedSSL@Uevp_pkey_st@@$1?ScopedEVP_PKEY_free@@YAXPEAX@Z@@@std@@V?$shared_ptr@V?$basic_string@DU?$char_traits@D@std@@V?$allocator@D@2@@std@@@2@@Z@4HA 000000018002fc5c f   key_exp.obj
 0001:0002ec70       ?dtor$0@?0??OPENSSL_get_errors@@YA?AV?$basic_string@DU?$char_traits@D@std@@V?$allocator@D@2@@std@@XZ@4HA 000000018002fc70 f   excep.obj
 0001:0002ec70       ?dtor$0@?0??To@JwkRsa@@QEAA?AV?$shared_ptr@V?$ScopedSSL@Uevp_pkey_st@@$1?ScopedEVP_PKEY_free@@YAXPEAX@Z@@@std@@AEAH@Z@4HA 000000018002fc70 f   rsa_jwk.obj
 0001:0002ec80       ?dtor$0@?0??digest@@YA?AV?$shared_ptr@V?$basic_string@DU?$char_traits@D@std@@V?$allocator@D@2@@std@@@std@@PEBUenv_md_st@@V12@@Z@4HA 000000018002fc80 f   digest.obj
 0001:0002ec8c       ?dtor$2@?0??digest@@YA?AV?$shared_ptr@V?$basic_string@DU?$char_traits@D@std@@V?$allocator@D@2@@std@@@std@@PEBUenv_md_st@@V12@@Z@4HA 000000018002fc8c f   digest.obj
 0001:0002ecb2       ?dtor$3@?0??digest@@YA?AV?$shared_ptr@V?$basic_string@DU?$char_traits@D@std@@V?$allocator@D@2@@std@@@std@@PEBUenv_md_st@@V12@@Z@4HA 000000018002fcb2 f   digest.obj
 0001:0002ecc0       ?dtor$0@?0??RSA_generate@@YA?AV?$shared_ptr@V?$ScopedSSL@Uevp_pkey_st@@$1?ScopedEVP_PKEY_free@@YAXPEAX@Z@@@std@@HH@Z@4HA 000000018002fcc0 f   rsa_gen.obj
 0001:0002eccc       ?dtor$1@?0??RSA_generate@@YA?AV?$shared_ptr@V?$ScopedSSL@Uevp_pkey_st@@$1?ScopedEVP_PKEY_free@@YAXPEAX@Z@@@std@@HH@Z@4HA 000000018002fccc f   rsa_gen.obj
 0001:0002ecd8       ?dtor$2@?0??RSA_generate@@YA?AV?$shared_ptr@V?$ScopedSSL@Uevp_pkey_st@@$1?ScopedEVP_PKEY_free@@YAXPEAX@Z@@@std@@HH@Z@4HA 000000018002fcd8 f   rsa_gen.obj
 0001:0002ece4       ?dtor$3@?0??RSA_generate@@YA?AV?$shared_ptr@V?$ScopedSSL@Uevp_pkey_st@@$1?ScopedEVP_PKEY_free@@YAXPEAX@Z@@@std@@HH@Z@4HA 000000018002fce4 f   rsa_gen.obj
 0001:0002ecf0       ?dtor$4@?0??RSA_generate@@YA?AV?$shared_ptr@V?$ScopedSSL@Uevp_pkey_st@@$1?ScopedEVP_PKEY_free@@YAXPEAX@Z@@@std@@HH@Z@4HA 000000018002fcf0 f   rsa_gen.obj
 0001:0002ed00       ?dtor$0@?0??From@JwkRsa@@SA?AV?$shared_ptr@VJwkRsa@@@std@@V?$shared_ptr@V?$ScopedSSL@Uevp_pkey_st@@$1?ScopedEVP_PKEY_free@@YAXPEAX@Z@@@3@AEAH@Z@4HA 000000018002fd00 f   rsa_jwk.obj
 0001:0002ed0c       ?dtor$2@?0??From@JwkRsa@@SA?AV?$shared_ptr@VJwkRsa@@@std@@V?$shared_ptr@V?$ScopedSSL@Uevp_pkey_st@@$1?ScopedEVP_PKEY_free@@YAXPEAX@Z@@@3@AEAH@Z@4HA 000000018002fd0c f   rsa_jwk.obj
 0001:0002ed40       ?dtor$0@?0??RSA_PSS_sign@@YA?AV?$shared_ptr@V?$basic_string@DU?$char_traits@D@std@@V?$allocator@D@2@@std@@@std@@V?$shared_ptr@V?$ScopedSSL@Uevp_pkey_st@@$1?ScopedEVP_PKEY_free@@YAXPEAX@Z@@@2@PEBUenv_md_st@@HV12@@Z@4HA 000000018002fd40 f   rsa_pss.obj
 0001:0002ed40       ?dtor$0@?0??RSA_PKCS1_sign@@YA?AV?$shared_ptr@V?$basic_string@DU?$char_traits@D@std@@V?$allocator@D@2@@std@@@std@@V?$shared_ptr@V?$ScopedSSL@Uevp_pkey_st@@$1?ScopedEVP_PKEY_free@@YAXPEAX@Z@@@2@PEBUenv_md_st@@V12@@Z@4HA 000000018002fd40 f   rsa_pkcs1.obj
 0001:0002ed4c       ?dtor$1@?0??RSA_PSS_sign@@YA?AV?$shared_ptr@V?$basic_string@DU?$char_traits@D@std@@V?$allocator@D@2@@std@@@std@@V?$shared_ptr@V?$ScopedSSL@Uevp_pkey_st@@$1?ScopedEVP_PKEY_free@@YAXPEAX@Z@@@2@PEBUenv_md_st@@HV12@@Z@4HA 000000018002fd4c f   rsa_pss.obj
 0001:0002ed4c       ?dtor$1@?0??RSA_PKCS1_sign@@YA?AV?$shared_ptr@V?$basic_string@DU?$char_traits@D@std@@V?$allocator@D@2@@std@@@std@@V?$shared_ptr@V?$ScopedSSL@Uevp_pkey_st@@$1?ScopedEVP_PKEY_free@@YAXPEAX@Z@@@2@PEBUenv_md_st@@V12@@Z@4HA 000000018002fd4c f   rsa_pkcs1.obj
 0001:0002ed58       ?dtor$2@?0??RSA_PSS_sign@@YA?AV?$shared_ptr@V?$basic_string@DU?$char_traits@D@std@@V?$allocator@D@2@@std@@@std@@V?$shared_ptr@V?$ScopedSSL@Uevp_pkey_st@@$1?ScopedEVP_PKEY_free@@YAXPEAX@Z@@@2@PEBUenv_md_st@@HV12@@Z@4HA 000000018002fd58 f   rsa_pss.obj
 0001:0002ed58       ?dtor$2@?0??RSA_PKCS1_sign@@YA?AV?$shared_ptr@V?$basic_string@DU?$char_traits@D@std@@V?$allocator@D@2@@std@@@std@@V?$shared_ptr@V?$ScopedSSL@Uevp_pkey_st@@$1?ScopedEVP_PKEY_free@@YAXPEAX@Z@@@2@PEBUenv_md_st@@V12@@Z@4HA 000000018002fd58 f   rsa_pkcs1.obj
 0001:0002ed64       ?dtor$3@?0??RSA_PKCS1_sign@@YA?AV?$shared_ptr@V?$basic_string@DU?$char_traits@D@std@@V?$allocator@D@2@@std@@@std@@V?$shared_ptr@V?$ScopedSSL@Uevp_pkey_st@@$1?ScopedEVP_PKEY_free@@YAXPEAX@Z@@@2@PEBUenv_md_st@@V12@@Z@4HA 000000018002fd64 f   rsa_pkcs1.obj
 0001:0002ed64       ?dtor$3@?0??RSA_PSS_sign@@YA?AV?$shared_ptr@V?$basic_string@DU?$char_traits@D@std@@V?$allocator@D@2@@std@@@std@@V?$shared_ptr@V?$ScopedSSL@Uevp_pkey_st@@$1?ScopedEVP_PKEY_free@@YAXPEAX@Z@@@2@PEBUenv_md_st@@HV12@@Z@4HA 000000018002fd64 f   rsa_pss.obj
 0001:0002ed70       ?dtor$4@?0??RSA_PSS_sign@@YA?AV?$shared_ptr@V?$basic_string@DU?$char_traits@D@std@@V?$allocator@D@2@@std@@@std@@V?$shared_ptr@V?$ScopedSSL@Uevp_pkey_st@@$1?ScopedEVP_PKEY_free@@YAXPEAX@Z@@@2@PEBUenv_md_st@@HV12@@Z@4HA 000000018002fd70 f   rsa_pss.obj
 0001:0002ed70       ?dtor$4@?0??RSA_PKCS1_sign@@YA?AV?$shared_ptr@V?$basic_string@DU?$char_traits@D@std@@V?$allocator@D@2@@std@@@std@@V?$shared_ptr@V?$ScopedSSL@Uevp_pkey_st@@$1?ScopedEVP_PKEY_free@@YAXPEAX@Z@@@2@PEBUenv_md_st@@V12@@Z@4HA 000000018002fd70 f   rsa_pkcs1.obj
 0001:0002ed7c       ?dtor$5@?0??RSA_PKCS1_sign@@YA?AV?$shared_ptr@V?$basic_string@DU?$char_traits@D@std@@V?$allocator@D@2@@std@@@std@@V?$shared_ptr@V?$ScopedSSL@Uevp_pkey_st@@$1?ScopedEVP_PKEY_free@@YAXPEAX@Z@@@2@PEBUenv_md_st@@V12@@Z@4HA 000000018002fd7c f   rsa_pkcs1.obj
 0001:0002ed7c       ?dtor$5@?0??RSA_PSS_sign@@YA?AV?$shared_ptr@V?$basic_string@DU?$char_traits@D@std@@V?$allocator@D@2@@std@@@std@@V?$shared_ptr@V?$ScopedSSL@Uevp_pkey_st@@$1?ScopedEVP_PKEY_free@@YAXPEAX@Z@@@2@PEBUenv_md_st@@HV12@@Z@4HA 000000018002fd7c f   rsa_pss.obj
 0001:0002ed88       ?dtor$7@?0??RSA_PSS_sign@@YA?AV?$shared_ptr@V?$basic_string@DU?$char_traits@D@std@@V?$allocator@D@2@@std@@@std@@V?$shared_ptr@V?$ScopedSSL@Uevp_pkey_st@@$1?ScopedEVP_PKEY_free@@YAXPEAX@Z@@@2@PEBUenv_md_st@@HV12@@Z@4HA 000000018002fd88 f   rsa_pss.obj
 0001:0002ed88       ?dtor$7@?0??RSA_PKCS1_sign@@YA?AV?$shared_ptr@V?$basic_string@DU?$char_traits@D@std@@V?$allocator@D@2@@std@@@std@@V?$shared_ptr@V?$ScopedSSL@Uevp_pkey_st@@$1?ScopedEVP_PKEY_free@@YAXPEAX@Z@@@2@PEBUenv_md_st@@V12@@Z@4HA 000000018002fd88 f   rsa_pkcs1.obj
 0001:0002edae       ?dtor$8@?0??RSA_PKCS1_sign@@YA?AV?$shared_ptr@V?$basic_string@DU?$char_traits@D@std@@V?$allocator@D@2@@std@@@std@@V?$shared_ptr@V?$ScopedSSL@Uevp_pkey_st@@$1?ScopedEVP_PKEY_free@@YAXPEAX@Z@@@2@PEBUenv_md_st@@V12@@Z@4HA 000000018002fdae f   rsa_pkcs1.obj
 0001:0002edae       ?dtor$8@?0??RSA_PSS_sign@@YA?AV?$shared_ptr@V?$basic_string@DU?$char_traits@D@std@@V?$allocator@D@2@@std@@@std@@V?$shared_ptr@V?$ScopedSSL@Uevp_pkey_st@@$1?ScopedEVP_PKEY_free@@YAXPEAX@Z@@@2@PEBUenv_md_st@@HV12@@Z@4HA 000000018002fdae f   rsa_pss.obj
 0001:0002edc0       ?dtor$0@?0??RSA_PKCS1_verify@@YA_NV?$shared_ptr@V?$ScopedSSL@Uevp_pkey_st@@$1?ScopedEVP_PKEY_free@@YAXPEAX@Z@@@std@@PEBUenv_md_st@@V?$shared_ptr@V?$basic_string@DU?$char_traits@D@std@@V?$allocator@D@2@@std@@@2@2@Z@4HA 000000018002fdc0 f   rsa_pkcs1.obj
 0001:0002edc0       ?dtor$0@?0??RSA_PSS_verify@@YA_NV?$shared_ptr@V?$ScopedSSL@Uevp_pkey_st@@$1?ScopedEVP_PKEY_free@@YAXPEAX@Z@@@std@@PEBUenv_md_st@@HV?$shared_ptr@V?$basic_string@DU?$char_traits@D@std@@V?$allocator@D@2@@std@@@2@2@Z@4HA 000000018002fdc0 f   rsa_pss.obj
 0001:0002edcc       ?dtor$1@?0??RSA_PKCS1_verify@@YA_NV?$shared_ptr@V?$ScopedSSL@Uevp_pkey_st@@$1?ScopedEVP_PKEY_free@@YAXPEAX@Z@@@std@@PEBUenv_md_st@@V?$shared_ptr@V?$basic_string@DU?$char_traits@D@std@@V?$allocator@D@2@@std@@@2@2@Z@4HA 000000018002fdcc f   rsa_pkcs1.obj
 0001:0002edcc       ?dtor$1@?0??RSA_PSS_verify@@YA_NV?$shared_ptr@V?$ScopedSSL@Uevp_pkey_st@@$1?ScopedEVP_PKEY_free@@YAXPEAX@Z@@@std@@PEBUenv_md_st@@HV?$shared_ptr@V?$basic_string@DU?$char_traits@D@std@@V?$allocator@D@2@@std@@@2@2@Z@4HA 000000018002fdcc f   rsa_pss.obj
 0001:0002edd8       ?dtor$2@?0??RSA_PSS_verify@@YA_NV?$shared_ptr@V?$ScopedSSL@Uevp_pkey_st@@$1?ScopedEVP_PKEY_free@@YAXPEAX@Z@@@std@@PEBUenv_md_st@@HV?$shared_ptr@V?$basic_string@DU?$char_traits@D@std@@V?$allocator@D@2@@std@@@2@2@Z@4HA 000000018002fdd8 f   rsa_pss.obj
 0001:0002edd8       ?dtor$2@?0??RSA_PKCS1_verify@@YA_NV?$shared_ptr@V?$ScopedSSL@Uevp_pkey_st@@$1?ScopedEVP_PKEY_free@@YAXPEAX@Z@@@std@@PEBUenv_md_st@@V?$shared_ptr@V?$basic_string@DU?$char_traits@D@std@@V?$allocator@D@2@@std@@@2@2@Z@4HA 000000018002fdd8 f   rsa_pkcs1.obj
 0001:0002ede4       ?dtor$3@?0??RSA_PSS_verify@@YA_NV?$shared_ptr@V?$ScopedSSL@Uevp_pkey_st@@$1?ScopedEVP_PKEY_free@@YAXPEAX@Z@@@std@@PEBUenv_md_st@@HV?$shared_ptr@V?$basic_string@DU?$char_traits@D@std@@V?$allocator@D@2@@std@@@2@2@Z@4HA 000000018002fde4 f   rsa_pss.obj
 0001:0002ede4       ?dtor$3@?0??RSA_PKCS1_verify@@YA_NV?$shared_ptr@V?$ScopedSSL@Uevp_pkey_st@@$1?ScopedEVP_PKEY_free@@YAXPEAX@Z@@@std@@PEBUenv_md_st@@V?$shared_ptr@V?$basic_string@DU?$char_traits@D@std@@V?$allocator@D@2@@std@@@2@2@Z@4HA 000000018002fde4 f   rsa_pkcs1.obj
 0001:0002edf0       ?dtor$4@?0??RSA_PSS_verify@@YA_NV?$shared_ptr@V?$ScopedSSL@Uevp_pkey_st@@$1?ScopedEVP_PKEY_free@@YAXPEAX@Z@@@std@@PEBUenv_md_st@@HV?$shared_ptr@V?$basic_string@DU?$char_traits@D@std@@V?$allocator@D@2@@std@@@2@2@Z@4HA 000000018002fdf0 f   rsa_pss.obj
 0001:0002edf0       ?dtor$4@?0??RSA_PKCS1_verify@@YA_NV?$shared_ptr@V?$ScopedSSL@Uevp_pkey_st@@$1?ScopedEVP_PKEY_free@@YAXPEAX@Z@@@std@@PEBUenv_md_st@@V?$shared_ptr@V?$basic_string@DU?$char_traits@D@std@@V?$allocator@D@2@@std@@@2@2@Z@4HA 000000018002fdf0 f   rsa_pkcs1.obj
 0001:0002edfc       ?dtor$5@?0??RSA_PSS_verify@@YA_NV?$shared_ptr@V?$ScopedSSL@Uevp_pkey_st@@$1?ScopedEVP_PKEY_free@@YAXPEAX@Z@@@std@@PEBUenv_md_st@@HV?$shared_ptr@V?$basic_string@DU?$char_traits@D@std@@V?$allocator@D@2@@std@@@2@2@Z@4HA 000000018002fdfc f   rsa_pss.obj
 0001:0002edfc       ?dtor$5@?0??RSA_PKCS1_verify@@YA_NV?$shared_ptr@V?$ScopedSSL@Uevp_pkey_st@@$1?ScopedEVP_PKEY_free@@YAXPEAX@Z@@@std@@PEBUenv_md_st@@V?$shared_ptr@V?$basic_string@DU?$char_traits@D@std@@V?$allocator@D@2@@std@@@2@2@Z@4HA 000000018002fdfc f   rsa_pkcs1.obj
 0001:0002ee10       ?dtor$0@?0??RSA_OAEP_enc_dec@@YA?AV?$shared_ptr@V?$basic_string@DU?$char_traits@D@std@@V?$allocator@D@2@@std@@@std@@V?$shared_ptr@V?$ScopedSSL@Uevp_pkey_st@@$1?ScopedEVP_PKEY_free@@YAXPEAX@Z@@@2@PEBUenv_md_st@@V12@2_N@Z@4HA 000000018002fe10 f   rsa_oaep.obj
 0001:0002ee1c       ?dtor$1@?0??RSA_OAEP_enc_dec@@YA?AV?$shared_ptr@V?$basic_string@DU?$char_traits@D@std@@V?$allocator@D@2@@std@@@std@@V?$shared_ptr@V?$ScopedSSL@Uevp_pkey_st@@$1?ScopedEVP_PKEY_free@@YAXPEAX@Z@@@2@PEBUenv_md_st@@V12@2_N@Z@4HA 000000018002fe1c f   rsa_oaep.obj
 0001:0002ee28       ?dtor$2@?0??RSA_OAEP_enc_dec@@YA?AV?$shared_ptr@V?$basic_string@DU?$char_traits@D@std@@V?$allocator@D@2@@std@@@std@@V?$shared_ptr@V?$ScopedSSL@Uevp_pkey_st@@$1?ScopedEVP_PKEY_free@@YAXPEAX@Z@@@2@PEBUenv_md_st@@V12@2_N@Z@4HA 000000018002fe28 f   rsa_oaep.obj
 0001:0002ee34       ?dtor$3@?0??RSA_OAEP_enc_dec@@YA?AV?$shared_ptr@V?$basic_string@DU?$char_traits@D@std@@V?$allocator@D@2@@std@@@std@@V?$shared_ptr@V?$ScopedSSL@Uevp_pkey_st@@$1?ScopedEVP_PKEY_free@@YAXPEAX@Z@@@2@PEBUenv_md_st@@V12@2_N@Z@4HA 000000018002fe34 f   rsa_oaep.obj
 0001:0002ee40       ?dtor$4@?0??RSA_OAEP_enc_dec@@YA?AV?$shared_ptr@V?$basic_string@DU?$char_traits@D@std@@V?$allocator@D@2@@std@@@std@@V?$shared_ptr@V?$ScopedSSL@Uevp_pkey_st@@$1?ScopedEVP_PKEY_free@@YAXPEAX@Z@@@2@PEBUenv_md_st@@V12@2_N@Z@4HA 000000018002fe40 f   rsa_oaep.obj
 0001:0002ee4c       ?dtor$5@?0??RSA_OAEP_enc_dec@@YA?AV?$shared_ptr@V?$basic_string@DU?$char_traits@D@std@@V?$allocator@D@2@@std@@@std@@V?$shared_ptr@V?$ScopedSSL@Uevp_pkey_st@@$1?ScopedEVP_PKEY_free@@YAXPEAX@Z@@@2@PEBUenv_md_st@@V12@2_N@Z@4HA 000000018002fe4c f   rsa_oaep.obj
 0001:0002ee58       ?dtor$6@?0??RSA_OAEP_enc_dec@@YA?AV?$shared_ptr@V?$basic_string@DU?$char_traits@D@std@@V?$allocator@D@2@@std@@@std@@V?$shared_ptr@V?$ScopedSSL@Uevp_pkey_st@@$1?ScopedEVP_PKEY_free@@YAXPEAX@Z@@@2@PEBUenv_md_st@@V12@2_N@Z@4HA 000000018002fe58 f   rsa_oaep.obj
 0001:0002ee64       ?dtor$7@?0??RSA_OAEP_enc_dec@@YA?AV?$shared_ptr@V?$basic_string@DU?$char_traits@D@std@@V?$allocator@D@2@@std@@@std@@V?$shared_ptr@V?$ScopedSSL@Uevp_pkey_st@@$1?ScopedEVP_PKEY_free@@YAXPEAX@Z@@@2@PEBUenv_md_st@@V12@2_N@Z@4HA 000000018002fe64 f   rsa_oaep.obj
 0001:0002ee70       ?dtor$8@?0??RSA_OAEP_enc_dec@@YA?AV?$shared_ptr@V?$basic_string@DU?$char_traits@D@std@@V?$allocator@D@2@@std@@@std@@V?$shared_ptr@V?$ScopedSSL@Uevp_pkey_st@@$1?ScopedEVP_PKEY_free@@YAXPEAX@Z@@@2@PEBUenv_md_st@@V12@2_N@Z@4HA 000000018002fe70 f   rsa_oaep.obj
 0001:0002ee7c       ?dtor$9@?0??RSA_OAEP_enc_dec@@YA?AV?$shared_ptr@V?$basic_string@DU?$char_traits@D@std@@V?$allocator@D@2@@std@@@std@@V?$shared_ptr@V?$ScopedSSL@Uevp_pkey_st@@$1?ScopedEVP_PKEY_free@@YAXPEAX@Z@@@2@PEBUenv_md_st@@V12@2_N@Z@4HA 000000018002fe7c f   rsa_oaep.obj
 0001:0002ee88       ?dtor$10@?0??RSA_OAEP_enc_dec@@YA?AV?$shared_ptr@V?$basic_string@DU?$char_traits@D@std@@V?$allocator@D@2@@std@@@std@@V?$shared_ptr@V?$ScopedSSL@Uevp_pkey_st@@$1?ScopedEVP_PKEY_free@@YAXPEAX@Z@@@2@PEBUenv_md_st@@V12@2_N@Z@4HA 000000018002fe88 f   rsa_oaep.obj
 0001:0002ee94       ?dtor$11@?0??RSA_OAEP_enc_dec@@YA?AV?$shared_ptr@V?$basic_string@DU?$char_traits@D@std@@V?$allocator@D@2@@std@@@std@@V?$shared_ptr@V?$ScopedSSL@Uevp_pkey_st@@$1?ScopedEVP_PKEY_free@@YAXPEAX@Z@@@2@PEBUenv_md_st@@V12@2_N@Z@4HA 000000018002fe94 f   rsa_oaep.obj
 0001:0002eea0       ?dtor$13@?0??RSA_OAEP_enc_dec@@YA?AV?$shared_ptr@V?$basic_string@DU?$char_traits@D@std@@V?$allocator@D@2@@std@@@std@@V?$shared_ptr@V?$ScopedSSL@Uevp_pkey_st@@$1?ScopedEVP_PKEY_free@@YAXPEAX@Z@@@2@PEBUenv_md_st@@V12@2_N@Z@4HA 000000018002fea0 f   rsa_oaep.obj
 0001:0002eec6       ?dtor$14@?0??RSA_OAEP_enc_dec@@YA?AV?$shared_ptr@V?$basic_string@DU?$char_traits@D@std@@V?$allocator@D@2@@std@@@std@@V?$shared_ptr@V?$ScopedSSL@Uevp_pkey_st@@$1?ScopedEVP_PKEY_free@@YAXPEAX@Z@@@2@PEBUenv_md_st@@V12@2_N@Z@4HA 000000018002fec6 f   rsa_oaep.obj
 0001:0002eee0       ?dtor$0@?0??setRsaPssParams@@YAXPEBUenv_md_st@@HPEAUevp_pkey_ctx_st@@@Z@4HA 000000018002fee0 f   rsa_pss.obj
 0001:0002eef0       ?dtor$0@?0??EC_generate@@YA?AV?$shared_ptr@V?$ScopedSSL@Uevp_pkey_st@@$1?ScopedEVP_PKEY_free@@YAXPEAX@Z@@@std@@AEAH@Z@4HA 000000018002fef0 f   ec_gen.obj
 0001:0002ef19       ?dtor$1@?0??EC_generate@@YA?AV?$shared_ptr@V?$ScopedSSL@Uevp_pkey_st@@$1?ScopedEVP_PKEY_free@@YAXPEAX@Z@@@std@@AEAH@Z@4HA 000000018002ff19 f   ec_gen.obj
 0001:0002ef25       ?dtor$2@?0??EC_generate@@YA?AV?$shared_ptr@V?$ScopedSSL@Uevp_pkey_st@@$1?ScopedEVP_PKEY_free@@YAXPEAX@Z@@@std@@AEAH@Z@4HA 000000018002ff25 f   ec_gen.obj
 0001:0002ef31       ?dtor$3@?0??EC_generate@@YA?AV?$shared_ptr@V?$ScopedSSL@Uevp_pkey_st@@$1?ScopedEVP_PKEY_free@@YAXPEAX@Z@@@std@@AEAH@Z@4HA 000000018002ff31 f   ec_gen.obj
 0001:0002ef3d       ?dtor$6@?0??EC_generate@@YA?AV?$shared_ptr@V?$ScopedSSL@Uevp_pkey_st@@$1?ScopedEVP_PKEY_free@@YAXPEAX@Z@@@std@@AEAH@Z@4HA 000000018002ff3d f   ec_gen.obj
 0001:0002ef50       ?dtor$0@?0??GetEcGroupOrderSize@@YA_KPEAUevp_pkey_st@@@Z@4HA 000000018002ff50 f   ec_dsa.obj
 0001:0002ef5c       ?dtor$1@?0??GetEcGroupOrderSize@@YA_KPEAUevp_pkey_st@@@Z@4HA 000000018002ff5c f   ec_dsa.obj
 0001:0002ef70       ?dtor$1@?0??ConvertWebCryptoSignatureToDerSignature@@YA?AV?$shared_ptr@V?$basic_string@DU?$char_traits@D@std@@V?$allocator@D@2@@std@@@std@@PEAUevp_pkey_st@@PEBEAEB_KPEA_N@Z@4HA 000000018002ff70 f   ec_dsa.obj
 0001:0002ef7c       ?dtor$2@?0??ConvertWebCryptoSignatureToDerSignature@@YA?AV?$shared_ptr@V?$basic_string@DU?$char_traits@D@std@@V?$allocator@D@2@@std@@@std@@PEAUevp_pkey_st@@PEBEAEB_KPEA_N@Z@4HA 000000018002ff7c f   ec_dsa.obj
 0001:0002ef88       ?dtor$3@?0??ConvertWebCryptoSignatureToDerSignature@@YA?AV?$shared_ptr@V?$basic_string@DU?$char_traits@D@std@@V?$allocator@D@2@@std@@@std@@PEAUevp_pkey_st@@PEBEAEB_KPEA_N@Z@4HA 000000018002ff88 f   ec_dsa.obj
 0001:0002ef94       ?dtor$4@?0??ConvertWebCryptoSignatureToDerSignature@@YA?AV?$shared_ptr@V?$basic_string@DU?$char_traits@D@std@@V?$allocator@D@2@@std@@@std@@PEAUevp_pkey_st@@PEBEAEB_KPEA_N@Z@4HA 000000018002ff94 f   ec_dsa.obj
 0001:0002efa0       ?dtor$5@?0??ConvertWebCryptoSignatureToDerSignature@@YA?AV?$shared_ptr@V?$basic_string@DU?$char_traits@D@std@@V?$allocator@D@2@@std@@@std@@PEAUevp_pkey_st@@PEBEAEB_KPEA_N@Z@4HA 000000018002ffa0 f   ec_dsa.obj
 0001:0002efc0       ?dtor$0@?0??ConvertDerSignatureToWebCryptoSignature@@YA?AV?$shared_ptr@V?$basic_string@DU?$char_traits@D@std@@V?$allocator@D@2@@std@@@std@@PEAUevp_pkey_st@@PEBEAEA_K@Z@4HA 000000018002ffc0 f   ec_dsa.obj
 0001:0002efcc       ?dtor$1@?0??ConvertDerSignatureToWebCryptoSignature@@YA?AV?$shared_ptr@V?$basic_string@DU?$char_traits@D@std@@V?$allocator@D@2@@std@@@std@@PEAUevp_pkey_st@@PEBEAEA_K@Z@4HA 000000018002ffcc f   ec_dsa.obj
 0001:0002efd8       ?dtor$3@?0??ConvertDerSignatureToWebCryptoSignature@@YA?AV?$shared_ptr@V?$basic_string@DU?$char_traits@D@std@@V?$allocator@D@2@@std@@@std@@PEAUevp_pkey_st@@PEBEAEA_K@Z@4HA 000000018002ffd8 f   ec_dsa.obj
 0001:0002effe       ?dtor$4@?0??ConvertDerSignatureToWebCryptoSignature@@YA?AV?$shared_ptr@V?$basic_string@DU?$char_traits@D@std@@V?$allocator@D@2@@std@@@std@@PEAUevp_pkey_st@@PEBEAEA_K@Z@4HA 000000018002fffe f   ec_dsa.obj
 0001:0002f00a       ?dtor$5@?0??ConvertDerSignatureToWebCryptoSignature@@YA?AV?$shared_ptr@V?$basic_string@DU?$char_traits@D@std@@V?$allocator@D@2@@std@@@std@@PEAUevp_pkey_st@@PEBEAEA_K@Z@4HA 000000018003000a f   ec_dsa.obj
 0001:0002f020       ?dtor$0@?0??EC_DSA_sign@@YA?AV?$shared_ptr@V?$basic_string@DU?$char_traits@D@std@@V?$allocator@D@2@@std@@@std@@V?$shared_ptr@V?$ScopedSSL@Uevp_pkey_st@@$1?ScopedEVP_PKEY_free@@YAXPEAX@Z@@@2@PEBUenv_md_st@@V12@@Z@4HA 0000000180030020 f   ec_dsa.obj
 0001:0002f02c       ?dtor$1@?0??EC_DSA_sign@@YA?AV?$shared_ptr@V?$basic_string@DU?$char_traits@D@std@@V?$allocator@D@2@@std@@@std@@V?$shared_ptr@V?$ScopedSSL@Uevp_pkey_st@@$1?ScopedEVP_PKEY_free@@YAXPEAX@Z@@@2@PEBUenv_md_st@@V12@@Z@4HA 000000018003002c f   ec_dsa.obj
 0001:0002f038       ?dtor$2@?0??EC_DSA_sign@@YA?AV?$shared_ptr@V?$basic_string@DU?$char_traits@D@std@@V?$allocator@D@2@@std@@@std@@V?$shared_ptr@V?$ScopedSSL@Uevp_pkey_st@@$1?ScopedEVP_PKEY_free@@YAXPEAX@Z@@@2@PEBUenv_md_st@@V12@@Z@4HA 0000000180030038 f   ec_dsa.obj
 0001:0002f044       ?dtor$3@?0??EC_DSA_sign@@YA?AV?$shared_ptr@V?$basic_string@DU?$char_traits@D@std@@V?$allocator@D@2@@std@@@std@@V?$shared_ptr@V?$ScopedSSL@Uevp_pkey_st@@$1?ScopedEVP_PKEY_free@@YAXPEAX@Z@@@2@PEBUenv_md_st@@V12@@Z@4HA 0000000180030044 f   ec_dsa.obj
 0001:0002f050       ?dtor$4@?0??EC_DSA_sign@@YA?AV?$shared_ptr@V?$basic_string@DU?$char_traits@D@std@@V?$allocator@D@2@@std@@@std@@V?$shared_ptr@V?$ScopedSSL@Uevp_pkey_st@@$1?ScopedEVP_PKEY_free@@YAXPEAX@Z@@@2@PEBUenv_md_st@@V12@@Z@4HA 0000000180030050 f   ec_dsa.obj
 0001:0002f05c       ?dtor$5@?0??EC_DSA_sign@@YA?AV?$shared_ptr@V?$basic_string@DU?$char_traits@D@std@@V?$allocator@D@2@@std@@@std@@V?$shared_ptr@V?$ScopedSSL@Uevp_pkey_st@@$1?ScopedEVP_PKEY_free@@YAXPEAX@Z@@@2@PEBUenv_md_st@@V12@@Z@4HA 000000018003005c f   ec_dsa.obj
 0001:0002f068       ?dtor$7@?0??EC_DSA_sign@@YA?AV?$shared_ptr@V?$basic_string@DU?$char_traits@D@std@@V?$allocator@D@2@@std@@@std@@V?$shared_ptr@V?$ScopedSSL@Uevp_pkey_st@@$1?ScopedEVP_PKEY_free@@YAXPEAX@Z@@@2@PEBUenv_md_st@@V12@@Z@4HA 0000000180030068 f   ec_dsa.obj
 0001:0002f074       ?dtor$8@?0??EC_DSA_sign@@YA?AV?$shared_ptr@V?$basic_string@DU?$char_traits@D@std@@V?$allocator@D@2@@std@@@std@@V?$shared_ptr@V?$ScopedSSL@Uevp_pkey_st@@$1?ScopedEVP_PKEY_free@@YAXPEAX@Z@@@2@PEBUenv_md_st@@V12@@Z@4HA 0000000180030074 f   ec_dsa.obj
 0001:0002f080       ?dtor$0@?0??EC_DSA_verify@@YA_NV?$shared_ptr@V?$ScopedSSL@Uevp_pkey_st@@$1?ScopedEVP_PKEY_free@@YAXPEAX@Z@@@std@@PEBUenv_md_st@@V?$shared_ptr@V?$basic_string@DU?$char_traits@D@std@@V?$allocator@D@2@@std@@@2@2@Z@4HA 0000000180030080 f   ec_dsa.obj
 0001:0002f08c       ?dtor$1@?0??EC_DSA_verify@@YA_NV?$shared_ptr@V?$ScopedSSL@Uevp_pkey_st@@$1?ScopedEVP_PKEY_free@@YAXPEAX@Z@@@std@@PEBUenv_md_st@@V?$shared_ptr@V?$basic_string@DU?$char_traits@D@std@@V?$allocator@D@2@@std@@@2@2@Z@4HA 000000018003008c f   ec_dsa.obj
 0001:0002f098       ?dtor$2@?0??EC_DSA_verify@@YA_NV?$shared_ptr@V?$ScopedSSL@Uevp_pkey_st@@$1?ScopedEVP_PKEY_free@@YAXPEAX@Z@@@std@@PEBUenv_md_st@@V?$shared_ptr@V?$basic_string@DU?$char_traits@D@std@@V?$allocator@D@2@@std@@@2@2@Z@4HA 0000000180030098 f   ec_dsa.obj
 0001:0002f0a4       ?dtor$3@?0??EC_DSA_verify@@YA_NV?$shared_ptr@V?$ScopedSSL@Uevp_pkey_st@@$1?ScopedEVP_PKEY_free@@YAXPEAX@Z@@@std@@PEBUenv_md_st@@V?$shared_ptr@V?$basic_string@DU?$char_traits@D@std@@V?$allocator@D@2@@std@@@2@2@Z@4HA 00000001800300a4 f   ec_dsa.obj
 0001:0002f0b0       ?dtor$4@?0??EC_DSA_verify@@YA_NV?$shared_ptr@V?$ScopedSSL@Uevp_pkey_st@@$1?ScopedEVP_PKEY_free@@YAXPEAX@Z@@@std@@PEBUenv_md_st@@V?$shared_ptr@V?$basic_string@DU?$char_traits@D@std@@V?$allocator@D@2@@std@@@2@2@Z@4HA 00000001800300b0 f   ec_dsa.obj
 0001:0002f0bc       ?dtor$5@?0??EC_DSA_verify@@YA_NV?$shared_ptr@V?$ScopedSSL@Uevp_pkey_st@@$1?ScopedEVP_PKEY_free@@YAXPEAX@Z@@@std@@PEBUenv_md_st@@V?$shared_ptr@V?$basic_string@DU?$char_traits@D@std@@V?$allocator@D@2@@std@@@2@2@Z@4HA 00000001800300bc f   ec_dsa.obj
 0001:0002f0c8       ?dtor$6@?0??EC_DSA_verify@@YA_NV?$shared_ptr@V?$ScopedSSL@Uevp_pkey_st@@$1?ScopedEVP_PKEY_free@@YAXPEAX@Z@@@std@@PEBUenv_md_st@@V?$shared_ptr@V?$basic_string@DU?$char_traits@D@std@@V?$allocator@D@2@@std@@@2@2@Z@4HA 00000001800300c8 f   ec_dsa.obj
 0001:0002f0e0       ?dtor$0@?0??ECDH_derive_key@@YA?AV?$shared_ptr@V?$basic_string@DU?$char_traits@D@std@@V?$allocator@D@2@@std@@@std@@V?$shared_ptr@V?$ScopedSSL@Uevp_pkey_st@@$1?ScopedEVP_PKEY_free@@YAXPEAX@Z@@@2@0AEA_K@Z@4HA 00000001800300e0 f   ec_dh.obj
 0001:0002f0ec       ?dtor$1@?0??ECDH_derive_key@@YA?AV?$shared_ptr@V?$basic_string@DU?$char_traits@D@std@@V?$allocator@D@2@@std@@@std@@V?$shared_ptr@V?$ScopedSSL@Uevp_pkey_st@@$1?ScopedEVP_PKEY_free@@YAXPEAX@Z@@@2@0AEA_K@Z@4HA 00000001800300ec f   ec_dh.obj
 0001:0002f0f8       ?dtor$2@?0??ECDH_derive_key@@YA?AV?$shared_ptr@V?$basic_string@DU?$char_traits@D@std@@V?$allocator@D@2@@std@@@std@@V?$shared_ptr@V?$ScopedSSL@Uevp_pkey_st@@$1?ScopedEVP_PKEY_free@@YAXPEAX@Z@@@2@0AEA_K@Z@4HA 00000001800300f8 f   ec_dh.obj
 0001:0002f104       ?dtor$4@?0??ECDH_derive_key@@YA?AV?$shared_ptr@V?$basic_string@DU?$char_traits@D@std@@V?$allocator@D@2@@std@@@std@@V?$shared_ptr@V?$ScopedSSL@Uevp_pkey_st@@$1?ScopedEVP_PKEY_free@@YAXPEAX@Z@@@2@0AEA_K@Z@4HA 0000000180030104 f   ec_dh.obj
 0001:0002f12a       ?dtor$5@?0??ECDH_derive_key@@YA?AV?$shared_ptr@V?$basic_string@DU?$char_traits@D@std@@V?$allocator@D@2@@std@@@std@@V?$shared_ptr@V?$ScopedSSL@Uevp_pkey_st@@$1?ScopedEVP_PKEY_free@@YAXPEAX@Z@@@2@0AEA_K@Z@4HA 000000018003012a f   ec_dh.obj
 0001:0002f136       ?dtor$6@?0??ECDH_derive_key@@YA?AV?$shared_ptr@V?$basic_string@DU?$char_traits@D@std@@V?$allocator@D@2@@std@@@std@@V?$shared_ptr@V?$ScopedSSL@Uevp_pkey_st@@$1?ScopedEVP_PKEY_free@@YAXPEAX@Z@@@2@0AEA_K@Z@4HA 0000000180030136 f   ec_dh.obj
 0001:0002f142       ?dtor$7@?0??ECDH_derive_key@@YA?AV?$shared_ptr@V?$basic_string@DU?$char_traits@D@std@@V?$allocator@D@2@@std@@@std@@V?$shared_ptr@V?$ScopedSSL@Uevp_pkey_st@@$1?ScopedEVP_PKEY_free@@YAXPEAX@Z@@@2@0AEA_K@Z@4HA 0000000180030142 f   ec_dh.obj
 0001:0002f14e       ?dtor$8@?0??ECDH_derive_key@@YA?AV?$shared_ptr@V?$basic_string@DU?$char_traits@D@std@@V?$allocator@D@2@@std@@@std@@V?$shared_ptr@V?$ScopedSSL@Uevp_pkey_st@@$1?ScopedEVP_PKEY_free@@YAXPEAX@Z@@@2@0AEA_K@Z@4HA 000000018003014e f   ec_dh.obj
 0001:0002f15a       ?dtor$9@?0??ECDH_derive_key@@YA?AV?$shared_ptr@V?$basic_string@DU?$char_traits@D@std@@V?$allocator@D@2@@std@@@std@@V?$shared_ptr@V?$ScopedSSL@Uevp_pkey_st@@$1?ScopedEVP_PKEY_free@@YAXPEAX@Z@@@2@0AEA_K@Z@4HA 000000018003015a f   ec_dh.obj
 0001:0002f170       ?dtor$0@?0??EC_get_named_curve@@YAHPEAUec_key_st@@@Z@4HA 0000000180030170 f   ec_dh.obj
 0001:0002f170       ?dtor$0@?0??bn2buf@@YA?AV?$Local@VObject@v8@@@v8@@PEAUbignum_st@@@Z@4HA 0000000180030170 f   common.obj
 0001:0002f180       ?dtor$0@?0??ECDH_derive_bits@@YA?AV?$shared_ptr@V?$basic_string@DU?$char_traits@D@std@@V?$allocator@D@2@@std@@@std@@V?$shared_ptr@V?$ScopedSSL@Uevp_pkey_st@@$1?ScopedEVP_PKEY_free@@YAXPEAX@Z@@@2@0_NI@Z@4HA 0000000180030180 f   ec_dh.obj
 0001:0002f18c       ?dtor$1@?0??ECDH_derive_bits@@YA?AV?$shared_ptr@V?$basic_string@DU?$char_traits@D@std@@V?$allocator@D@2@@std@@@std@@V?$shared_ptr@V?$ScopedSSL@Uevp_pkey_st@@$1?ScopedEVP_PKEY_free@@YAXPEAX@Z@@@2@0_NI@Z@4HA 000000018003018c f   ec_dh.obj
 0001:0002f198       ?dtor$2@?0??ECDH_derive_bits@@YA?AV?$shared_ptr@V?$basic_string@DU?$char_traits@D@std@@V?$allocator@D@2@@std@@@std@@V?$shared_ptr@V?$ScopedSSL@Uevp_pkey_st@@$1?ScopedEVP_PKEY_free@@YAXPEAX@Z@@@2@0_NI@Z@4HA 0000000180030198 f   ec_dh.obj
 0001:0002f1a4       ?dtor$3@?0??ECDH_derive_bits@@YA?AV?$shared_ptr@V?$basic_string@DU?$char_traits@D@std@@V?$allocator@D@2@@std@@@std@@V?$shared_ptr@V?$ScopedSSL@Uevp_pkey_st@@$1?ScopedEVP_PKEY_free@@YAXPEAX@Z@@@2@0_NI@Z@4HA 00000001800301a4 f   ec_dh.obj
 0001:0002f1b0       ?dtor$4@?0??ECDH_derive_bits@@YA?AV?$shared_ptr@V?$basic_string@DU?$char_traits@D@std@@V?$allocator@D@2@@std@@@std@@V?$shared_ptr@V?$ScopedSSL@Uevp_pkey_st@@$1?ScopedEVP_PKEY_free@@YAXPEAX@Z@@@2@0_NI@Z@4HA 00000001800301b0 f   ec_dh.obj
 0001:0002f1bc       ?dtor$6@?0??ECDH_derive_bits@@YA?AV?$shared_ptr@V?$basic_string@DU?$char_traits@D@std@@V?$allocator@D@2@@std@@@std@@V?$shared_ptr@V?$ScopedSSL@Uevp_pkey_st@@$1?ScopedEVP_PKEY_free@@YAXPEAX@Z@@@2@0_NI@Z@4HA 00000001800301bc f   ec_dh.obj
 0001:0002f1c8       ?dtor$8@?0??ECDH_derive_bits@@YA?AV?$shared_ptr@V?$basic_string@DU?$char_traits@D@std@@V?$allocator@D@2@@std@@@std@@V?$shared_ptr@V?$ScopedSSL@Uevp_pkey_st@@$1?ScopedEVP_PKEY_free@@YAXPEAX@Z@@@2@0_NI@Z@4HA 00000001800301c8 f   ec_dh.obj
 0001:0002f1e0       ?dtor$0@?0??From@JwkEc@@SA?AV?$shared_ptr@VJwkEc@@@std@@V?$shared_ptr@V?$ScopedSSL@Uevp_pkey_st@@$1?ScopedEVP_PKEY_free@@YAXPEAX@Z@@@3@AEAH@Z@4HA 00000001800301e0 f   ec_jwk.obj
 0001:0002f1ec       ?dtor$2@?0??From@JwkEc@@SA?AV?$shared_ptr@VJwkEc@@@std@@V?$shared_ptr@V?$ScopedSSL@Uevp_pkey_st@@$1?ScopedEVP_PKEY_free@@YAXPEAX@Z@@@3@AEAH@Z@4HA 00000001800301ec f   ec_jwk.obj
 0001:0002f212       ?dtor$3@?0??From@JwkEc@@SA?AV?$shared_ptr@VJwkEc@@@std@@V?$shared_ptr@V?$ScopedSSL@Uevp_pkey_st@@$1?ScopedEVP_PKEY_free@@YAXPEAX@Z@@@3@AEAH@Z@4HA 0000000180030212 f   ec_jwk.obj
 0001:0002f21e       ?dtor$4@?0??From@JwkEc@@SA?AV?$shared_ptr@VJwkEc@@@std@@V?$shared_ptr@V?$ScopedSSL@Uevp_pkey_st@@$1?ScopedEVP_PKEY_free@@YAXPEAX@Z@@@3@AEAH@Z@4HA 000000018003021e f   ec_jwk.obj
 0001:0002f22a       ?dtor$5@?0??From@JwkEc@@SA?AV?$shared_ptr@VJwkEc@@@std@@V?$shared_ptr@V?$ScopedSSL@Uevp_pkey_st@@$1?ScopedEVP_PKEY_free@@YAXPEAX@Z@@@3@AEAH@Z@4HA 000000018003022a f   ec_jwk.obj
 0001:0002f236       ?dtor$6@?0??From@JwkEc@@SA?AV?$shared_ptr@VJwkEc@@@std@@V?$shared_ptr@V?$ScopedSSL@Uevp_pkey_st@@$1?ScopedEVP_PKEY_free@@YAXPEAX@Z@@@3@AEAH@Z@4HA 0000000180030236 f   ec_jwk.obj
 0001:0002f242       ?dtor$7@?0??From@JwkEc@@SA?AV?$shared_ptr@VJwkEc@@@std@@V?$shared_ptr@V?$ScopedSSL@Uevp_pkey_st@@$1?ScopedEVP_PKEY_free@@YAXPEAX@Z@@@3@AEAH@Z@4HA 0000000180030242 f   ec_jwk.obj
 0001:0002f250       ?dtor$0@?0??To@JwkEc@@QEAA?AV?$shared_ptr@V?$ScopedSSL@Uevp_pkey_st@@$1?ScopedEVP_PKEY_free@@YAXPEAX@Z@@@std@@AEAH@Z@4HA 0000000180030250 f   ec_jwk.obj
 0001:0002f25c       ?dtor$1@?0??To@JwkEc@@QEAA?AV?$shared_ptr@V?$ScopedSSL@Uevp_pkey_st@@$1?ScopedEVP_PKEY_free@@YAXPEAX@Z@@@std@@AEAH@Z@4HA 000000018003025c f   ec_jwk.obj
 0001:0002f268       ?dtor$2@?0??To@JwkEc@@QEAA?AV?$shared_ptr@V?$ScopedSSL@Uevp_pkey_st@@$1?ScopedEVP_PKEY_free@@YAXPEAX@Z@@@std@@AEAH@Z@4HA 0000000180030268 f   ec_jwk.obj
 0001:0002f274       ?dtor$3@?0??To@JwkEc@@QEAA?AV?$shared_ptr@V?$ScopedSSL@Uevp_pkey_st@@$1?ScopedEVP_PKEY_free@@YAXPEAX@Z@@@std@@AEAH@Z@4HA 0000000180030274 f   ec_jwk.obj
 0001:0002f280       ?dtor$4@?0??To@JwkEc@@QEAA?AV?$shared_ptr@V?$ScopedSSL@Uevp_pkey_st@@$1?ScopedEVP_PKEY_free@@YAXPEAX@Z@@@std@@AEAH@Z@4HA 0000000180030280 f   ec_jwk.obj
 0001:0002f28c       ?dtor$5@?0??To@JwkEc@@QEAA?AV?$shared_ptr@V?$ScopedSSL@Uevp_pkey_st@@$1?ScopedEVP_PKEY_free@@YAXPEAX@Z@@@std@@AEAH@Z@4HA 000000018003028c f   ec_jwk.obj
 0001:0002f298       ?dtor$6@?0??To@JwkEc@@QEAA?AV?$shared_ptr@V?$ScopedSSL@Uevp_pkey_st@@$1?ScopedEVP_PKEY_free@@YAXPEAX@Z@@@std@@AEAH@Z@4HA 0000000180030298 f   ec_jwk.obj
 0001:0002f2a4       ?dtor$7@?0??To@JwkEc@@QEAA?AV?$shared_ptr@V?$ScopedSSL@Uevp_pkey_st@@$1?ScopedEVP_PKEY_free@@YAXPEAX@Z@@@std@@AEAH@Z@4HA 00000001800302a4 f   ec_jwk.obj
 0001:0002f2b0       ?dtor$1@?0??generate@ScopedAES@@SA?AV?$shared_ptr@VScopedAES@@@std@@AEAH@Z@4HA 00000001800302b0 f   aes_gen.obj
 0001:0002f2c0       ?dtor$0@?0??AES_ECB_encrypt@@YA?AV?$shared_ptr@V?$basic_string@DU?$char_traits@D@std@@V?$allocator@D@2@@std@@@std@@V12@0_N@Z@4HA 00000001800302c0 f   aes_ecb.obj
 0001:0002f2cc       ?dtor$1@?0??AES_ECB_encrypt@@YA?AV?$shared_ptr@V?$basic_string@DU?$char_traits@D@std@@V?$allocator@D@2@@std@@@std@@V12@0_N@Z@4HA 00000001800302cc f   aes_ecb.obj
 0001:0002f2d8       ?dtor$2@?0??AES_ECB_encrypt@@YA?AV?$shared_ptr@V?$basic_string@DU?$char_traits@D@std@@V?$allocator@D@2@@std@@@std@@V12@0_N@Z@4HA 00000001800302d8 f   aes_ecb.obj
 0001:0002f2e4       ?dtor$3@?0??AES_ECB_encrypt@@YA?AV?$shared_ptr@V?$basic_string@DU?$char_traits@D@std@@V?$allocator@D@2@@std@@@std@@V12@0_N@Z@4HA 00000001800302e4 f   aes_ecb.obj
 0001:0002f2f0       ?dtor$5@?0??AES_ECB_encrypt@@YA?AV?$shared_ptr@V?$basic_string@DU?$char_traits@D@std@@V?$allocator@D@2@@std@@@std@@V12@0_N@Z@4HA 00000001800302f0 f   aes_ecb.obj
 0001:0002f316       ?dtor$6@?0??AES_ECB_encrypt@@YA?AV?$shared_ptr@V?$basic_string@DU?$char_traits@D@std@@V?$allocator@D@2@@std@@@std@@V12@0_N@Z@4HA 0000000180030316 f   aes_ecb.obj
 0001:0002f322       ?dtor$7@?0??AES_ECB_encrypt@@YA?AV?$shared_ptr@V?$basic_string@DU?$char_traits@D@std@@V?$allocator@D@2@@std@@@std@@V12@0_N@Z@4HA 0000000180030322 f   aes_ecb.obj
 0001:0002f32e       ?dtor$8@?0??AES_ECB_encrypt@@YA?AV?$shared_ptr@V?$basic_string@DU?$char_traits@D@std@@V?$allocator@D@2@@std@@@std@@V12@0_N@Z@4HA 000000018003032e f   aes_ecb.obj
 0001:0002f340       ?dtor$0@?0??decryptEcb@ScopedAES@@QEAA?AV?$shared_ptr@V?$basic_string@DU?$char_traits@D@std@@V?$allocator@D@2@@std@@@std@@V23@@Z@4HA 0000000180030340 f   aes_ecb.obj
 0001:0002f340       ?dtor$0@?0??encryptEcb@ScopedAES@@QEAA?AV?$shared_ptr@V?$basic_string@DU?$char_traits@D@std@@V?$allocator@D@2@@std@@@std@@V23@@Z@4HA 0000000180030340 f   aes_ecb.obj
 0001:0002f350       ?dtor$0@?0??AES_CBC_encrypt@@YA?AV?$shared_ptr@V?$basic_string@DU?$char_traits@D@std@@V?$allocator@D@2@@std@@@std@@V12@00_N@Z@4HA 0000000180030350 f   aes_cbc.obj
 0001:0002f35c       ?dtor$1@?0??AES_CBC_encrypt@@YA?AV?$shared_ptr@V?$basic_string@DU?$char_traits@D@std@@V?$allocator@D@2@@std@@@std@@V12@00_N@Z@4HA 000000018003035c f   aes_cbc.obj
 0001:0002f368       ?dtor$2@?0??AES_CBC_encrypt@@YA?AV?$shared_ptr@V?$basic_string@DU?$char_traits@D@std@@V?$allocator@D@2@@std@@@std@@V12@00_N@Z@4HA 0000000180030368 f   aes_cbc.obj
 0001:0002f374       ?dtor$3@?0??AES_CBC_encrypt@@YA?AV?$shared_ptr@V?$basic_string@DU?$char_traits@D@std@@V?$allocator@D@2@@std@@@std@@V12@00_N@Z@4HA 0000000180030374 f   aes_cbc.obj
 0001:0002f380       ?dtor$4@?0??AES_CBC_encrypt@@YA?AV?$shared_ptr@V?$basic_string@DU?$char_traits@D@std@@V?$allocator@D@2@@std@@@std@@V12@00_N@Z@4HA 0000000180030380 f   aes_cbc.obj
 0001:0002f38c       ?dtor$6@?0??AES_CBC_encrypt@@YA?AV?$shared_ptr@V?$basic_string@DU?$char_traits@D@std@@V?$allocator@D@2@@std@@@std@@V12@00_N@Z@4HA 000000018003038c f   aes_cbc.obj
 0001:0002f3b2       ?dtor$7@?0??AES_CBC_encrypt@@YA?AV?$shared_ptr@V?$basic_string@DU?$char_traits@D@std@@V?$allocator@D@2@@std@@@std@@V12@00_N@Z@4HA 00000001800303b2 f   aes_cbc.obj
 0001:0002f3be       ?dtor$8@?0??AES_CBC_encrypt@@YA?AV?$shared_ptr@V?$basic_string@DU?$char_traits@D@std@@V?$allocator@D@2@@std@@@std@@V12@00_N@Z@4HA 00000001800303be f   aes_cbc.obj
 0001:0002f3ca       ?dtor$9@?0??AES_CBC_encrypt@@YA?AV?$shared_ptr@V?$basic_string@DU?$char_traits@D@std@@V?$allocator@D@2@@std@@@std@@V12@00_N@Z@4HA 00000001800303ca f   aes_cbc.obj
 0001:0002f3e0       ?dtor$0@?0??decryptCbc@ScopedAES@@QEAA?AV?$shared_ptr@V?$basic_string@DU?$char_traits@D@std@@V?$allocator@D@2@@std@@@std@@V23@0@Z@4HA 00000001800303e0 f   aes_cbc.obj
 0001:0002f3e0       ?dtor$0@?0??encryptCtr@ScopedAES@@QEAA?AV?$shared_ptr@V?$basic_string@DU?$char_traits@D@std@@V?$allocator@D@2@@std@@@std@@V23@0H@Z@4HA 00000001800303e0 f   aes_ctr.obj
 0001:0002f3e0       ?dtor$0@?0??decryptCtr@ScopedAES@@QEAA?AV?$shared_ptr@V?$basic_string@DU?$char_traits@D@std@@V?$allocator@D@2@@std@@@std@@V23@0H@Z@4HA 00000001800303e0 f   aes_ctr.obj
 0001:0002f3e0       ?dtor$0@?0??encryptCbc@ScopedAES@@QEAA?AV?$shared_ptr@V?$basic_string@DU?$char_traits@D@std@@V?$allocator@D@2@@std@@@std@@V23@0@Z@4HA 00000001800303e0 f   aes_cbc.obj
 0001:0002f3ec       ?dtor$1@?0??encryptCbc@ScopedAES@@QEAA?AV?$shared_ptr@V?$basic_string@DU?$char_traits@D@std@@V?$allocator@D@2@@std@@@std@@V23@0@Z@4HA 00000001800303ec f   aes_cbc.obj
 0001:0002f3ec       ?dtor$1@?0??encryptCtr@ScopedAES@@QEAA?AV?$shared_ptr@V?$basic_string@DU?$char_traits@D@std@@V?$allocator@D@2@@std@@@std@@V23@0H@Z@4HA 00000001800303ec f   aes_ctr.obj
 0001:0002f3ec       ?dtor$1@?0??decryptCtr@ScopedAES@@QEAA?AV?$shared_ptr@V?$basic_string@DU?$char_traits@D@std@@V?$allocator@D@2@@std@@@std@@V23@0H@Z@4HA 00000001800303ec f   aes_ctr.obj
 0001:0002f3ec       ?dtor$1@?0??decryptCbc@ScopedAES@@QEAA?AV?$shared_ptr@V?$basic_string@DU?$char_traits@D@std@@V?$allocator@D@2@@std@@@std@@V23@0@Z@4HA 00000001800303ec f   aes_cbc.obj
 0001:0002f400       ?dtor$0@?0??wrap@ScopedAES@@QEAA?AV?$shared_ptr@V?$basic_string@DU?$char_traits@D@std@@V?$allocator@D@2@@std@@@std@@V23@@Z@4HA 0000000180030400 f   aes_cbc.obj
 0001:0002f400       ?dtor$0@?0??unwrap@ScopedAES@@QEAA?AV?$shared_ptr@V?$basic_string@DU?$char_traits@D@std@@V?$allocator@D@2@@std@@@std@@V23@@Z@4HA 0000000180030400 f   aes_cbc.obj
 0001:0002f40c       ?dtor$1@?0??unwrap@ScopedAES@@QEAA?AV?$shared_ptr@V?$basic_string@DU?$char_traits@D@std@@V?$allocator@D@2@@std@@@std@@V23@@Z@4HA 000000018003040c f   aes_cbc.obj
 0001:0002f40c       ?dtor$1@?0??wrap@ScopedAES@@QEAA?AV?$shared_ptr@V?$basic_string@DU?$char_traits@D@std@@V?$allocator@D@2@@std@@@std@@V23@@Z@4HA 000000018003040c f   aes_cbc.obj
 0001:0002f418       ?dtor$3@?0??wrap@ScopedAES@@QEAA?AV?$shared_ptr@V?$basic_string@DU?$char_traits@D@std@@V?$allocator@D@2@@std@@@std@@V23@@Z@4HA 0000000180030418 f   aes_cbc.obj
 0001:0002f418       ?dtor$3@?0??unwrap@ScopedAES@@QEAA?AV?$shared_ptr@V?$basic_string@DU?$char_traits@D@std@@V?$allocator@D@2@@std@@@std@@V23@@Z@4HA 0000000180030418 f   aes_cbc.obj
 0001:0002f43e       ?dtor$4@?0??wrap@ScopedAES@@QEAA?AV?$shared_ptr@V?$basic_string@DU?$char_traits@D@std@@V?$allocator@D@2@@std@@@std@@V23@@Z@4HA 000000018003043e f   aes_cbc.obj
 0001:0002f43e       ?dtor$4@?0??unwrap@ScopedAES@@QEAA?AV?$shared_ptr@V?$basic_string@DU?$char_traits@D@std@@V?$allocator@D@2@@std@@@std@@V23@@Z@4HA 000000018003043e f   aes_cbc.obj
 0001:0002f450       ?dtor$0@?0??AES_GCM_encrypt@@YA?AV?$shared_ptr@V?$basic_string@DU?$char_traits@D@std@@V?$allocator@D@2@@std@@@std@@V12@000H@Z@4HA 0000000180030450 f   aes_gcm.obj
 0001:0002f45c       ?dtor$1@?0??AES_GCM_encrypt@@YA?AV?$shared_ptr@V?$basic_string@DU?$char_traits@D@std@@V?$allocator@D@2@@std@@@std@@V12@000H@Z@4HA 000000018003045c f   aes_gcm.obj
 0001:0002f468       ?dtor$2@?0??AES_GCM_encrypt@@YA?AV?$shared_ptr@V?$basic_string@DU?$char_traits@D@std@@V?$allocator@D@2@@std@@@std@@V12@000H@Z@4HA 0000000180030468 f   aes_gcm.obj
 0001:0002f474       ?dtor$3@?0??AES_GCM_encrypt@@YA?AV?$shared_ptr@V?$basic_string@DU?$char_traits@D@std@@V?$allocator@D@2@@std@@@std@@V12@000H@Z@4HA 0000000180030474 f   aes_gcm.obj
 0001:0002f480       ?dtor$5@?0??AES_GCM_encrypt@@YA?AV?$shared_ptr@V?$basic_string@DU?$char_traits@D@std@@V?$allocator@D@2@@std@@@std@@V12@000H@Z@4HA 0000000180030480 f   aes_gcm.obj
 0001:0002f4a6       ?dtor$6@?0??AES_GCM_encrypt@@YA?AV?$shared_ptr@V?$basic_string@DU?$char_traits@D@std@@V?$allocator@D@2@@std@@@std@@V12@000H@Z@4HA 00000001800304a6 f   aes_gcm.obj
 0001:0002f4b2       ?dtor$7@?0??AES_GCM_encrypt@@YA?AV?$shared_ptr@V?$basic_string@DU?$char_traits@D@std@@V?$allocator@D@2@@std@@@std@@V12@000H@Z@4HA 00000001800304b2 f   aes_gcm.obj
 0001:0002f4be       ?dtor$8@?0??AES_GCM_encrypt@@YA?AV?$shared_ptr@V?$basic_string@DU?$char_traits@D@std@@V?$allocator@D@2@@std@@@std@@V12@000H@Z@4HA 00000001800304be f   aes_gcm.obj
 0001:0002f4ca       ?dtor$9@?0??AES_GCM_encrypt@@YA?AV?$shared_ptr@V?$basic_string@DU?$char_traits@D@std@@V?$allocator@D@2@@std@@@std@@V12@000H@Z@4HA 00000001800304ca f   aes_gcm.obj
 0001:0002f4d6       ?dtor$10@?0??AES_GCM_encrypt@@YA?AV?$shared_ptr@V?$basic_string@DU?$char_traits@D@std@@V?$allocator@D@2@@std@@@std@@V12@000H@Z@4HA 00000001800304d6 f   aes_gcm.obj
 0001:0002f4e2       ?dtor$11@?0??AES_GCM_encrypt@@YA?AV?$shared_ptr@V?$basic_string@DU?$char_traits@D@std@@V?$allocator@D@2@@std@@@std@@V12@000H@Z@4HA 00000001800304e2 f   aes_gcm.obj
 0001:0002f4ee       ?dtor$12@?0??AES_GCM_encrypt@@YA?AV?$shared_ptr@V?$basic_string@DU?$char_traits@D@std@@V?$allocator@D@2@@std@@@std@@V12@000H@Z@4HA 00000001800304ee f   aes_gcm.obj
 0001:0002f4fa       ?dtor$13@?0??AES_GCM_encrypt@@YA?AV?$shared_ptr@V?$basic_string@DU?$char_traits@D@std@@V?$allocator@D@2@@std@@@std@@V12@000H@Z@4HA 00000001800304fa f   aes_gcm.obj
 0001:0002f506       ?dtor$14@?0??AES_GCM_encrypt@@YA?AV?$shared_ptr@V?$basic_string@DU?$char_traits@D@std@@V?$allocator@D@2@@std@@@std@@V12@000H@Z@4HA 0000000180030506 f   aes_gcm.obj
 0001:0002f520       ?dtor$0@?0??AES_GCM_decrypt@@YA?AV?$shared_ptr@V?$basic_string@DU?$char_traits@D@std@@V?$allocator@D@2@@std@@@std@@V12@000H@Z@4HA 0000000180030520 f   aes_gcm.obj
 0001:0002f52c       ?dtor$1@?0??AES_GCM_decrypt@@YA?AV?$shared_ptr@V?$basic_string@DU?$char_traits@D@std@@V?$allocator@D@2@@std@@@std@@V12@000H@Z@4HA 000000018003052c f   aes_gcm.obj
 0001:0002f538       ?dtor$2@?0??AES_GCM_decrypt@@YA?AV?$shared_ptr@V?$basic_string@DU?$char_traits@D@std@@V?$allocator@D@2@@std@@@std@@V12@000H@Z@4HA 0000000180030538 f   aes_gcm.obj
 0001:0002f544       ?dtor$3@?0??AES_GCM_decrypt@@YA?AV?$shared_ptr@V?$basic_string@DU?$char_traits@D@std@@V?$allocator@D@2@@std@@@std@@V12@000H@Z@4HA 0000000180030544 f   aes_gcm.obj
 0001:0002f550       ?dtor$5@?0??AES_GCM_decrypt@@YA?AV?$shared_ptr@V?$basic_string@DU?$char_traits@D@std@@V?$allocator@D@2@@std@@@std@@V12@000H@Z@4HA 0000000180030550 f   aes_gcm.obj
 0001:0002f576       ?dtor$6@?0??AES_GCM_decrypt@@YA?AV?$shared_ptr@V?$basic_string@DU?$char_traits@D@std@@V?$allocator@D@2@@std@@@std@@V12@000H@Z@4HA 0000000180030576 f   aes_gcm.obj
 0001:0002f582       ?dtor$7@?0??AES_GCM_decrypt@@YA?AV?$shared_ptr@V?$basic_string@DU?$char_traits@D@std@@V?$allocator@D@2@@std@@@std@@V12@000H@Z@4HA 0000000180030582 f   aes_gcm.obj
 0001:0002f58e       ?dtor$8@?0??AES_GCM_decrypt@@YA?AV?$shared_ptr@V?$basic_string@DU?$char_traits@D@std@@V?$allocator@D@2@@std@@@std@@V12@000H@Z@4HA 000000018003058e f   aes_gcm.obj
 0001:0002f59a       ?dtor$9@?0??AES_GCM_decrypt@@YA?AV?$shared_ptr@V?$basic_string@DU?$char_traits@D@std@@V?$allocator@D@2@@std@@@std@@V12@000H@Z@4HA 000000018003059a f   aes_gcm.obj
 0001:0002f5a6       ?dtor$10@?0??AES_GCM_decrypt@@YA?AV?$shared_ptr@V?$basic_string@DU?$char_traits@D@std@@V?$allocator@D@2@@std@@@std@@V12@000H@Z@4HA 00000001800305a6 f   aes_gcm.obj
 0001:0002f5b2       ?dtor$11@?0??AES_GCM_decrypt@@YA?AV?$shared_ptr@V?$basic_string@DU?$char_traits@D@std@@V?$allocator@D@2@@std@@@std@@V12@000H@Z@4HA 00000001800305b2 f   aes_gcm.obj
 0001:0002f5be       ?dtor$12@?0??AES_GCM_decrypt@@YA?AV?$shared_ptr@V?$basic_string@DU?$char_traits@D@std@@V?$allocator@D@2@@std@@@std@@V12@000H@Z@4HA 00000001800305be f   aes_gcm.obj
 0001:0002f5ca       ?dtor$13@?0??AES_GCM_decrypt@@YA?AV?$shared_ptr@V?$basic_string@DU?$char_traits@D@std@@V?$allocator@D@2@@std@@@std@@V12@000H@Z@4HA 00000001800305ca f   aes_gcm.obj
 0001:0002f5d6       ?dtor$14@?0??AES_GCM_decrypt@@YA?AV?$shared_ptr@V?$basic_string@DU?$char_traits@D@std@@V?$allocator@D@2@@std@@@std@@V12@000H@Z@4HA 00000001800305d6 f   aes_gcm.obj
 0001:0002f5e2       ?dtor$15@?0??AES_GCM_decrypt@@YA?AV?$shared_ptr@V?$basic_string@DU?$char_traits@D@std@@V?$allocator@D@2@@std@@@std@@V12@000H@Z@4HA 00000001800305e2 f   aes_gcm.obj
 0001:0002f5f0       ?dtor$0@?0??decryptGcm@ScopedAES@@QEAA?AV?$shared_ptr@V?$basic_string@DU?$char_traits@D@std@@V?$allocator@D@2@@std@@@std@@V23@00H@Z@4HA 00000001800305f0 f   aes_gcm.obj
 0001:0002f5f0       ?dtor$0@?0??encryptGcm@ScopedAES@@QEAA?AV?$shared_ptr@V?$basic_string@DU?$char_traits@D@std@@V?$allocator@D@2@@std@@@std@@V23@00H@Z@4HA 00000001800305f0 f   aes_gcm.obj
 0001:0002f5fc       ?dtor$1@?0??decryptGcm@ScopedAES@@QEAA?AV?$shared_ptr@V?$basic_string@DU?$char_traits@D@std@@V?$allocator@D@2@@std@@@std@@V23@00H@Z@4HA 00000001800305fc f   aes_gcm.obj
 0001:0002f5fc       ?dtor$1@?0??encryptGcm@ScopedAES@@QEAA?AV?$shared_ptr@V?$basic_string@DU?$char_traits@D@std@@V?$allocator@D@2@@std@@@std@@V23@00H@Z@4HA 00000001800305fc f   aes_gcm.obj
 0001:0002f608       ?dtor$2@?0??decryptGcm@ScopedAES@@QEAA?AV?$shared_ptr@V?$basic_string@DU?$char_traits@D@std@@V?$allocator@D@2@@std@@@std@@V23@00H@Z@4HA 0000000180030608 f   aes_gcm.obj
 0001:0002f608       ?dtor$2@?0??encryptGcm@ScopedAES@@QEAA?AV?$shared_ptr@V?$basic_string@DU?$char_traits@D@std@@V?$allocator@D@2@@std@@@std@@V23@00H@Z@4HA 0000000180030608 f   aes_gcm.obj
 0001:0002f620       ?dtor$0@?0??AES_CTR_encrypt@@YA?AV?$shared_ptr@V?$basic_string@DU?$char_traits@D@std@@V?$allocator@D@2@@std@@@std@@V12@00H_N@Z@4HA 0000000180030620 f   aes_ctr.obj
 0001:0002f62c       ?dtor$1@?0??AES_CTR_encrypt@@YA?AV?$shared_ptr@V?$basic_string@DU?$char_traits@D@std@@V?$allocator@D@2@@std@@@std@@V12@00H_N@Z@4HA 000000018003062c f   aes_ctr.obj
 0001:0002f638       ?dtor$2@?0??AES_CTR_encrypt@@YA?AV?$shared_ptr@V?$basic_string@DU?$char_traits@D@std@@V?$allocator@D@2@@std@@@std@@V12@00H_N@Z@4HA 0000000180030638 f   aes_ctr.obj
 0001:0002f644       ?dtor$3@?0??AES_CTR_encrypt@@YA?AV?$shared_ptr@V?$basic_string@DU?$char_traits@D@std@@V?$allocator@D@2@@std@@@std@@V12@00H_N@Z@4HA 0000000180030644 f   aes_ctr.obj
 0001:0002f650       ?dtor$4@?0??AES_CTR_encrypt@@YA?AV?$shared_ptr@V?$basic_string@DU?$char_traits@D@std@@V?$allocator@D@2@@std@@@std@@V12@00H_N@Z@4HA 0000000180030650 f   aes_ctr.obj
 0001:0002f66d       ?dtor$5@?0??AES_CTR_encrypt@@YA?AV?$shared_ptr@V?$basic_string@DU?$char_traits@D@std@@V?$allocator@D@2@@std@@@std@@V12@00H_N@Z@4HA 000000018003066d f   aes_ctr.obj
 0001:0002f6a0       ?dtor$1@?0??generate@ScopedHMAC@@SA?AV?$shared_ptr@VScopedHMAC@@@std@@AEAH@Z@4HA 00000001800306a0 f   hmac_gen.obj
 0001:0002f6b0       ?dtor$0@?0??sign@ScopedHMAC@@QEAA?AV?$shared_ptr@V?$basic_string@DU?$char_traits@D@std@@V?$allocator@D@2@@std@@@std@@V23@PEBUenv_md_st@@@Z@4HA 00000001800306b0 f   hmac_sign.obj
 0001:0002f6b0       ?dtor$0@?0??deriveBits@ScopedPbkdf2@@QEAA?AV?$shared_ptr@V?$basic_string@DU?$char_traits@D@std@@V?$allocator@D@2@@std@@@std@@V23@_KPEBUenv_md_st@@1@Z@4HA 00000001800306b0 f   pbkdf2_derive.obj
 0001:0002f6bc       ?dtor$2@?0??sign@ScopedHMAC@@QEAA?AV?$shared_ptr@V?$basic_string@DU?$char_traits@D@std@@V?$allocator@D@2@@std@@@std@@V23@PEBUenv_md_st@@@Z@4HA 00000001800306bc f   hmac_sign.obj
 0001:0002f6bc       ?dtor$2@?0??deriveBits@ScopedPbkdf2@@QEAA?AV?$shared_ptr@V?$basic_string@DU?$char_traits@D@std@@V?$allocator@D@2@@std@@@std@@V23@_KPEBUenv_md_st@@1@Z@4HA 00000001800306bc f   pbkdf2_derive.obj
 0001:0002f6e2       ?dtor$3@?0??sign@ScopedHMAC@@QEAA?AV?$shared_ptr@V?$basic_string@DU?$char_traits@D@std@@V?$allocator@D@2@@std@@@std@@V23@PEBUenv_md_st@@@Z@4HA 00000001800306e2 f   hmac_sign.obj
 0001:0002f6e2       ?dtor$3@?0??deriveBits@ScopedPbkdf2@@QEAA?AV?$shared_ptr@V?$basic_string@DU?$char_traits@D@std@@V?$allocator@D@2@@std@@@std@@V23@_KPEBUenv_md_st@@1@Z@4HA 00000001800306e2 f   pbkdf2_derive.obj
 0001:0002f6f0       ?dtor$0@?0??verify@ScopedHMAC@@QEAA_NV?$shared_ptr@V?$basic_string@DU?$char_traits@D@std@@V?$allocator@D@2@@std@@@std@@PEBUenv_md_st@@0@Z@4HA 00000001800306f0 f   hmac_sign.obj
 0001:0002f6fc       ?dtor$1@?0??verify@ScopedHMAC@@QEAA_NV?$shared_ptr@V?$basic_string@DU?$char_traits@D@std@@V?$allocator@D@2@@std@@@std@@PEBUenv_md_st@@0@Z@4HA 00000001800306fc f   hmac_sign.obj
 0001:0002f710       ?dtor$0@?0??v8Buffer_to_String@@YA?AV?$shared_ptr@V?$basic_string@DU?$char_traits@D@std@@V?$allocator@D@2@@std@@@std@@V?$Local@VObject@v8@@@v8@@@Z@4HA 0000000180030710 f   common.obj
 0001:0002f730       ?dtor$0@?0??String_to_v8Buffer@@YA?AV?$Local@VObject@v8@@@v8@@V?$shared_ptr@V?$basic_string@DU?$char_traits@D@std@@V?$allocator@D@2@@std@@@std@@@Z@4HA 0000000180030730 f   common.obj
 0001:0002f730       ?dtor$0@?0???0AsyncEcExportJwk@@QEAA@PEAVCallback@Nan@@HV?$shared_ptr@V?$ScopedSSL@Uevp_pkey_st@@$1?ScopedEVP_PKEY_free@@YAXPEAX@Z@@@std@@@Z@4HA 0000000180030730 f   w_key.obj
 0001:0002f730       ?dtor$0@?0???0AsyncExportJwkRsa@@QEAA@PEAVCallback@Nan@@HV?$shared_ptr@V?$ScopedSSL@Uevp_pkey_st@@$1?ScopedEVP_PKEY_free@@YAXPEAX@Z@@@std@@@Z@4HA 0000000180030730 f   w_key.obj
 0001:0002f740       ?dtor$0@?0??NewInstance@Nan@@YA?AV?$MaybeLocal@VObject@v8@@@v8@@V?$Local@VFunction@v8@@@3@HQEAV?$Local@VValue@v8@@@3@@Z@4HA 0000000180030740 f   w_key.obj
 0001:0002f740       ?dtor$0@?0??NewInstance@Nan@@YA?AV?$MaybeLocal@VObject@v8@@@v8@@V?$Local@VFunction@v8@@@3@@Z@4HA 0000000180030740 f   w_key.obj
 0001:0002f750       ?dtor$0@?0??convert@?$ToFactory@VNumber@v8@@@imp@Nan@@SA?AV?$MaybeLocal@VNumber@v8@@@v8@@V?$Local@VValue@v8@@@5@@Z@4HA 0000000180030750 f   w_pbkdf2.obj
 0001:0002f750       ?dtor$0@?0??NewInstance@Nan@@YA?AV?$MaybeLocal@VObject@v8@@@v8@@V?$Local@VObjectTemplate@v8@@@3@@Z@4HA 0000000180030750 f   w_key.obj
 0001:0002f750       ?dtor$0@?0??Get@Nan@@YA?AV?$MaybeLocal@VValue@v8@@@v8@@V?$Local@VObject@v8@@@3@V?$Local@VValue@v8@@@3@@Z@4HA 0000000180030750 f   w_key.obj
 0001:0002f750       ?dtor$0@?0??GetFunction@Nan@@YA?AV?$MaybeLocal@VFunction@v8@@@v8@@V?$Local@VFunctionTemplate@v8@@@3@@Z@4HA 0000000180030750 f   w_key.obj
 0001:0002f750       ?dtor$0@?0??convert@?$ToFactory@VObject@v8@@@imp@Nan@@SA?AV?$MaybeLocal@VObject@v8@@@v8@@V?$Local@VValue@v8@@@5@@Z@4HA 0000000180030750 f   w_key.obj
 0001:0002f760       ?dtor$0@?0??Set@Nan@@YA?AV?$Maybe@_N@v8@@V?$Local@VObject@v8@@@3@V?$Local@VValue@v8@@@3@1@Z@4HA 0000000180030760 f   w_key.obj
 0001:0002f770       ?dtor$0@?0??Call@Nan@@YA?AV?$MaybeLocal@VValue@v8@@@v8@@V?$Local@VFunction@v8@@@3@V?$Local@VObject@v8@@@3@HQEAV?$Local@VValue@v8@@@3@@Z@4HA 0000000180030770 f   w_aes.obj
 0001:0002f770       ?dtor$0@?0??CallAsFunction@Nan@@YA?AV?$MaybeLocal@VValue@v8@@@v8@@V?$Local@VObject@v8@@@3@0HQEAV?$Local@VValue@v8@@@3@@Z@4HA 0000000180030770 f   w_key.obj
 0001:0002f770       ?dtor$0@?0??Call@Callback@Nan@@QEBA?AV?$MaybeLocal@VValue@v8@@@v8@@HQEAV?$Local@VValue@v8@@@4@PEAVAsyncResource@2@@Z@4HA 0000000180030770 f   w_key.obj
 0001:0002f780       ?dtor$0@?0??convert@?$ToFactory@H@imp@Nan@@SA?AV?$Maybe@H@v8@@V?$Local@VValue@v8@@@5@@Z@4HA 0000000180030780 f   w_key.obj
 0001:0002f790       ?dtor$0@?0??New@?$Factory@VFunctionTemplate@v8@@@imp@Nan@@SA?AV?$Local@VFunctionTemplate@v8@@@v8@@P6AXAEBV?$FunctionCallbackInfo@VValue@v8@@@3@@ZV?$Local@VValue@v8@@@5@V?$Local@VSignature@v8@@@5@@Z@4HA 0000000180030790 f   w_key.obj
 0001:0002f7a0       ?dtor$0@?0??HandleOKCallback@AsyncWorker@Nan@@MEAAXXZ@4HA 00000001800307a0 f   w_key.obj
 0001:0002f7a0       ?dtor$0@?0??HandleErrorCallback@AsyncWorker@Nan@@MEAAXXZ@4HA 00000001800307a0 f   w_key.obj
 0001:0002f7a0       ?dtor$0@?0??Call_@Callback@Nan@@AEBA?AV?$Local@VValue@v8@@@v8@@PEAVIsolate@4@V?$Local@VObject@v8@@@4@HQEAV34@@Z@4HA 00000001800307a0 f   w_key.obj
 0001:0002f7a0       ?dtor$0@?0??ThrowError@Nan@@YAXPEBD@Z@4HA 00000001800307a0 f   w_key.obj
 0001:0002f7b0       ?dtor$0@?0???0AsyncWorker@Nan@@QEAA@PEAVCallback@1@PEBD@Z@4HA 00000001800307b0 f   w_key.obj
 0001:0002f7c3       ?dtor$1@?0???0AsyncWorker@Nan@@QEAA@PEAVCallback@1@PEBD@Z@4HA 00000001800307c3 f   w_key.obj
 0001:0002f7d0       ?dtor$1@?0??Init@WPbkdf2@@SAXV?$Local@VObject@v8@@@v8@@@Z@4HA 00000001800307d0 f   w_pbkdf2.obj
 0001:0002f7d0       ?dtor$1@?0??Init@WCore@@SAXV?$Local@VObject@v8@@@v8@@@Z@4HA 00000001800307d0 f   w_core.obj
 0001:0002f7d0       ?dtor$0@?0??SetPrototypeMethod@Nan@@YAXV?$Local@VFunctionTemplate@v8@@@v8@@PEBDP6AXAEBV?$FunctionCallbackInfo@VValue@v8@@@1@@Z@Z@4HA 00000001800307d0 f   w_key.obj
 0001:0002f7e0       ?dtor$0@?0??SetAccessor@Nan@@YAXV?$Local@VObjectTemplate@v8@@@v8@@V?$Local@VString@v8@@@3@P6AX1AEBV?$PropertyCallbackInfo@VValue@v8@@@1@@ZP6AX1V?$Local@VValue@v8@@@3@AEBV?$PropertyCallbackInfo@X@1@@Z4W4AccessControl@3@W4PropertyAttribute@3@V?$Local@VAccessorSignature@v8@@@3@@Z@4HA 00000001800307e0 f   w_key.obj
 0001:0002f7f0       ?dtor$0@?0???0AsyncEncrypDecryptRsaOAEP@@QEAA@PEAVCallback@Nan@@V?$shared_ptr@V?$ScopedSSL@Uevp_pkey_st@@$1?ScopedEVP_PKEY_free@@YAXPEAX@Z@@@std@@PEBUenv_md_st@@V?$shared_ptr@V?$basic_string@DU?$char_traits@D@std@@V?$allocator@D@2@@std@@@4@3_N@Z@4HA 00000001800307f0 f   w_key.obj
 0001:0002f7fc       ?dtor$1@?0???0AsyncEncrypDecryptRsaOAEP@@QEAA@PEAVCallback@Nan@@V?$shared_ptr@V?$ScopedSSL@Uevp_pkey_st@@$1?ScopedEVP_PKEY_free@@YAXPEAX@Z@@@std@@PEBUenv_md_st@@V?$shared_ptr@V?$basic_string@DU?$char_traits@D@std@@V?$allocator@D@2@@std@@@4@3_N@Z@4HA 00000001800307fc f   w_key.obj
 0001:0002f808       ?dtor$2@?0???0AsyncEncrypDecryptRsaOAEP@@QEAA@PEAVCallback@Nan@@V?$shared_ptr@V?$ScopedSSL@Uevp_pkey_st@@$1?ScopedEVP_PKEY_free@@YAXPEAX@Z@@@std@@PEBUenv_md_st@@V?$shared_ptr@V?$basic_string@DU?$char_traits@D@std@@V?$allocator@D@2@@std@@@4@3_N@Z@4HA 0000000180030808 f   w_key.obj
 0001:0002f820       ?dtor$0@?0???0AsyncImportPkcs8@@QEAA@PEAVCallback@Nan@@V?$shared_ptr@V?$basic_string@DU?$char_traits@D@std@@V?$allocator@D@2@@std@@@std@@@Z@4HA 0000000180030820 f   w_key.obj
 0001:0002f820       ?dtor$0@?0???0AsyncImportJwkRsa@@QEAA@PEAVCallback@Nan@@V?$shared_ptr@VJwkRsa@@@std@@H@Z@4HA 0000000180030820 f   w_key.obj
 0001:0002f820       ?dtor$0@?0???0AsyncExportPkcs8@@QEAA@PEAVCallback@Nan@@V?$shared_ptr@V?$ScopedSSL@Uevp_pkey_st@@$1?ScopedEVP_PKEY_free@@YAXPEAX@Z@@@std@@@Z@4HA 0000000180030820 f   w_key.obj
 0001:0002f820       ?dtor$0@?0???0AsyncHmacImport@@QEAA@PEAVCallback@Nan@@V?$shared_ptr@V?$basic_string@DU?$char_traits@D@std@@V?$allocator@D@2@@std@@@std@@@Z@4HA 0000000180030820 f   w_hmac.obj
 0001:0002f820       ?dtor$0@?0???0AsyncPbkdf2Import@@QEAA@PEAVCallback@Nan@@V?$shared_ptr@V?$basic_string@DU?$char_traits@D@std@@V?$allocator@D@2@@std@@@std@@@Z@4HA 0000000180030820 f   w_pbkdf2.obj
 0001:0002f820       ?dtor$0@?0???0AsyncAesImport@@QEAA@PEAVCallback@Nan@@V?$shared_ptr@V?$basic_string@DU?$char_traits@D@std@@V?$allocator@D@2@@std@@@std@@@Z@4HA 0000000180030820 f   w_aes.obj
 0001:0002f820       ?dtor$0@?0???0AsyncExportSpki@@QEAA@PEAVCallback@Nan@@V?$shared_ptr@V?$ScopedSSL@Uevp_pkey_st@@$1?ScopedEVP_PKEY_free@@YAXPEAX@Z@@@std@@@Z@4HA 0000000180030820 f   w_key.obj
 0001:0002f820       ?dtor$0@?0???0AsyncEcImportJwk@@QEAA@PEAVCallback@Nan@@V?$shared_ptr@VJwkEc@@@std@@H@Z@4HA 0000000180030820 f   w_key.obj
 0001:0002f820       ?dtor$0@?0???0AsyncHmacExport@@QEAA@PEAVCallback@Nan@@V?$shared_ptr@VScopedHMAC@@@std@@@Z@4HA 0000000180030820 f   w_hmac.obj
 0001:0002f820       ?dtor$0@?0???0AsyncImportSpki@@QEAA@PEAVCallback@Nan@@V?$shared_ptr@V?$basic_string@DU?$char_traits@D@std@@V?$allocator@D@2@@std@@@std@@@Z@4HA 0000000180030820 f   w_key.obj
 0001:0002f820       ?dtor$0@?0???0AsyncAesExport@@QEAA@PEAVCallback@Nan@@V?$shared_ptr@VScopedAES@@@std@@@Z@4HA 0000000180030820 f   w_aes.obj
 0001:0002f830       ?dtor$0@?0???0AsyncSignRsa@@QEAA@PEAVCallback@Nan@@PEBUenv_md_st@@V?$shared_ptr@V?$ScopedSSL@Uevp_pkey_st@@$1?ScopedEVP_PKEY_free@@YAXPEAX@Z@@@std@@V?$shared_ptr@V?$basic_string@DU?$char_traits@D@std@@V?$allocator@D@2@@std@@@5@@Z@4HA 0000000180030830 f   w_key.obj
 0001:0002f830       ?dtor$0@?0???0AsyncEcdsaSign@@QEAA@PEAVCallback@Nan@@PEBUenv_md_st@@V?$shared_ptr@V?$ScopedSSL@Uevp_pkey_st@@$1?ScopedEVP_PKEY_free@@YAXPEAX@Z@@@std@@V?$shared_ptr@V?$basic_string@DU?$char_traits@D@std@@V?$allocator@D@2@@std@@@5@@Z@4HA 0000000180030830 f   w_key.obj
 0001:0002f830       ?dtor$0@?0???0AsyncHmacSign@@QEAA@PEAVCallback@Nan@@PEBUenv_md_st@@V?$shared_ptr@VScopedHMAC@@@std@@V?$shared_ptr@V?$basic_string@DU?$char_traits@D@std@@V?$allocator@D@2@@std@@@5@@Z@4HA 0000000180030830 f   w_hmac.obj
 0001:0002f83c       ?dtor$1@?0???0AsyncSignRsa@@QEAA@PEAVCallback@Nan@@PEBUenv_md_st@@V?$shared_ptr@V?$ScopedSSL@Uevp_pkey_st@@$1?ScopedEVP_PKEY_free@@YAXPEAX@Z@@@std@@V?$shared_ptr@V?$basic_string@DU?$char_traits@D@std@@V?$allocator@D@2@@std@@@5@@Z@4HA 000000018003083c f   w_key.obj
 0001:0002f83c       ?dtor$1@?0???0AsyncHmacSign@@QEAA@PEAVCallback@Nan@@PEBUenv_md_st@@V?$shared_ptr@VScopedHMAC@@@std@@V?$shared_ptr@V?$basic_string@DU?$char_traits@D@std@@V?$allocator@D@2@@std@@@5@@Z@4HA 000000018003083c f   w_hmac.obj
 0001:0002f83c       ?dtor$1@?0???0AsyncEcdsaSign@@QEAA@PEAVCallback@Nan@@PEBUenv_md_st@@V?$shared_ptr@V?$ScopedSSL@Uevp_pkey_st@@$1?ScopedEVP_PKEY_free@@YAXPEAX@Z@@@std@@V?$shared_ptr@V?$basic_string@DU?$char_traits@D@std@@V?$allocator@D@2@@std@@@5@@Z@4HA 000000018003083c f   w_key.obj
 0001:0002f850       ?dtor$0@?0???0AsyncVerifyRsa@@QEAA@PEAVCallback@Nan@@PEBUenv_md_st@@V?$shared_ptr@V?$ScopedSSL@Uevp_pkey_st@@$1?ScopedEVP_PKEY_free@@YAXPEAX@Z@@@std@@V?$shared_ptr@V?$basic_string@DU?$char_traits@D@std@@V?$allocator@D@2@@std@@@5@3@Z@4HA 0000000180030850 f   w_key.obj
 0001:0002f850       ?dtor$0@?0???0AsyncEcdsaVerify@@QEAA@PEAVCallback@Nan@@PEBUenv_md_st@@V?$shared_ptr@V?$ScopedSSL@Uevp_pkey_st@@$1?ScopedEVP_PKEY_free@@YAXPEAX@Z@@@std@@V?$shared_ptr@V?$basic_string@DU?$char_traits@D@std@@V?$allocator@D@2@@std@@@5@3@Z@4HA 0000000180030850 f   w_key.obj
 0001:0002f850       ?dtor$0@?0???0AsyncHmacVerify@@QEAA@PEAVCallback@Nan@@PEBUenv_md_st@@V?$shared_ptr@VScopedHMAC@@@std@@V?$shared_ptr@V?$basic_string@DU?$char_traits@D@std@@V?$allocator@D@2@@std@@@5@3@Z@4HA 0000000180030850 f   w_hmac.obj
 0001:0002f85c       ?dtor$1@?0???0AsyncVerifyRsa@@QEAA@PEAVCallback@Nan@@PEBUenv_md_st@@V?$shared_ptr@V?$ScopedSSL@Uevp_pkey_st@@$1?ScopedEVP_PKEY_free@@YAXPEAX@Z@@@std@@V?$shared_ptr@V?$basic_string@DU?$char_traits@D@std@@V?$allocator@D@2@@std@@@5@3@Z@4HA 000000018003085c f   w_key.obj
 0001:0002f85c       ?dtor$1@?0???0AsyncEcdsaVerify@@QEAA@PEAVCallback@Nan@@PEBUenv_md_st@@V?$shared_ptr@V?$ScopedSSL@Uevp_pkey_st@@$1?ScopedEVP_PKEY_free@@YAXPEAX@Z@@@std@@V?$shared_ptr@V?$basic_string@DU?$char_traits@D@std@@V?$allocator@D@2@@std@@@5@3@Z@4HA 000000018003085c f   w_key.obj
 0001:0002f85c       ?dtor$1@?0???0AsyncHmacVerify@@QEAA@PEAVCallback@Nan@@PEBUenv_md_st@@V?$shared_ptr@VScopedHMAC@@@std@@V?$shared_ptr@V?$basic_string@DU?$char_traits@D@std@@V?$allocator@D@2@@std@@@5@3@Z@4HA 000000018003085c f   w_hmac.obj
 0001:0002f868       ?dtor$2@?0???0AsyncVerifyRsa@@QEAA@PEAVCallback@Nan@@PEBUenv_md_st@@V?$shared_ptr@V?$ScopedSSL@Uevp_pkey_st@@$1?ScopedEVP_PKEY_free@@YAXPEAX@Z@@@std@@V?$shared_ptr@V?$basic_string@DU?$char_traits@D@std@@V?$allocator@D@2@@std@@@5@3@Z@4HA 0000000180030868 f   w_key.obj
 0001:0002f868       ?dtor$2@?0???0AsyncEcdsaVerify@@QEAA@PEAVCallback@Nan@@PEBUenv_md_st@@V?$shared_ptr@V?$ScopedSSL@Uevp_pkey_st@@$1?ScopedEVP_PKEY_free@@YAXPEAX@Z@@@std@@V?$shared_ptr@V?$basic_string@DU?$char_traits@D@std@@V?$allocator@D@2@@std@@@5@3@Z@4HA 0000000180030868 f   w_key.obj
 0001:0002f868       ?dtor$2@?0???0AsyncHmacVerify@@QEAA@PEAVCallback@Nan@@PEBUenv_md_st@@V?$shared_ptr@VScopedHMAC@@@std@@V?$shared_ptr@V?$basic_string@DU?$char_traits@D@std@@V?$allocator@D@2@@std@@@5@3@Z@4HA 0000000180030868 f   w_hmac.obj
 0001:0002f880       ?dtor$0@?0???0AsyncSignRsaPSS@@QEAA@PEAVCallback@Nan@@PEBUenv_md_st@@V?$shared_ptr@V?$ScopedSSL@Uevp_pkey_st@@$1?ScopedEVP_PKEY_free@@YAXPEAX@Z@@@std@@HV?$shared_ptr@V?$basic_string@DU?$char_traits@D@std@@V?$allocator@D@2@@std@@@5@@Z@4HA 0000000180030880 f   w_key.obj
 0001:0002f88c       ?dtor$1@?0???0AsyncSignRsaPSS@@QEAA@PEAVCallback@Nan@@PEBUenv_md_st@@V?$shared_ptr@V?$ScopedSSL@Uevp_pkey_st@@$1?ScopedEVP_PKEY_free@@YAXPEAX@Z@@@std@@HV?$shared_ptr@V?$basic_string@DU?$char_traits@D@std@@V?$allocator@D@2@@std@@@5@@Z@4HA 000000018003088c f   w_key.obj
 0001:0002f8a0       ?dtor$0@?0???0AsyncVerifyRsaPSS@@QEAA@PEAVCallback@Nan@@PEBUenv_md_st@@V?$shared_ptr@V?$ScopedSSL@Uevp_pkey_st@@$1?ScopedEVP_PKEY_free@@YAXPEAX@Z@@@std@@HV?$shared_ptr@V?$basic_string@DU?$char_traits@D@std@@V?$allocator@D@2@@std@@@5@3@Z@4HA 00000001800308a0 f   w_key.obj
 0001:0002f8ac       ?dtor$1@?0???0AsyncVerifyRsaPSS@@QEAA@PEAVCallback@Nan@@PEBUenv_md_st@@V?$shared_ptr@V?$ScopedSSL@Uevp_pkey_st@@$1?ScopedEVP_PKEY_free@@YAXPEAX@Z@@@std@@HV?$shared_ptr@V?$basic_string@DU?$char_traits@D@std@@V?$allocator@D@2@@std@@@5@3@Z@4HA 00000001800308ac f   w_key.obj
 0001:0002f8b8       ?dtor$2@?0???0AsyncVerifyRsaPSS@@QEAA@PEAVCallback@Nan@@PEBUenv_md_st@@V?$shared_ptr@V?$ScopedSSL@Uevp_pkey_st@@$1?ScopedEVP_PKEY_free@@YAXPEAX@Z@@@std@@HV?$shared_ptr@V?$basic_string@DU?$char_traits@D@std@@V?$allocator@D@2@@std@@@5@3@Z@4HA 00000001800308b8 f   w_key.obj
 0001:0002f8d0       ?dtor$0@?0???0AsyncEcdhDeriveKey@@QEAA@PEAVCallback@Nan@@V?$shared_ptr@V?$ScopedSSL@Uevp_pkey_st@@$1?ScopedEVP_PKEY_free@@YAXPEAX@Z@@@std@@1_K@Z@4HA 00000001800308d0 f   w_key.obj
 0001:0002f8d0       ?dtor$0@?0???0AsyncDigest@@QEAA@PEAVCallback@Nan@@V?$shared_ptr@V?$basic_string@DU?$char_traits@D@std@@V?$allocator@D@2@@std@@@std@@1@Z@4HA 00000001800308d0 f   w_core.obj
 0001:0002f8d0       ?dtor$0@?0???0AsyncAesWrapKey@@QEAA@PEAVCallback@Nan@@V?$shared_ptr@VScopedAES@@@std@@V?$shared_ptr@V?$basic_string@DU?$char_traits@D@std@@V?$allocator@D@2@@std@@@4@_N@Z@4HA 00000001800308d0 f   w_aes.obj
 0001:0002f8d0       ?dtor$0@?0???0AsyncAesEncryptECB@@QEAA@PEAVCallback@Nan@@V?$shared_ptr@VScopedAES@@@std@@V?$shared_ptr@V?$basic_string@DU?$char_traits@D@std@@V?$allocator@D@2@@std@@@4@_N@Z@4HA 00000001800308d0 f   w_aes.obj
 0001:0002f8d0       ?dtor$0@?0???0AsyncEcdhDeriveBits@@QEAA@PEAVCallback@Nan@@V?$shared_ptr@V?$ScopedSSL@Uevp_pkey_st@@$1?ScopedEVP_PKEY_free@@YAXPEAX@Z@@@std@@1_K@Z@4HA 00000001800308d0 f   w_key.obj
 0001:0002f8dc       ?dtor$1@?0???0AsyncAesEncryptECB@@QEAA@PEAVCallback@Nan@@V?$shared_ptr@VScopedAES@@@std@@V?$shared_ptr@V?$basic_string@DU?$char_traits@D@std@@V?$allocator@D@2@@std@@@4@_N@Z@4HA 00000001800308dc f   w_aes.obj
 0001:0002f8dc       ?dtor$1@?0???0AsyncDigest@@QEAA@PEAVCallback@Nan@@V?$shared_ptr@V?$basic_string@DU?$char_traits@D@std@@V?$allocator@D@2@@std@@@std@@1@Z@4HA 00000001800308dc f   w_core.obj
 0001:0002f8dc       ?dtor$1@?0???0AsyncEcdhDeriveBits@@QEAA@PEAVCallback@Nan@@V?$shared_ptr@V?$ScopedSSL@Uevp_pkey_st@@$1?ScopedEVP_PKEY_free@@YAXPEAX@Z@@@std@@1_K@Z@4HA 00000001800308dc f   w_key.obj
 0001:0002f8dc       ?dtor$1@?0???0AsyncEcdhDeriveKey@@QEAA@PEAVCallback@Nan@@V?$shared_ptr@V?$ScopedSSL@Uevp_pkey_st@@$1?ScopedEVP_PKEY_free@@YAXPEAX@Z@@@std@@1_K@Z@4HA 00000001800308dc f   w_key.obj
 0001:0002f8dc       ?dtor$1@?0???0AsyncAesWrapKey@@QEAA@PEAVCallback@Nan@@V?$shared_ptr@VScopedAES@@@std@@V?$shared_ptr@V?$basic_string@DU?$char_traits@D@std@@V?$allocator@D@2@@std@@@4@_N@Z@4HA 00000001800308dc f   w_aes.obj
 0001:0002f8f0       ?dtor$1@?0??Init@WKey@@SAXV?$Local@VObject@v8@@@v8@@@Z@4HA 00000001800308f0 f   w_key.obj
 0001:0002f8fc       ?dtor$4@?0??Init@WKey@@SAXV?$Local@VObject@v8@@@v8@@@Z@4HA 00000001800308fc f   w_key.obj
 0001:0002f908       ?dtor$7@?0??Init@WKey@@SAXV?$Local@VObject@v8@@@v8@@@Z@4HA 0000000180030908 f   w_key.obj
 0001:0002f914       ?dtor$10@?0??Init@WKey@@SAXV?$Local@VObject@v8@@@v8@@@Z@4HA 0000000180030914 f   w_key.obj
 0001:0002f920       ?dtor$13@?0??Init@WKey@@SAXV?$Local@VObject@v8@@@v8@@@Z@4HA 0000000180030920 f   w_key.obj
 0001:0002f930       ?dtor$0@?0??ModulusLength@WKey@@SAXAEBV?$FunctionCallbackInfo@VValue@v8@@@Nan@@@Z@4HA 0000000180030930 f   w_key.obj
 0001:0002f930       ?dtor$0@?0??PublicExponent@WKey@@SAXAEBV?$FunctionCallbackInfo@VValue@v8@@@Nan@@@Z@4HA 0000000180030930 f   w_key.obj
 0001:0002f940       ?dtor$0@?0??GenerateRsa@WKey@@SAXAEBV?$FunctionCallbackInfo@VValue@v8@@@Nan@@@Z@4HA 0000000180030940 f   w_key.obj
 0001:0002f95d       ?dtor$1@?0??GenerateRsa@WKey@@SAXAEBV?$FunctionCallbackInfo@VValue@v8@@@Nan@@@Z@4HA 000000018003095d f   w_key.obj
 0001:0002f980       ?dtor$0@?0??Generate@WAes@@SAXAEBV?$FunctionCallbackInfo@VValue@v8@@@Nan@@@Z@4HA 0000000180030980 f   w_aes.obj
 0001:0002f980       ?dtor$0@?0??Generate@WHmac@@SAXAEBV?$FunctionCallbackInfo@VValue@v8@@@Nan@@@Z@4HA 0000000180030980 f   w_hmac.obj
 0001:0002f980       ?dtor$0@?0??GenerateEc@WKey@@SAXAEBV?$FunctionCallbackInfo@VValue@v8@@@Nan@@@Z@4HA 0000000180030980 f   w_key.obj
 0001:0002f99d       ?dtor$1@?0??GenerateEc@WKey@@SAXAEBV?$FunctionCallbackInfo@VValue@v8@@@Nan@@@Z@4HA 000000018003099d f   w_key.obj
 0001:0002f99d       ?dtor$1@?0??Generate@WAes@@SAXAEBV?$FunctionCallbackInfo@VValue@v8@@@Nan@@@Z@4HA 000000018003099d f   w_aes.obj
 0001:0002f99d       ?dtor$1@?0??Generate@WHmac@@SAXAEBV?$FunctionCallbackInfo@VValue@v8@@@Nan@@@Z@4HA 000000018003099d f   w_hmac.obj
 0001:0002f9c0       ?dtor$0@?0??ExportJwk@WKey@@SAXAEBV?$FunctionCallbackInfo@VValue@v8@@@Nan@@@Z@4HA 00000001800309c0 f   w_key.obj
 0001:0002f9e0       ?dtor$1@?0??ExportJwk@WKey@@SAXAEBV?$FunctionCallbackInfo@VValue@v8@@@Nan@@@Z@4HA 00000001800309e0 f   w_key.obj
 0001:0002fa00       ?dtor$4@?0??ExportJwk@WKey@@SAXAEBV?$FunctionCallbackInfo@VValue@v8@@@Nan@@@Z@4HA 0000000180030a00 f   w_key.obj
 0001:0002fa0c       ?dtor$5@?0??ExportJwk@WKey@@SAXAEBV?$FunctionCallbackInfo@VValue@v8@@@Nan@@@Z@4HA 0000000180030a0c f   w_key.obj
 0001:0002fa2c       ?dtor$8@?0??ExportJwk@WKey@@SAXAEBV?$FunctionCallbackInfo@VValue@v8@@@Nan@@@Z@4HA 0000000180030a2c f   w_key.obj
 0001:0002fa40       ?dtor$0@?0??Export@WAes@@SAXAEBV?$FunctionCallbackInfo@VValue@v8@@@Nan@@@Z@4HA 0000000180030a40 f   w_aes.obj
 0001:0002fa40       ?dtor$0@?0??ExportSpki@WKey@@SAXAEBV?$FunctionCallbackInfo@VValue@v8@@@Nan@@@Z@4HA 0000000180030a40 f   w_key.obj
 0001:0002fa40       ?dtor$0@?0??Export@WHmac@@SAXAEBV?$FunctionCallbackInfo@VValue@v8@@@Nan@@@Z@4HA 0000000180030a40 f   w_hmac.obj
 0001:0002fa40       ?dtor$0@?0??ExportPkcs8@WKey@@SAXAEBV?$FunctionCallbackInfo@VValue@v8@@@Nan@@@Z@4HA 0000000180030a40 f   w_key.obj
 0001:0002fa5d       ?dtor$1@?0??ExportSpki@WKey@@SAXAEBV?$FunctionCallbackInfo@VValue@v8@@@Nan@@@Z@4HA 0000000180030a5d f   w_key.obj
 0001:0002fa5d       ?dtor$1@?0??Export@WAes@@SAXAEBV?$FunctionCallbackInfo@VValue@v8@@@Nan@@@Z@4HA 0000000180030a5d f   w_aes.obj
 0001:0002fa5d       ?dtor$1@?0??Export@WHmac@@SAXAEBV?$FunctionCallbackInfo@VValue@v8@@@Nan@@@Z@4HA 0000000180030a5d f   w_hmac.obj
 0001:0002fa5d       ?dtor$1@?0??ExportPkcs8@WKey@@SAXAEBV?$FunctionCallbackInfo@VValue@v8@@@Nan@@@Z@4HA 0000000180030a5d f   w_key.obj
 0001:0002fa80       ?dtor$0@?0??Import@WAes@@SAXAEBV?$FunctionCallbackInfo@VValue@v8@@@Nan@@@Z@4HA 0000000180030a80 f   w_aes.obj
 0001:0002fa80       ?dtor$0@?0??ImportKey@WPbkdf2@@SAXAEBV?$FunctionCallbackInfo@VValue@v8@@@Nan@@@Z@4HA 0000000180030a80 f   w_pbkdf2.obj
 0001:0002fa80       ?dtor$0@?0??Import@WHmac@@SAXAEBV?$FunctionCallbackInfo@VValue@v8@@@Nan@@@Z@4HA 0000000180030a80 f   w_hmac.obj
 0001:0002fa80       ?dtor$0@?0??ImportSpki@WKey@@SAXAEBV?$FunctionCallbackInfo@VValue@v8@@@Nan@@@Z@4HA 0000000180030a80 f   w_key.obj
 0001:0002fa80       ?dtor$0@?0??ImportPkcs8@WKey@@SAXAEBV?$FunctionCallbackInfo@VValue@v8@@@Nan@@@Z@4HA 0000000180030a80 f   w_key.obj
 0001:0002fa8c       ?dtor$1@?0??ImportSpki@WKey@@SAXAEBV?$FunctionCallbackInfo@VValue@v8@@@Nan@@@Z@4HA 0000000180030a8c f   w_key.obj
 0001:0002fa8c       ?dtor$1@?0??Import@WAes@@SAXAEBV?$FunctionCallbackInfo@VValue@v8@@@Nan@@@Z@4HA 0000000180030a8c f   w_aes.obj
 0001:0002fa8c       ?dtor$1@?0??ImportPkcs8@WKey@@SAXAEBV?$FunctionCallbackInfo@VValue@v8@@@Nan@@@Z@4HA 0000000180030a8c f   w_key.obj
 0001:0002fa8c       ?dtor$1@?0??Import@WHmac@@SAXAEBV?$FunctionCallbackInfo@VValue@v8@@@Nan@@@Z@4HA 0000000180030a8c f   w_hmac.obj
 0001:0002fa8c       ?dtor$1@?0??ImportKey@WPbkdf2@@SAXAEBV?$FunctionCallbackInfo@VValue@v8@@@Nan@@@Z@4HA 0000000180030a8c f   w_pbkdf2.obj
 0001:0002faa9       ?dtor$2@?0??ImportPkcs8@WKey@@SAXAEBV?$FunctionCallbackInfo@VValue@v8@@@Nan@@@Z@4HA 0000000180030aa9 f   w_key.obj
 0001:0002faa9       ?dtor$2@?0??Import@WHmac@@SAXAEBV?$FunctionCallbackInfo@VValue@v8@@@Nan@@@Z@4HA 0000000180030aa9 f   w_hmac.obj
 0001:0002faa9       ?dtor$2@?0??Import@WAes@@SAXAEBV?$FunctionCallbackInfo@VValue@v8@@@Nan@@@Z@4HA 0000000180030aa9 f   w_aes.obj
 0001:0002faa9       ?dtor$2@?0??ImportSpki@WKey@@SAXAEBV?$FunctionCallbackInfo@VValue@v8@@@Nan@@@Z@4HA 0000000180030aa9 f   w_key.obj
 0001:0002faa9       ?dtor$2@?0??ImportKey@WPbkdf2@@SAXAEBV?$FunctionCallbackInfo@VValue@v8@@@Nan@@@Z@4HA 0000000180030aa9 f   w_pbkdf2.obj
 0001:0002fad0       ?dtor$0@?0??ImportJwk@WKey@@SAXAEBV?$FunctionCallbackInfo@VValue@v8@@@Nan@@@Z@4HA 0000000180030ad0 f   w_key.obj
 0001:0002fade       ?dtor$1@?0??ImportJwk@WKey@@SAXAEBV?$FunctionCallbackInfo@VValue@v8@@@Nan@@@Z@4HA 0000000180030ade f   w_key.obj
 0001:0002fafe       ?dtor$3@?0??ImportJwk@WKey@@SAXAEBV?$FunctionCallbackInfo@VValue@v8@@@Nan@@@Z@4HA 0000000180030afe f   w_key.obj
 0001:0002fb0a       ?dtor$4@?0??ImportJwk@WKey@@SAXAEBV?$FunctionCallbackInfo@VValue@v8@@@Nan@@@Z@4HA 0000000180030b0a f   w_key.obj
 0001:0002fb2a       ?dtor$6@?0??ImportJwk@WKey@@SAXAEBV?$FunctionCallbackInfo@VValue@v8@@@Nan@@@Z@4HA 0000000180030b2a f   w_key.obj
 0001:0002fb36       ?dtor$8@?0??ImportJwk@WKey@@SAXAEBV?$FunctionCallbackInfo@VValue@v8@@@Nan@@@Z@4HA 0000000180030b36 f   w_key.obj
 0001:0002fb42       ?dtor$9@?0??ImportJwk@WKey@@SAXAEBV?$FunctionCallbackInfo@VValue@v8@@@Nan@@@Z@4HA 0000000180030b42 f   w_key.obj
 0001:0002fb62       ?dtor$11@?0??ImportJwk@WKey@@SAXAEBV?$FunctionCallbackInfo@VValue@v8@@@Nan@@@Z@4HA 0000000180030b62 f   w_key.obj
 0001:0002fb70       ?dtor$0@?0??Sign@WKey@@SAXAEBV?$FunctionCallbackInfo@VValue@v8@@@Nan@@@Z@4HA 0000000180030b70 f   w_key.obj
 0001:0002fb7e       ?dtor$1@?0??Sign@WKey@@SAXAEBV?$FunctionCallbackInfo@VValue@v8@@@Nan@@@Z@4HA 0000000180030b7e f   w_key.obj
 0001:0002fb8a       ?dtor$2@?0??Sign@WKey@@SAXAEBV?$FunctionCallbackInfo@VValue@v8@@@Nan@@@Z@4HA 0000000180030b8a f   w_key.obj
 0001:0002fb96       ?dtor$3@?0??Sign@WKey@@SAXAEBV?$FunctionCallbackInfo@VValue@v8@@@Nan@@@Z@4HA 0000000180030b96 f   w_key.obj
 0001:0002fbb3       ?dtor$4@?0??Sign@WKey@@SAXAEBV?$FunctionCallbackInfo@VValue@v8@@@Nan@@@Z@4HA 0000000180030bb3 f   w_key.obj
 0001:0002fbd0       ?dtor$7@?0??Sign@WKey@@SAXAEBV?$FunctionCallbackInfo@VValue@v8@@@Nan@@@Z@4HA 0000000180030bd0 f   w_key.obj
 0001:0002fbf0       ?dtor$0@?0??Verify@WKey@@SAXAEBV?$FunctionCallbackInfo@VValue@v8@@@Nan@@@Z@4HA 0000000180030bf0 f   w_key.obj
 0001:0002fbfe       ?dtor$1@?0??Verify@WKey@@SAXAEBV?$FunctionCallbackInfo@VValue@v8@@@Nan@@@Z@4HA 0000000180030bfe f   w_key.obj
 0001:0002fc0a       ?dtor$2@?0??Verify@WKey@@SAXAEBV?$FunctionCallbackInfo@VValue@v8@@@Nan@@@Z@4HA 0000000180030c0a f   w_key.obj
 0001:0002fc16       ?dtor$3@?0??Verify@WKey@@SAXAEBV?$FunctionCallbackInfo@VValue@v8@@@Nan@@@Z@4HA 0000000180030c16 f   w_key.obj
 0001:0002fc22       ?dtor$4@?0??Verify@WKey@@SAXAEBV?$FunctionCallbackInfo@VValue@v8@@@Nan@@@Z@4HA 0000000180030c22 f   w_key.obj
 0001:0002fc3f       ?dtor$5@?0??Verify@WKey@@SAXAEBV?$FunctionCallbackInfo@VValue@v8@@@Nan@@@Z@4HA 0000000180030c3f f   w_key.obj
 0001:0002fc5c       ?dtor$9@?0??Verify@WKey@@SAXAEBV?$FunctionCallbackInfo@VValue@v8@@@Nan@@@Z@4HA 0000000180030c5c f   w_key.obj
 0001:0002fc80       ?dtor$0@?0??RsaOaepEncDec@WKey@@SAXAEBV?$FunctionCallbackInfo@VValue@v8@@@Nan@@@Z@4HA 0000000180030c80 f   w_key.obj
 0001:0002fc8e       ?dtor$1@?0??RsaOaepEncDec@WKey@@SAXAEBV?$FunctionCallbackInfo@VValue@v8@@@Nan@@@Z@4HA 0000000180030c8e f   w_key.obj
 0001:0002fc9a       ?dtor$3@?0??RsaOaepEncDec@WKey@@SAXAEBV?$FunctionCallbackInfo@VValue@v8@@@Nan@@@Z@4HA 0000000180030c9a f   w_key.obj
 0001:0002fca6       ?dtor$5@?0??RsaOaepEncDec@WKey@@SAXAEBV?$FunctionCallbackInfo@VValue@v8@@@Nan@@@Z@4HA 0000000180030ca6 f   w_key.obj
 0001:0002fcb2       ?dtor$6@?0??RsaOaepEncDec@WKey@@SAXAEBV?$FunctionCallbackInfo@VValue@v8@@@Nan@@@Z@4HA 0000000180030cb2 f   w_key.obj
 0001:0002fccf       ?dtor$7@?0??RsaOaepEncDec@WKey@@SAXAEBV?$FunctionCallbackInfo@VValue@v8@@@Nan@@@Z@4HA 0000000180030ccf f   w_key.obj
 0001:0002fcf0       ?dtor$0@?0??RsaPssSign@WKey@@SAXAEBV?$FunctionCallbackInfo@VValue@v8@@@Nan@@@Z@4HA 0000000180030cf0 f   w_key.obj
 0001:0002fcfe       ?dtor$1@?0??RsaPssSign@WKey@@SAXAEBV?$FunctionCallbackInfo@VValue@v8@@@Nan@@@Z@4HA 0000000180030cfe f   w_key.obj
 0001:0002fd0a       ?dtor$2@?0??RsaPssSign@WKey@@SAXAEBV?$FunctionCallbackInfo@VValue@v8@@@Nan@@@Z@4HA 0000000180030d0a f   w_key.obj
 0001:0002fd16       ?dtor$3@?0??RsaPssSign@WKey@@SAXAEBV?$FunctionCallbackInfo@VValue@v8@@@Nan@@@Z@4HA 0000000180030d16 f   w_key.obj
 0001:0002fd36       ?dtor$4@?0??RsaPssSign@WKey@@SAXAEBV?$FunctionCallbackInfo@VValue@v8@@@Nan@@@Z@4HA 0000000180030d36 f   w_key.obj
 0001:0002fd60       ?dtor$0@?0??RsaPssVerify@WKey@@SAXAEBV?$FunctionCallbackInfo@VValue@v8@@@Nan@@@Z@4HA 0000000180030d60 f   w_key.obj
 0001:0002fd6e       ?dtor$1@?0??RsaPssVerify@WKey@@SAXAEBV?$FunctionCallbackInfo@VValue@v8@@@Nan@@@Z@4HA 0000000180030d6e f   w_key.obj
 0001:0002fd7a       ?dtor$2@?0??RsaPssVerify@WKey@@SAXAEBV?$FunctionCallbackInfo@VValue@v8@@@Nan@@@Z@4HA 0000000180030d7a f   w_key.obj
 0001:0002fd86       ?dtor$3@?0??RsaPssVerify@WKey@@SAXAEBV?$FunctionCallbackInfo@VValue@v8@@@Nan@@@Z@4HA 0000000180030d86 f   w_key.obj
 0001:0002fd92       ?dtor$4@?0??RsaPssVerify@WKey@@SAXAEBV?$FunctionCallbackInfo@VValue@v8@@@Nan@@@Z@4HA 0000000180030d92 f   w_key.obj
 0001:0002fdb2       ?dtor$5@?0??RsaPssVerify@WKey@@SAXAEBV?$FunctionCallbackInfo@VValue@v8@@@Nan@@@Z@4HA 0000000180030db2 f   w_key.obj
 0001:0002fde0       ?dtor$0@?0??EcdhDeriveBits@WKey@@SAXAEBV?$FunctionCallbackInfo@VValue@v8@@@Nan@@@Z@4HA 0000000180030de0 f   w_key.obj
 0001:0002fde0       ?dtor$0@?0??EcdhDeriveKey@WKey@@SAXAEBV?$FunctionCallbackInfo@VValue@v8@@@Nan@@@Z@4HA 0000000180030de0 f   w_key.obj
 0001:0002fdec       ?dtor$1@?0??EcdhDeriveKey@WKey@@SAXAEBV?$FunctionCallbackInfo@VValue@v8@@@Nan@@@Z@4HA 0000000180030dec f   w_key.obj
 0001:0002fdec       ?dtor$1@?0??EcdhDeriveBits@WKey@@SAXAEBV?$FunctionCallbackInfo@VValue@v8@@@Nan@@@Z@4HA 0000000180030dec f   w_key.obj
 0001:0002fdf8       ?dtor$2@?0??EcdhDeriveBits@WKey@@SAXAEBV?$FunctionCallbackInfo@VValue@v8@@@Nan@@@Z@4HA 0000000180030df8 f   w_key.obj
 0001:0002fdf8       ?dtor$2@?0??EcdhDeriveKey@WKey@@SAXAEBV?$FunctionCallbackInfo@VValue@v8@@@Nan@@@Z@4HA 0000000180030df8 f   w_key.obj
 0001:0002fe18       ?dtor$3@?0??EcdhDeriveKey@WKey@@SAXAEBV?$FunctionCallbackInfo@VValue@v8@@@Nan@@@Z@4HA 0000000180030e18 f   w_key.obj
 0001:0002fe18       ?dtor$3@?0??EcdhDeriveBits@WKey@@SAXAEBV?$FunctionCallbackInfo@VValue@v8@@@Nan@@@Z@4HA 0000000180030e18 f   w_key.obj
 0001:0002fe40       ?dtor$0@?0???0AsyncAesEncryptCTR@@QEAA@PEAVCallback@Nan@@V?$shared_ptr@VScopedAES@@@std@@V?$shared_ptr@V?$basic_string@DU?$char_traits@D@std@@V?$allocator@D@2@@std@@@4@2H_N@Z@4HA 0000000180030e40 f   w_aes.obj
 0001:0002fe40       ?dtor$0@?0???0AsyncAesEncryptCBC@@QEAA@PEAVCallback@Nan@@V?$shared_ptr@VScopedAES@@@std@@V?$shared_ptr@V?$basic_string@DU?$char_traits@D@std@@V?$allocator@D@2@@std@@@4@2_N@Z@4HA 0000000180030e40 f   w_aes.obj
 0001:0002fe4c       ?dtor$1@?0???0AsyncAesEncryptCBC@@QEAA@PEAVCallback@Nan@@V?$shared_ptr@VScopedAES@@@std@@V?$shared_ptr@V?$basic_string@DU?$char_traits@D@std@@V?$allocator@D@2@@std@@@4@2_N@Z@4HA 0000000180030e4c f   w_aes.obj
 0001:0002fe4c       ?dtor$1@?0???0AsyncAesEncryptCTR@@QEAA@PEAVCallback@Nan@@V?$shared_ptr@VScopedAES@@@std@@V?$shared_ptr@V?$basic_string@DU?$char_traits@D@std@@V?$allocator@D@2@@std@@@4@2H_N@Z@4HA 0000000180030e4c f   w_aes.obj
 0001:0002fe58       ?dtor$2@?0???0AsyncAesEncryptCBC@@QEAA@PEAVCallback@Nan@@V?$shared_ptr@VScopedAES@@@std@@V?$shared_ptr@V?$basic_string@DU?$char_traits@D@std@@V?$allocator@D@2@@std@@@4@2_N@Z@4HA 0000000180030e58 f   w_aes.obj
 0001:0002fe58       ?dtor$2@?0???0AsyncAesEncryptCTR@@QEAA@PEAVCallback@Nan@@V?$shared_ptr@VScopedAES@@@std@@V?$shared_ptr@V?$basic_string@DU?$char_traits@D@std@@V?$allocator@D@2@@std@@@4@2H_N@Z@4HA 0000000180030e58 f   w_aes.obj
 0001:0002fe70       ?dtor$0@?0???0AsyncAesEncryptGCM@@QEAA@PEAVCallback@Nan@@V?$shared_ptr@VScopedAES@@@std@@V?$shared_ptr@V?$basic_string@DU?$char_traits@D@std@@V?$allocator@D@2@@std@@@4@22H_N@Z@4HA 0000000180030e70 f   w_aes.obj
 0001:0002fe7c       ?dtor$1@?0???0AsyncAesEncryptGCM@@QEAA@PEAVCallback@Nan@@V?$shared_ptr@VScopedAES@@@std@@V?$shared_ptr@V?$basic_string@DU?$char_traits@D@std@@V?$allocator@D@2@@std@@@4@22H_N@Z@4HA 0000000180030e7c f   w_aes.obj
 0001:0002fe88       ?dtor$2@?0???0AsyncAesEncryptGCM@@QEAA@PEAVCallback@Nan@@V?$shared_ptr@VScopedAES@@@std@@V?$shared_ptr@V?$basic_string@DU?$char_traits@D@std@@V?$allocator@D@2@@std@@@4@22H_N@Z@4HA 0000000180030e88 f   w_aes.obj
 0001:0002fe94       ?dtor$3@?0???0AsyncAesEncryptGCM@@QEAA@PEAVCallback@Nan@@V?$shared_ptr@VScopedAES@@@std@@V?$shared_ptr@V?$basic_string@DU?$char_traits@D@std@@V?$allocator@D@2@@std@@@4@22H_N@Z@4HA 0000000180030e94 f   w_aes.obj
 0001:0002fea0       ?dtor$1@?0??Init@WHmac@@SAXV?$Local@VObject@v8@@@v8@@@Z@4HA 0000000180030ea0 f   w_hmac.obj
 0001:0002fea0       ?dtor$1@?0??Init@WAes@@SAXV?$Local@VObject@v8@@@v8@@@Z@4HA 0000000180030ea0 f   w_aes.obj
 0001:0002feac       ?dtor$4@?0??Init@WHmac@@SAXV?$Local@VObject@v8@@@v8@@@Z@4HA 0000000180030eac f   w_hmac.obj
 0001:0002feac       ?dtor$4@?0??Init@WAes@@SAXV?$Local@VObject@v8@@@v8@@@Z@4HA 0000000180030eac f   w_aes.obj
 0001:0002fec0       ?dtor$0@?0??Encrypt@WAes@@SAXAEBV?$FunctionCallbackInfo@VValue@v8@@@Nan@@@Z@4HA 0000000180030ec0 f   w_aes.obj
 0001:0002fec0       ?dtor$0@?0??Decrypt@WAes@@SAXAEBV?$FunctionCallbackInfo@VValue@v8@@@Nan@@@Z@4HA 0000000180030ec0 f   w_aes.obj
 0001:0002fece       ?dtor$1@?0??Decrypt@WAes@@SAXAEBV?$FunctionCallbackInfo@VValue@v8@@@Nan@@@Z@4HA 0000000180030ece f   w_aes.obj
 0001:0002fece       ?dtor$1@?0??Encrypt@WAes@@SAXAEBV?$FunctionCallbackInfo@VValue@v8@@@Nan@@@Z@4HA 0000000180030ece f   w_aes.obj
 0001:0002feda       ?dtor$2@?0??Encrypt@WAes@@SAXAEBV?$FunctionCallbackInfo@VValue@v8@@@Nan@@@Z@4HA 0000000180030eda f   w_aes.obj
 0001:0002feda       ?dtor$2@?0??Decrypt@WAes@@SAXAEBV?$FunctionCallbackInfo@VValue@v8@@@Nan@@@Z@4HA 0000000180030eda f   w_aes.obj
 0001:0002fee6       ?dtor$3@?0??Encrypt@WAes@@SAXAEBV?$FunctionCallbackInfo@VValue@v8@@@Nan@@@Z@4HA 0000000180030ee6 f   w_aes.obj
 0001:0002fee6       ?dtor$3@?0??Decrypt@WAes@@SAXAEBV?$FunctionCallbackInfo@VValue@v8@@@Nan@@@Z@4HA 0000000180030ee6 f   w_aes.obj
 0001:0002ff06       ?dtor$4@?0??Encrypt@WAes@@SAXAEBV?$FunctionCallbackInfo@VValue@v8@@@Nan@@@Z@4HA 0000000180030f06 f   w_aes.obj
 0001:0002ff06       ?dtor$4@?0??Decrypt@WAes@@SAXAEBV?$FunctionCallbackInfo@VValue@v8@@@Nan@@@Z@4HA 0000000180030f06 f   w_aes.obj
 0001:0002ff30       ?dtor$0@?0??WrapKey@WAes@@SAXAEBV?$FunctionCallbackInfo@VValue@v8@@@Nan@@@Z@4HA 0000000180030f30 f   w_aes.obj
 0001:0002ff30       ?dtor$0@?0??EncryptEcb@WAes@@SAXAEBV?$FunctionCallbackInfo@VValue@v8@@@Nan@@@Z@4HA 0000000180030f30 f   w_aes.obj
 0001:0002ff30       ?dtor$0@?0??UnwrapKey@WAes@@SAXAEBV?$FunctionCallbackInfo@VValue@v8@@@Nan@@@Z@4HA 0000000180030f30 f   w_aes.obj
 0001:0002ff30       ?dtor$0@?0??DecryptEcb@WAes@@SAXAEBV?$FunctionCallbackInfo@VValue@v8@@@Nan@@@Z@4HA 0000000180030f30 f   w_aes.obj
 0001:0002ff3c       ?dtor$1@?0??UnwrapKey@WAes@@SAXAEBV?$FunctionCallbackInfo@VValue@v8@@@Nan@@@Z@4HA 0000000180030f3c f   w_aes.obj
 0001:0002ff3c       ?dtor$1@?0??WrapKey@WAes@@SAXAEBV?$FunctionCallbackInfo@VValue@v8@@@Nan@@@Z@4HA 0000000180030f3c f   w_aes.obj
 0001:0002ff3c       ?dtor$1@?0??DecryptEcb@WAes@@SAXAEBV?$FunctionCallbackInfo@VValue@v8@@@Nan@@@Z@4HA 0000000180030f3c f   w_aes.obj
 0001:0002ff3c       ?dtor$1@?0??EncryptEcb@WAes@@SAXAEBV?$FunctionCallbackInfo@VValue@v8@@@Nan@@@Z@4HA 0000000180030f3c f   w_aes.obj
 0001:0002ff5c       ?dtor$2@?0??DecryptEcb@WAes@@SAXAEBV?$FunctionCallbackInfo@VValue@v8@@@Nan@@@Z@4HA 0000000180030f5c f   w_aes.obj
 0001:0002ff5c       ?dtor$2@?0??WrapKey@WAes@@SAXAEBV?$FunctionCallbackInfo@VValue@v8@@@Nan@@@Z@4HA 0000000180030f5c f   w_aes.obj
 0001:0002ff5c       ?dtor$2@?0??UnwrapKey@WAes@@SAXAEBV?$FunctionCallbackInfo@VValue@v8@@@Nan@@@Z@4HA 0000000180030f5c f   w_aes.obj
 0001:0002ff5c       ?dtor$2@?0??EncryptEcb@WAes@@SAXAEBV?$FunctionCallbackInfo@VValue@v8@@@Nan@@@Z@4HA 0000000180030f5c f   w_aes.obj
 0001:0002ff80       ?dtor$0@?0??EncryptGcm@WAes@@SAXAEBV?$FunctionCallbackInfo@VValue@v8@@@Nan@@@Z@4HA 0000000180030f80 f   w_aes.obj
 0001:0002ff80       ?dtor$0@?0??DecryptGcm@WAes@@SAXAEBV?$FunctionCallbackInfo@VValue@v8@@@Nan@@@Z@4HA 0000000180030f80 f   w_aes.obj
 0001:0002ff8c       ?dtor$1@?0??DecryptGcm@WAes@@SAXAEBV?$FunctionCallbackInfo@VValue@v8@@@Nan@@@Z@4HA 0000000180030f8c f   w_aes.obj
 0001:0002ff8c       ?dtor$1@?0??EncryptGcm@WAes@@SAXAEBV?$FunctionCallbackInfo@VValue@v8@@@Nan@@@Z@4HA 0000000180030f8c f   w_aes.obj
 0001:0002ff98       ?dtor$2@?0??DecryptGcm@WAes@@SAXAEBV?$FunctionCallbackInfo@VValue@v8@@@Nan@@@Z@4HA 0000000180030f98 f   w_aes.obj
 0001:0002ff98       ?dtor$2@?0??EncryptGcm@WAes@@SAXAEBV?$FunctionCallbackInfo@VValue@v8@@@Nan@@@Z@4HA 0000000180030f98 f   w_aes.obj
 0001:0002ffa4       ?dtor$3@?0??DecryptGcm@WAes@@SAXAEBV?$FunctionCallbackInfo@VValue@v8@@@Nan@@@Z@4HA 0000000180030fa4 f   w_aes.obj
 0001:0002ffa4       ?dtor$3@?0??EncryptGcm@WAes@@SAXAEBV?$FunctionCallbackInfo@VValue@v8@@@Nan@@@Z@4HA 0000000180030fa4 f   w_aes.obj
 0001:0002ffc4       ?dtor$4@?0??DecryptGcm@WAes@@SAXAEBV?$FunctionCallbackInfo@VValue@v8@@@Nan@@@Z@4HA 0000000180030fc4 f   w_aes.obj
 0001:0002ffc4       ?dtor$4@?0??EncryptGcm@WAes@@SAXAEBV?$FunctionCallbackInfo@VValue@v8@@@Nan@@@Z@4HA 0000000180030fc4 f   w_aes.obj
 0001:0002fff0       ?dtor$0@?0??EncryptCtr@WAes@@SAXAEBV?$FunctionCallbackInfo@VValue@v8@@@Nan@@@Z@4HA 0000000180030ff0 f   w_aes.obj
 0001:0002fff0       ?dtor$0@?0??DecryptCtr@WAes@@SAXAEBV?$FunctionCallbackInfo@VValue@v8@@@Nan@@@Z@4HA 0000000180030ff0 f   w_aes.obj
 0001:0002fffc       ?dtor$1@?0??DecryptCtr@WAes@@SAXAEBV?$FunctionCallbackInfo@VValue@v8@@@Nan@@@Z@4HA 0000000180030ffc f   w_aes.obj
 0001:0002fffc       ?dtor$1@?0??EncryptCtr@WAes@@SAXAEBV?$FunctionCallbackInfo@VValue@v8@@@Nan@@@Z@4HA 0000000180030ffc f   w_aes.obj
 0001:00030008       ?dtor$2@?0??DecryptCtr@WAes@@SAXAEBV?$FunctionCallbackInfo@VValue@v8@@@Nan@@@Z@4HA 0000000180031008 f   w_aes.obj
 0001:00030008       ?dtor$2@?0??EncryptCtr@WAes@@SAXAEBV?$FunctionCallbackInfo@VValue@v8@@@Nan@@@Z@4HA 0000000180031008 f   w_aes.obj
 0001:00030028       ?dtor$3@?0??EncryptCtr@WAes@@SAXAEBV?$FunctionCallbackInfo@VValue@v8@@@Nan@@@Z@4HA 0000000180031028 f   w_aes.obj
 0001:00030028       ?dtor$3@?0??DecryptCtr@WAes@@SAXAEBV?$FunctionCallbackInfo@VValue@v8@@@Nan@@@Z@4HA 0000000180031028 f   w_aes.obj
 0001:00030050       ?dtor$0@?0??Sign@WHmac@@SAXAEBV?$FunctionCallbackInfo@VValue@v8@@@Nan@@@Z@4HA 0000000180031050 f   w_hmac.obj
 0001:0003005e       ?dtor$1@?0??Sign@WHmac@@SAXAEBV?$FunctionCallbackInfo@VValue@v8@@@Nan@@@Z@4HA 000000018003105e f   w_hmac.obj
 0001:0003006a       ?dtor$2@?0??Sign@WHmac@@SAXAEBV?$FunctionCallbackInfo@VValue@v8@@@Nan@@@Z@4HA 000000018003106a f   w_hmac.obj
 0001:0003008a       ?dtor$3@?0??Sign@WHmac@@SAXAEBV?$FunctionCallbackInfo@VValue@v8@@@Nan@@@Z@4HA 000000018003108a f   w_hmac.obj
 0001:000300b0       ?dtor$0@?0??Verify@WHmac@@SAXAEBV?$FunctionCallbackInfo@VValue@v8@@@Nan@@@Z@4HA 00000001800310b0 f   w_hmac.obj
 0001:000300be       ?dtor$1@?0??Verify@WHmac@@SAXAEBV?$FunctionCallbackInfo@VValue@v8@@@Nan@@@Z@4HA 00000001800310be f   w_hmac.obj
 0001:000300ca       ?dtor$2@?0??Verify@WHmac@@SAXAEBV?$FunctionCallbackInfo@VValue@v8@@@Nan@@@Z@4HA 00000001800310ca f   w_hmac.obj
 0001:000300d6       ?dtor$3@?0??Verify@WHmac@@SAXAEBV?$FunctionCallbackInfo@VValue@v8@@@Nan@@@Z@4HA 00000001800310d6 f   w_hmac.obj
 0001:000300e2       ?dtor$4@?0??Verify@WHmac@@SAXAEBV?$FunctionCallbackInfo@VValue@v8@@@Nan@@@Z@4HA 00000001800310e2 f   w_hmac.obj
 0001:000300ff       ?dtor$5@?0??Verify@WHmac@@SAXAEBV?$FunctionCallbackInfo@VValue@v8@@@Nan@@@Z@4HA 00000001800310ff f   w_hmac.obj
 0001:00030120       ?dtor$0@?0???0AsyncPbkdf2DeriveBits@@QEAA@PEAVCallback@Nan@@V?$shared_ptr@VScopedPbkdf2@@@std@@PEBUenv_md_st@@V?$shared_ptr@V?$basic_string@DU?$char_traits@D@std@@V?$allocator@D@2@@std@@@4@HH@Z@4HA 0000000180031120 f   w_pbkdf2.obj
 0001:0003012c       ?dtor$1@?0???0AsyncPbkdf2DeriveBits@@QEAA@PEAVCallback@Nan@@V?$shared_ptr@VScopedPbkdf2@@@std@@PEBUenv_md_st@@V?$shared_ptr@V?$basic_string@DU?$char_traits@D@std@@V?$allocator@D@2@@std@@@4@HH@Z@4HA 000000018003112c f   w_pbkdf2.obj
 0001:00030140       ?dtor$0@?0??DeriveBits@WPbkdf2@@SAXAEBV?$FunctionCallbackInfo@VValue@v8@@@Nan@@@Z@4HA 0000000180031140 f   w_pbkdf2.obj
 0001:0003014e       ?dtor$1@?0??DeriveBits@WPbkdf2@@SAXAEBV?$FunctionCallbackInfo@VValue@v8@@@Nan@@@Z@4HA 000000018003114e f   w_pbkdf2.obj
 0001:0003015a       ?dtor$2@?0??DeriveBits@WPbkdf2@@SAXAEBV?$FunctionCallbackInfo@VValue@v8@@@Nan@@@Z@4HA 000000018003115a f   w_pbkdf2.obj
 0001:0003017a       ?dtor$3@?0??DeriveBits@WPbkdf2@@SAXAEBV?$FunctionCallbackInfo@VValue@v8@@@Nan@@@Z@4HA 000000018003117a f   w_pbkdf2.obj
 0001:000301a0       ?dtor$0@?0??Digest@WCore@@SAXAEBV?$FunctionCallbackInfo@VValue@v8@@@Nan@@@Z@4HA 00000001800311a0 f   w_core.obj
 0001:000301ae       ?dtor$1@?0??Digest@WCore@@SAXAEBV?$FunctionCallbackInfo@VValue@v8@@@Nan@@@Z@4HA 00000001800311ae f   w_core.obj
 0001:000301ce       ?dtor$2@?0??Digest@WCore@@SAXAEBV?$FunctionCallbackInfo@VValue@v8@@@Nan@@@Z@4HA 00000001800311ce f   w_core.obj
 0001:000301da       ?dtor$3@?0??Digest@WCore@@SAXAEBV?$FunctionCallbackInfo@VValue@v8@@@Nan@@@Z@4HA 00000001800311da f   w_core.obj
 0001:000301e6       ?dtor$4@?0??Digest@WCore@@SAXAEBV?$FunctionCallbackInfo@VValue@v8@@@Nan@@@Z@4HA 00000001800311e6 f   w_core.obj
 0001:00030206       ?dtor$5@?0??Digest@WCore@@SAXAEBV?$FunctionCallbackInfo@VValue@v8@@@Nan@@@Z@4HA 0000000180031206 f   w_core.obj
 0001:00030230       ?catch$4@?0??Execute@AsyncEncrypDecryptRsaOAEP@@UEAAXXZ@4HA 0000000180031230 f   async_rsa.obj
 0001:0003023d       __catch$?Execute@AsyncEncrypDecryptRsaOAEP@@UEAAXXZ$0 000000018003123d f   async_rsa.obj
 0001:00030290       ?dtor$0@?0??HandleOKCallback@AsyncAesEncryptCBC@@UEAAXXZ@4HA 0000000180031290 f   async_aes.obj
 0001:00030290       ?dtor$0@?0??HandleOKCallback@AsyncPbkdf2DeriveBits@@UEAAXXZ@4HA 0000000180031290 f   async_pbkdf2.obj
 0001:00030290       ?dtor$0@?0??HandleOKCallback@AsyncAesEncryptCTR@@UEAAXXZ@4HA 0000000180031290 f   async_aes.obj
 0001:00030290       ?dtor$0@?0??HandleOKCallback@AsyncEncrypDecryptRsaOAEP@@UEAAXXZ@4HA 0000000180031290 f   async_rsa.obj
 0001:00030290       ?dtor$0@?0??HandleOKCallback@AsyncHmacExport@@UEAAXXZ@4HA 0000000180031290 f   async_hmac.obj
 0001:00030290       ?dtor$0@?0??HandleOKCallback@AsyncExportPkcs8@@UEAAXXZ@4HA 0000000180031290 f   async_rsa.obj
 0001:00030290       ?dtor$0@?0??HandleOKCallback@AsyncExportSpki@@UEAAXXZ@4HA 0000000180031290 f   async_rsa.obj
 0001:00030290       ?dtor$0@?0??HandleOKCallback@AsyncAesEncryptECB@@UEAAXXZ@4HA 0000000180031290 f   async_aes.obj
 0001:00030290       ?dtor$0@?0??HandleOKCallback@AsyncAesEncryptGCM@@UEAAXXZ@4HA 0000000180031290 f   async_aes.obj
 0001:00030290       ?dtor$0@?0??HandleOKCallback@AsyncHmacSign@@UEAAXXZ@4HA 0000000180031290 f   async_hmac.obj
 0001:00030290       ?dtor$0@?0??HandleOKCallback@AsyncAesExport@@UEAAXXZ@4HA 0000000180031290 f   async_aes.obj
 0001:00030290       ?dtor$0@?0??HandleOKCallback@AsyncSignRsa@@UEAAXXZ@4HA 0000000180031290 f   async_rsa.obj
 0001:00030290       ?dtor$0@?0??HandleOKCallback@AsyncSignRsaPSS@@UEAAXXZ@4HA 0000000180031290 f   async_rsa.obj
 0001:00030290       ?dtor$0@?0??HandleOKCallback@AsyncAesWrapKey@@UEAAXXZ@4HA 0000000180031290 f   async_aes.obj
 0001:00030290       ?dtor$0@?0??HandleOKCallback@AsyncEcdsaSign@@UEAAXXZ@4HA 0000000180031290 f   async_ec.obj
 0001:00030290       ?dtor$0@?0??HandleOKCallback@AsyncEcdhDeriveKey@@UEAAXXZ@4HA 0000000180031290 f   async_ec.obj
 0001:00030290       ?dtor$0@?0??HandleOKCallback@AsyncDigest@@UEAAXXZ@4HA 0000000180031290 f   async_core.obj
 0001:00030290       ?dtor$0@?0??HandleOKCallback@AsyncEcdhDeriveBits@@UEAAXXZ@4HA 0000000180031290 f   async_ec.obj
 0001:000302a0       ?catch$1@?0??Execute@AsyncRsaGenerateKey@@UEAAXXZ@4HA 00000001800312a0 f   async_rsa.obj
 0001:000302ad       __catch$?Execute@AsyncRsaGenerateKey@@UEAAXXZ$0 00000001800312ad f   async_rsa.obj
 0001:00030300       ?dtor$0@?0??HandleOKCallback@AsyncEcExportJwk@@UEAAXXZ@4HA 0000000180031300 f   async_ec.obj
 0001:00030300       ?dtor$0@?0??HandleOKCallback@AsyncEcImportJwk@@UEAAXXZ@4HA 0000000180031300 f   async_ec.obj
 0001:00030300       ?dtor$0@?0??HandleOKCallback@AsyncVerifyRsaPSS@@UEAAXXZ@4HA 0000000180031300 f   async_rsa.obj
 0001:00030300       ?dtor$0@?0??HandleOKCallback@AsyncHmacVerify@@UEAAXXZ@4HA 0000000180031300 f   async_hmac.obj
 0001:00030300       ?dtor$0@?0??HandleOKCallback@AsyncEcdsaVerify@@UEAAXXZ@4HA 0000000180031300 f   async_ec.obj
 0001:00030300       ?dtor$0@?0??HandleOKCallback@AsyncVerifyRsa@@UEAAXXZ@4HA 0000000180031300 f   async_rsa.obj
 0001:00030300       ?dtor$0@?0??HandleOKCallback@AsyncAesImport@@UEAAXXZ@4HA 0000000180031300 f   async_aes.obj
 0001:00030300       ?dtor$0@?0??HandleOKCallback@AsyncAesGenerateKey@@UEAAXXZ@4HA 0000000180031300 f   async_aes.obj
 0001:00030300       ?dtor$0@?0??HandleOKCallback@AsyncRsaGenerateKey@@UEAAXXZ@4HA 0000000180031300 f   async_rsa.obj
 0001:00030300       ?dtor$0@?0??HandleOKCallback@AsyncImportSpki@@UEAAXXZ@4HA 0000000180031300 f   async_rsa.obj
 0001:00030300       ?dtor$0@?0??HandleOKCallback@AsyncImportPkcs8@@UEAAXXZ@4HA 0000000180031300 f   async_rsa.obj
 0001:00030300       ?dtor$0@?0??HandleOKCallback@AsyncHmacImport@@UEAAXXZ@4HA 0000000180031300 f   async_hmac.obj
 0001:00030300       ?dtor$0@?0??HandleOKCallback@AsyncHmacGenerateKey@@UEAAXXZ@4HA 0000000180031300 f   async_hmac.obj
 0001:00030300       ?dtor$0@?0??HandleOKCallback@AsyncExportJwkRsa@@UEAAXXZ@4HA 0000000180031300 f   async_rsa.obj
 0001:00030300       ?dtor$0@?0??HandleOKCallback@AsyncEcGenerateKey@@UEAAXXZ@4HA 0000000180031300 f   async_ec.obj
 0001:00030300       ?dtor$0@?0??HandleOKCallback@AsyncPbkdf2Import@@UEAAXXZ@4HA 0000000180031300 f   async_pbkdf2.obj
 0001:00030300       ?dtor$0@?0??HandleOKCallback@AsyncImportJwkRsa@@UEAAXXZ@4HA 0000000180031300 f   async_rsa.obj
 0001:00030310       ?catch$2@?0??Execute@AsyncExportJwkRsa@@UEAAXXZ@4HA 0000000180031310 f   async_rsa.obj
 0001:0003031d       __catch$?Execute@AsyncExportJwkRsa@@UEAAXXZ$0 000000018003131d f   async_rsa.obj
 0001:00030370       ?catch$1@?0??Execute@AsyncExportSpki@@UEAAXXZ@4HA 0000000180031370 f   async_rsa.obj
 0001:0003037d       __catch$?Execute@AsyncExportSpki@@UEAAXXZ$0 000000018003137d f   async_rsa.obj
 0001:000303d0       ?catch$1@?0??Execute@AsyncExportPkcs8@@UEAAXXZ@4HA 00000001800313d0 f   async_rsa.obj
 0001:000303dd       __catch$?Execute@AsyncExportPkcs8@@UEAAXXZ$0 00000001800313dd f   async_rsa.obj
 0001:00030430       ?catch$2@?0??Execute@AsyncImportPkcs8@@UEAAXXZ@4HA 0000000180031430 f   async_rsa.obj
 0001:0003043d       __catch$?Execute@AsyncImportPkcs8@@UEAAXXZ$0 000000018003143d f   async_rsa.obj
 0001:00030490       ?catch$2@?0??Execute@AsyncImportSpki@@UEAAXXZ@4HA 0000000180031490 f   async_rsa.obj
 0001:0003049d       __catch$?Execute@AsyncImportSpki@@UEAAXXZ$0 000000018003149d f   async_rsa.obj
 0001:000304f0       ?catch$1@?0??Execute@AsyncImportJwkRsa@@UEAAXXZ@4HA 00000001800314f0 f   async_rsa.obj
 0001:000304fd       __catch$?Execute@AsyncImportJwkRsa@@UEAAXXZ$0 00000001800314fd f   async_rsa.obj
 0001:00030550       ?catch$3@?0??Execute@AsyncSignRsa@@UEAAXXZ@4HA 0000000180031550 f   async_rsa.obj
 0001:0003055d       __catch$?Execute@AsyncSignRsa@@UEAAXXZ$0 000000018003155d f   async_rsa.obj
 0001:000305b0       ?catch$3@?0??Execute@AsyncVerifyRsa@@UEAAXXZ@4HA 00000001800315b0 f   async_rsa.obj
 0001:000305bd       __catch$?Execute@AsyncVerifyRsa@@UEAAXXZ$0 00000001800315bd f   async_rsa.obj
 0001:00030610       ?catch$3@?0??Execute@AsyncSignRsaPSS@@UEAAXXZ@4HA 0000000180031610 f   async_rsa.obj
 0001:0003061d       __catch$?Execute@AsyncSignRsaPSS@@UEAAXXZ$0 000000018003161d f   async_rsa.obj
 0001:00030670       ?catch$3@?0??Execute@AsyncVerifyRsaPSS@@UEAAXXZ@4HA 0000000180031670 f   async_rsa.obj
 0001:0003067d       __catch$?Execute@AsyncVerifyRsaPSS@@UEAAXXZ$0 000000018003167d f   async_rsa.obj
 0001:000306d0       ?catch$1@?0??Execute@AsyncEcGenerateKey@@UEAAXXZ@4HA 00000001800316d0 f   async_ec.obj
 0001:000306dd       __catch$?Execute@AsyncEcGenerateKey@@UEAAXXZ$0 00000001800316dd f   async_ec.obj
 0001:00030730       ?catch$3@?0??Execute@AsyncEcdhDeriveKey@@UEAAXXZ@4HA 0000000180031730 f   async_ec.obj
 0001:0003073d       __catch$?Execute@AsyncEcdhDeriveKey@@UEAAXXZ$0 000000018003173d f   async_ec.obj
 0001:00030790       ?catch$2@?0??Execute@AsyncEcExportJwk@@UEAAXXZ@4HA 0000000180031790 f   async_ec.obj
 0001:0003079d       __catch$?Execute@AsyncEcExportJwk@@UEAAXXZ$0 000000018003179d f   async_ec.obj
 0001:000307f0       ?catch$1@?0??Execute@AsyncEcImportJwk@@UEAAXXZ@4HA 00000001800317f0 f   async_ec.obj
 0001:000307fd       __catch$?Execute@AsyncEcImportJwk@@UEAAXXZ$0 00000001800317fd f   async_ec.obj
 0001:00030850       ?catch$3@?0??Execute@AsyncEcdsaSign@@UEAAXXZ@4HA 0000000180031850 f   async_ec.obj
 0001:0003085d       __catch$?Execute@AsyncEcdsaSign@@UEAAXXZ$0 000000018003185d f   async_ec.obj
 0001:000308b0       ?catch$3@?0??Execute@AsyncEcdsaVerify@@UEAAXXZ@4HA 00000001800318b0 f   async_ec.obj
 0001:000308bd       __catch$?Execute@AsyncEcdsaVerify@@UEAAXXZ$0 00000001800318bd f   async_ec.obj
 0001:00030910       ?catch$3@?0??Execute@AsyncEcdhDeriveBits@@UEAAXXZ@4HA 0000000180031910 f   async_ec.obj
 0001:0003091d       __catch$?Execute@AsyncEcdhDeriveBits@@UEAAXXZ$0 000000018003191d f   async_ec.obj
 0001:00030970       ?catch$1@?0??Execute@AsyncAesGenerateKey@@UEAAXXZ@4HA 0000000180031970 f   async_aes.obj
 0001:0003097d       __catch$?Execute@AsyncAesGenerateKey@@UEAAXXZ$0 000000018003197d f   async_aes.obj
 0001:000309d0       ?catch$6@?0??Execute@AsyncAesEncryptCBC@@UEAAXXZ@4HA 00000001800319d0 f   async_aes.obj
 0001:000309dd       __catch$?Execute@AsyncAesEncryptCBC@@UEAAXXZ$0 00000001800319dd f   async_aes.obj
 0001:00030a30       ?catch$4@?0??Execute@AsyncAesEncryptECB@@UEAAXXZ@4HA 0000000180031a30 f   async_aes.obj
 0001:00030a3d       __catch$?Execute@AsyncAesEncryptECB@@UEAAXXZ$0 0000000180031a3d f   async_aes.obj
 0001:00030a90       ?catch$4@?0??Execute@AsyncAesImport@@UEAAXXZ@4HA 0000000180031a90 f   async_aes.obj
 0001:00030a9d       __catch$?Execute@AsyncAesImport@@UEAAXXZ$0 0000000180031a9d f   async_aes.obj
 0001:00030af0       ?catch$8@?0??Execute@AsyncAesEncryptGCM@@UEAAXXZ@4HA 0000000180031af0 f   async_aes.obj
 0001:00030afd       __catch$?Execute@AsyncAesEncryptGCM@@UEAAXXZ$0 0000000180031afd f   async_aes.obj
 0001:00030b50       ?catch$4@?0??Execute@AsyncAesWrapKey@@UEAAXXZ@4HA 0000000180031b50 f   async_aes.obj
 0001:00030b5d       __catch$?Execute@AsyncAesWrapKey@@UEAAXXZ$0 0000000180031b5d f   async_aes.obj
 0001:00030bb0       ?catch$6@?0??Execute@AsyncAesEncryptCTR@@UEAAXXZ@4HA 0000000180031bb0 f   async_aes.obj
 0001:00030bbd       __catch$?Execute@AsyncAesEncryptCTR@@UEAAXXZ$0 0000000180031bbd f   async_aes.obj
 0001:00030c10       ?catch$1@?0??Execute@AsyncHmacGenerateKey@@UEAAXXZ@4HA 0000000180031c10 f   async_hmac.obj
 0001:00030c1d       __catch$?Execute@AsyncHmacGenerateKey@@UEAAXXZ$0 0000000180031c1d f   async_hmac.obj
 0001:00030c70       ?catch$4@?0??Execute@AsyncHmacImport@@UEAAXXZ@4HA 0000000180031c70 f   async_hmac.obj
 0001:00030c7d       __catch$?Execute@AsyncHmacImport@@UEAAXXZ$0 0000000180031c7d f   async_hmac.obj
 0001:00030cd0       ?catch$2@?0??Execute@AsyncHmacSign@@UEAAXXZ@4HA 0000000180031cd0 f   async_hmac.obj
 0001:00030cdd       __catch$?Execute@AsyncHmacSign@@UEAAXXZ$0 0000000180031cdd f   async_hmac.obj
 0001:00030d30       ?catch$2@?0??Execute@AsyncHmacVerify@@UEAAXXZ@4HA 0000000180031d30 f   async_hmac.obj
 0001:00030d3d       __catch$?Execute@AsyncHmacVerify@@UEAAXXZ$0 0000000180031d3d f   async_hmac.obj
 0001:00030d90       ?catch$4@?0??Execute@AsyncPbkdf2Import@@UEAAXXZ@4HA 0000000180031d90 f   async_pbkdf2.obj
 0001:00030d9d       __catch$?Execute@AsyncPbkdf2Import@@UEAAXXZ$0 0000000180031d9d f   async_pbkdf2.obj
 0001:00030df0       ?catch$2@?0??Execute@AsyncPbkdf2DeriveBits@@UEAAXXZ@4HA 0000000180031df0 f   async_pbkdf2.obj
 0001:00030dfd       __catch$?Execute@AsyncPbkdf2DeriveBits@@UEAAXXZ$0 0000000180031dfd f   async_pbkdf2.obj
 0001:00030e50       ?catch$2@?0??Execute@AsyncDigest@@UEAAXXZ@4HA 0000000180031e50 f   async_core.obj
 0001:00030e5d       __catch$?Execute@AsyncDigest@@UEAAXXZ$0 0000000180031e5d f   async_core.obj
 0001:00030ea5       __scrt_is_nonwritable_in_current_image$filt$0 0000000180031ea5 f   LIBCMT:utility.obj
 0001:00030ebd       ?fin$0@?0??dllmain_crt_process_attach@@YAHQEAUHINSTANCE__@@QEAX@Z@4HA 0000000180031ebd f   LIBCMT:dll_dllmain.obj
 0001:00030ed4       ?fin$0@?0??dllmain_crt_process_detach@@YAH_N@Z@4HA 0000000180031ed4 f   LIBCMT:dll_dllmain.obj
 0001:00030ef0       ?filt$0@?0??dllmain_dispatch@@YAHQEAUHINSTANCE__@@KQEAX@Z@4HA 0000000180031ef0 f   LIBCMT:dll_dllmain.obj
 0001:00030f26       __CxxCallCatchBlock$filt$0 0000000180031f26 f   libvcruntime:frame.obj
 0001:00030f4b       __CxxCallCatchBlock$fin$1  0000000180031f4b f   libvcruntime:frame.obj
 0001:00030fc3       __DestructExceptionObject$filt$0 0000000180031fc3 f   libvcruntime:frame.obj
 0001:00030fdb       __FrameUnwindToState$filt$0 0000000180031fdb f   libvcruntime:frame.obj
 0001:00030ff1       __FrameUnwindToState$fin$1 0000000180031ff1 f   libvcruntime:frame.obj
 0001:00031014       _CallSETranslator$filt$0   0000000180032014 f   libvcruntime:trnsctrl.obj
 0001:00031060       _query_new_handler$fin$0   0000000180032060 f   libucrt:new_handler.obj
 0001:00031076       ?filt$0@?0??common_exit@@YAXHW4_crt_exit_cleanup_mode@@W4_crt_exit_return_mode@@@Z@4HA 0000000180032076 f   libucrt:exit.obj
 0001:00031091       ?fin$1@?0??common_exit@@YAXHW4_crt_exit_cleanup_mode@@W4_crt_exit_return_mode@@@Z@4HA 0000000180032091 f   libucrt:exit.obj
 0001:000310aa       ?fin$0@?0???$?RV<lambda_e24bbb7b643b32fcea6fa61b31d4c984>@@AEAV<lambda_275893d493268fdec8709772e3fcec0e>@@V<lambda_9d71df4d7cf3f480f8d633942495c3b0>@@@?$__crt_seh_guarded_call@H@@QEAAH$$QEAV<lambda_e24bbb7b643b32fcea6fa61b31d4c984>@@AEAV<lambda_275893d493268fdec8709772e3fcec0e>@@$$QEAV<lambda_9d71df4d7cf3f480f8d633942495c3b0>@@@Z@4HA 00000001800320aa f   libucrt:onexit.obj
 0001:000310c7       ?fin$0@?0???$?RV<lambda_c36588078e9f5dfd39652860aa6b3aaf>@@AEAV<lambda_ec61778202f4f5fc7e7711acc23c3bca>@@V<lambda_dc9d2797ccde5d239b4a0efae8ebd7db>@@@?$__crt_seh_guarded_call@P6AXH@Z@@QEAAP6AXH@Z$$QEAV<lambda_c36588078e9f5dfd39652860aa6b3aaf>@@AEAV<lambda_ec61778202f4f5fc7e7711acc23c3bca>@@$$QEAV<lambda_dc9d2797ccde5d239b4a0efae8ebd7db>@@@Z@4HA 00000001800320c7 f   libucrt:signal.obj
 0001:000310c7       ?fin$0@?0???$?RV<lambda_5e887d1dcbef67a5eb4283622ba103bf>@@AEAV<lambda_4466841279450cc726390878d4a41900>@@V<lambda_341c25c0346d94847f1f3c463c57e077>@@@?$__crt_seh_guarded_call@X@@QEAAX$$QEAV<lambda_5e887d1dcbef67a5eb4283622ba103bf>@@AEAV<lambda_4466841279450cc726390878d4a41900>@@$$QEAV<lambda_341c25c0346d94847f1f3c463c57e077>@@@Z@4HA 00000001800320c7 f   libucrt:per_thread_data.obj
 0001:000310c7       ?fin$0@?0???$?RV<lambda_fb3a7dec4e47f37f22dae91bb15c9095>@@AEAV<lambda_698284760c8add0bfb0756c19673e34b>@@V<lambda_dfb8eca1e75fef3034a8fb18dd509707>@@@?$__crt_seh_guarded_call@X@@QEAAX$$QEAV<lambda_fb3a7dec4e47f37f22dae91bb15c9095>@@AEAV<lambda_698284760c8add0bfb0756c19673e34b>@@$$QEAV<lambda_dfb8eca1e75fef3034a8fb18dd509707>@@@Z@4HA 00000001800320c7 f   libucrt:per_thread_data.obj
 0001:000310c7       ?fin$0@?0???$?RV<lambda_46352004c1216016012b18bd6f87e700>@@AEAV<lambda_3bd07e1a1191394380780325891bf33f>@@V<lambda_334532d3f185bcaa59b5be82d7d22bff>@@@?$__crt_seh_guarded_call@X@@QEAAX$$QEAV<lambda_46352004c1216016012b18bd6f87e700>@@AEAV<lambda_3bd07e1a1191394380780325891bf33f>@@$$QEAV<lambda_334532d3f185bcaa59b5be82d7d22bff>@@@Z@4HA 00000001800320c7 f   libucrt:per_thread_data.obj
 0001:000310c7       ?fin$0@?0???$?RV<lambda_b8c45f8f788dd370798f47cfe8ac3a86>@@AEAV<lambda_4e60a939b0d047cfe11ddc22648dfba9>@@V<lambda_332c3edc96d0294ec56c57d38c1cdfd5>@@@?$__crt_seh_guarded_call@H@@QEAAH$$QEAV<lambda_b8c45f8f788dd370798f47cfe8ac3a86>@@AEAV<lambda_4e60a939b0d047cfe11ddc22648dfba9>@@$$QEAV<lambda_332c3edc96d0294ec56c57d38c1cdfd5>@@@Z@4HA 00000001800320c7 f   libucrt:onexit.obj
 0001:000310c7       ?fin$0@?0???$?RV<lambda_72d1df2b273a38828b1ce30cbf4cdab5>@@AEAV<lambda_876a65b173b8412d3a47c70a915b0cf4>@@V<lambda_41932305e351933ebe8f8be3ed8bb5dc>@@@?$__crt_seh_guarded_call@X@@QEAAX$$QEAV<lambda_72d1df2b273a38828b1ce30cbf4cdab5>@@AEAV<lambda_876a65b173b8412d3a47c70a915b0cf4>@@$$QEAV<lambda_41932305e351933ebe8f8be3ed8bb5dc>@@@Z@4HA 00000001800320c7 f   libucrt:per_thread_data.obj
 0001:000310c7       ?fin$0@?0???$?RV<lambda_99476a1ad63dd22509b5d3e65b0ffc95>@@AEAV<lambda_ad1ced32f4ac17aa236e5ef05d6b3b7c>@@V<lambda_f7424dd8d45958661754dc4f2697e9c3>@@@?$__crt_seh_guarded_call@X@@QEAAX$$QEAV<lambda_99476a1ad63dd22509b5d3e65b0ffc95>@@AEAV<lambda_ad1ced32f4ac17aa236e5ef05d6b3b7c>@@$$QEAV<lambda_f7424dd8d45958661754dc4f2697e9c3>@@@Z@4HA 00000001800320c7 f   libucrt:mbctype.obj
 0001:000310e1       common_flush_all$fin$0     00000001800320e1 f   libucrt:fflush.obj
 0001:000310fb       common_flush_all$fin$1     00000001800320fb f   libucrt:fflush.obj
 0001:00031114       fflush$fin$0               0000000180032114 f   libucrt:fflush.obj
 0001:00031114       fclose$fin$0               0000000180032114 f   libucrt:fclose.obj
 0001:0003112c       ?fin$0@?0???$?RV<lambda_7b91131dde12e1c3dfc74ff76b3f2eac>@@AEAV<lambda_dd75445284c072d0bd3768540cc698fa>@@V<lambda_16bc4ecb55b4718497c16bceaea2ceaf>@@@?$__crt_seh_guarded_call@H@@QEAAH$$QEAV<lambda_7b91131dde12e1c3dfc74ff76b3f2eac>@@AEAV<lambda_dd75445284c072d0bd3768540cc698fa>@@$$QEAV<lambda_16bc4ecb55b4718497c16bceaea2ceaf>@@@Z@4HA 000000018003212c f   libucrt:output.obj
 0001:0003112c       ?fin$0@?0???$?RV<lambda_7a5ef57ff966f610505f1d28a3d40618>@@AEAV<lambda_b721fa326cdb32351d23dfa67958c160>@@V<lambda_5e0fb27672408a07956fe59e48ccb2aa>@@@?$__crt_seh_guarded_call@H@@QEAAH$$QEAV<lambda_7a5ef57ff966f610505f1d28a3d40618>@@AEAV<lambda_b721fa326cdb32351d23dfa67958c160>@@$$QEAV<lambda_5e0fb27672408a07956fe59e48ccb2aa>@@@Z@4HA 000000018003212c f   libucrt:setvbuf.obj
 0001:00031147       raise$fin$0                0000000180032147 f   libucrt:signal.obj
 0001:0003116b       __acrt_uninitialize_locale$fin$0 000000018003216b f   libucrt:wsetlocale.obj
 0001:0003116b       __acrt_update_thread_locale_data$fin$0 000000018003216b f   libucrt:locale_refcounting.obj
 0001:00031184       __acrt_update_thread_multibyte_data$fin$0 0000000180032184 f   libucrt:mbctype.obj
 0001:0003119d       __acrt_lowio_ensure_fh_exists$fin$0 000000018003219d f   libucrt:osfinfo.obj
 0001:0003119d       __acrt_initialize_lowio$fin$0 000000018003219d f   libucrt:ioinit.obj
 0001:000311b6       _fcloseall$fin$0           00000001800321b6 f   libucrt:closeall.obj
 0001:000311cf       ?fin$0@?0???$?RV<lambda_bfedae4ebbf01fab1bb6dcc6a9e276e0>@@AEAV<lambda_2fe9b910cf3cbf4a0ab98a02ba45b3ec>@@V<lambda_237c231691f317818eb88cc1d5d642d6>@@@?$__crt_seh_guarded_call@H@@QEAAH$$QEAV<lambda_bfedae4ebbf01fab1bb6dcc6a9e276e0>@@AEAV<lambda_2fe9b910cf3cbf4a0ab98a02ba45b3ec>@@$$QEAV<lambda_237c231691f317818eb88cc1d5d642d6>@@@Z@4HA 00000001800321cf f   libucrt:close.obj
 0001:000311cf       ?fin$0@?0???$?RV<lambda_b521505b218e5242e90febf6bfebc422>@@AEAV<lambda_6978c1fb23f02e42e1d9e99668cc68aa>@@V<lambda_314360699dd331753a4119843814e9a7>@@@?$__crt_seh_guarded_call@H@@QEAAH$$QEAV<lambda_b521505b218e5242e90febf6bfebc422>@@AEAV<lambda_6978c1fb23f02e42e1d9e99668cc68aa>@@$$QEAV<lambda_314360699dd331753a4119843814e9a7>@@@Z@4HA 00000001800321cf f   libucrt:commit.obj
 0001:000311e9       ?fin$0@?0???$common_lseek@_J@@YA_JH_JH@Z@4HA 00000001800321e9 f   libucrt:lseek.obj
 0001:000311e9       _write$fin$0               00000001800321e9 f   libucrt:write.obj
 0001:00031200       common_control87$filt$0    0000000180032200 f   libucrt:ieee.obj
 0001:00031200       _ctrlfp$filt$0             0000000180032200 f   libucrt:fpctrl.obj
 0001:00031230       _IsNonwritableInCurrentImage$filt$0 0000000180032230 f   LIBCMT:pesect.obj
 0002:000002b8       ?__scrt_initialize_tss_var@@3P6AHXZEA 00000001800332b8     LIBCMT:thread_safe_statics.obj
 0002:00000490       GS_ExceptionPointers       0000000180033490     LIBCMT:gs_report.obj
 0002:00000500       ?ExceptionTemplate@?1??_CxxThrowException@@9@4UEHExceptionRecord@@B 0000000180033500     libvcruntime:throw.obj
 0002:00000540       ?module_names@?A0x679b24ab@@3QBQEB_WB 0000000180033540     libvcruntime:winapi_downlevel.obj
 0002:00000610       ?candidate_modules@?1??try_get_FlsAlloc@@YAP6AKP6AXPEAX@Z@ZXZ@4QBW4module_id@?A0x679b24ab@@B 0000000180033610     libvcruntime:winapi_downlevel.obj
 0002:00000628       ?candidate_modules@?1??try_get_FlsFree@@YAP6AHK@ZXZ@4QBW4module_id@?A0x679b24ab@@B 0000000180033628     libvcruntime:winapi_downlevel.obj
 0002:00000638       ?candidate_modules@?1??try_get_FlsGetValue@@YAP6APEAXK@ZXZ@4QBW4module_id@?A0x679b24ab@@B 0000000180033638     libvcruntime:winapi_downlevel.obj
 0002:00000650       ?candidate_modules@?1??try_get_FlsSetValue@@YAP6AHKPEAX@ZXZ@4QBW4module_id@?A0x679b24ab@@B 0000000180033650     libvcruntime:winapi_downlevel.obj
 0002:00000668       ?candidate_modules@?1??try_get_InitializeCriticalSectionEx@@YAP6AHPEAU_RTL_CRITICAL_SECTION@@KK@ZXZ@4QBW4module_id@?A0x679b24ab@@B 0000000180033668     libvcruntime:winapi_downlevel.obj
 0002:00000690       ?ExceptionTemplate@?1??_UnwindNestedFrames@@9@4U_EXCEPTION_RECORD@@B 0000000180033690     libvcruntime:trnsctrl.obj
 0002:00000730       ?tokenTable@@3QBQEBDB      0000000180033730     libvcruntime:undname.obj
 0002:000007a0       ?nameTable@@3QBQEBDB       00000001800337a0     libvcruntime:undname.obj
 0002:00000a28       ?rttiTable@@3QBQEBDB       0000000180033a28     libvcruntime:undname.obj
 0002:00001490       __acrt_initializers        0000000180034490     libucrt:initialization.obj
 0002:00001600       errtable                   0000000180034600     libucrt:errno.obj
 0002:00001df0       module_names               0000000180034df0     libucrt:winapi_thunks.obj
 0002:00002320       ?candidate_modules@?1??try_get_FlsAlloc@@YAP6AKP6AXPEAX@Z@ZXZ@4QBW4module_id@?A0x63058377@@B 0000000180035320     libucrt:winapi_thunks.obj
 0002:00002328       ?candidate_modules@?1??try_get_FlsFree@@YAP6AHK@ZXZ@4QBW4module_id@?A0x63058377@@B 0000000180035328     libucrt:winapi_thunks.obj
 0002:00002330       ?candidate_modules@?1??try_get_FlsGetValue@@YAP6APEAXK@ZXZ@4QBW4module_id@?A0x63058377@@B 0000000180035330     libucrt:winapi_thunks.obj
 0002:00002338       ?candidate_modules@?1??try_get_FlsSetValue@@YAP6AHKPEAX@ZXZ@4QBW4module_id@?A0x63058377@@B 0000000180035338     libucrt:winapi_thunks.obj
 0002:00002340       ?candidate_modules@?1??try_get_GetActiveWindow@@YAP6APEAUHWND__@@XZXZ@4QBW4module_id@?A0x63058377@@B 0000000180035340     libucrt:winapi_thunks.obj
 0002:00002358       ?candidate_modules@?1??try_get_GetCurrentPackageId@@YAP6AJPEAIPEAE@ZXZ@4QBW4module_id@?A0x63058377@@B 0000000180035358     libucrt:winapi_thunks.obj
 0002:00002378       ?candidate_modules@?1??try_get_GetLastActivePopup@@YAP6APEAUHWND__@@PEAU2@@ZXZ@4QBW4module_id@?A0x63058377@@B 0000000180035378     libucrt:winapi_thunks.obj
 0002:00002398       ?candidate_modules@?1??try_get_GetProcessWindowStation@@YAP6APEAUHWINSTA__@@XZXZ@4QBW4module_id@?A0x63058377@@B 0000000180035398     libucrt:winapi_thunks.obj
 0002:000023b8       ?candidate_modules@?1??try_get_GetUserObjectInformationW@@YAP6AHPEAXH0KPEAK@ZXZ@4QBW4module_id@?A0x63058377@@B 00000001800353b8     libucrt:winapi_thunks.obj
 0002:000023e0       ?candidate_modules@?1??try_get_InitializeCriticalSectionEx@@YAP6AHPEAU_RTL_CRITICAL_SECTION@@KK@ZXZ@4QBW4module_id@?A0x63058377@@B 00000001800353e0     libucrt:winapi_thunks.obj
 0002:000023e8       ?candidate_modules@?1??try_get_LCMapStringEx@@YAP6AHPEB_WK0HPEA_WHPEAU_nlsversioninfo@@PEAX_J@ZXZ@4QBW4module_id@?A0x63058377@@B 00000001800353e8     libucrt:winapi_thunks.obj
 0002:00002400       ?candidate_modules@?1??try_get_LocaleNameToLCID@@YAP6AKPEB_WK@ZXZ@4QBW4module_id@?A0x63058377@@B 0000000180035400     libucrt:winapi_thunks.obj
 0002:00002420       ?candidate_modules@?1??try_get_MessageBoxA@@YAP6AHPEAUHWND__@@PEBD1I@ZXZ@4QBW4module_id@?A0x63058377@@B 0000000180035420     libucrt:winapi_thunks.obj
 0002:00002438       ?candidate_modules@?1??try_get_MessageBoxW@@YAP6AHPEAUHWND__@@PEB_W1I@ZXZ@4QBW4module_id@?A0x63058377@@B 0000000180035438     libucrt:winapi_thunks.obj
 0002:00002450       _mb_locale_names           0000000180035450     libucrt:mbctype.obj
 0002:00002d20       LcidToLocaleNameTable      0000000180035d20     libucrt:lcidtoname_downlevel.obj
 0002:00004780       LocaleNameToIndexTable     0000000180037780     libucrt:lcidtoname_downlevel.obj
 0002:00006a10       __real_ninf                0000000180039a10     libucrt:log10.obj
 0002:00006a20       __real_inf                 0000000180039a20     libucrt:log10.obj
 0002:00006a30       __real_neg_qnan            0000000180039a30     libucrt:log10.obj
 0002:00006a40       __real_qnanbit             0000000180039a40     libucrt:log10.obj
 0002:00006a50       __int_1023                 0000000180039a50     libucrt:log10.obj
 0002:00006a60       __mask_001                 0000000180039a60     libucrt:log10.obj
 0002:00006a70       __mask_mant                0000000180039a70     libucrt:log10.obj
 0002:00006a80       __mask_mant_top8           0000000180039a80     libucrt:log10.obj
 0002:00006a90       __mask_mant9               0000000180039a90     libucrt:log10.obj
 0002:00006aa0       __real_log10_e             0000000180039aa0     libucrt:log10.obj
 0002:00006ab0       __real_log10_e_lead        0000000180039ab0     libucrt:log10.obj
 0002:00006ac0       __real_log10_e_tail        0000000180039ac0     libucrt:log10.obj
 0002:00006ad0       __real_log10_2_lead        0000000180039ad0     libucrt:log10.obj
 0002:00006ae0       __real_log10_2_tail        0000000180039ae0     libucrt:log10.obj
 0002:00006af0       __real_two                 0000000180039af0     libucrt:log10.obj
 0002:00006b00       __real_one                 0000000180039b00     libucrt:log10.obj
 0002:00006b10       __real_half                0000000180039b10     libucrt:log10.obj
 0002:00006b20       __mask_100                 0000000180039b20     libucrt:log10.obj
 0002:00006b30       __real_1_over_512          0000000180039b30     libucrt:log10.obj
 0002:00006b40       __real_1_over_2            0000000180039b40     libucrt:log10.obj
 0002:00006b50       __real_1_over_3            0000000180039b50     libucrt:log10.obj
 0002:00006b60       __real_1_over_4            0000000180039b60     libucrt:log10.obj
 0002:00006b70       __real_1_over_5            0000000180039b70     libucrt:log10.obj
 0002:00006b80       __real_1_over_6            0000000180039b80     libucrt:log10.obj
 0002:00006b90       __real_neg_1023            0000000180039b90     libucrt:log10.obj
 0002:00006ba0       __mask_2045                0000000180039ba0     libucrt:log10.obj
 0002:00006bb0       __real_threshold           0000000180039bb0     libucrt:log10.obj
 0002:00006bc0       __real_near_one_lt         0000000180039bc0     libucrt:log10.obj
 0002:00006bd0       __real_near_one_gt         0000000180039bd0     libucrt:log10.obj
 0002:00006be0       __real_min_norm            0000000180039be0     libucrt:log10.obj
 0002:00006bf0       __real_notsign             0000000180039bf0     libucrt:log10.obj
 0002:00006c00       __real_ca1                 0000000180039c00     libucrt:log10.obj
 0002:00006c10       __real_ca2                 0000000180039c10     libucrt:log10.obj
 0002:00006c20       __real_ca3                 0000000180039c20     libucrt:log10.obj
 0002:00006c30       __real_ca4                 0000000180039c30     libucrt:log10.obj
 0002:00006c40       __mask_lower               0000000180039c40     libucrt:log10.obj
 0002:00006c50       __flag_x_zero              0000000180039c50     libucrt:log10.obj
 0002:00006c54       __flag_x_neg               0000000180039c54     libucrt:log10.obj
 0002:00006c58       __flag_x_nan               0000000180039c58     libucrt:log10.obj
 0002:000084b0       __real@433fffffffffffff    000000018003b4b0     libucrt:fpsr.obj
 0002:000084b8       __real@c33fffffffffffff    000000018003b4b8     libucrt:fpsr.obj
 0002:00009aa0       $cppxdata$?InitModule@@YAXV?$Local@VObject@v8@@@v8@@@Z 000000018003caa0     main.obj
 0002:00009bd8       $cppxdata$?_Destroy@?$_Ref_count@V?$ScopedSSL@Uevp_pkey_st@@$1?ScopedEVP_PKEY_free@@YAXPEAX@Z@@@std@@EEAAXXZ 000000018003cbd8     key_exp.obj
 0002:00009c00       $cppxdata$??1?$ScopedSSL@Ubio_st@@$1?ScopedBIO_free@@YAXPEAX@Z@@QEAA@XZ 000000018003cc00     key_exp.obj
 0002:00009c00       $cppxdata$??1?$ScopedSSL@Ubignum_st@@$1?ScopedBIGNUM_free@@YAXPEAX@Z@@QEAA@XZ 000000018003cc00     rsa_gen.obj
 0002:00009c00       $cppxdata$??1?$ScopedSSL@Uec_key_st@@$1?ScopedEC_KEY_free@@YAXPEAX@Z@@QEAA@XZ 000000018003cc00     ec_gen.obj
 0002:00009c00       $cppxdata$??1?$ScopedSSL@UECDSA_SIG_st@@$1?ScopedECDSA_SIG_free@@YAXPEAX@Z@@QEAA@XZ 000000018003cc00     ec_dsa.obj
 0002:00009c00       $cppxdata$??1?$ScopedSSL@Uevp_cipher_ctx_st@@$1?ScopedEVP_CIPHER_CTX_free@@YAXPEAX@Z@@QEAA@XZ 000000018003cc00     aes_ecb.obj
 0002:00009c00       $cppxdata$??1?$ScopedSSL@Uevp_pkey_st@@$1?ScopedEVP_PKEY_free@@YAXPEAX@Z@@QEAA@XZ 000000018003cc00     key_exp.obj
 0002:00009c00       $cppxdata$??1?$ScopedSSL@Ubignum_ctx@@$1?ScopedBN_CTX_free@@YAXPEAX@Z@@QEAA@XZ 000000018003cc00     ec_jwk.obj
 0002:00009c00       $cppxdata$??1?$ScopedSSL@Uec_group_st@@$1?ScopedEC_GROUP_free@@YAXPEAX@Z@@QEAA@XZ 000000018003cc00     ec_jwk.obj
 0002:00009c00       $cppxdata$??1?$ScopedSSL@Uevp_pkey_ctx_st@@$1?ScopedEVP_PKEY_CTX_free@@YAXPEAX@Z@@QEAA@XZ 000000018003cc00     rsa_oaep.obj
 0002:00009c00       $cppxdata$??1?$ScopedSSL@Ursa_st@@$1?ScopedRSA_free@@YAXPEAX@Z@@QEAA@XZ 000000018003cc00     w_key.obj
 0002:00009c00       $cppxdata$??1?$ScopedSSL@Uenv_md_ctx_st@@$1?ScopedEVP_MD_CTX_free@@YAXPEAX@Z@@QEAA@XZ 000000018003cc00     rsa_pkcs1.obj
 0002:00009c28       $cppxdata$?KEY_import_pkcs8@@YA?AV?$shared_ptr@V?$ScopedSSL@Uevp_pkey_st@@$1?ScopedEVP_PKEY_free@@YAXPEAX@Z@@@std@@V?$shared_ptr@V?$basic_string@DU?$char_traits@D@std@@V?$allocator@D@2@@std@@@2@@Z 000000018003cc28     key_exp.obj
 0002:00009c50       $cppxdata$?KEY_import_spki@@YA?AV?$shared_ptr@V?$ScopedSSL@Uevp_pkey_st@@$1?ScopedEVP_PKEY_free@@YAXPEAX@Z@@@std@@V?$shared_ptr@V?$basic_string@DU?$char_traits@D@std@@V?$allocator@D@2@@std@@@2@@Z 000000018003cc50     key_exp.obj
 0002:00009c78       $cppxdata$?KEY_import@@YA?AV?$shared_ptr@V?$ScopedSSL@Uevp_pkey_st@@$1?ScopedEVP_PKEY_free@@YAXPEAX@Z@@@std@@PEAUbio_st@@P6APEAUevp_pkey_st@@0PEAPEAU4@@Z@Z 000000018003cc78     key_exp.obj
 0002:00009ca0       $cppxdata$?KEY_export@@YA?AV?$shared_ptr@V?$basic_string@DU?$char_traits@D@std@@V?$allocator@D@2@@std@@@std@@PEAUevp_pkey_st@@P6AHPEAUbio_st@@0@Z@Z 000000018003cca0     key_exp.obj
 0002:00009cc8       $cppxdata$?OPENSSL_get_errors@@YA?AV?$basic_string@DU?$char_traits@D@std@@V?$allocator@D@2@@std@@XZ 000000018003ccc8     excep.obj
 0002:00009cf0       $cppxdata$?digest@@YA?AV?$shared_ptr@V?$basic_string@DU?$char_traits@D@std@@V?$allocator@D@2@@std@@@std@@PEBUenv_md_st@@V12@@Z 000000018003ccf0     digest.obj
 0002:00009d18       $cppxdata$?RSA_generate@@YA?AV?$shared_ptr@V?$ScopedSSL@Uevp_pkey_st@@$1?ScopedEVP_PKEY_free@@YAXPEAX@Z@@@std@@HH@Z 000000018003cd18     rsa_gen.obj
 0002:00009d40       $cppxdata$??1JwkRsa@@QEAA@XZ 000000018003cd40     rsa_jwk.obj
 0002:00009d68       $cppxdata$?To@JwkRsa@@QEAA?AV?$shared_ptr@V?$ScopedSSL@Uevp_pkey_st@@$1?ScopedEVP_PKEY_free@@YAXPEAX@Z@@@std@@AEAH@Z 000000018003cd68     rsa_jwk.obj
 0002:00009d90       $cppxdata$?From@JwkRsa@@SA?AV?$shared_ptr@VJwkRsa@@@std@@V?$shared_ptr@V?$ScopedSSL@Uevp_pkey_st@@$1?ScopedEVP_PKEY_free@@YAXPEAX@Z@@@3@AEAH@Z 000000018003cd90     rsa_jwk.obj
 0002:00009db8       $cppxdata$?RSA_PKCS1_verify@@YA_NV?$shared_ptr@V?$ScopedSSL@Uevp_pkey_st@@$1?ScopedEVP_PKEY_free@@YAXPEAX@Z@@@std@@PEBUenv_md_st@@V?$shared_ptr@V?$basic_string@DU?$char_traits@D@std@@V?$allocator@D@2@@std@@@2@2@Z 000000018003cdb8     rsa_pkcs1.obj
 0002:00009de0       $cppxdata$?RSA_PKCS1_sign@@YA?AV?$shared_ptr@V?$basic_string@DU?$char_traits@D@std@@V?$allocator@D@2@@std@@@std@@V?$shared_ptr@V?$ScopedSSL@Uevp_pkey_st@@$1?ScopedEVP_PKEY_free@@YAXPEAX@Z@@@2@PEBUenv_md_st@@V12@@Z 000000018003cde0     rsa_pkcs1.obj
 0002:00009e08       $cppxdata$?RSA_OAEP_enc_dec@@YA?AV?$shared_ptr@V?$basic_string@DU?$char_traits@D@std@@V?$allocator@D@2@@std@@@std@@V?$shared_ptr@V?$ScopedSSL@Uevp_pkey_st@@$1?ScopedEVP_PKEY_free@@YAXPEAX@Z@@@2@PEBUenv_md_st@@V12@2_N@Z 000000018003ce08     rsa_oaep.obj
 0002:00009e30       $cppxdata$?RSA_PSS_verify@@YA_NV?$shared_ptr@V?$ScopedSSL@Uevp_pkey_st@@$1?ScopedEVP_PKEY_free@@YAXPEAX@Z@@@std@@PEBUenv_md_st@@HV?$shared_ptr@V?$basic_string@DU?$char_traits@D@std@@V?$allocator@D@2@@std@@@2@2@Z 000000018003ce30     rsa_pss.obj
 0002:00009e58       $cppxdata$?RSA_PSS_sign@@YA?AV?$shared_ptr@V?$basic_string@DU?$char_traits@D@std@@V?$allocator@D@2@@std@@@std@@V?$shared_ptr@V?$ScopedSSL@Uevp_pkey_st@@$1?ScopedEVP_PKEY_free@@YAXPEAX@Z@@@2@PEBUenv_md_st@@HV12@@Z 000000018003ce58     rsa_pss.obj
 0002:00009e80       $cppxdata$?setRsaPssParams@@YAXPEBUenv_md_st@@HPEAUevp_pkey_ctx_st@@@Z 000000018003ce80     rsa_pss.obj
 0002:00009ea8       $cppxdata$?EC_generate@@YA?AV?$shared_ptr@V?$ScopedSSL@Uevp_pkey_st@@$1?ScopedEVP_PKEY_free@@YAXPEAX@Z@@@std@@AEAH@Z 000000018003cea8     ec_gen.obj
 0002:00009ed0       $cppxdata$?EC_DSA_verify@@YA_NV?$shared_ptr@V?$ScopedSSL@Uevp_pkey_st@@$1?ScopedEVP_PKEY_free@@YAXPEAX@Z@@@std@@PEBUenv_md_st@@V?$shared_ptr@V?$basic_string@DU?$char_traits@D@std@@V?$allocator@D@2@@std@@@2@2@Z 000000018003ced0     ec_dsa.obj
 0002:00009ef8       $cppxdata$?EC_DSA_sign@@YA?AV?$shared_ptr@V?$basic_string@DU?$char_traits@D@std@@V?$allocator@D@2@@std@@@std@@V?$shared_ptr@V?$ScopedSSL@Uevp_pkey_st@@$1?ScopedEVP_PKEY_free@@YAXPEAX@Z@@@2@PEBUenv_md_st@@V12@@Z 000000018003cef8     ec_dsa.obj
 0002:00009f20       $cppxdata$?ConvertDerSignatureToWebCryptoSignature@@YA?AV?$shared_ptr@V?$basic_string@DU?$char_traits@D@std@@V?$allocator@D@2@@std@@@std@@PEAUevp_pkey_st@@PEBEAEA_K@Z 000000018003cf20     ec_dsa.obj
 0002:00009f48       $cppxdata$?ConvertWebCryptoSignatureToDerSignature@@YA?AV?$shared_ptr@V?$basic_string@DU?$char_traits@D@std@@V?$allocator@D@2@@std@@@std@@PEAUevp_pkey_st@@PEBEAEB_KPEA_N@Z 000000018003cf48     ec_dsa.obj
 0002:00009f70       $cppxdata$?GetEcGroupOrderSize@@YA_KPEAUevp_pkey_st@@@Z 000000018003cf70     ec_dsa.obj
 0002:00009f98       $cppxdata$?ECDH_derive_bits@@YA?AV?$shared_ptr@V?$basic_string@DU?$char_traits@D@std@@V?$allocator@D@2@@std@@@std@@V?$shared_ptr@V?$ScopedSSL@Uevp_pkey_st@@$1?ScopedEVP_PKEY_free@@YAXPEAX@Z@@@2@0_NI@Z 000000018003cf98     ec_dh.obj
 0002:00009fc0       $cppxdata$?EC_get_named_curve@@YAHPEAUec_key_st@@@Z 000000018003cfc0     ec_dh.obj
 0002:00009fe8       $cppxdata$?ECDH_derive_key@@YA?AV?$shared_ptr@V?$basic_string@DU?$char_traits@D@std@@V?$allocator@D@2@@std@@@std@@V?$shared_ptr@V?$ScopedSSL@Uevp_pkey_st@@$1?ScopedEVP_PKEY_free@@YAXPEAX@Z@@@2@0AEA_K@Z 000000018003cfe8     ec_dh.obj
 0002:0000a010       $cppxdata$?_Destroy@?$_Ref_count@VJwkEc@@@std@@EEAAXXZ 000000018003d010     ec_jwk.obj
 0002:0000a038       $cppxdata$?To@JwkEc@@QEAA?AV?$shared_ptr@V?$ScopedSSL@Uevp_pkey_st@@$1?ScopedEVP_PKEY_free@@YAXPEAX@Z@@@std@@AEAH@Z 000000018003d038     ec_jwk.obj
 0002:0000a060       $cppxdata$?From@JwkEc@@SA?AV?$shared_ptr@VJwkEc@@@std@@V?$shared_ptr@V?$ScopedSSL@Uevp_pkey_st@@$1?ScopedEVP_PKEY_free@@YAXPEAX@Z@@@3@AEAH@Z 000000018003d060     ec_jwk.obj
 0002:0000a088       $cppxdata$??_GScopedHMAC@@QEAAPEAXI@Z 000000018003d088     hmac_gen.obj
 0002:0000a088       $cppxdata$??_GScopedAES@@QEAAPEAXI@Z 000000018003d088     aes_gen.obj
 0002:0000a088       $cppxdata$??_GScopedPbkdf2@@QEAAPEAXI@Z 000000018003d088     async_pbkdf2.obj
 0002:0000a0b0       $cppxdata$?generate@ScopedAES@@SA?AV?$shared_ptr@VScopedAES@@@std@@AEAH@Z 000000018003d0b0     aes_gen.obj
 0002:0000a0d8       $cppxdata$?decryptEcb@ScopedAES@@QEAA?AV?$shared_ptr@V?$basic_string@DU?$char_traits@D@std@@V?$allocator@D@2@@std@@@std@@V23@@Z 000000018003d0d8     aes_ecb.obj
 0002:0000a100       $cppxdata$?encryptEcb@ScopedAES@@QEAA?AV?$shared_ptr@V?$basic_string@DU?$char_traits@D@std@@V?$allocator@D@2@@std@@@std@@V23@@Z 000000018003d100     aes_ecb.obj
 0002:0000a128       $cppxdata$?AES_ECB_encrypt@@YA?AV?$shared_ptr@V?$basic_string@DU?$char_traits@D@std@@V?$allocator@D@2@@std@@@std@@V12@0_N@Z 000000018003d128     aes_ecb.obj
 0002:0000a150       $cppxdata$?unwrap@ScopedAES@@QEAA?AV?$shared_ptr@V?$basic_string@DU?$char_traits@D@std@@V?$allocator@D@2@@std@@@std@@V23@@Z 000000018003d150     aes_cbc.obj
 0002:0000a178       $cppxdata$?wrap@ScopedAES@@QEAA?AV?$shared_ptr@V?$basic_string@DU?$char_traits@D@std@@V?$allocator@D@2@@std@@@std@@V23@@Z 000000018003d178     aes_cbc.obj
 0002:0000a1a0       $cppxdata$?decryptCbc@ScopedAES@@QEAA?AV?$shared_ptr@V?$basic_string@DU?$char_traits@D@std@@V?$allocator@D@2@@std@@@std@@V23@0@Z 000000018003d1a0     aes_cbc.obj
 0002:0000a1c8       $cppxdata$?encryptCbc@ScopedAES@@QEAA?AV?$shared_ptr@V?$basic_string@DU?$char_traits@D@std@@V?$allocator@D@2@@std@@@std@@V23@0@Z 000000018003d1c8     aes_cbc.obj
 0002:0000a1f0       $cppxdata$?AES_CBC_encrypt@@YA?AV?$shared_ptr@V?$basic_string@DU?$char_traits@D@std@@V?$allocator@D@2@@std@@@std@@V12@00_N@Z 000000018003d1f0     aes_cbc.obj
 0002:0000a218       $cppxdata$?decryptGcm@ScopedAES@@QEAA?AV?$shared_ptr@V?$basic_string@DU?$char_traits@D@std@@V?$allocator@D@2@@std@@@std@@V23@00H@Z 000000018003d218     aes_gcm.obj
 0002:0000a240       $cppxdata$?encryptGcm@ScopedAES@@QEAA?AV?$shared_ptr@V?$basic_string@DU?$char_traits@D@std@@V?$allocator@D@2@@std@@@std@@V23@00H@Z 000000018003d240     aes_gcm.obj
 0002:0000a268       $cppxdata$?AES_GCM_decrypt@@YA?AV?$shared_ptr@V?$basic_string@DU?$char_traits@D@std@@V?$allocator@D@2@@std@@@std@@V12@000H@Z 000000018003d268     aes_gcm.obj
 0002:0000a290       $cppxdata$?AES_GCM_encrypt@@YA?AV?$shared_ptr@V?$basic_string@DU?$char_traits@D@std@@V?$allocator@D@2@@std@@@std@@V12@000H@Z 000000018003d290     aes_gcm.obj
 0002:0000a2b8       $cppxdata$?encryptCtr@ScopedAES@@QEAA?AV?$shared_ptr@V?$basic_string@DU?$char_traits@D@std@@V?$allocator@D@2@@std@@@std@@V23@0H@Z 000000018003d2b8     aes_ctr.obj
 0002:0000a2b8       $cppxdata$?decryptCtr@ScopedAES@@QEAA?AV?$shared_ptr@V?$basic_string@DU?$char_traits@D@std@@V?$allocator@D@2@@std@@@std@@V23@0H@Z 000000018003d2b8     aes_ctr.obj
 0002:0000a2e0       $cppxdata$?AES_CTR_encrypt@@YA?AV?$shared_ptr@V?$basic_string@DU?$char_traits@D@std@@V?$allocator@D@2@@std@@@std@@V12@00H_N@Z 000000018003d2e0     aes_ctr.obj
 0002:0000a308       $cppxdata$?generate@ScopedHMAC@@SA?AV?$shared_ptr@VScopedHMAC@@@std@@AEAH@Z 000000018003d308     hmac_gen.obj
 0002:0000a330       $cppxdata$?verify@ScopedHMAC@@QEAA_NV?$shared_ptr@V?$basic_string@DU?$char_traits@D@std@@V?$allocator@D@2@@std@@@std@@PEBUenv_md_st@@0@Z 000000018003d330     hmac_sign.obj
 0002:0000a358       $cppxdata$?sign@ScopedHMAC@@QEAA?AV?$shared_ptr@V?$basic_string@DU?$char_traits@D@std@@V?$allocator@D@2@@std@@@std@@V23@PEBUenv_md_st@@@Z 000000018003d358     hmac_sign.obj
 0002:0000a380       $cppxdata$?deriveBits@ScopedPbkdf2@@QEAA?AV?$shared_ptr@V?$basic_string@DU?$char_traits@D@std@@V?$allocator@D@2@@std@@@std@@V23@_KPEBUenv_md_st@@1@Z 000000018003d380     pbkdf2_derive.obj
 0002:0000a3a8       $cppxdata$?bn2buf@@YA?AV?$Local@VObject@v8@@@v8@@PEAUbignum_st@@@Z 000000018003d3a8     common.obj
 0002:0000a3d0       $cppxdata$?String_to_v8Buffer@@YA?AV?$Local@VObject@v8@@@v8@@V?$shared_ptr@V?$basic_string@DU?$char_traits@D@std@@V?$allocator@D@2@@std@@@std@@@Z 000000018003d3d0     common.obj
 0002:0000a3f8       $cppxdata$?v8Buffer_to_String@@YA?AV?$shared_ptr@V?$basic_string@DU?$char_traits@D@std@@V?$allocator@D@2@@std@@@std@@V?$Local@VObject@v8@@@v8@@@Z 000000018003d3f8     common.obj
 0002:0000a420       $cppxdata$?EcdhDeriveBits@WKey@@SAXAEBV?$FunctionCallbackInfo@VValue@v8@@@Nan@@@Z 000000018003d420     w_key.obj
 0002:0000a448       $cppxdata$?EcdhDeriveKey@WKey@@SAXAEBV?$FunctionCallbackInfo@VValue@v8@@@Nan@@@Z 000000018003d448     w_key.obj
 0002:0000a470       $cppxdata$?RsaPssVerify@WKey@@SAXAEBV?$FunctionCallbackInfo@VValue@v8@@@Nan@@@Z 000000018003d470     w_key.obj
 0002:0000a498       $cppxdata$?RsaPssSign@WKey@@SAXAEBV?$FunctionCallbackInfo@VValue@v8@@@Nan@@@Z 000000018003d498     w_key.obj
 0002:0000a4c0       $cppxdata$?RsaOaepEncDec@WKey@@SAXAEBV?$FunctionCallbackInfo@VValue@v8@@@Nan@@@Z 000000018003d4c0     w_key.obj
 0002:0000a4e8       $cppxdata$?Verify@WKey@@SAXAEBV?$FunctionCallbackInfo@VValue@v8@@@Nan@@@Z 000000018003d4e8     w_key.obj
 0002:0000a510       $cppxdata$?Sign@WKey@@SAXAEBV?$FunctionCallbackInfo@VValue@v8@@@Nan@@@Z 000000018003d510     w_key.obj
 0002:0000a538       $cppxdata$?ImportJwk@WKey@@SAXAEBV?$FunctionCallbackInfo@VValue@v8@@@Nan@@@Z 000000018003d538     w_key.obj
 0002:0000a560       $cppxdata$?ImportSpki@WKey@@SAXAEBV?$FunctionCallbackInfo@VValue@v8@@@Nan@@@Z 000000018003d560     w_key.obj
 0002:0000a588       $cppxdata$?ImportPkcs8@WKey@@SAXAEBV?$FunctionCallbackInfo@VValue@v8@@@Nan@@@Z 000000018003d588     w_key.obj
 0002:0000a5b0       $cppxdata$?ExportPkcs8@WKey@@SAXAEBV?$FunctionCallbackInfo@VValue@v8@@@Nan@@@Z 000000018003d5b0     w_key.obj
 0002:0000a5d8       $cppxdata$?ExportSpki@WKey@@SAXAEBV?$FunctionCallbackInfo@VValue@v8@@@Nan@@@Z 000000018003d5d8     w_key.obj
 0002:0000a600       $cppxdata$?ExportJwk@WKey@@SAXAEBV?$FunctionCallbackInfo@VValue@v8@@@Nan@@@Z 000000018003d600     w_key.obj
 0002:0000a628       $cppxdata$?GenerateEc@WKey@@SAXAEBV?$FunctionCallbackInfo@VValue@v8@@@Nan@@@Z 000000018003d628     w_key.obj
 0002:0000a650       $cppxdata$?GenerateRsa@WKey@@SAXAEBV?$FunctionCallbackInfo@VValue@v8@@@Nan@@@Z 000000018003d650     w_key.obj
 0002:0000a678       $cppxdata$?PublicExponent@WKey@@SAXAEBV?$FunctionCallbackInfo@VValue@v8@@@Nan@@@Z 000000018003d678     w_key.obj
 0002:0000a6a0       $cppxdata$?ModulusLength@WKey@@SAXAEBV?$FunctionCallbackInfo@VValue@v8@@@Nan@@@Z 000000018003d6a0     w_key.obj
 0002:0000a6c8       $cppxdata$??_GWHmac@@UEAAPEAXI@Z 000000018003d6c8     w_hmac.obj
 0002:0000a6c8       $cppxdata$??_GWAes@@UEAAPEAXI@Z 000000018003d6c8     w_aes.obj
 0002:0000a6c8       $cppxdata$??_GWPbkdf2@@UEAAPEAXI@Z 000000018003d6c8     w_pbkdf2.obj
 0002:0000a6c8       $cppxdata$??_GWKey@@UEAAPEAXI@Z 000000018003d6c8     w_key.obj
 0002:0000a6f0       $cppxdata$??1AsyncEcdhDeriveBits@@UEAA@XZ 000000018003d6f0     w_key.obj
 0002:0000a718       $cppxdata$??0AsyncEcdhDeriveBits@@QEAA@PEAVCallback@Nan@@V?$shared_ptr@V?$ScopedSSL@Uevp_pkey_st@@$1?ScopedEVP_PKEY_free@@YAXPEAX@Z@@@std@@1_K@Z 000000018003d718     w_key.obj
 0002:0000a740       $cppxdata$??1AsyncEcdsaVerify@@UEAA@XZ 000000018003d740     w_key.obj
 0002:0000a768       $cppxdata$??0AsyncEcdsaVerify@@QEAA@PEAVCallback@Nan@@PEBUenv_md_st@@V?$shared_ptr@V?$ScopedSSL@Uevp_pkey_st@@$1?ScopedEVP_PKEY_free@@YAXPEAX@Z@@@std@@V?$shared_ptr@V?$basic_string@DU?$char_traits@D@std@@V?$allocator@D@2@@std@@@5@3@Z 000000018003d768     w_key.obj
 0002:0000a790       $cppxdata$??1AsyncEcdsaSign@@UEAA@XZ 000000018003d790     w_key.obj
 0002:0000a7b8       $cppxdata$??0AsyncEcdsaSign@@QEAA@PEAVCallback@Nan@@PEBUenv_md_st@@V?$shared_ptr@V?$ScopedSSL@Uevp_pkey_st@@$1?ScopedEVP_PKEY_free@@YAXPEAX@Z@@@std@@V?$shared_ptr@V?$basic_string@DU?$char_traits@D@std@@V?$allocator@D@2@@std@@@5@@Z 000000018003d7b8     w_key.obj
 0002:0000a7e0       $cppxdata$??1AsyncEcImportJwk@@UEAA@XZ 000000018003d7e0     w_key.obj
 0002:0000a808       $cppxdata$??0AsyncEcImportJwk@@QEAA@PEAVCallback@Nan@@V?$shared_ptr@VJwkEc@@@std@@H@Z 000000018003d808     w_key.obj
 0002:0000a830       $cppxdata$??1AsyncEcExportJwk@@UEAA@XZ 000000018003d830     w_key.obj
 0002:0000a858       $cppxdata$??0AsyncEcExportJwk@@QEAA@PEAVCallback@Nan@@HV?$shared_ptr@V?$ScopedSSL@Uevp_pkey_st@@$1?ScopedEVP_PKEY_free@@YAXPEAX@Z@@@std@@@Z 000000018003d858     w_key.obj
 0002:0000a880       $cppxdata$??1AsyncEcdhDeriveKey@@UEAA@XZ 000000018003d880     w_key.obj
 0002:0000a8a8       $cppxdata$??0AsyncEcdhDeriveKey@@QEAA@PEAVCallback@Nan@@V?$shared_ptr@V?$ScopedSSL@Uevp_pkey_st@@$1?ScopedEVP_PKEY_free@@YAXPEAX@Z@@@std@@1_K@Z 000000018003d8a8     w_key.obj
 0002:0000a8d0       $cppxdata$??1AsyncEcGenerateKey@@UEAA@XZ 000000018003d8d0     w_key.obj
 0002:0000a8f8       $cppxdata$??1AsyncVerifyRsaPSS@@UEAA@XZ 000000018003d8f8     w_key.obj
 0002:0000a920       $cppxdata$??0AsyncVerifyRsaPSS@@QEAA@PEAVCallback@Nan@@PEBUenv_md_st@@V?$shared_ptr@V?$ScopedSSL@Uevp_pkey_st@@$1?ScopedEVP_PKEY_free@@YAXPEAX@Z@@@std@@HV?$shared_ptr@V?$basic_string@DU?$char_traits@D@std@@V?$allocator@D@2@@std@@@5@3@Z 000000018003d920     w_key.obj
 0002:0000a948       $cppxdata$??1AsyncSignRsaPSS@@UEAA@XZ 000000018003d948     w_key.obj
 0002:0000a970       $cppxdata$??0AsyncSignRsaPSS@@QEAA@PEAVCallback@Nan@@PEBUenv_md_st@@V?$shared_ptr@V?$ScopedSSL@Uevp_pkey_st@@$1?ScopedEVP_PKEY_free@@YAXPEAX@Z@@@std@@HV?$shared_ptr@V?$basic_string@DU?$char_traits@D@std@@V?$allocator@D@2@@std@@@5@@Z 000000018003d970     w_key.obj
 0002:0000a998       $cppxdata$??1AsyncVerifyRsa@@UEAA@XZ 000000018003d998     w_key.obj
 0002:0000a9c0       $cppxdata$??0AsyncVerifyRsa@@QEAA@PEAVCallback@Nan@@PEBUenv_md_st@@V?$shared_ptr@V?$ScopedSSL@Uevp_pkey_st@@$1?ScopedEVP_PKEY_free@@YAXPEAX@Z@@@std@@V?$shared_ptr@V?$basic_string@DU?$char_traits@D@std@@V?$allocator@D@2@@std@@@5@3@Z 000000018003d9c0     w_key.obj
 0002:0000a9e8       $cppxdata$??1AsyncSignRsa@@UEAA@XZ 000000018003d9e8     w_key.obj
 0002:0000aa10       $cppxdata$??0AsyncSignRsa@@QEAA@PEAVCallback@Nan@@PEBUenv_md_st@@V?$shared_ptr@V?$ScopedSSL@Uevp_pkey_st@@$1?ScopedEVP_PKEY_free@@YAXPEAX@Z@@@std@@V?$shared_ptr@V?$basic_string@DU?$char_traits@D@std@@V?$allocator@D@2@@std@@@5@@Z 000000018003da10     w_key.obj
 0002:0000aa38       $cppxdata$??1AsyncImportJwkRsa@@UEAA@XZ 000000018003da38     w_key.obj
 0002:0000aa60       $cppxdata$??0AsyncImportJwkRsa@@QEAA@PEAVCallback@Nan@@V?$shared_ptr@VJwkRsa@@@std@@H@Z 000000018003da60     w_key.obj
 0002:0000aa88       $cppxdata$??1AsyncImportSpki@@UEAA@XZ 000000018003da88     w_key.obj
 0002:0000aab0       $cppxdata$??0AsyncImportSpki@@QEAA@PEAVCallback@Nan@@V?$shared_ptr@V?$basic_string@DU?$char_traits@D@std@@V?$allocator@D@2@@std@@@std@@@Z 000000018003dab0     w_key.obj
 0002:0000aad8       $cppxdata$??1AsyncImportPkcs8@@UEAA@XZ 000000018003dad8     w_key.obj
 0002:0000ab00       $cppxdata$??0AsyncImportPkcs8@@QEAA@PEAVCallback@Nan@@V?$shared_ptr@V?$basic_string@DU?$char_traits@D@std@@V?$allocator@D@2@@std@@@std@@@Z 000000018003db00     w_key.obj
 0002:0000ab28       $cppxdata$??1AsyncExportPkcs8@@UEAA@XZ 000000018003db28     w_key.obj
 0002:0000ab50       $cppxdata$??0AsyncExportPkcs8@@QEAA@PEAVCallback@Nan@@V?$shared_ptr@V?$ScopedSSL@Uevp_pkey_st@@$1?ScopedEVP_PKEY_free@@YAXPEAX@Z@@@std@@@Z 000000018003db50     w_key.obj
 0002:0000ab78       $cppxdata$??1AsyncExportSpki@@UEAA@XZ 000000018003db78     w_key.obj
 0002:0000aba0       $cppxdata$??0AsyncExportSpki@@QEAA@PEAVCallback@Nan@@V?$shared_ptr@V?$ScopedSSL@Uevp_pkey_st@@$1?ScopedEVP_PKEY_free@@YAXPEAX@Z@@@std@@@Z 000000018003dba0     w_key.obj
 0002:0000abc8       $cppxdata$??1AsyncExportJwkRsa@@UEAA@XZ 000000018003dbc8     w_key.obj
 0002:0000abf0       $cppxdata$??0AsyncExportJwkRsa@@QEAA@PEAVCallback@Nan@@HV?$shared_ptr@V?$ScopedSSL@Uevp_pkey_st@@$1?ScopedEVP_PKEY_free@@YAXPEAX@Z@@@std@@@Z 000000018003dbf0     w_key.obj
 0002:0000ac18       $cppxdata$??1AsyncEncrypDecryptRsaOAEP@@UEAA@XZ 000000018003dc18     w_key.obj
 0002:0000ac40       $cppxdata$??0AsyncEncrypDecryptRsaOAEP@@QEAA@PEAVCallback@Nan@@V?$shared_ptr@V?$ScopedSSL@Uevp_pkey_st@@$1?ScopedEVP_PKEY_free@@YAXPEAX@Z@@@std@@PEBUenv_md_st@@V?$shared_ptr@V?$basic_string@DU?$char_traits@D@std@@V?$allocator@D@2@@std@@@4@3_N@Z 000000018003dc40     w_key.obj
 0002:0000ac68       $cppxdata$??1AsyncRsaGenerateKey@@UEAA@XZ 000000018003dc68     w_key.obj
 0002:0000ac90       $cppxdata$??__Fmy_constructor@?1??constructor@WKey@@KAAEAV?$Persistent@VFunction@v8@@V?$NonCopyablePersistentTraits@VFunction@v8@@@2@@Nan@@XZ@YAXXZ 000000018003dc90     w_key.obj
 0002:0000acb8       $cppxdata$?SetAccessor@Nan@@YAXV?$Local@VObjectTemplate@v8@@@v8@@V?$Local@VString@v8@@@3@P6AX1AEBV?$PropertyCallbackInfo@VValue@v8@@@1@@ZP6AX1V?$Local@VValue@v8@@@3@AEBV?$PropertyCallbackInfo@X@1@@Z4W4AccessControl@3@W4PropertyAttribute@3@V?$Local@VAccessorSignature@v8@@@3@@Z 000000018003dcb8     w_key.obj
 0002:0000ace0       $cppxdata$?SetPrototypeMethod@Nan@@YAXV?$Local@VFunctionTemplate@v8@@@v8@@PEBDP6AXAEBV?$FunctionCallbackInfo@VValue@v8@@@1@@Z@Z 000000018003dce0     w_key.obj
 0002:0000ad08       $cppxdata$??1?$Persistent@VObject@v8@@V?$NonCopyablePersistentTraits@VObject@v8@@@2@@Nan@@QEAA@XZ 000000018003dd08     w_key.obj
 0002:0000ad30       $cppxdata$?HandleErrorCallback@AsyncWorker@Nan@@MEAAXXZ 000000018003dd30     w_key.obj
 0002:0000ad58       $cppxdata$?HandleOKCallback@AsyncWorker@Nan@@MEAAXXZ 000000018003dd58     w_key.obj
 0002:0000ad80       $cppxdata$?WorkComplete@AsyncWorker@Nan@@UEAAXXZ 000000018003dd80     w_key.obj
 0002:0000ada8       $cppxdata$??1AsyncWorker@Nan@@UEAA@XZ 000000018003dda8     w_key.obj
 0002:0000add0       $cppxdata$??0AsyncWorker@Nan@@QEAA@PEAVCallback@1@PEBD@Z 000000018003ddd0     w_key.obj
 0002:0000adf8       $cppxdata$?Call_@Callback@Nan@@AEBA?AV?$Local@VValue@v8@@@v8@@PEAVIsolate@4@V?$Local@VObject@v8@@@4@HQEAV34@@Z 000000018003ddf8     w_key.obj
 0002:0000ae20       $cppxdata$?Call@Callback@Nan@@QEBA?AV?$MaybeLocal@VValue@v8@@@v8@@HQEAV?$Local@VValue@v8@@@4@PEAVAsyncResource@2@@Z 000000018003de20     w_key.obj
 0002:0000ae48       $cppxdata$?ThrowError@Nan@@YAXV?$Local@VString@v8@@@v8@@@Z 000000018003de48     w_key.obj
 0002:0000ae70       $cppxdata$?ThrowError@Nan@@YAXPEBD@Z 000000018003de70     w_key.obj
 0002:0000ae98       $cppxdata$?New@?$Factory@VFunctionTemplate@v8@@@imp@Nan@@SA?AV?$Local@VFunctionTemplate@v8@@@v8@@P6AXAEBV?$FunctionCallbackInfo@VValue@v8@@@3@@ZV?$Local@VValue@v8@@@5@V?$Local@VSignature@v8@@@5@@Z 000000018003de98     w_key.obj
 0002:0000aec0       $cppxdata$?convert@?$ToFactory@H@imp@Nan@@SA?AV?$Maybe@H@v8@@V?$Local@VValue@v8@@@5@@Z 000000018003dec0     w_key.obj
 0002:0000aee8       $cppxdata$?convert@?$ToFactory@VObject@v8@@@imp@Nan@@SA?AV?$MaybeLocal@VObject@v8@@@v8@@V?$Local@VValue@v8@@@5@@Z 000000018003dee8     w_key.obj
 0002:0000af10       $cppxdata$?CallAsFunction@Nan@@YA?AV?$MaybeLocal@VValue@v8@@@v8@@V?$Local@VObject@v8@@@3@0HQEAV?$Local@VValue@v8@@@3@@Z 000000018003df10     w_key.obj
 0002:0000af38       $cppxdata$?Get@Nan@@YA?AV?$MaybeLocal@VValue@v8@@@v8@@V?$Local@VObject@v8@@@3@V?$Local@VValue@v8@@@3@@Z 000000018003df38     w_key.obj
 0002:0000af60       $cppxdata$?Set@Nan@@YA?AV?$Maybe@_N@v8@@V?$Local@VObject@v8@@@3@V?$Local@VValue@v8@@@3@1@Z 000000018003df60     w_key.obj
 0002:0000af88       $cppxdata$?GetFunction@Nan@@YA?AV?$MaybeLocal@VFunction@v8@@@v8@@V?$Local@VFunctionTemplate@v8@@@3@@Z 000000018003df88     w_key.obj
 0002:0000afb0       $cppxdata$?NewInstance@Nan@@YA?AV?$MaybeLocal@VObject@v8@@@v8@@V?$Local@VObjectTemplate@v8@@@3@@Z 000000018003dfb0     w_key.obj
 0002:0000afd8       $cppxdata$?NewInstance@Nan@@YA?AV?$MaybeLocal@VObject@v8@@@v8@@V?$Local@VFunction@v8@@@3@HQEAV?$Local@VValue@v8@@@3@@Z 000000018003dfd8     w_key.obj
 0002:0000b000       $cppxdata$?NewInstance@Nan@@YA?AV?$MaybeLocal@VObject@v8@@@v8@@V?$Local@VFunction@v8@@@3@@Z 000000018003e000     w_key.obj
 0002:0000b028       $cppxdata$??1ObjectWrap@node@@UEAA@XZ 000000018003e028     w_key.obj
 0002:0000b050       $cppxdata$?Init@WKey@@SAXV?$Local@VObject@v8@@@v8@@@Z 000000018003e050     w_key.obj
 0002:0000b078       $cppxdata$?DecryptCtr@WAes@@SAXAEBV?$FunctionCallbackInfo@VValue@v8@@@Nan@@@Z 000000018003e078     w_aes.obj
 0002:0000b0a0       $cppxdata$?EncryptCtr@WAes@@SAXAEBV?$FunctionCallbackInfo@VValue@v8@@@Nan@@@Z 000000018003e0a0     w_aes.obj
 0002:0000b0c8       $cppxdata$?UnwrapKey@WAes@@SAXAEBV?$FunctionCallbackInfo@VValue@v8@@@Nan@@@Z 000000018003e0c8     w_aes.obj
 0002:0000b0f0       $cppxdata$?WrapKey@WAes@@SAXAEBV?$FunctionCallbackInfo@VValue@v8@@@Nan@@@Z 000000018003e0f0     w_aes.obj
 0002:0000b118       $cppxdata$?DecryptGcm@WAes@@SAXAEBV?$FunctionCallbackInfo@VValue@v8@@@Nan@@@Z 000000018003e118     w_aes.obj
 0002:0000b140       $cppxdata$?EncryptGcm@WAes@@SAXAEBV?$FunctionCallbackInfo@VValue@v8@@@Nan@@@Z 000000018003e140     w_aes.obj
 0002:0000b168       $cppxdata$?Import@WAes@@SAXAEBV?$FunctionCallbackInfo@VValue@v8@@@Nan@@@Z 000000018003e168     w_aes.obj
 0002:0000b190       $cppxdata$?Export@WAes@@SAXAEBV?$FunctionCallbackInfo@VValue@v8@@@Nan@@@Z 000000018003e190     w_aes.obj
 0002:0000b190       $cppxdata$?Export@WHmac@@SAXAEBV?$FunctionCallbackInfo@VValue@v8@@@Nan@@@Z 000000018003e190     w_hmac.obj
 0002:0000b1b8       $cppxdata$?DecryptEcb@WAes@@SAXAEBV?$FunctionCallbackInfo@VValue@v8@@@Nan@@@Z 000000018003e1b8     w_aes.obj
 0002:0000b1e0       $cppxdata$?EncryptEcb@WAes@@SAXAEBV?$FunctionCallbackInfo@VValue@v8@@@Nan@@@Z 000000018003e1e0     w_aes.obj
 0002:0000b208       $cppxdata$?Decrypt@WAes@@SAXAEBV?$FunctionCallbackInfo@VValue@v8@@@Nan@@@Z 000000018003e208     w_aes.obj
 0002:0000b230       $cppxdata$?Encrypt@WAes@@SAXAEBV?$FunctionCallbackInfo@VValue@v8@@@Nan@@@Z 000000018003e230     w_aes.obj
 0002:0000b258       $cppxdata$?Generate@WAes@@SAXAEBV?$FunctionCallbackInfo@VValue@v8@@@Nan@@@Z 000000018003e258     w_aes.obj
 0002:0000b280       $cppxdata$??__Fmy_constructor@?1??constructor@WAes@@KAAEAV?$Persistent@VFunction@v8@@V?$NonCopyablePersistentTraits@VFunction@v8@@@2@@Nan@@XZ@YAXXZ 000000018003e280     w_aes.obj
 0002:0000b2a8       $cppxdata$??1AsyncAesEncryptCTR@@UEAA@XZ 000000018003e2a8     w_aes.obj
 0002:0000b2d0       $cppxdata$??0AsyncAesEncryptCTR@@QEAA@PEAVCallback@Nan@@V?$shared_ptr@VScopedAES@@@std@@V?$shared_ptr@V?$basic_string@DU?$char_traits@D@std@@V?$allocator@D@2@@std@@@4@2H_N@Z 000000018003e2d0     w_aes.obj
 0002:0000b2f8       $cppxdata$??1AsyncAesWrapKey@@UEAA@XZ 000000018003e2f8     w_aes.obj
 0002:0000b320       $cppxdata$??0AsyncAesWrapKey@@QEAA@PEAVCallback@Nan@@V?$shared_ptr@VScopedAES@@@std@@V?$shared_ptr@V?$basic_string@DU?$char_traits@D@std@@V?$allocator@D@2@@std@@@4@_N@Z 000000018003e320     w_aes.obj
 0002:0000b348       $cppxdata$??1AsyncAesEncryptGCM@@UEAA@XZ 000000018003e348     w_aes.obj
 0002:0000b370       $cppxdata$??0AsyncAesEncryptGCM@@QEAA@PEAVCallback@Nan@@V?$shared_ptr@VScopedAES@@@std@@V?$shared_ptr@V?$basic_string@DU?$char_traits@D@std@@V?$allocator@D@2@@std@@@4@22H_N@Z 000000018003e370     w_aes.obj
 0002:0000b398       $cppxdata$??1AsyncAesImport@@UEAA@XZ 000000018003e398     w_aes.obj
 0002:0000b3c0       $cppxdata$??0AsyncAesImport@@QEAA@PEAVCallback@Nan@@V?$shared_ptr@V?$basic_string@DU?$char_traits@D@std@@V?$allocator@D@2@@std@@@std@@@Z 000000018003e3c0     w_aes.obj
 0002:0000b3e8       $cppxdata$??1AsyncHmacExport@@UEAA@XZ 000000018003e3e8     w_hmac.obj
 0002:0000b3e8       $cppxdata$??1AsyncAesExport@@UEAA@XZ 000000018003e3e8     w_aes.obj
 0002:0000b410       $cppxdata$??0AsyncAesExport@@QEAA@PEAVCallback@Nan@@V?$shared_ptr@VScopedAES@@@std@@@Z 000000018003e410     w_aes.obj
 0002:0000b410       $cppxdata$??0AsyncHmacExport@@QEAA@PEAVCallback@Nan@@V?$shared_ptr@VScopedHMAC@@@std@@@Z 000000018003e410     w_hmac.obj
 0002:0000b438       $cppxdata$??1AsyncAesEncryptECB@@UEAA@XZ 000000018003e438     w_aes.obj
 0002:0000b460       $cppxdata$??0AsyncAesEncryptECB@@QEAA@PEAVCallback@Nan@@V?$shared_ptr@VScopedAES@@@std@@V?$shared_ptr@V?$basic_string@DU?$char_traits@D@std@@V?$allocator@D@2@@std@@@4@_N@Z 000000018003e460     w_aes.obj
 0002:0000b488       $cppxdata$??1AsyncAesEncryptCBC@@UEAA@XZ 000000018003e488     w_aes.obj
 0002:0000b4b0       $cppxdata$??0AsyncAesEncryptCBC@@QEAA@PEAVCallback@Nan@@V?$shared_ptr@VScopedAES@@@std@@V?$shared_ptr@V?$basic_string@DU?$char_traits@D@std@@V?$allocator@D@2@@std@@@4@2_N@Z 000000018003e4b0     w_aes.obj
 0002:0000b4d8       $cppxdata$??1AsyncAesGenerateKey@@UEAA@XZ 000000018003e4d8     w_aes.obj
 0002:0000b500       $cppxdata$?Call@Nan@@YA?AV?$MaybeLocal@VValue@v8@@@v8@@V?$Local@VFunction@v8@@@3@V?$Local@VObject@v8@@@3@HQEAV?$Local@VValue@v8@@@3@@Z 000000018003e500     w_aes.obj
 0002:0000b528       $cppxdata$?Init@WAes@@SAXV?$Local@VObject@v8@@@v8@@@Z 000000018003e528     w_aes.obj
 0002:0000b550       $cppxdata$?Verify@WHmac@@SAXAEBV?$FunctionCallbackInfo@VValue@v8@@@Nan@@@Z 000000018003e550     w_hmac.obj
 0002:0000b578       $cppxdata$?Sign@WHmac@@SAXAEBV?$FunctionCallbackInfo@VValue@v8@@@Nan@@@Z 000000018003e578     w_hmac.obj
 0002:0000b5a0       $cppxdata$?Import@WHmac@@SAXAEBV?$FunctionCallbackInfo@VValue@v8@@@Nan@@@Z 000000018003e5a0     w_hmac.obj
 0002:0000b5c8       $cppxdata$?Generate@WHmac@@SAXAEBV?$FunctionCallbackInfo@VValue@v8@@@Nan@@@Z 000000018003e5c8     w_hmac.obj
 0002:0000b5f0       $cppxdata$??__Fmy_constructor@?1??constructor@WHmac@@KAAEAV?$Persistent@VFunction@v8@@V?$NonCopyablePersistentTraits@VFunction@v8@@@2@@Nan@@XZ@YAXXZ 000000018003e5f0     w_hmac.obj
 0002:0000b618       $cppxdata$??1AsyncHmacVerify@@UEAA@XZ 000000018003e618     w_hmac.obj
 0002:0000b640       $cppxdata$??0AsyncHmacVerify@@QEAA@PEAVCallback@Nan@@PEBUenv_md_st@@V?$shared_ptr@VScopedHMAC@@@std@@V?$shared_ptr@V?$basic_string@DU?$char_traits@D@std@@V?$allocator@D@2@@std@@@5@3@Z 000000018003e640     w_hmac.obj
 0002:0000b668       $cppxdata$??1AsyncHmacSign@@UEAA@XZ 000000018003e668     w_hmac.obj
 0002:0000b690       $cppxdata$??0AsyncHmacSign@@QEAA@PEAVCallback@Nan@@PEBUenv_md_st@@V?$shared_ptr@VScopedHMAC@@@std@@V?$shared_ptr@V?$basic_string@DU?$char_traits@D@std@@V?$allocator@D@2@@std@@@5@@Z 000000018003e690     w_hmac.obj
 0002:0000b6b8       $cppxdata$??1AsyncHmacImport@@UEAA@XZ 000000018003e6b8     w_hmac.obj
 0002:0000b6e0       $cppxdata$??0AsyncHmacImport@@QEAA@PEAVCallback@Nan@@V?$shared_ptr@V?$basic_string@DU?$char_traits@D@std@@V?$allocator@D@2@@std@@@std@@@Z 000000018003e6e0     w_hmac.obj
 0002:0000b708       $cppxdata$??1AsyncHmacGenerateKey@@UEAA@XZ 000000018003e708     w_hmac.obj
 0002:0000b730       $cppxdata$?Init@WHmac@@SAXV?$Local@VObject@v8@@@v8@@@Z 000000018003e730     w_hmac.obj
 0002:0000b758       $cppxdata$?DeriveBits@WPbkdf2@@SAXAEBV?$FunctionCallbackInfo@VValue@v8@@@Nan@@@Z 000000018003e758     w_pbkdf2.obj
 0002:0000b780       $cppxdata$?ImportKey@WPbkdf2@@SAXAEBV?$FunctionCallbackInfo@VValue@v8@@@Nan@@@Z 000000018003e780     w_pbkdf2.obj
 0002:0000b7a8       $cppxdata$??__Fmy_constructor@?1??constructor@WPbkdf2@@KAAEAV?$Persistent@VFunction@v8@@V?$NonCopyablePersistentTraits@VFunction@v8@@@2@@Nan@@XZ@YAXXZ 000000018003e7a8     w_pbkdf2.obj
 0002:0000b7d0       $cppxdata$??1AsyncPbkdf2DeriveBits@@UEAA@XZ 000000018003e7d0     w_pbkdf2.obj
 0002:0000b7f8       $cppxdata$??0AsyncPbkdf2DeriveBits@@QEAA@PEAVCallback@Nan@@V?$shared_ptr@VScopedPbkdf2@@@std@@PEBUenv_md_st@@V?$shared_ptr@V?$basic_string@DU?$char_traits@D@std@@V?$allocator@D@2@@std@@@4@HH@Z 000000018003e7f8     w_pbkdf2.obj
 0002:0000b820       $cppxdata$??1AsyncPbkdf2Import@@UEAA@XZ 000000018003e820     w_pbkdf2.obj
 0002:0000b848       $cppxdata$??0AsyncPbkdf2Import@@QEAA@PEAVCallback@Nan@@V?$shared_ptr@V?$basic_string@DU?$char_traits@D@std@@V?$allocator@D@2@@std@@@std@@@Z 000000018003e848     w_pbkdf2.obj
 0002:0000b870       $cppxdata$?convert@?$ToFactory@VNumber@v8@@@imp@Nan@@SA?AV?$MaybeLocal@VNumber@v8@@@v8@@V?$Local@VValue@v8@@@5@@Z 000000018003e870     w_pbkdf2.obj
 0002:0000b898       $cppxdata$?Init@WPbkdf2@@SAXV?$Local@VObject@v8@@@v8@@@Z 000000018003e898     w_pbkdf2.obj
 0002:0000b8c0       $cppxdata$?Digest@WCore@@SAXAEBV?$FunctionCallbackInfo@VValue@v8@@@Nan@@@Z 000000018003e8c0     w_core.obj
 0002:0000b8e8       $cppxdata$??__Fmy_constructor@?1??constructor@WCore@@KAAEAV?$Persistent@VFunction@v8@@V?$NonCopyablePersistentTraits@VFunction@v8@@@2@@Nan@@XZ@YAXXZ 000000018003e8e8     w_core.obj
 0002:0000b910       $cppxdata$??1AsyncDigest@@UEAA@XZ 000000018003e910     w_core.obj
 0002:0000b938       $cppxdata$??0AsyncDigest@@QEAA@PEAVCallback@Nan@@V?$shared_ptr@V?$basic_string@DU?$char_traits@D@std@@V?$allocator@D@2@@std@@@std@@1@Z 000000018003e938     w_core.obj
 0002:0000b960       $cppxdata$?Init@WCore@@SAXV?$Local@VObject@v8@@@v8@@@Z 000000018003e960     w_core.obj
 0002:0000b988       $cppxdata$?HandleOKCallback@AsyncExportJwkRsa@@UEAAXXZ 000000018003e988     async_rsa.obj
 0002:0000b9b0       $cppxdata$?Execute@AsyncExportJwkRsa@@UEAAXXZ 000000018003e9b0     async_rsa.obj
 0002:0000b9d8       $cppxdata$?HandleOKCallback@AsyncSignRsaPSS@@UEAAXXZ 000000018003e9d8     async_rsa.obj
 0002:0000ba00       $cppxdata$?Execute@AsyncSignRsaPSS@@UEAAXXZ 000000018003ea00     async_rsa.obj
 0002:0000ba28       $cppxdata$?Execute@AsyncExportPkcs8@@UEAAXXZ 000000018003ea28     async_rsa.obj
 0002:0000ba50       $cppxdata$?HandleOKCallback@AsyncExportSpki@@UEAAXXZ 000000018003ea50     async_rsa.obj
 0002:0000ba50       $cppxdata$?HandleOKCallback@AsyncExportPkcs8@@UEAAXXZ 000000018003ea50     async_rsa.obj
 0002:0000ba78       $cppxdata$?Execute@AsyncExportSpki@@UEAAXXZ 000000018003ea78     async_rsa.obj
 0002:0000baa0       $cppxdata$?Execute@AsyncImportSpki@@UEAAXXZ 000000018003eaa0     async_rsa.obj
 0002:0000bac8       $cppxdata$?HandleOKCallback@AsyncEcdsaSign@@UEAAXXZ 000000018003eac8     async_ec.obj
 0002:0000bac8       $cppxdata$?HandleOKCallback@AsyncSignRsa@@UEAAXXZ 000000018003eac8     async_rsa.obj
 0002:0000bac8       $cppxdata$?HandleOKCallback@AsyncHmacSign@@UEAAXXZ 000000018003eac8     async_hmac.obj
 0002:0000baf0       $cppxdata$?Execute@AsyncSignRsa@@UEAAXXZ 000000018003eaf0     async_rsa.obj
 0002:0000bb18       $cppxdata$?HandleOKCallback@AsyncHmacVerify@@UEAAXXZ 000000018003eb18     async_hmac.obj
 0002:0000bb18       $cppxdata$?HandleOKCallback@AsyncEcdsaVerify@@UEAAXXZ 000000018003eb18     async_ec.obj
 0002:0000bb18       $cppxdata$?HandleOKCallback@AsyncVerifyRsa@@UEAAXXZ 000000018003eb18     async_rsa.obj
 0002:0000bb40       $cppxdata$?Execute@AsyncVerifyRsa@@UEAAXXZ 000000018003eb40     async_rsa.obj
 0002:0000bb68       $cppxdata$?HandleOKCallback@AsyncVerifyRsaPSS@@UEAAXXZ 000000018003eb68     async_rsa.obj
 0002:0000bb90       $cppxdata$?Execute@AsyncVerifyRsaPSS@@UEAAXXZ 000000018003eb90     async_rsa.obj
 0002:0000bbb8       $cppxdata$?HandleOKCallback@AsyncImportPkcs8@@UEAAXXZ 000000018003ebb8     async_rsa.obj
 0002:0000bbb8       $cppxdata$?HandleOKCallback@AsyncImportSpki@@UEAAXXZ 000000018003ebb8     async_rsa.obj
 0002:0000bbe0       $cppxdata$?Execute@AsyncImportPkcs8@@UEAAXXZ 000000018003ebe0     async_rsa.obj
 0002:0000bc08       $cppxdata$?HandleOKCallback@AsyncImportJwkRsa@@UEAAXXZ 000000018003ec08     async_rsa.obj
 0002:0000bc08       $cppxdata$?HandleOKCallback@AsyncEcImportJwk@@UEAAXXZ 000000018003ec08     async_ec.obj
 0002:0000bc30       $cppxdata$?Execute@AsyncImportJwkRsa@@UEAAXXZ 000000018003ec30     async_rsa.obj
 0002:0000bc58       $cppxdata$?HandleOKCallback@AsyncRsaGenerateKey@@UEAAXXZ 000000018003ec58     async_rsa.obj
 0002:0000bc58       $cppxdata$?HandleOKCallback@AsyncEcGenerateKey@@UEAAXXZ 000000018003ec58     async_ec.obj
 0002:0000bc80       $cppxdata$?Execute@AsyncRsaGenerateKey@@UEAAXXZ 000000018003ec80     async_rsa.obj
 0002:0000bca8       $cppxdata$?HandleOKCallback@AsyncEncrypDecryptRsaOAEP@@UEAAXXZ 000000018003eca8     async_rsa.obj
 0002:0000bcd0       $cppxdata$?Execute@AsyncEncrypDecryptRsaOAEP@@UEAAXXZ 000000018003ecd0     async_rsa.obj
 0002:0000bcf8       $cppxdata$?Execute@AsyncEcdsaSign@@UEAAXXZ 000000018003ecf8     async_ec.obj
 0002:0000bd20       $cppxdata$?HandleOKCallback@AsyncEcdhDeriveBits@@UEAAXXZ 000000018003ed20     async_ec.obj
 0002:0000bd20       $cppxdata$?HandleOKCallback@AsyncAesEncryptECB@@UEAAXXZ 000000018003ed20     async_aes.obj
 0002:0000bd20       $cppxdata$?HandleOKCallback@AsyncAesWrapKey@@UEAAXXZ 000000018003ed20     async_aes.obj
 0002:0000bd20       $cppxdata$?HandleOKCallback@AsyncEcdhDeriveKey@@UEAAXXZ 000000018003ed20     async_ec.obj
 0002:0000bd48       $cppxdata$?Execute@AsyncEcdhDeriveKey@@UEAAXXZ 000000018003ed48     async_ec.obj
 0002:0000bd70       $cppxdata$?Execute@AsyncEcImportJwk@@UEAAXXZ 000000018003ed70     async_ec.obj
 0002:0000bd98       $cppxdata$?HandleOKCallback@AsyncEcExportJwk@@UEAAXXZ 000000018003ed98     async_ec.obj
 0002:0000bdc0       $cppxdata$?Execute@AsyncEcExportJwk@@UEAAXXZ 000000018003edc0     async_ec.obj
 0002:0000bde8       $cppxdata$?Execute@AsyncEcdsaVerify@@UEAAXXZ 000000018003ede8     async_ec.obj
 0002:0000be10       $cppxdata$?Execute@AsyncEcGenerateKey@@UEAAXXZ 000000018003ee10     async_ec.obj
 0002:0000be38       $cppxdata$?Execute@AsyncEcdhDeriveBits@@UEAAXXZ 000000018003ee38     async_ec.obj
 0002:0000be60       $cppxdata$?Execute@AsyncAesEncryptCTR@@UEAAXXZ 000000018003ee60     async_aes.obj
 0002:0000be88       $cppxdata$?HandleOKCallback@AsyncHmacExport@@UEAAXXZ 000000018003ee88     async_hmac.obj
 0002:0000be88       $cppxdata$?HandleOKCallback@AsyncAesExport@@UEAAXXZ 000000018003ee88     async_aes.obj
 0002:0000beb0       $cppxdata$?HandleOKCallback@AsyncAesImport@@UEAAXXZ 000000018003eeb0     async_aes.obj
 0002:0000bed8       $cppxdata$?Execute@AsyncAesImport@@UEAAXXZ 000000018003eed8     async_aes.obj
 0002:0000bf00       $cppxdata$?HandleOKCallback@AsyncAesGenerateKey@@UEAAXXZ 000000018003ef00     async_aes.obj
 0002:0000bf28       $cppxdata$?Execute@AsyncAesGenerateKey@@UEAAXXZ 000000018003ef28     async_aes.obj
 0002:0000bf50       $cppxdata$?Execute@AsyncAesWrapKey@@UEAAXXZ 000000018003ef50     async_aes.obj
 0002:0000bf78       $cppxdata$?HandleOKCallback@AsyncAesEncryptGCM@@UEAAXXZ 000000018003ef78     async_aes.obj
 0002:0000bfa0       $cppxdata$?Execute@AsyncAesEncryptGCM@@UEAAXXZ 000000018003efa0     async_aes.obj
 0002:0000bfc8       $cppxdata$?HandleOKCallback@AsyncAesEncryptCTR@@UEAAXXZ 000000018003efc8     async_aes.obj
 0002:0000bfc8       $cppxdata$?HandleOKCallback@AsyncAesEncryptCBC@@UEAAXXZ 000000018003efc8     async_aes.obj
 0002:0000bff0       $cppxdata$?Execute@AsyncAesEncryptCBC@@UEAAXXZ 000000018003eff0     async_aes.obj
 0002:0000c018       $cppxdata$?Execute@AsyncAesEncryptECB@@UEAAXXZ 000000018003f018     async_aes.obj
 0002:0000c040       $cppxdata$?HandleOKCallback@AsyncHmacImport@@UEAAXXZ 000000018003f040     async_hmac.obj
 0002:0000c068       $cppxdata$?Execute@AsyncHmacImport@@UEAAXXZ 000000018003f068     async_hmac.obj
 0002:0000c090       $cppxdata$?Execute@AsyncHmacSign@@UEAAXXZ 000000018003f090     async_hmac.obj
 0002:0000c0b8       $cppxdata$?HandleOKCallback@AsyncHmacGenerateKey@@UEAAXXZ 000000018003f0b8     async_hmac.obj
 0002:0000c0e0       $cppxdata$?Execute@AsyncHmacGenerateKey@@UEAAXXZ 000000018003f0e0     async_hmac.obj
 0002:0000c108       $cppxdata$?Execute@AsyncHmacVerify@@UEAAXXZ 000000018003f108     async_hmac.obj
 0002:0000c130       $cppxdata$?HandleOKCallback@AsyncPbkdf2DeriveBits@@UEAAXXZ 000000018003f130     async_pbkdf2.obj
 0002:0000c158       $cppxdata$?Execute@AsyncPbkdf2DeriveBits@@UEAAXXZ 000000018003f158     async_pbkdf2.obj
 0002:0000c180       $cppxdata$?HandleOKCallback@AsyncPbkdf2Import@@UEAAXXZ 000000018003f180     async_pbkdf2.obj
 0002:0000c1a8       $cppxdata$?Execute@AsyncPbkdf2Import@@UEAAXXZ 000000018003f1a8     async_pbkdf2.obj
 0002:0000c1d0       $cppxdata$?HandleOKCallback@AsyncDigest@@UEAAXXZ 000000018003f1d0     async_core.obj
 0002:0000c1f8       $cppxdata$?Execute@AsyncDigest@@UEAAXXZ 000000018003f1f8     async_core.obj
 0002:0000cbd0       $unwind$?RsaPublicExponent@@YAXV?$Local@VObject@v8@@@v8@@@Z 000000018003fbd0     main.obj
 0002:0000cbd0       $unwind$?KeyType@@YAXV?$Local@VObject@v8@@@v8@@@Z 000000018003fbd0     main.obj
 0002:0000cbd0       $unwind$?EcNamedCurves@@YAXV?$Local@VObject@v8@@@v8@@@Z 000000018003fbd0     main.obj
 0002:0000cbdc       $unwind$?InitModule@@YAXV?$Local@VObject@v8@@@v8@@@Z 000000018003fbdc     main.obj
 0002:0000cbec       $stateUnwindMap$?ThrowError@Nan@@YAXV?$Local@VString@v8@@@v8@@@Z 000000018003fbec     w_key.obj
 0002:0000cbec       $stateUnwindMap$?InitModule@@YAXV?$Local@VObject@v8@@@v8@@@Z 000000018003fbec     main.obj
 0002:0000cbf8       $ip2state$?InitModule@@YAXV?$Local@VObject@v8@@@v8@@@Z 000000018003fbf8     main.obj
 0002:0000cc10       $unwind$?New@WHmac@@SAXAEBV?$FunctionCallbackInfo@VValue@v8@@@Nan@@@Z 000000018003fc10     w_hmac.obj
 0002:0000cc10       $unwind$?New@WPbkdf2@@SAXAEBV?$FunctionCallbackInfo@VValue@v8@@@Nan@@@Z 000000018003fc10     w_pbkdf2.obj
 0002:0000cc10       $unwind$?New@WKey@@SAXAEBV?$FunctionCallbackInfo@VValue@v8@@@Nan@@@Z 000000018003fc10     w_key.obj
 0002:0000cc10       $unwind$?New@WAes@@SAXAEBV?$FunctionCallbackInfo@VValue@v8@@@Nan@@@Z 000000018003fc10     w_aes.obj
 0002:0000cc10       $unwind$?New@WCore@@SAXAEBV?$FunctionCallbackInfo@VValue@v8@@@Nan@@@Z 000000018003fc10     w_core.obj
 0002:0000cc10       $unwind$?BN_bn2bin_padded@@YAHPEAE_KPEBUbignum_st@@@Z 000000018003fc10     bn.obj
 0002:0000cc18       $chain$0$?BN_bn2bin_padded@@YAHPEAE_KPEBUbignum_st@@@Z 000000018003fc18     bn.obj
 0002:0000cc2c       $chain$3$?BN_bn2bin_padded@@YAHPEAE_KPEBUbignum_st@@@Z 000000018003fc2c     bn.obj
 0002:0000cc44       $chain$5$?BN_bn2bin_padded@@YAHPEAE_KPEBUbignum_st@@@Z 000000018003fc44     bn.obj
 0002:0000cc5c       $unwind$_setfpstatusword   000000018003fc5c     libucrt:_fenvutils.obj
 0002:0000cc5c       $unwind$__acrt_stdio_allocate_buffer_nolock 000000018003fc5c     libucrt:_getbuf.obj
 0002:0000cc5c       $unwind$_IsExceptionObjectToBeDestroyed 000000018003fc5c     libvcruntime:trnsctrl.obj
 0002:0000cc5c       $unwind$??1?$shared_ptr@VScopedHMAC@@@std@@QEAA@XZ 000000018003fc5c     hmac_gen.obj
 0002:0000cc5c       $unwind$?exit_or_terminate_process@@YAXI@Z 000000018003fc5c     libucrt:exit.obj
 0002:0000cc5c       $unwind$_SetImageBase      000000018003fc5c     libvcruntime:trnsctrl.obj
 0002:0000cc5c       $unwind$??1?$shared_ptr@VScopedAES@@@std@@QEAA@XZ 000000018003fc5c     aes_gen.obj
 0002:0000cc5c       $unwind$__acrt_uninitialize_winapi_thunks 000000018003fc5c     libucrt:winapi_thunks.obj
 0002:0000cc5c       $unwind$?type_case_integer@?$output_processor@_WV?$string_output_adapter@_W@__crt_stdio_output@@V?$standard_base@_WV?$string_output_adapter@_W@__crt_stdio_output@@@2@@__crt_stdio_output@@AEAA_NI_N@Z 000000018003fc5c     libucrt:output.obj
 0002:0000cc5c       $unwind$?load_exe_hook@@YAP6A_JXZIPEAUDelayLoadInfo@@@Z 000000018003fc5c     win_delay_load_hook.obj
 0002:0000cc5c       $unwind$?__GetUnwindTryBlock@@YAHPEA_KPEAU_xDISPATCHER_CONTEXT@@PEBU_s_FuncInfo@@@Z 000000018003fc5c     libvcruntime:ehstate.obj
 0002:0000cc5c       $unwind$??0bad_exception@std@@QEAA@AEBV01@@Z 000000018003fc5c     libvcruntime:frame.obj
 0002:0000cc5c       $unwind$__acrt_freeptd     000000018003fc5c     libucrt:per_thread_data.obj
 0002:0000cc5c       $unwind$__acrt_can_show_message_box 000000018003fc5c     libucrt:winapi_thunks.obj
 0002:0000cc5c       $unwind$??1?$shared_ptr@VJwkEc@@@std@@QEAA@XZ 000000018003fc5c     ec_jwk.obj
 0002:0000cc5c       $unwind$_purecall          000000018003fc5c     libvcruntime:purevirt.obj
 0002:0000cc5c       $unwind$??_G?$_Ref_count@VScopedPbkdf2@@@std@@UEAAPEAXI@Z 000000018003fc5c     async_pbkdf2.obj
 0002:0000cc5c       $unwind$strcpy_s           000000018003fc5c     libucrt:strcpy_s.obj
 0002:0000cc5c       $unwind$??_G?$_Ref_count@VJwkEc@@@std@@UEAAPEAXI@Z 000000018003fc5c     ec_jwk.obj
 0002:0000cc5c       $unwind$__raise_securityfailure 000000018003fc5c     LIBCMT:gs_report.obj
 0002:0000cc5c       $unwind$??$message_box_wait_thread@_W@@YAKQEAX@Z 000000018003fc5c     libucrt:crtmbox.obj
 0002:0000cc5c       $unwind$__acrt_allocate_buffer_for_argv 000000018003fc5c     libucrt:argv_parsing.obj
 0002:0000cc5c       $unwind$wcscat_s           000000018003fc5c     libucrt:wcscat_s.obj
 0002:0000cc5c       $unwind$wcscpy_s           000000018003fc5c     libucrt:wcscpy_s.obj
 0002:0000cc5c       $unwind$fegetenv           000000018003fc5c     libucrt:fegetenv.obj
 0002:0000cc5c       $unwind$__acrt_initialize_locks 000000018003fc5c     libucrt:locks.obj
 0002:0000cc5c       $unwind$__acrt_uninitialize_locks 000000018003fc5c     libucrt:locks.obj
 0002:0000cc5c       $unwind$??1?$shared_ptr@VJwkRsa@@@std@@QEAA@XZ 000000018003fc5c     rsa_jwk.obj
 0002:0000cc5c       $unwind$_Init_thread_notify 000000018003fc5c     LIBCMT:thread_safe_statics.obj
 0002:0000cc5c       $unwind$__vcrt_freeptd     000000018003fc5c     libvcruntime:per_thread_data.obj
 0002:0000cc5c       $unwind$?_Destroy@?$_Ref_count@VJwkRsa@@@std@@EEAAXXZ 000000018003fc5c     rsa_jwk.obj
 0002:0000cc5c       $unwind$??_G?$_Ref_count@VScopedAES@@@std@@UEAAPEAXI@Z 000000018003fc5c     aes_gen.obj
 0002:0000cc5c       $unwind$_CreateFrameInfo   000000018003fc5c     libvcruntime:trnsctrl.obj
 0002:0000cc5c       $unwind$fesetenv           000000018003fc5c     libucrt:fesetenv.obj
 0002:0000cc5c       $unwind$??1?$shared_ptr@VScopedPbkdf2@@@std@@QEAA@XZ 000000018003fc5c     w_pbkdf2.obj
 0002:0000cc5c       $unwind$_SetThrowImageBase 000000018003fc5c     libvcruntime:trnsctrl.obj
 0002:0000cc5c       $unwind$?AsyncExecuteComplete@Nan@@YAXPEAUuv_work_s@@@Z 000000018003fc5c     w_key.obj
 0002:0000cc5c       $unwind$initialize_pointers 000000018003fc5c     libucrt:initialization.obj
 0002:0000cc5c       $unwind$uninitialize_allocated_memory 000000018003fc5c     libucrt:initialization.obj
 0002:0000cc5c       $unwind$_Init_thread_header 000000018003fc5c     LIBCMT:thread_safe_statics.obj
 0002:0000cc5c       $unwind$??_Gtype_info@@UEAAPEAXI@Z 000000018003fc5c     LIBCMT:std_type_info_static.obj
 0002:0000cc5c       $unwind$?DloadReleaseSectionWriteAccess@@YAXXZ 000000018003fc5c     DelayImp:delayhlp.obj
 0002:0000cc5c       $unwind$??_Gexception@stdext@@UEAAPEAXI@Z 000000018003fc5c     key_exp.obj
 0002:0000cc5c       $unwind$??_G_Ref_count_base@std@@UEAAPEAXI@Z 000000018003fc5c     key_exp.obj
 0002:0000cc5c       $unwind$??2@YAPEAX_K@Z     000000018003fc5c     LIBCMT:new_scalar.obj
 0002:0000cc5c       $unwind$??_Gruntime_error@std@@UEAAPEAXI@Z 000000018003fc5c     key_exp.obj
 0002:0000cc5c       $unwind$__vcrt_uninitialize_locks 000000018003fc5c     libvcruntime:locks.obj
 0002:0000cc5c       $unwind$__scrt_release_startup_lock 000000018003fc5c     LIBCMT:utility.obj
 0002:0000cc5c       $unwind$_malloc_base       000000018003fc5c     libucrt:malloc_base.obj
 0002:0000cc5c       $unwind$__acrt_stdio_free_buffer_nolock 000000018003fc5c     libucrt:_freebuf.obj
 0002:0000cc5c       $unwind$_set_statfp        000000018003fc5c     libucrt:fpctrl.obj
 0002:0000cc5c       $unwind$_calloc_base       000000018003fc5c     libucrt:calloc_base.obj
 0002:0000cc5c       $unwind$_fflush_nolock     000000018003fc5c     libucrt:fflush.obj
 0002:0000cc5c       $unwind$??0?$output_processor@_WV?$string_output_adapter@_W@__crt_stdio_output@@V?$standard_base@_WV?$string_output_adapter@_W@__crt_stdio_output@@@2@@__crt_stdio_output@@QEAA@AEBV?$string_output_adapter@_W@1@_KQEB_WQEAU__crt_locale_pointers@@QEAD@Z 000000018003fc5c     libucrt:output.obj
 0002:0000cc5c       $unwind$_clrfp             000000018003fc5c     libucrt:fpctrl.obj
 0002:0000cc5c       $unwind$__acrt_fp_strflt_to_string 000000018003fc5c     libucrt:_fptostr.obj
 0002:0000cc5c       $unwind$??1?$shared_ptr@V?$ScopedSSL@Uevp_pkey_st@@$1?ScopedEVP_PKEY_free@@YAXPEAX@Z@@@std@@QEAA@XZ 000000018003fc5c     key_exp.obj
 0002:0000cc5c       $unwind$??1?$shared_ptr@V?$basic_string@DU?$char_traits@D@std@@V?$allocator@D@2@@std@@@std@@QEAA@XZ 000000018003fc5c     key_exp.obj
 0002:0000cc5c       $unwind$_clearfp           000000018003fc5c     libucrt:ieee.obj
 0002:0000cc5c       $unwind$__acrt_update_locale_info 000000018003fc5c     libucrt:locale_update.obj
 0002:0000cc5c       $unwind$__vcrt_initialize_locks 000000018003fc5c     libvcruntime:locks.obj
 0002:0000cc5c       $unwind$??1?$basic_string@DU?$char_traits@D@std@@V?$allocator@D@2@@std@@QEAA@XZ 000000018003fc5c     key_exp.obj
 0002:0000cc5c       $unwind$__scrt_initialize_crt 000000018003fc5c     LIBCMT:utility.obj
 0002:0000cc5c       $unwind$?_Destroy@?$_Ref_count@V?$basic_string@DU?$char_traits@D@std@@V?$allocator@D@2@@std@@@std@@EEAAXXZ 000000018003fc5c     key_exp.obj
 0002:0000cc5c       $unwind$??_G?$_Ref_count@V?$ScopedSSL@Uevp_pkey_st@@$1?ScopedEVP_PKEY_free@@YAXPEAX@Z@@@std@@UEAAPEAXI@Z 000000018003fc5c     key_exp.obj
 0002:0000cc5c       $unwind$??_G?$_Ref_count@V?$basic_string@DU?$char_traits@D@std@@V?$allocator@D@2@@std@@@std@@UEAAPEAXI@Z 000000018003fc5c     key_exp.obj
 0002:0000cc5c       $unwind$feholdexcept       000000018003fc5c     libucrt:feholdexcept.obj
 0002:0000cc5c       $unwind$??0length_error@std@@QEAA@AEBV01@@Z 000000018003fc5c     libcpmt:xthrow.obj
 0002:0000cc5c       $unwind$?WeakCallback@ObjectWrap@node@@CAXAEBV?$WeakCallbackInfo@VObjectWrap@node@@@v8@@@Z 000000018003fc5c     w_key.obj
 0002:0000cc5c       $unwind$?type_case_integer@?$output_processor@_WV?$stream_output_adapter@_W@__crt_stdio_output@@V?$standard_base@_WV?$stream_output_adapter@_W@__crt_stdio_output@@@2@@__crt_stdio_output@@AEAA_NI_N@Z 000000018003fc5c     libucrt:output.obj
 0002:0000cc5c       $unwind$?Unref@ObjectWrap@node@@MEAAXXZ 000000018003fc5c     w_key.obj
 0002:0000cc5c       $unwind$??_G?$_Ref_count@VJwkRsa@@@std@@UEAAPEAXI@Z 000000018003fc5c     rsa_jwk.obj
 0002:0000cc5c       $unwind$?Ref@ObjectWrap@node@@MEAAXXZ 000000018003fc5c     w_key.obj
 0002:0000cc5c       $unwind$??0exception@std@@QEAA@AEBV01@@Z 000000018003fc5c     libcpmt:xthrow.obj
 0002:0000cc5c       $unwind$?__StateFromIp@@YAHPEBU_s_FuncInfo@@PEAU_xDISPATCHER_CONTEXT@@_J@Z 000000018003fc5c     libvcruntime:ehstate.obj
 0002:0000cc5c       $unwind$__std_exception_destroy 000000018003fc5c     libvcruntime:std_exception.obj
 0002:0000cc5c       $unwind$??0bad_alloc@std@@QEAA@AEBV01@@Z 000000018003fc5c     libcpmt:xthrow.obj
 0002:0000cc5c       $unwind$__scrt_uninitialize_crt 000000018003fc5c     LIBCMT:utility.obj
 0002:0000cc5c       $unwind$??0bad_array_new_length@std@@QEAA@AEBV01@@Z 000000018003fc5c     LIBCMT:throw_bad_alloc.obj
 0002:0000cc5c       $unwind$??0logic_error@std@@QEAA@AEBV01@@Z 000000018003fc5c     libcpmt:xthrow.obj
 0002:0000cc5c       $unwind$__std_type_info_destroy_list 000000018003fc5c     libvcruntime:std_type_info.obj
 0002:0000cc5c       $unwind$_onexit            000000018003fc5c     LIBCMT:utility.obj
 0002:0000cc5c       $unwind$__acrt_uninitialize_stdio 000000018003fc5c     libucrt:_file.obj
 0002:0000cc5c       $unwind$_Init_thread_footer 000000018003fc5c     LIBCMT:thread_safe_statics.obj
 0002:0000cc5c       $unwind$__acrt_update_multibyte_info 000000018003fc5c     libucrt:locale_update.obj
 0002:0000cc5c       $unwind$??0out_of_range@std@@QEAA@AEBV01@@Z 000000018003fc5c     libcpmt:xthrow.obj
 0002:0000cc5c       $unwind$??_G?$_Ref_count@VScopedHMAC@@@std@@UEAAPEAXI@Z 000000018003fc5c     hmac_gen.obj
 0002:0000cc5c       $unwind$??0?$output_processor@_WV?$stream_output_adapter@_W@__crt_stdio_output@@V?$standard_base@_WV?$stream_output_adapter@_W@__crt_stdio_output@@@2@@__crt_stdio_output@@QEAA@AEBV?$stream_output_adapter@_W@1@_KQEB_WQEAU__crt_locale_pointers@@QEAD@Z 000000018003fc5c     libucrt:output.obj
 0002:0000cc64       $unwind$?KEY_export@@YA?AV?$shared_ptr@V?$basic_string@DU?$char_traits@D@std@@V?$allocator@D@2@@std@@@std@@PEAUevp_pkey_st@@P6AHPEAUbio_st@@0@Z@Z 000000018003fc64     key_exp.obj
 0002:0000cc80       $stateUnwindMap$?KEY_export@@YA?AV?$shared_ptr@V?$basic_string@DU?$char_traits@D@std@@V?$allocator@D@2@@std@@@std@@PEAUevp_pkey_st@@P6AHPEAUbio_st@@0@Z@Z 000000018003fc80     key_exp.obj
 0002:0000cca0       $ip2state$?KEY_export@@YA?AV?$shared_ptr@V?$basic_string@DU?$char_traits@D@std@@V?$allocator@D@2@@std@@@std@@PEAUevp_pkey_st@@P6AHPEAUbio_st@@0@Z@Z 000000018003fca0     key_exp.obj
 0002:0000cce0       $unwind$_IsNonwritableInCurrentImage$filt$0 000000018003fce0     LIBCMT:pesect.obj
 0002:0000cce0       $unwind$?dtor$2@?0??EcdhDeriveBits@WKey@@SAXAEBV?$FunctionCallbackInfo@VValue@v8@@@Nan@@@Z@4HA 000000018003fce0     w_key.obj
 0002:0000cce0       $unwind$_ctrlfp$filt$0     000000018003fce0     libucrt:fpctrl.obj
 0002:0000cce0       $unwind$_write$fin$0       000000018003fce0     libucrt:write.obj
 0002:0000cce0       $unwind$?dtor$3@?0??EcdhDeriveBits@WKey@@SAXAEBV?$FunctionCallbackInfo@VValue@v8@@@Nan@@@Z@4HA 000000018003fce0     w_key.obj
 0002:0000cce0       $unwind$__FrameUnwindToState$filt$0 000000018003fce0     libvcruntime:frame.obj
 0002:0000cce0       $unwind$?dtor$2@?0??ImportKey@WPbkdf2@@SAXAEBV?$FunctionCallbackInfo@VValue@v8@@@Nan@@@Z@4HA 000000018003fce0     w_pbkdf2.obj
 0002:0000cce0       $unwind$__acrt_initialize_lowio$fin$0 000000018003fce0     libucrt:ioinit.obj
 0002:0000cce0       $unwind$?dtor$1@?0??Digest@WCore@@SAXAEBV?$FunctionCallbackInfo@VValue@v8@@@Nan@@@Z@4HA 000000018003fce0     w_core.obj
 0002:0000cce0       $unwind$_query_new_handler$fin$0 000000018003fce0     libucrt:new_handler.obj
 0002:0000cce0       $unwind$?dtor$3@?0??DeriveBits@WPbkdf2@@SAXAEBV?$FunctionCallbackInfo@VValue@v8@@@Nan@@@Z@4HA 000000018003fce0     w_pbkdf2.obj
 0002:0000cce0       $unwind$?dtor$2@?0??KEY_export@@YA?AV?$shared_ptr@V?$basic_string@DU?$char_traits@D@std@@V?$allocator@D@2@@std@@@std@@PEAUevp_pkey_st@@P6AHPEAUbio_st@@0@Z@Z@4HA 000000018003fce0     key_exp.obj
 0002:0000cce0       $unwind$?dtor$2@?0??DeriveBits@WPbkdf2@@SAXAEBV?$FunctionCallbackInfo@VValue@v8@@@Nan@@@Z@4HA 000000018003fce0     w_pbkdf2.obj
 0002:0000cce0       $unwind$?dtor$6@?0??AES_CBC_encrypt@@YA?AV?$shared_ptr@V?$basic_string@DU?$char_traits@D@std@@V?$allocator@D@2@@std@@@std@@V12@00_N@Z@4HA 000000018003fce0     aes_cbc.obj
 0002:0000cce0       $unwind$?dtor$3@?0??RsaPssSign@WKey@@SAXAEBV?$FunctionCallbackInfo@VValue@v8@@@Nan@@@Z@4HA 000000018003fce0     w_key.obj
 0002:0000cce0       $unwind$?dtor$4@?0??Digest@WCore@@SAXAEBV?$FunctionCallbackInfo@VValue@v8@@@Nan@@@Z@4HA 000000018003fce0     w_core.obj
 0002:0000cce0       $unwind$?dtor$4@?0??RsaPssSign@WKey@@SAXAEBV?$FunctionCallbackInfo@VValue@v8@@@Nan@@@Z@4HA 000000018003fce0     w_key.obj
 0002:0000cce0       $unwind$?dtor$1@?0??ImportKey@WPbkdf2@@SAXAEBV?$FunctionCallbackInfo@VValue@v8@@@Nan@@@Z@4HA 000000018003fce0     w_pbkdf2.obj
 0002:0000cce0       $unwind$?dtor$5@?0??Digest@WCore@@SAXAEBV?$FunctionCallbackInfo@VValue@v8@@@Nan@@@Z@4HA 000000018003fce0     w_core.obj
 0002:0000cce0       $unwind$fflush$fin$0       000000018003fce0     libucrt:fflush.obj
 0002:0000cce0       $unwind$?dtor$5@?0??RsaPssVerify@WKey@@SAXAEBV?$FunctionCallbackInfo@VValue@v8@@@Nan@@@Z@4HA 000000018003fce0     w_key.obj
 0002:0000cce0       $unwind$__acrt_update_thread_locale_data$fin$0 000000018003fce0     libucrt:locale_refcounting.obj
 0002:0000cce0       $unwind$?dtor$6@?0??RsaOaepEncDec@WKey@@SAXAEBV?$FunctionCallbackInfo@VValue@v8@@@Nan@@@Z@4HA 000000018003fce0     w_key.obj
 0002:0000cce0       $unwind$__acrt_update_thread_multibyte_data$fin$0 000000018003fce0     libucrt:mbctype.obj
 0002:0000cce0       $unwind$?dtor$2@?0??digest@@YA?AV?$shared_ptr@V?$basic_string@DU?$char_traits@D@std@@V?$allocator@D@2@@std@@@std@@PEBUenv_md_st@@V12@@Z@4HA 000000018003fce0     digest.obj
 0002:0000cce0       $unwind$?dtor$7@?0??RsaOaepEncDec@WKey@@SAXAEBV?$FunctionCallbackInfo@VValue@v8@@@Nan@@@Z@4HA 000000018003fce0     w_key.obj
 0002:0000cce0       $unwind$__FrameUnwindToState$fin$1 000000018003fce0     libvcruntime:frame.obj
 0002:0000cce0       $unwind$?fin$1@?0??common_exit@@YAXHW4_crt_exit_cleanup_mode@@W4_crt_exit_return_mode@@@Z@4HA 000000018003fce0     libucrt:exit.obj
 0002:0000cce0       $unwind$?dtor$3@?0??wrap@ScopedAES@@QEAA?AV?$shared_ptr@V?$basic_string@DU?$char_traits@D@std@@V?$allocator@D@2@@std@@@std@@V23@@Z@4HA 000000018003fce0     aes_cbc.obj
 0002:0000cce0       $unwind$?filt$0@?0??common_exit@@YAXHW4_crt_exit_cleanup_mode@@W4_crt_exit_return_mode@@@Z@4HA 000000018003fce0     libucrt:exit.obj
 0002:0000cce0       $unwind$?dtor$3@?0??unwrap@ScopedAES@@QEAA?AV?$shared_ptr@V?$basic_string@DU?$char_traits@D@std@@V?$allocator@D@2@@std@@@std@@V23@@Z@4HA 000000018003fce0     aes_cbc.obj
 0002:0000cce0       $unwind$?dtor$4@?0??Verify@WKey@@SAXAEBV?$FunctionCallbackInfo@VValue@v8@@@Nan@@@Z@4HA 000000018003fce0     w_key.obj
 0002:0000cce0       $unwind$?dtor$5@?0??AES_ECB_encrypt@@YA?AV?$shared_ptr@V?$basic_string@DU?$char_traits@D@std@@V?$allocator@D@2@@std@@@std@@V12@0_N@Z@4HA 000000018003fce0     aes_ecb.obj
 0002:0000cce0       $unwind$?dtor$1@?0??GenerateRsa@WKey@@SAXAEBV?$FunctionCallbackInfo@VValue@v8@@@Nan@@@Z@4HA 000000018003fce0     w_key.obj
 0002:0000cce0       $unwind$?dtor$4@?0??RsaPssVerify@WKey@@SAXAEBV?$FunctionCallbackInfo@VValue@v8@@@Nan@@@Z@4HA 000000018003fce0     w_key.obj
 0002:0000cce0       $unwind$?dtor$0@?0??GenerateRsa@WKey@@SAXAEBV?$FunctionCallbackInfo@VValue@v8@@@Nan@@@Z@4HA 000000018003fce0     w_key.obj
 0002:0000cce0       $unwind$?dtor$2@?0??EcdhDeriveKey@WKey@@SAXAEBV?$FunctionCallbackInfo@VValue@v8@@@Nan@@@Z@4HA 000000018003fce0     w_key.obj
 0002:0000cce0       $unwind$__CxxCallCatchBlock$filt$0 000000018003fce0     libvcruntime:frame.obj
 0002:0000cce0       $unwind$?dtor$5@?0??Verify@WKey@@SAXAEBV?$FunctionCallbackInfo@VValue@v8@@@Nan@@@Z@4HA 000000018003fce0     w_key.obj
 0002:0000cce0       $unwind$?dtor$1@?0??GenerateEc@WKey@@SAXAEBV?$FunctionCallbackInfo@VValue@v8@@@Nan@@@Z@4HA 000000018003fce0     w_key.obj
 0002:0000cce0       $unwind$?dtor$0@?0??GenerateEc@WKey@@SAXAEBV?$FunctionCallbackInfo@VValue@v8@@@Nan@@@Z@4HA 000000018003fce0     w_key.obj
 0002:0000cce0       $unwind$raise$fin$0        000000018003fce0     libucrt:signal.obj
 0002:0000cce0       $unwind$?fin$0@?0???$?RV<lambda_99476a1ad63dd22509b5d3e65b0ffc95>@@AEAV<lambda_ad1ced32f4ac17aa236e5ef05d6b3b7c>@@V<lambda_f7424dd8d45958661754dc4f2697e9c3>@@@?$__crt_seh_guarded_call@X@@QEAAX$$QEAV<lambda_99476a1ad63dd22509b5d3e65b0ffc95>@@AEAV<lambda_ad1ced32f4ac17aa236e5ef05d6b3b7c>@@$$QEAV<lambda_f7424dd8d45958661754dc4f2697e9c3>@@@Z@4HA 000000018003fce0     libucrt:mbctype.obj
 0002:0000cce0       $unwind$?dtor$9@?0??Verify@WKey@@SAXAEBV?$FunctionCallbackInfo@VValue@v8@@@Nan@@@Z@4HA 000000018003fce0     w_key.obj
 0002:0000cce0       $unwind$?dtor$5@?0??ExportJwk@WKey@@SAXAEBV?$FunctionCallbackInfo@VValue@v8@@@Nan@@@Z@4HA 000000018003fce0     w_key.obj
 0002:0000cce0       $unwind$?fin$0@?0???$?RV<lambda_c36588078e9f5dfd39652860aa6b3aaf>@@AEAV<lambda_ec61778202f4f5fc7e7711acc23c3bca>@@V<lambda_dc9d2797ccde5d239b4a0efae8ebd7db>@@@?$__crt_seh_guarded_call@P6AXH@Z@@QEAAP6AXH@Z$$QEAV<lambda_c36588078e9f5dfd39652860aa6b3aaf>@@AEAV<lambda_ec61778202f4f5fc7e7711acc23c3bca>@@$$QEAV<lambda_dc9d2797ccde5d239b4a0efae8ebd7db>@@@Z@4HA 000000018003fce0     libucrt:signal.obj
 0002:0000cce0       $unwind$?dtor$1@?0??ExportJwk@WKey@@SAXAEBV?$FunctionCallbackInfo@VValue@v8@@@Nan@@@Z@4HA 000000018003fce0     w_key.obj
 0002:0000cce0       $unwind$?dtor$2@?0??From@JwkEc@@SA?AV?$shared_ptr@VJwkEc@@@std@@V?$shared_ptr@V?$ScopedSSL@Uevp_pkey_st@@$1?ScopedEVP_PKEY_free@@YAXPEAX@Z@@@3@AEAH@Z@4HA 000000018003fce0     ec_jwk.obj
 0002:0000cce0       $unwind$?dtor$0@?0??ExportJwk@WKey@@SAXAEBV?$FunctionCallbackInfo@VValue@v8@@@Nan@@@Z@4HA 000000018003fce0     w_key.obj
 0002:0000cce0       $unwind$?dtor$1@?0??ExportSpki@WKey@@SAXAEBV?$FunctionCallbackInfo@VValue@v8@@@Nan@@@Z@4HA 000000018003fce0     w_key.obj
 0002:0000cce0       $unwind$?dtor$0@?0??ExportSpki@WKey@@SAXAEBV?$FunctionCallbackInfo@VValue@v8@@@Nan@@@Z@4HA 000000018003fce0     w_key.obj
 0002:0000cce0       $unwind$__acrt_lowio_ensure_fh_exists$fin$0 000000018003fce0     libucrt:osfinfo.obj
 0002:0000cce0       $unwind$?dtor$0@?0??v8Buffer_to_String@@YA?AV?$shared_ptr@V?$basic_string@DU?$char_traits@D@std@@V?$allocator@D@2@@std@@@std@@V?$Local@VObject@v8@@@v8@@@Z@4HA 000000018003fce0     common.obj
 0002:0000cce0       $unwind$?dtor$1@?0??Generate@WHmac@@SAXAEBV?$FunctionCallbackInfo@VValue@v8@@@Nan@@@Z@4HA 000000018003fce0     w_hmac.obj
 0002:0000cce0       $unwind$?dtor$0@?0??Generate@WHmac@@SAXAEBV?$FunctionCallbackInfo@VValue@v8@@@Nan@@@Z@4HA 000000018003fce0     w_hmac.obj
 0002:0000cce0       $unwind$?fin$0@?0???$?RV<lambda_e24bbb7b643b32fcea6fa61b31d4c984>@@AEAV<lambda_275893d493268fdec8709772e3fcec0e>@@V<lambda_9d71df4d7cf3f480f8d633942495c3b0>@@@?$__crt_seh_guarded_call@H@@QEAAH$$QEAV<lambda_e24bbb7b643b32fcea6fa61b31d4c984>@@AEAV<lambda_275893d493268fdec8709772e3fcec0e>@@$$QEAV<lambda_9d71df4d7cf3f480f8d633942495c3b0>@@@Z@4HA 000000018003fce0     libucrt:onexit.obj
 0002:0000cce0       $unwind$?dtor$1@?0??Export@WHmac@@SAXAEBV?$FunctionCallbackInfo@VValue@v8@@@Nan@@@Z@4HA 000000018003fce0     w_hmac.obj
 0002:0000cce0       $unwind$?dtor$0@?0??Export@WHmac@@SAXAEBV?$FunctionCallbackInfo@VValue@v8@@@Nan@@@Z@4HA 000000018003fce0     w_hmac.obj
 0002:0000cce0       $unwind$?dtor$2@?0??Import@WHmac@@SAXAEBV?$FunctionCallbackInfo@VValue@v8@@@Nan@@@Z@4HA 000000018003fce0     w_hmac.obj
 0002:0000cce0       $unwind$?fin$0@?0???$?RV<lambda_b8c45f8f788dd370798f47cfe8ac3a86>@@AEAV<lambda_4e60a939b0d047cfe11ddc22648dfba9>@@V<lambda_332c3edc96d0294ec56c57d38c1cdfd5>@@@?$__crt_seh_guarded_call@H@@QEAAH$$QEAV<lambda_b8c45f8f788dd370798f47cfe8ac3a86>@@AEAV<lambda_4e60a939b0d047cfe11ddc22648dfba9>@@$$QEAV<lambda_332c3edc96d0294ec56c57d38c1cdfd5>@@@Z@4HA 000000018003fce0     libucrt:onexit.obj
 0002:0000cce0       $unwind$?dtor$4@?0??ECDH_derive_key@@YA?AV?$shared_ptr@V?$basic_string@DU?$char_traits@D@std@@V?$allocator@D@2@@std@@@std@@V?$shared_ptr@V?$ScopedSSL@Uevp_pkey_st@@$1?ScopedEVP_PKEY_free@@YAXPEAX@Z@@@2@0AEA_K@Z@4HA 000000018003fce0     ec_dh.obj
 0002:0000cce0       $unwind$?dtor$1@?0??Import@WHmac@@SAXAEBV?$FunctionCallbackInfo@VValue@v8@@@Nan@@@Z@4HA 000000018003fce0     w_hmac.obj
 0002:0000cce0       $unwind$?dtor$3@?0??Sign@WKey@@SAXAEBV?$FunctionCallbackInfo@VValue@v8@@@Nan@@@Z@4HA 000000018003fce0     w_key.obj
 0002:0000cce0       $unwind$?dtor$3@?0??Sign@WHmac@@SAXAEBV?$FunctionCallbackInfo@VValue@v8@@@Nan@@@Z@4HA 000000018003fce0     w_hmac.obj
 0002:0000cce0       $unwind$?dtor$2@?0??Sign@WHmac@@SAXAEBV?$FunctionCallbackInfo@VValue@v8@@@Nan@@@Z@4HA 000000018003fce0     w_hmac.obj
 0002:0000cce0       $unwind$?dtor$5@?0??Verify@WHmac@@SAXAEBV?$FunctionCallbackInfo@VValue@v8@@@Nan@@@Z@4HA 000000018003fce0     w_hmac.obj
 0002:0000cce0       $unwind$?dtor$4@?0??Verify@WHmac@@SAXAEBV?$FunctionCallbackInfo@VValue@v8@@@Nan@@@Z@4HA 000000018003fce0     w_hmac.obj
 0002:0000cce0       $unwind$?dtor$1@?0??ExportPkcs8@WKey@@SAXAEBV?$FunctionCallbackInfo@VValue@v8@@@Nan@@@Z@4HA 000000018003fce0     w_key.obj
 0002:0000cce0       $unwind$?dtor$2@?0??DecryptCtr@WAes@@SAXAEBV?$FunctionCallbackInfo@VValue@v8@@@Nan@@@Z@4HA 000000018003fce0     w_aes.obj
 0002:0000cce0       $unwind$?fin$0@?0???$?RV<lambda_fb3a7dec4e47f37f22dae91bb15c9095>@@AEAV<lambda_698284760c8add0bfb0756c19673e34b>@@V<lambda_dfb8eca1e75fef3034a8fb18dd509707>@@@?$__crt_seh_guarded_call@X@@QEAAX$$QEAV<lambda_fb3a7dec4e47f37f22dae91bb15c9095>@@AEAV<lambda_698284760c8add0bfb0756c19673e34b>@@$$QEAV<lambda_dfb8eca1e75fef3034a8fb18dd509707>@@@Z@4HA 000000018003fce0     libucrt:per_thread_data.obj
 0002:0000cce0       $unwind$?dtor$3@?0??DecryptCtr@WAes@@SAXAEBV?$FunctionCallbackInfo@VValue@v8@@@Nan@@@Z@4HA 000000018003fce0     w_aes.obj
 0002:0000cce0       $unwind$?dtor$2@?0??From@JwkRsa@@SA?AV?$shared_ptr@VJwkRsa@@@std@@V?$shared_ptr@V?$ScopedSSL@Uevp_pkey_st@@$1?ScopedEVP_PKEY_free@@YAXPEAX@Z@@@3@AEAH@Z@4HA 000000018003fce0     rsa_jwk.obj
 0002:0000cce0       $unwind$?dtor$0@?0??ExportPkcs8@WKey@@SAXAEBV?$FunctionCallbackInfo@VValue@v8@@@Nan@@@Z@4HA 000000018003fce0     w_key.obj
 0002:0000cce0       $unwind$?dtor$3@?0??EcdhDeriveKey@WKey@@SAXAEBV?$FunctionCallbackInfo@VValue@v8@@@Nan@@@Z@4HA 000000018003fce0     w_key.obj
 0002:0000cce0       $unwind$_fcloseall$fin$0   000000018003fce0     libucrt:closeall.obj
 0002:0000cce0       $unwind$?fin$0@?0???$?RV<lambda_46352004c1216016012b18bd6f87e700>@@AEAV<lambda_3bd07e1a1191394380780325891bf33f>@@V<lambda_334532d3f185bcaa59b5be82d7d22bff>@@@?$__crt_seh_guarded_call@X@@QEAAX$$QEAV<lambda_46352004c1216016012b18bd6f87e700>@@AEAV<lambda_3bd07e1a1191394380780325891bf33f>@@$$QEAV<lambda_334532d3f185bcaa59b5be82d7d22bff>@@@Z@4HA 000000018003fce0     libucrt:per_thread_data.obj
 0002:0000cce0       $unwind$fclose$fin$0       000000018003fce0     libucrt:fclose.obj
 0002:0000cce0       $unwind$?dtor$2@?0??EncryptCtr@WAes@@SAXAEBV?$FunctionCallbackInfo@VValue@v8@@@Nan@@@Z@4HA 000000018003fce0     w_aes.obj
 0002:0000cce0       $unwind$?fin$0@?0???$?RV<lambda_5e887d1dcbef67a5eb4283622ba103bf>@@AEAV<lambda_4466841279450cc726390878d4a41900>@@V<lambda_341c25c0346d94847f1f3c463c57e077>@@@?$__crt_seh_guarded_call@X@@QEAAX$$QEAV<lambda_5e887d1dcbef67a5eb4283622ba103bf>@@AEAV<lambda_4466841279450cc726390878d4a41900>@@$$QEAV<lambda_341c25c0346d94847f1f3c463c57e077>@@@Z@4HA 000000018003fce0     libucrt:per_thread_data.obj
 0002:0000cce0       $unwind$?dtor$3@?0??EncryptCtr@WAes@@SAXAEBV?$FunctionCallbackInfo@VValue@v8@@@Nan@@@Z@4HA 000000018003fce0     w_aes.obj
 0002:0000cce0       $unwind$?dtor$7@?0??RSA_PKCS1_sign@@YA?AV?$shared_ptr@V?$basic_string@DU?$char_traits@D@std@@V?$allocator@D@2@@std@@@std@@V?$shared_ptr@V?$ScopedSSL@Uevp_pkey_st@@$1?ScopedEVP_PKEY_free@@YAXPEAX@Z@@@2@PEBUenv_md_st@@V12@@Z@4HA 000000018003fce0     rsa_pkcs1.obj
 0002:0000cce0       $unwind$common_flush_all$fin$1 000000018003fce0     libucrt:fflush.obj
 0002:0000cce0       $unwind$?fin$0@?0???$?RV<lambda_72d1df2b273a38828b1ce30cbf4cdab5>@@AEAV<lambda_876a65b173b8412d3a47c70a915b0cf4>@@V<lambda_41932305e351933ebe8f8be3ed8bb5dc>@@@?$__crt_seh_guarded_call@X@@QEAAX$$QEAV<lambda_72d1df2b273a38828b1ce30cbf4cdab5>@@AEAV<lambda_876a65b173b8412d3a47c70a915b0cf4>@@$$QEAV<lambda_41932305e351933ebe8f8be3ed8bb5dc>@@@Z@4HA 000000018003fce0     libucrt:per_thread_data.obj
 0002:0000cce0       $unwind$?dtor$2@?0??ImportPkcs8@WKey@@SAXAEBV?$FunctionCallbackInfo@VValue@v8@@@Nan@@@Z@4HA 000000018003fce0     w_key.obj
 0002:0000cce0       $unwind$common_flush_all$fin$0 000000018003fce0     libucrt:fflush.obj
 0002:0000cce0       $unwind$?dtor$1@?0??ImportPkcs8@WKey@@SAXAEBV?$FunctionCallbackInfo@VValue@v8@@@Nan@@@Z@4HA 000000018003fce0     w_key.obj
 0002:0000cce0       $unwind$?dtor$1@?0??UnwrapKey@WAes@@SAXAEBV?$FunctionCallbackInfo@VValue@v8@@@Nan@@@Z@4HA 000000018003fce0     w_aes.obj
 0002:0000cce0       $unwind$?dtor$4@?0??Sign@WKey@@SAXAEBV?$FunctionCallbackInfo@VValue@v8@@@Nan@@@Z@4HA 000000018003fce0     w_key.obj
 0002:0000cce0       $unwind$?dtor$2@?0??UnwrapKey@WAes@@SAXAEBV?$FunctionCallbackInfo@VValue@v8@@@Nan@@@Z@4HA 000000018003fce0     w_aes.obj
 0002:0000cce0       $unwind$?dtor$13@?0??RSA_OAEP_enc_dec@@YA?AV?$shared_ptr@V?$basic_string@DU?$char_traits@D@std@@V?$allocator@D@2@@std@@@std@@V?$shared_ptr@V?$ScopedSSL@Uevp_pkey_st@@$1?ScopedEVP_PKEY_free@@YAXPEAX@Z@@@2@PEBUenv_md_st@@V12@2_N@Z@4HA 000000018003fce0     rsa_oaep.obj
 0002:0000cce0       $unwind$__DestructExceptionObject$filt$0 000000018003fce0     libvcruntime:frame.obj
 0002:0000cce0       $unwind$?fin$0@?0???$?RV<lambda_7a5ef57ff966f610505f1d28a3d40618>@@AEAV<lambda_b721fa326cdb32351d23dfa67958c160>@@V<lambda_5e0fb27672408a07956fe59e48ccb2aa>@@@?$__crt_seh_guarded_call@H@@QEAAH$$QEAV<lambda_7a5ef57ff966f610505f1d28a3d40618>@@AEAV<lambda_b721fa326cdb32351d23dfa67958c160>@@$$QEAV<lambda_5e0fb27672408a07956fe59e48ccb2aa>@@@Z@4HA 000000018003fce0     libucrt:setvbuf.obj
