 nodessl

 Timestamp is 5ae385d1 (Sat Apr 28 01:49:29 2018)

 Preferred load address is 0000000180000000

 Start         Length     Name                   Class
 0001:00000000 0002ebb0H .text$mn                CODE
 0001:0002ebb0 00000020H .text$mn$00             CODE
 0001:0002ebd0 00002680H .text$x                 CODE
 0001:00031250 00000091H .text$yd                CODE
 0002:00000000 00000288H .idata$5                DATA
 0002:00000288 00000010H .00cfg                  DATA
 0002:00000298 00000008H .CRT$XCA                DATA
 0002:000002a0 00000008H .CRT$XCU                DATA
 0002:000002a8 00000008H .CRT$XCZ                DATA
 0002:000002b0 00000008H .CRT$XIA                DATA
 0002:000002b8 00000020H .CRT$XIC                DATA
 0002:000002d8 00000008H .CRT$XIZ                DATA
 0002:000002e0 00000008H .CRT$XLA                DATA
 0002:000002e8 00000008H .CRT$XLZ                DATA
 0002:000002f0 00000008H .CRT$XPA                DATA
 0002:000002f8 00000010H .CRT$XPX                DATA
 0002:00000308 00000008H .CRT$XPXA               DATA
 0002:00000310 00000008H .CRT$XPZ                DATA
 0002:00000318 00000008H .CRT$XTA                DATA
 0002:00000320 00000010H .CRT$XTZ                DATA
 0002:00000330 0000bf48H .rdata                  DATA
 0002:0000c278 00000028H .rdata$T                DATA
 0002:0000c2a0 00000484H .rdata$r                DATA
 0002:0000c724 00000484H .rdata$zzzdbg           DATA
 0002:0000cba8 00000008H .rtc$IAA                DATA
 0002:0000cbb0 00000008H .rtc$IZZ                DATA
 0002:0000cbb8 00000008H .rtc$TAA                DATA
 0002:0000cbc0 00000010H .rtc$TZZ                DATA
 0002:0000cbd0 00006870H .xdata                  DATA
 0002:00013440 000002ccH .xdata$x                DATA
 0002:0001370c 00000020H .didat$2                DATA
 0002:0001372c 00000024H .didat$3                DATA
 0002:00013750 00000558H .didat$4                DATA
 0002:00013ca8 00001a28H .didat$6                DATA
 0002:000156d0 00000560H .didat$7                DATA
 0002:00015c30 00000054H .edata                  DATA
 0002:00015c84 00000014H .idata$2                DATA
 0002:00015c98 00000018H .idata$3                DATA
 0002:00015cb0 00000288H .idata$4                DATA
 0002:00015f38 000005dcH .idata$6                DATA
 0003:00000000 00000970H .data                   DATA
 0003:00000970 00000190H .data$r                 DATA
 0003:00000b00 00000560H .didat$5                DATA
 0003:00001060 0000128cH .bss                    DATA
 0004:00000000 00002aa8H .pdata                  DATA
 0005:00000000 00000084H .gfids$x                DATA
 0005:00000084 00000068H .gfids$y                DATA
 0006:00000000 00000004H .tls                    DATA
 0006:00000004 00000004H .tls$                   DATA
 0006:00000008 00000001H .tls$ZZZ                DATA
 0007:00000000 00000060H .rsrc$01                DATA
 0007:00000060 00000180H .rsrc$02                DATA

  Address         Publics by Value              Rva+Base               Lib:Object

 0000:00000000       __dynamic_value_reloc_table 0000000000000000     <absolute>
 0000:00000000       __guard_iat_count          0000000000000000     <absolute>
 0000:00000000       __guard_iat_table          0000000000000000     <absolute>
 0000:00000000       __guard_fids_count         0000000000000000     <absolute>
 0000:00000000       __guard_longjmp_table      0000000000000000     <absolute>
 0000:00000000       __guard_longjmp_count      0000000000000000     <absolute>
 0000:00000000       ___safe_se_handler_table   0000000000000000     <absolute>
 0000:00000000       ___safe_se_handler_count   0000000000000000     <absolute>
 0000:00000000       __guard_fids_table         0000000000000000     <absolute>
 0000:00000100       __guard_flags              0000000000000100     <absolute>
 0000:00000000       __ImageBase                0000000180000000     <linker-defined>
 0001:00000000       ??1HandleScope@Nan@@QEAA@XZ 0000000180001000 f i main.obj
 0001:00000000       ??1EscapableHandleScope@Nan@@QEAA@XZ 0000000180001000 f i w_key.obj
 0001:00000010       ?EcNamedCurves@@YAXV?$Local@VObject@v8@@@v8@@@Z 0000000180001010 f   main.obj
 0001:00001690       ?RsaPublicExponent@@YAXV?$Local@VObject@v8@@@v8@@@Z 0000000180002690 f   main.obj
 0001:00001850       ?KeyType@@YAXV?$Local@VObject@v8@@@v8@@@Z 0000000180002850 f   main.obj
 0001:00001a10       ?InitModule@@YAXV?$Local@VObject@v8@@@v8@@@Z 0000000180002a10 f   main.obj
 0001:00001ac0       ?BN_bn2bin_padded@@YAHPEAE_KPEBUbignum_st@@@Z 0000000180002ac0 f   bn.obj
 0001:00001c20       ??0exception@stdext@@QEAA@AEBV01@@Z 0000000180002c20 f i key_exp.obj
 0001:00001c40       ?what@exception@stdext@@UEBAPEBDXZ 0000000180002c40 f i key_exp.obj
 0001:00001c60       _guard_check_icall_nop     0000000180002c60 f i LIBCMT:guard_support.obj
 0001:00001c60       ?_Doraise@exception@stdext@@MEBAXXZ 0000000180002c60 f i key_exp.obj
 0001:00001c60       __except_validate_context_record 0000000180002c60 f i libvcruntime:jbcxrval.obj
 0001:00001c70       ??_Eexception@stdext@@UEAAPEAXI@Z 0000000180002c70 f i * CIL library *:* CIL module *
 0001:00001c70       ??_Gexception@stdext@@UEAAPEAXI@Z 0000000180002c70 f i key_exp.obj
 0001:00001c70       ??_Eruntime_error@std@@UEAAPEAXI@Z 0000000180002c70 f i * CIL library *:* CIL module *
 0001:00001c70       ??_Gruntime_error@std@@UEAAPEAXI@Z 0000000180002c70 f i key_exp.obj
 0001:00001ca0       ?_Get_deleter@_Ref_count_base@std@@UEBAPEAXAEBVtype_info@@@Z 0000000180002ca0 f i key_exp.obj
 0001:00001cb0       ??_E_Ref_count_base@std@@UEAAPEAXI@Z 0000000180002cb0 f i * CIL library *:* CIL module *
 0001:00001cb0       ??_G_Ref_count_base@std@@UEAAPEAXI@Z 0000000180002cb0 f i key_exp.obj
 0001:00001ce0       ??1runtime_error@std@@UEAA@XZ 0000000180002ce0 f i key_exp.obj
 0001:00001e50       ??0runtime_error@std@@QEAA@AEBV01@@Z 0000000180002e50 f i key_exp.obj
 0001:00001fb0       ?KEY_export_spki@@YA?AV?$shared_ptr@V?$basic_string@DU?$char_traits@D@std@@V?$allocator@D@2@@std@@@std@@PEAUevp_pkey_st@@@Z 0000000180002fb0 f   key_exp.obj
 0001:00001fe0       ?KEY_import_spki@@YA?AV?$shared_ptr@V?$ScopedSSL@Uevp_pkey_st@@$1?ScopedEVP_PKEY_free@@YAXPEAX@Z@@@std@@V?$shared_ptr@V?$basic_string@DU?$char_traits@D@std@@V?$allocator@D@2@@std@@@2@@Z 0000000180002fe0 f   key_exp.obj
 0001:000020a0       ?KEY_export_pkcs8@@YA?AV?$shared_ptr@V?$basic_string@DU?$char_traits@D@std@@V?$allocator@D@2@@std@@@std@@PEAUevp_pkey_st@@@Z 00000001800030a0 f   key_exp.obj
 0001:000020d0       ?KEY_import_pkcs8@@YA?AV?$shared_ptr@V?$ScopedSSL@Uevp_pkey_st@@$1?ScopedEVP_PKEY_free@@YAXPEAX@Z@@@std@@V?$shared_ptr@V?$basic_string@DU?$char_traits@D@std@@V?$allocator@D@2@@std@@@2@@Z 00000001800030d0 f   key_exp.obj
 0001:00002190       ??1?$shared_ptr@V?$ScopedSSL@Uevp_pkey_st@@$1?ScopedEVP_PKEY_free@@YAXPEAX@Z@@@std@@QEAA@XZ 0000000180003190 f i key_exp.obj
 0001:00002190       ??1?$shared_ptr@VJwkRsa@@@std@@QEAA@XZ 0000000180003190 f i rsa_jwk.obj
 0001:00002190       ??1?$shared_ptr@VScopedHMAC@@@std@@QEAA@XZ 0000000180003190 f i hmac_gen.obj
 0001:00002190       ??1?$shared_ptr@V?$basic_string@DU?$char_traits@D@std@@V?$allocator@D@2@@std@@@std@@QEAA@XZ 0000000180003190 f i key_exp.obj
 0001:00002190       ??1?$shared_ptr@VScopedPbkdf2@@@std@@QEAA@XZ 0000000180003190 f i w_pbkdf2.obj
 0001:00002190       ??1?$shared_ptr@VJwkEc@@@std@@QEAA@XZ 0000000180003190 f i ec_jwk.obj
 0001:00002190       ??1?$shared_ptr@VScopedAES@@@std@@QEAA@XZ 0000000180003190 f i aes_gen.obj
 0001:000021e0       ??1?$ScopedSSL@Ursa_st@@$1?ScopedRSA_free@@YAXPEAX@Z@@QEAA@XZ 00000001800031e0 f i w_key.obj
 0001:000021e0       ??1?$ScopedSSL@Uenv_md_ctx_st@@$1?ScopedEVP_MD_CTX_free@@YAXPEAX@Z@@QEAA@XZ 00000001800031e0 f i rsa_pkcs1.obj
 0001:000021e0       ??1?$ScopedSSL@Uevp_pkey_ctx_st@@$1?ScopedEVP_PKEY_CTX_free@@YAXPEAX@Z@@QEAA@XZ 00000001800031e0 f i rsa_oaep.obj
 0001:000021e0       ??1?$ScopedSSL@Uevp_pkey_st@@$1?ScopedEVP_PKEY_free@@YAXPEAX@Z@@QEAA@XZ 00000001800031e0 f i key_exp.obj
 0001:000021e0       ??1?$ScopedSSL@Uec_key_st@@$1?ScopedEC_KEY_free@@YAXPEAX@Z@@QEAA@XZ 00000001800031e0 f i ec_gen.obj
 0001:000021e0       ??1?$ScopedSSL@UECDSA_SIG_st@@$1?ScopedECDSA_SIG_free@@YAXPEAX@Z@@QEAA@XZ 00000001800031e0 f i ec_dsa.obj
 0001:000021e0       ??1?$ScopedSSL@Ubignum_st@@$1?ScopedBIGNUM_free@@YAXPEAX@Z@@QEAA@XZ 00000001800031e0 f i rsa_gen.obj
 0001:000021e0       ??1?$ScopedSSL@Uevp_cipher_ctx_st@@$1?ScopedEVP_CIPHER_CTX_free@@YAXPEAX@Z@@QEAA@XZ 00000001800031e0 f i aes_ecb.obj
 0001:000021e0       ??1?$ScopedSSL@Uec_group_st@@$1?ScopedEC_GROUP_free@@YAXPEAX@Z@@QEAA@XZ 00000001800031e0 f i ec_jwk.obj
 0001:000021e0       ??1?$ScopedSSL@Ubio_st@@$1?ScopedBIO_free@@YAXPEAX@Z@@QEAA@XZ 00000001800031e0 f i key_exp.obj
 0001:000021e0       ??1?$ScopedSSL@Ubignum_ctx@@$1?ScopedBN_CTX_free@@YAXPEAX@Z@@QEAA@XZ 00000001800031e0 f i ec_jwk.obj
 0001:00002210       ??1?$basic_string@DU?$char_traits@D@std@@V?$allocator@D@2@@std@@QEAA@XZ 0000000180003210 f i key_exp.obj
 0001:000022a0       ?assign@?$basic_string@DU?$char_traits@D@std@@V?$allocator@D@2@@std@@QEAAAEAV12@PEBD_K@Z 00000001800032a0 f i key_exp.obj
 0001:000023d0       ?assign@?$basic_string@DU?$char_traits@D@std@@V?$allocator@D@2@@std@@QEAAAEAV12@AEBV12@_K1@Z 00000001800033d0 f i key_exp.obj
 0001:00002500       ?erase@?$basic_string@DU?$char_traits@D@std@@V?$allocator@D@2@@std@@QEAAAEAV12@_K0@Z 0000000180003500 f i key_exp.obj
 0001:000025a0       ?_Copy@?$basic_string@DU?$char_traits@D@std@@V?$allocator@D@2@@std@@QEAAX_K0@Z 00000001800035a0 f i key_exp.obj
 0001:00002720       ??$?0V?$basic_string@DU?$char_traits@D@std@@V?$allocator@D@2@@std@@@?$shared_ptr@V?$basic_string@DU?$char_traits@D@std@@V?$allocator@D@2@@std@@@std@@QEAA@PEAV?$basic_string@DU?$char_traits@D@std@@V?$allocator@D@2@@1@@Z 0000000180003720 f i key_exp.obj
 0001:00002780       ??$?0V?$ScopedSSL@Uevp_pkey_st@@$1?ScopedEVP_PKEY_free@@YAXPEAX@Z@@@?$shared_ptr@V?$ScopedSSL@Uevp_pkey_st@@$1?ScopedEVP_PKEY_free@@YAXPEAX@Z@@@std@@QEAA@PEAV?$ScopedSSL@Uevp_pkey_st@@$1?ScopedEVP_PKEY_free@@YAXPEAX@Z@@@Z 0000000180003780 f i key_exp.obj
 0001:000027f0       ?_Delete_this@?$_Ref_count@VScopedAES@@@std@@EEAAXXZ 00000001800037f0 f i aes_gen.obj
 0001:000027f0       ?_Delete_this@?$_Ref_count@VJwkEc@@@std@@EEAAXXZ 00000001800037f0 f i ec_jwk.obj
 0001:000027f0       ?_Delete_this@?$_Ref_count@VScopedPbkdf2@@@std@@EEAAXXZ 00000001800037f0 f i async_pbkdf2.obj
 0001:000027f0       ?_Delete_this@?$_Ref_count@V?$ScopedSSL@Uevp_pkey_st@@$1?ScopedEVP_PKEY_free@@YAXPEAX@Z@@@std@@EEAAXXZ 00000001800037f0 f i key_exp.obj
 0001:000027f0       ?_Delete_this@?$_Ref_count@VScopedHMAC@@@std@@EEAAXXZ 00000001800037f0 f i hmac_gen.obj
 0001:000027f0       ?_Delete_this@?$_Ref_count@VJwkRsa@@@std@@EEAAXXZ 00000001800037f0 f i rsa_jwk.obj
 0001:000027f0       ?_Delete_this@?$_Ref_count@V?$basic_string@DU?$char_traits@D@std@@V?$allocator@D@2@@std@@@std@@EEAAXXZ 00000001800037f0 f i key_exp.obj
 0001:00002810       ?_Destroy@?$_Ref_count@V?$ScopedSSL@Uevp_pkey_st@@$1?ScopedEVP_PKEY_free@@YAXPEAX@Z@@@std@@EEAAXXZ 0000000180003810 f i key_exp.obj
 0001:00002850       ?_Destroy@?$_Ref_count@V?$basic_string@DU?$char_traits@D@std@@V?$allocator@D@2@@std@@@std@@EEAAXXZ 0000000180003850 f i key_exp.obj
 0001:00002880       ??_E?$_Ref_count@V?$ScopedSSL@Uevp_pkey_st@@$1?ScopedEVP_PKEY_free@@YAXPEAX@Z@@@std@@UEAAPEAXI@Z 0000000180003880 f i * CIL library *:* CIL module *
 0001:00002880       ??_E?$_Ref_count@VScopedHMAC@@@std@@UEAAPEAXI@Z 0000000180003880 f i * CIL library *:* CIL module *
 0001:00002880       ??_E?$_Ref_count@VJwkRsa@@@std@@UEAAPEAXI@Z 0000000180003880 f i * CIL library *:* CIL module *
 0001:00002880       ??_G?$_Ref_count@VScopedPbkdf2@@@std@@UEAAPEAXI@Z 0000000180003880 f i async_pbkdf2.obj
 0001:00002880       ??_E?$_Ref_count@VJwkEc@@@std@@UEAAPEAXI@Z 0000000180003880 f i * CIL library *:* CIL module *
 0001:00002880       ??_G?$_Ref_count@VScopedHMAC@@@std@@UEAAPEAXI@Z 0000000180003880 f i hmac_gen.obj
 0001:00002880       ??_G?$_Ref_count@V?$ScopedSSL@Uevp_pkey_st@@$1?ScopedEVP_PKEY_free@@YAXPEAX@Z@@@std@@UEAAPEAXI@Z 0000000180003880 f i key_exp.obj
 0001:00002880       ??_G?$_Ref_count@VScopedAES@@@std@@UEAAPEAXI@Z 0000000180003880 f i aes_gen.obj
 0001:00002880       ??_G?$_Ref_count@VJwkRsa@@@std@@UEAAPEAXI@Z 0000000180003880 f i rsa_jwk.obj
 0001:00002880       ??_E?$_Ref_count@VScopedPbkdf2@@@std@@UEAAPEAXI@Z 0000000180003880 f i * CIL library *:* CIL module *
 0001:00002880       ??_G?$_Ref_count@VJwkEc@@@std@@UEAAPEAXI@Z 0000000180003880 f i ec_jwk.obj
 0001:00002880       ??_E?$_Ref_count@V?$basic_string@DU?$char_traits@D@std@@V?$allocator@D@2@@std@@@std@@UEAAPEAXI@Z 0000000180003880 f i * CIL library *:* CIL module *
 0001:00002880       ??_E?$_Ref_count@VScopedAES@@@std@@UEAAPEAXI@Z 0000000180003880 f i * CIL library *:* CIL module *
 0001:00002880       ??_G?$_Ref_count@V?$basic_string@DU?$char_traits@D@std@@V?$allocator@D@2@@std@@@std@@UEAAPEAXI@Z 0000000180003880 f i key_exp.obj
 0001:000028b0       ?_Reset0@?$_Ptr_base@VScopedAES@@@std@@QEAAXPEAVScopedAES@@PEAV_Ref_count_base@2@@Z 00000001800038b0 f i aes_gen.obj
 0001:000028b0       ?_Reset0@?$_Ptr_base@VScopedHMAC@@@std@@QEAAXPEAVScopedHMAC@@PEAV_Ref_count_base@2@@Z 00000001800038b0 f i hmac_gen.obj
 0001:000028b0       ?_Reset0@?$_Ptr_base@VJwkEc@@@std@@QEAAXPEAVJwkEc@@PEAV_Ref_count_base@2@@Z 00000001800038b0 f i ec_jwk.obj
 0001:000028b0       ?_Reset0@?$_Ptr_base@V?$ScopedSSL@Uevp_pkey_st@@$1?ScopedEVP_PKEY_free@@YAXPEAX@Z@@@std@@QEAAXPEAV?$ScopedSSL@Uevp_pkey_st@@$1?ScopedEVP_PKEY_free@@YAXPEAX@Z@@PEAV_Ref_count_base@2@@Z 00000001800038b0 f i key_exp.obj
 0001:000028b0       ?_Reset0@?$_Ptr_base@VJwkRsa@@@std@@QEAAXPEAVJwkRsa@@PEAV_Ref_count_base@2@@Z 00000001800038b0 f i rsa_jwk.obj
 0001:000028b0       ?_Reset0@?$_Ptr_base@VScopedPbkdf2@@@std@@QEAAXPEAVScopedPbkdf2@@PEAV_Ref_count_base@2@@Z 00000001800038b0 f i w_pbkdf2.obj
 0001:000028b0       ?_Reset0@?$_Ptr_base@V?$basic_string@DU?$char_traits@D@std@@V?$allocator@D@2@@std@@@std@@QEAAXPEAV?$basic_string@DU?$char_traits@D@std@@V?$allocator@D@2@@2@PEAV_Ref_count_base@2@@Z 00000001800038b0 f i key_exp.obj
 0001:00002940       ?ScopedBIGNUM_free@@YAXPEAX@Z 0000000180003940 f   scoped_ssl.obj
 0001:00002950       ?ScopedEVP_PKEY_free@@YAXPEAX@Z 0000000180003950 f   scoped_ssl.obj
 0001:00002960       ?ScopedRSA_free@@YAXPEAX@Z 0000000180003960 f   scoped_ssl.obj
 0001:00002970       ?ScopedEC_KEY_free@@YAXPEAX@Z 0000000180003970 f   scoped_ssl.obj
 0001:00002980       ?ScopedBIO_free@@YAXPEAX@Z 0000000180003980 f   scoped_ssl.obj
 0001:00002990       ?ScopedEVP_PKEY_CTX_free@@YAXPEAX@Z 0000000180003990 f   scoped_ssl.obj
 0001:000029a0       ?ScopedBN_CTX_free@@YAXPEAX@Z 00000001800039a0 f   scoped_ssl.obj
 0001:000029b0       ?ScopedECDSA_SIG_free@@YAXPEAX@Z 00000001800039b0 f   scoped_ssl.obj
 0001:000029c0       ?ScopedEC_GROUP_free@@YAXPEAX@Z 00000001800039c0 f   scoped_ssl.obj
 0001:000029d0       ?ScopedEVP_CIPHER_CTX_free@@YAXPEAX@Z 00000001800039d0 f   scoped_ssl.obj
 0001:000029e0       ?ScopedEVP_MD_CTX_free@@YAXPEAX@Z 00000001800039e0 f   scoped_ssl.obj
 0001:000029f0       ?OPENSSL_get_errors@@YA?AV?$basic_string@DU?$char_traits@D@std@@V?$allocator@D@2@@std@@XZ 00000001800039f0 f   excep.obj
 0001:00002aa0       ?digest@@YA?AV?$shared_ptr@V?$basic_string@DU?$char_traits@D@std@@V?$allocator@D@2@@std@@@std@@PEBUenv_md_st@@V12@@Z 0000000180003aa0 f   digest.obj
 0001:00002c80       ?append@?$basic_string@DU?$char_traits@D@std@@V?$allocator@D@2@@std@@QEAAAEAV12@_KD@Z 0000000180003c80 f i digest.obj
 0001:00002da0       ?RSA_generate@@YA?AV?$shared_ptr@V?$ScopedSSL@Uevp_pkey_st@@$1?ScopedEVP_PKEY_free@@YAXPEAX@Z@@@std@@HH@Z 0000000180003da0 f   rsa_gen.obj
 0001:00002fd0       ??4?$ScopedSSL@Ubignum_st@@$1?ScopedBIGNUM_free@@YAXPEAX@Z@@QEAAAEAV0@PEAUbignum_st@@@Z 0000000180003fd0 f i rsa_gen.obj
 0001:00003010       ?From@JwkRsa@@SA?AV?$shared_ptr@VJwkRsa@@@std@@V?$shared_ptr@V?$ScopedSSL@Uevp_pkey_st@@$1?ScopedEVP_PKEY_free@@YAXPEAX@Z@@@3@AEAH@Z 0000000180004010 f   rsa_jwk.obj
 0001:00003300       ?To@JwkRsa@@QEAA?AV?$shared_ptr@V?$ScopedSSL@Uevp_pkey_st@@$1?ScopedEVP_PKEY_free@@YAXPEAX@Z@@@std@@AEAH@Z 0000000180004300 f   rsa_jwk.obj
 0001:000034b0       ??$?0VJwkRsa@@@?$shared_ptr@VJwkRsa@@@std@@QEAA@PEAVJwkRsa@@@Z 00000001800044b0 f i rsa_jwk.obj
 0001:00003510       ??1JwkRsa@@QEAA@XZ         0000000180004510 f i rsa_jwk.obj
 0001:000035a0       ?_Destroy@?$_Ref_count@VJwkRsa@@@std@@EEAAXXZ 00000001800045a0 f i rsa_jwk.obj
 0001:000035d0       ?RSA_PKCS1_sign@@YA?AV?$shared_ptr@V?$basic_string@DU?$char_traits@D@std@@V?$allocator@D@2@@std@@@std@@V?$shared_ptr@V?$ScopedSSL@Uevp_pkey_st@@$1?ScopedEVP_PKEY_free@@YAXPEAX@Z@@@2@PEBUenv_md_st@@V12@@Z 00000001800045d0 f   rsa_pkcs1.obj
 0001:00003830       ?RSA_PKCS1_verify@@YA_NV?$shared_ptr@V?$ScopedSSL@Uevp_pkey_st@@$1?ScopedEVP_PKEY_free@@YAXPEAX@Z@@@std@@PEBUenv_md_st@@V?$shared_ptr@V?$basic_string@DU?$char_traits@D@std@@V?$allocator@D@2@@std@@@2@2@Z 0000000180004830 f   rsa_pkcs1.obj
 0001:000039d0       ?RSA_OAEP_enc_dec@@YA?AV?$shared_ptr@V?$basic_string@DU?$char_traits@D@std@@V?$allocator@D@2@@std@@@std@@V?$shared_ptr@V?$ScopedSSL@Uevp_pkey_st@@$1?ScopedEVP_PKEY_free@@YAXPEAX@Z@@@2@PEBUenv_md_st@@V12@2_N@Z 00000001800049d0 f   rsa_oaep.obj
 0001:00003f70       ?RSA_PSS_sign@@YA?AV?$shared_ptr@V?$basic_string@DU?$char_traits@D@std@@V?$allocator@D@2@@std@@@std@@V?$shared_ptr@V?$ScopedSSL@Uevp_pkey_st@@$1?ScopedEVP_PKEY_free@@YAXPEAX@Z@@@2@PEBUenv_md_st@@HV12@@Z 0000000180004f70 f   rsa_pss.obj
 0001:000041f0       ?RSA_PSS_verify@@YA_NV?$shared_ptr@V?$ScopedSSL@Uevp_pkey_st@@$1?ScopedEVP_PKEY_free@@YAXPEAX@Z@@@std@@PEBUenv_md_st@@HV?$shared_ptr@V?$basic_string@DU?$char_traits@D@std@@V?$allocator@D@2@@std@@@2@2@Z 00000001800051f0 f   rsa_pss.obj
 0001:000043b0       ?EC_generate@@YA?AV?$shared_ptr@V?$ScopedSSL@Uevp_pkey_st@@$1?ScopedEVP_PKEY_free@@YAXPEAX@Z@@@std@@AEAH@Z 00000001800053b0 f   ec_gen.obj
 0001:000045c0       ??4?$shared_ptr@VScopedAES@@@std@@QEAAAEAV01@$$QEAV01@@Z 00000001800055c0 f i async_aes.obj
 0001:000045c0       ??4?$shared_ptr@VJwkRsa@@@std@@QEAAAEAV01@$$QEAV01@@Z 00000001800055c0 f i async_rsa.obj
 0001:000045c0       ??4?$shared_ptr@VScopedPbkdf2@@@std@@QEAAAEAV01@$$QEAV01@@Z 00000001800055c0 f i async_pbkdf2.obj
 0001:000045c0       ??4?$shared_ptr@VScopedHMAC@@@std@@QEAAAEAV01@$$QEAV01@@Z 00000001800055c0 f i async_hmac.obj
 0001:000045c0       ??4?$shared_ptr@V?$basic_string@DU?$char_traits@D@std@@V?$allocator@D@2@@std@@@std@@QEAAAEAV01@$$QEAV01@@Z 00000001800055c0 f i w_key.obj
 0001:000045c0       ??4?$shared_ptr@V?$ScopedSSL@Uevp_pkey_st@@$1?ScopedEVP_PKEY_free@@YAXPEAX@Z@@@std@@QEAAAEAV01@$$QEAV01@@Z 00000001800055c0 f i ec_gen.obj
 0001:000045c0       ??4?$shared_ptr@VJwkEc@@@std@@QEAAAEAV01@$$QEAV01@@Z 00000001800055c0 f i async_ec.obj
 0001:00004bd0       ?EC_DSA_sign@@YA?AV?$shared_ptr@V?$basic_string@DU?$char_traits@D@std@@V?$allocator@D@2@@std@@@std@@V?$shared_ptr@V?$ScopedSSL@Uevp_pkey_st@@$1?ScopedEVP_PKEY_free@@YAXPEAX@Z@@@2@PEBUenv_md_st@@V12@@Z 0000000180005bd0 f   ec_dsa.obj
 0001:00004ef0       ?EC_DSA_verify@@YA_NV?$shared_ptr@V?$ScopedSSL@Uevp_pkey_st@@$1?ScopedEVP_PKEY_free@@YAXPEAX@Z@@@std@@PEBUenv_md_st@@V?$shared_ptr@V?$basic_string@DU?$char_traits@D@std@@V?$allocator@D@2@@std@@@2@2@Z 0000000180005ef0 f   ec_dsa.obj
 0001:000051f0       ?ECDH_derive_key@@YA?AV?$shared_ptr@V?$basic_string@DU?$char_traits@D@std@@V?$allocator@D@2@@std@@@std@@V?$shared_ptr@V?$ScopedSSL@Uevp_pkey_st@@$1?ScopedEVP_PKEY_free@@YAXPEAX@Z@@@2@0AEA_K@Z 00000001800061f0 f   ec_dh.obj
 0001:000054d0       ?TruncateToBitLength@@YAX_KPEAV?$basic_string@DU?$char_traits@D@std@@V?$allocator@D@2@@std@@@Z 00000001800064d0 f   ec_dh.obj
 0001:00005570       ?EC_get_named_curve@@YAHPEAUec_key_st@@@Z 0000000180006570 f   ec_dh.obj
 0001:00005600       ?ECDH_derive_bits@@YA?AV?$shared_ptr@V?$basic_string@DU?$char_traits@D@std@@V?$allocator@D@2@@std@@@std@@V?$shared_ptr@V?$ScopedSSL@Uevp_pkey_st@@$1?ScopedEVP_PKEY_free@@YAXPEAX@Z@@@2@0_NI@Z 0000000180006600 f   ec_dh.obj
 0001:00005970       ?From@JwkEc@@SA?AV?$shared_ptr@VJwkEc@@@std@@V?$shared_ptr@V?$ScopedSSL@Uevp_pkey_st@@$1?ScopedEVP_PKEY_free@@YAXPEAX@Z@@@3@AEAH@Z 0000000180006970 f   ec_jwk.obj
 0001:00005ca0       ?To@JwkEc@@QEAA?AV?$shared_ptr@V?$ScopedSSL@Uevp_pkey_st@@$1?ScopedEVP_PKEY_free@@YAXPEAX@Z@@@std@@AEAH@Z 0000000180006ca0 f   ec_jwk.obj
 0001:00005f00       ??$?0VJwkEc@@@?$shared_ptr@VJwkEc@@@std@@QEAA@PEAVJwkEc@@@Z 0000000180006f00 f i ec_jwk.obj
 0001:00005f60       ?_Destroy@?$_Ref_count@VJwkEc@@@std@@EEAAXXZ 0000000180006f60 f i ec_jwk.obj
 0001:00005fc0       ?generate@ScopedAES@@SA?AV?$shared_ptr@VScopedAES@@@std@@AEAH@Z 0000000180006fc0 f   aes_gen.obj
 0001:00006180       ??4?$shared_ptr@VScopedPbkdf2@@@std@@QEAAAEAV01@AEBV01@@Z 0000000180007180 f i async_pbkdf2.obj
 0001:00006180       ??4?$shared_ptr@VScopedHMAC@@@std@@QEAAAEAV01@AEBV01@@Z 0000000180007180 f i async_hmac.obj
 0001:00006180       ??4?$shared_ptr@V?$ScopedSSL@Uevp_pkey_st@@$1?ScopedEVP_PKEY_free@@YAXPEAX@Z@@@std@@QEAAAEAV01@AEBV01@@Z 0000000180007180 f i w_key.obj
 0001:00006180       ??4?$shared_ptr@VScopedAES@@@std@@QEAAAEAV01@AEBV01@@Z 0000000180007180 f i async_aes.obj
 0001:00006180       ??4?$shared_ptr@V?$basic_string@DU?$char_traits@D@std@@V?$allocator@D@2@@std@@@std@@QEAAAEAV01@AEBV01@@Z 0000000180007180 f i aes_gen.obj
 0001:00006210       ??_GScopedHMAC@@QEAAPEAXI@Z 0000000180007210 f i hmac_gen.obj
 0001:00006210       ??_GScopedPbkdf2@@QEAAPEAXI@Z 0000000180007210 f i async_pbkdf2.obj
 0001:00006210       ??_GScopedAES@@QEAAPEAXI@Z 0000000180007210 f i aes_gen.obj
 0001:00006290       ?_Destroy@?$_Ref_count@VScopedHMAC@@@std@@EEAAXXZ 0000000180007290 f i hmac_gen.obj
 0001:00006290       ?_Destroy@?$_Ref_count@VScopedAES@@@std@@EEAAXXZ 0000000180007290 f i aes_gen.obj
 0001:00006290       ?_Destroy@?$_Ref_count@VScopedPbkdf2@@@std@@EEAAXXZ 0000000180007290 f i async_pbkdf2.obj
 0001:00006650       ?encryptEcb@ScopedAES@@QEAA?AV?$shared_ptr@V?$basic_string@DU?$char_traits@D@std@@V?$allocator@D@2@@std@@@std@@V23@@Z 0000000180007650 f   aes_ecb.obj
 0001:00006730       ?decryptEcb@ScopedAES@@QEAA?AV?$shared_ptr@V?$basic_string@DU?$char_traits@D@std@@V?$allocator@D@2@@std@@@std@@V23@@Z 0000000180007730 f   aes_ecb.obj
 0001:00006c30       ?encryptCbc@ScopedAES@@QEAA?AV?$shared_ptr@V?$basic_string@DU?$char_traits@D@std@@V?$allocator@D@2@@std@@@std@@V23@0@Z 0000000180007c30 f   aes_cbc.obj
 0001:00006d70       ?decryptCbc@ScopedAES@@QEAA?AV?$shared_ptr@V?$basic_string@DU?$char_traits@D@std@@V?$allocator@D@2@@std@@@std@@V23@0@Z 0000000180007d70 f   aes_cbc.obj
 0001:00006eb0       ?wrap@ScopedAES@@QEAA?AV?$shared_ptr@V?$basic_string@DU?$char_traits@D@std@@V?$allocator@D@2@@std@@@std@@V23@@Z 0000000180007eb0 f   aes_cbc.obj
 0001:00007100       ?unwrap@ScopedAES@@QEAA?AV?$shared_ptr@V?$basic_string@DU?$char_traits@D@std@@V?$allocator@D@2@@std@@@std@@V23@@Z 0000000180008100 f   aes_cbc.obj
 0001:00007df0       ?encryptGcm@ScopedAES@@QEAA?AV?$shared_ptr@V?$basic_string@DU?$char_traits@D@std@@V?$allocator@D@2@@std@@@std@@V23@00H@Z 0000000180008df0 f   aes_gcm.obj
 0001:00007f90       ?decryptGcm@ScopedAES@@QEAA?AV?$shared_ptr@V?$basic_string@DU?$char_traits@D@std@@V?$allocator@D@2@@std@@@std@@V23@00H@Z 0000000180008f90 f   aes_gcm.obj
 0001:00008130       ?substr@?$basic_string@DU?$char_traits@D@std@@V?$allocator@D@2@@std@@QEBA?AV12@_K0@Z 0000000180009130 f i aes_gcm.obj
 0001:00008170       ?AES_CTR_encrypt@@YA?AV?$shared_ptr@V?$basic_string@DU?$char_traits@D@std@@V?$allocator@D@2@@std@@@std@@V12@00H_N@Z 0000000180009170 f   aes_ctr.obj
 0001:00008400       ?encryptCtr@ScopedAES@@QEAA?AV?$shared_ptr@V?$basic_string@DU?$char_traits@D@std@@V?$allocator@D@2@@std@@@std@@V23@0H@Z 0000000180009400 f   aes_ctr.obj
 0001:00008400       ?decryptCtr@ScopedAES@@QEAA?AV?$shared_ptr@V?$basic_string@DU?$char_traits@D@std@@V?$allocator@D@2@@std@@@std@@V23@0H@Z 0000000180009400 f   aes_ctr.obj
 0001:00008540       ?generate@ScopedHMAC@@SA?AV?$shared_ptr@VScopedHMAC@@@std@@AEAH@Z 0000000180009540 f   hmac_gen.obj
 0001:00008750       ?sign@ScopedHMAC@@QEAA?AV?$shared_ptr@V?$basic_string@DU?$char_traits@D@std@@V?$allocator@D@2@@std@@@std@@V23@PEBUenv_md_st@@@Z 0000000180009750 f   hmac_sign.obj
 0001:00008960       ?verify@ScopedHMAC@@QEAA_NV?$shared_ptr@V?$basic_string@DU?$char_traits@D@std@@V?$allocator@D@2@@std@@@std@@PEBUenv_md_st@@0@Z 0000000180009960 f   hmac_sign.obj
 0001:00008ae0       ?deriveBits@ScopedPbkdf2@@QEAA?AV?$shared_ptr@V?$basic_string@DU?$char_traits@D@std@@V?$allocator@D@2@@std@@@std@@V23@_KPEBUenv_md_st@@1@Z 0000000180009ae0 f   pbkdf2_derive.obj
 0001:00008d10       ?v8Buffer_to_String@@YA?AV?$shared_ptr@V?$basic_string@DU?$char_traits@D@std@@V?$allocator@D@2@@std@@@std@@V?$Local@VValue@v8@@@v8@@@Z 0000000180009d10 f   common.obj
 0001:00008d50       ?v8Buffer_to_String@@YA?AV?$shared_ptr@V?$basic_string@DU?$char_traits@D@std@@V?$allocator@D@2@@std@@@std@@V?$Local@VObject@v8@@@v8@@@Z 0000000180009d50 f   common.obj
 0001:00008e20       ?String_to_v8Buffer@@YA?AV?$Local@VObject@v8@@@v8@@V?$shared_ptr@V?$basic_string@DU?$char_traits@D@std@@V?$allocator@D@2@@std@@@std@@@Z 0000000180009e20 f   common.obj
 0001:00008f10       ?bn2buf@@YA?AV?$Local@VObject@v8@@@v8@@PEAUbignum_st@@@Z 0000000180009f10 f   common.obj
 0001:00009020       ??1ObjectWrap@node@@UEAA@XZ 000000018000a020 f i w_key.obj
 0001:000090a0       ?Wrap@ObjectWrap@node@@IEAAXV?$Local@VObject@v8@@@v8@@@Z 000000018000a0a0 f i w_key.obj
 0001:00009180       ?Ref@ObjectWrap@node@@MEAAXXZ 000000018000a180 f i w_key.obj
 0001:000091c0       ?Unref@ObjectWrap@node@@MEAAXXZ 000000018000a1c0 f i w_key.obj
 0001:00009270       ?WeakCallback@ObjectWrap@node@@CAXAEBV?$WeakCallbackInfo@VObjectWrap@node@@@v8@@@Z 000000018000a270 f i w_key.obj
 0001:000092d0       ??_GObjectWrap@node@@UEAAPEAXI@Z 000000018000a2d0 f i w_key.obj
 0001:000092d0       ??_EWCore@@UEAAPEAXI@Z     000000018000a2d0 f i * CIL library *:* CIL module *
 0001:000092d0       ??_EObjectWrap@node@@UEAAPEAXI@Z 000000018000a2d0 f i * CIL library *:* CIL module *
 0001:000092d0       ??_GWCore@@UEAAPEAXI@Z     000000018000a2d0 f i w_core.obj
 0001:000094b0       ?NewInstance@Nan@@YA?AV?$MaybeLocal@VObject@v8@@@v8@@V?$Local@VFunction@v8@@@3@@Z 000000018000a4b0 f i w_key.obj
 0001:00009550       ?NewInstance@Nan@@YA?AV?$MaybeLocal@VObject@v8@@@v8@@V?$Local@VFunction@v8@@@3@HQEAV?$Local@VValue@v8@@@3@@Z 000000018000a550 f i w_key.obj
 0001:000095f0       ?NewInstance@Nan@@YA?AV?$MaybeLocal@VObject@v8@@@v8@@V?$Local@VObjectTemplate@v8@@@3@@Z 000000018000a5f0 f i w_key.obj
 0001:00009670       ?GetFunction@Nan@@YA?AV?$MaybeLocal@VFunction@v8@@@v8@@V?$Local@VFunctionTemplate@v8@@@3@@Z 000000018000a670 f i w_key.obj
 0001:000096f0       ?Set@Nan@@YA?AV?$Maybe@_N@v8@@V?$Local@VObject@v8@@@3@V?$Local@VValue@v8@@@3@1@Z 000000018000a6f0 f i w_key.obj
 0001:00009780       ?Get@Nan@@YA?AV?$MaybeLocal@VValue@v8@@@v8@@V?$Local@VObject@v8@@@3@V?$Local@VValue@v8@@@3@@Z 000000018000a780 f i w_key.obj
 0001:00009810       ?CallAsFunction@Nan@@YA?AV?$MaybeLocal@VValue@v8@@@v8@@V?$Local@VObject@v8@@@3@0HQEAV?$Local@VValue@v8@@@3@@Z 000000018000a810 f i w_key.obj
 0001:000098d0       ?convert@?$ToFactory@VObject@v8@@@imp@Nan@@SA?AV?$MaybeLocal@VObject@v8@@@v8@@V?$Local@VValue@v8@@@5@@Z 000000018000a8d0 f i w_key.obj
 0001:00009950       ?convert@?$ToFactory@H@imp@Nan@@SA?AV?$Maybe@H@v8@@V?$Local@VValue@v8@@@5@@Z 000000018000a950 f i w_key.obj
 0001:000099d0       ?New@?$Factory@VFunctionTemplate@v8@@@imp@Nan@@SA?AV?$Local@VFunctionTemplate@v8@@@v8@@P6AXAEBV?$FunctionCallbackInfo@VValue@v8@@@3@@ZV?$Local@VValue@v8@@@5@V?$Local@VSignature@v8@@@5@@Z 000000018000a9d0 f i w_key.obj
 0001:00009b50       ?ThrowError@Nan@@YAXPEBD@Z 000000018000ab50 f i w_key.obj
 0001:00009bf0       ?ThrowError@Nan@@YAXV?$Local@VString@v8@@@v8@@@Z 000000018000abf0 f i w_key.obj
 0001:00009c60       ?Call@Callback@Nan@@QEBA?AV?$MaybeLocal@VValue@v8@@@v8@@HQEAV?$Local@VValue@v8@@@4@PEAVAsyncResource@2@@Z 000000018000ac60 f i w_key.obj
 0001:00009d20       ?Call_@Callback@Nan@@AEBA?AV?$Local@VValue@v8@@@v8@@PEAVIsolate@4@V?$Local@VObject@v8@@@4@HQEAV34@@Z 000000018000ad20 f i w_key.obj
 0001:00009de0       ??0AsyncWorker@Nan@@QEAA@PEAVCallback@1@PEBD@Z 000000018000ade0 f i w_key.obj
 0001:00009ed0       ??1AsyncWorker@Nan@@UEAA@XZ 000000018000aed0 f i w_key.obj
 0001:00009fa0       ?WorkComplete@AsyncWorker@Nan@@UEAAXXZ 000000018000afa0 f i w_key.obj
 0001:0000a040       ?Destroy@AsyncWorker@Nan@@UEAAXXZ 000000018000b040 f i w_key.obj
 0001:0000a060       ?HandleOKCallback@AsyncWorker@Nan@@MEAAXXZ 000000018000b060 f i w_key.obj
 0001:0000a0b0       ?HandleErrorCallback@AsyncWorker@Nan@@MEAAXXZ 000000018000b0b0 f i w_key.obj
 0001:0000a160       ??_EAsyncWorker@Nan@@UEAAPEAXI@Z 000000018000b160 f i * CIL library *:* CIL module *
 0001:0000a160       ??_GAsyncWorker@Nan@@UEAAPEAXI@Z 000000018000b160 f i w_key.obj
 0001:0000a1a0       ??1?$Persistent@VObject@v8@@V?$NonCopyablePersistentTraits@VObject@v8@@@2@@Nan@@QEAA@XZ 000000018000b1a0 f i w_key.obj
 0001:0000a1c0       ?AsyncExecute@Nan@@YAXPEAUuv_work_s@@@Z 000000018000b1c0 f i w_key.obj
 0001:0000a1d0       ?AsyncExecuteComplete@Nan@@YAXPEAUuv_work_s@@@Z 000000018000b1d0 f i w_key.obj
 0001:0000a210       ?SetPrototypeMethod@Nan@@YAXV?$Local@VFunctionTemplate@v8@@@v8@@PEBDP6AXAEBV?$FunctionCallbackInfo@VValue@v8@@@1@@Z@Z 000000018000b210 f i w_key.obj
 0001:0000a320       ?SetAccessor@Nan@@YAXV?$Local@VObjectTemplate@v8@@@v8@@V?$Local@VString@v8@@@3@P6AX1AEBV?$PropertyCallbackInfo@VValue@v8@@@1@@ZP6AX1V?$Local@VValue@v8@@@3@AEBV?$PropertyCallbackInfo@X@1@@Z4W4AccessControl@3@W4PropertyAttribute@3@V?$Local@VAccessorSignature@v8@@@3@@Z 000000018000b320 f i w_key.obj
 0001:0000a450       ?NewInstance@WKey@@SA?AV?$Local@VObject@v8@@@v8@@XZ 000000018000b450 f i w_key.obj
 0001:0000a510       ?constructor@WKey@@KAAEAV?$Persistent@VFunction@v8@@V?$NonCopyablePersistentTraits@VFunction@v8@@@2@@Nan@@XZ 000000018000b510 f i w_key.obj
 0001:0000a580       ??1AsyncRsaGenerateKey@@UEAA@XZ 000000018000b580 f i w_key.obj
 0001:0000a600       ??_GAsyncRsaGenerateKey@@UEAAPEAXI@Z 000000018000b600 f i w_key.obj
 0001:0000a600       ??_EAsyncRsaGenerateKey@@UEAAPEAXI@Z 000000018000b600 f i * CIL library *:* CIL module *
 0001:0000a640       ??0AsyncEncrypDecryptRsaOAEP@@QEAA@PEAVCallback@Nan@@V?$shared_ptr@V?$ScopedSSL@Uevp_pkey_st@@$1?ScopedEVP_PKEY_free@@YAXPEAX@Z@@@std@@PEBUenv_md_st@@V?$shared_ptr@V?$basic_string@DU?$char_traits@D@std@@V?$allocator@D@2@@std@@@4@3_N@Z 000000018000b640 f i w_key.obj
 0001:0000a7d0       ??_EAsyncEncrypDecryptRsaOAEP@@UEAAPEAXI@Z 000000018000b7d0 f i * CIL library *:* CIL module *
 0001:0000a7d0       ??_GAsyncEncrypDecryptRsaOAEP@@UEAAPEAXI@Z 000000018000b7d0 f i w_key.obj
 0001:0000a810       ??1AsyncEncrypDecryptRsaOAEP@@UEAA@XZ 000000018000b810 f i w_key.obj
 0001:0000a920       ??0AsyncExportJwkRsa@@QEAA@PEAVCallback@Nan@@HV?$shared_ptr@V?$ScopedSSL@Uevp_pkey_st@@$1?ScopedEVP_PKEY_free@@YAXPEAX@Z@@@std@@@Z 000000018000b920 f i w_key.obj
 0001:0000a9e0       ??1AsyncExportJwkRsa@@UEAA@XZ 000000018000b9e0 f i w_key.obj
 0001:0000aa90       ??_GAsyncExportJwkRsa@@UEAAPEAXI@Z 000000018000ba90 f i w_key.obj
 0001:0000aa90       ??_EAsyncExportJwkRsa@@UEAAPEAXI@Z 000000018000ba90 f i * CIL library *:* CIL module *
 0001:0000aad0       ??0AsyncExportSpki@@QEAA@PEAVCallback@Nan@@V?$shared_ptr@V?$ScopedSSL@Uevp_pkey_st@@$1?ScopedEVP_PKEY_free@@YAXPEAX@Z@@@std@@@Z 000000018000bad0 f i w_key.obj
 0001:0000ab80       ??1AsyncExportSpki@@UEAA@XZ 000000018000bb80 f i w_key.obj
 0001:0000ac30       ??_GAsyncExportSpki@@UEAAPEAXI@Z 000000018000bc30 f i w_key.obj
 0001:0000ac30       ??_EAsyncExportSpki@@UEAAPEAXI@Z 000000018000bc30 f i * CIL library *:* CIL module *
 0001:0000ac70       ??0AsyncExportPkcs8@@QEAA@PEAVCallback@Nan@@V?$shared_ptr@V?$ScopedSSL@Uevp_pkey_st@@$1?ScopedEVP_PKEY_free@@YAXPEAX@Z@@@std@@@Z 000000018000bc70 f i w_key.obj
 0001:0000ad20       ??1AsyncExportPkcs8@@UEAA@XZ 000000018000bd20 f i w_key.obj
 0001:0000add0       ??_GAsyncExportPkcs8@@UEAAPEAXI@Z 000000018000bdd0 f i w_key.obj
 0001:0000add0       ??_EAsyncExportPkcs8@@UEAAPEAXI@Z 000000018000bdd0 f i * CIL library *:* CIL module *
 0001:0000ae10       ??0AsyncImportPkcs8@@QEAA@PEAVCallback@Nan@@V?$shared_ptr@V?$basic_string@DU?$char_traits@D@std@@V?$allocator@D@2@@std@@@std@@@Z 000000018000be10 f i w_key.obj
 0001:0000aec0       ??1AsyncImportPkcs8@@UEAA@XZ 000000018000bec0 f i w_key.obj
 0001:0000af70       ??_GAsyncImportPkcs8@@UEAAPEAXI@Z 000000018000bf70 f i w_key.obj
 0001:0000af70       ??_EAsyncImportPkcs8@@UEAAPEAXI@Z 000000018000bf70 f i * CIL library *:* CIL module *
 0001:0000afb0       ??0AsyncImportSpki@@QEAA@PEAVCallback@Nan@@V?$shared_ptr@V?$basic_string@DU?$char_traits@D@std@@V?$allocator@D@2@@std@@@std@@@Z 000000018000bfb0 f i w_key.obj
 0001:0000b060       ??1AsyncImportSpki@@UEAA@XZ 000000018000c060 f i w_key.obj
 0001:0000b110       ??_GAsyncImportSpki@@UEAAPEAXI@Z 000000018000c110 f i w_key.obj
 0001:0000b110       ??_EAsyncImportSpki@@UEAAPEAXI@Z 000000018000c110 f i * CIL library *:* CIL module *
 0001:0000b150       ??0AsyncImportJwkRsa@@QEAA@PEAVCallback@Nan@@V?$shared_ptr@VJwkRsa@@@std@@H@Z 000000018000c150 f i w_key.obj
 0001:0000b210       ??1AsyncImportJwkRsa@@UEAA@XZ 000000018000c210 f i w_key.obj
 0001:0000b2c0       ??_EAsyncImportJwkRsa@@UEAAPEAXI@Z 000000018000c2c0 f i * CIL library *:* CIL module *
 0001:0000b2c0       ??_GAsyncImportJwkRsa@@UEAAPEAXI@Z 000000018000c2c0 f i w_key.obj
 0001:0000b300       ??0AsyncSignRsa@@QEAA@PEAVCallback@Nan@@PEBUenv_md_st@@V?$shared_ptr@V?$ScopedSSL@Uevp_pkey_st@@$1?ScopedEVP_PKEY_free@@YAXPEAX@Z@@@std@@V?$shared_ptr@V?$basic_string@DU?$char_traits@D@std@@V?$allocator@D@2@@std@@@5@@Z 000000018000c300 f i w_key.obj
 0001:0000b420       ??1AsyncSignRsa@@UEAA@XZ   000000018000c420 f i w_key.obj
 0001:0000b510       ??_GAsyncSignRsa@@UEAAPEAXI@Z 000000018000c510 f i w_key.obj
 0001:0000b510       ??_EAsyncSignRsa@@UEAAPEAXI@Z 000000018000c510 f i * CIL library *:* CIL module *
 0001:0000b550       ??0AsyncVerifyRsa@@QEAA@PEAVCallback@Nan@@PEBUenv_md_st@@V?$shared_ptr@V?$ScopedSSL@Uevp_pkey_st@@$1?ScopedEVP_PKEY_free@@YAXPEAX@Z@@@std@@V?$shared_ptr@V?$basic_string@DU?$char_traits@D@std@@V?$allocator@D@2@@std@@@5@3@Z 000000018000c550 f i w_key.obj
 0001:0000b6c0       ??1AsyncVerifyRsa@@UEAA@XZ 000000018000c6c0 f i w_key.obj
 0001:0000b7b0       ??_GAsyncVerifyRsa@@UEAAPEAXI@Z 000000018000c7b0 f i w_key.obj
 0001:0000b7b0       ??_EAsyncVerifyRsa@@UEAAPEAXI@Z 000000018000c7b0 f i * CIL library *:* CIL module *
 0001:0000b7f0       ??0AsyncSignRsaPSS@@QEAA@PEAVCallback@Nan@@PEBUenv_md_st@@V?$shared_ptr@V?$ScopedSSL@Uevp_pkey_st@@$1?ScopedEVP_PKEY_free@@YAXPEAX@Z@@@std@@HV?$shared_ptr@V?$basic_string@DU?$char_traits@D@std@@V?$allocator@D@2@@std@@@5@@Z 000000018000c7f0 f i w_key.obj
 0001:0000b920       ??1AsyncSignRsaPSS@@UEAA@XZ 000000018000c920 f i w_key.obj
 0001:0000ba10       ??_EAsyncSignRsaPSS@@UEAAPEAXI@Z 000000018000ca10 f i * CIL library *:* CIL module *
 0001:0000ba10       ??_GAsyncSignRsaPSS@@UEAAPEAXI@Z 000000018000ca10 f i w_key.obj
 0001:0000ba50       ??0AsyncVerifyRsaPSS@@QEAA@PEAVCallback@Nan@@PEBUenv_md_st@@V?$shared_ptr@V?$ScopedSSL@Uevp_pkey_st@@$1?ScopedEVP_PKEY_free@@YAXPEAX@Z@@@std@@HV?$shared_ptr@V?$basic_string@DU?$char_traits@D@std@@V?$allocator@D@2@@std@@@5@3@Z 000000018000ca50 f i w_key.obj
 0001:0000bbd0       ??1AsyncVerifyRsaPSS@@UEAA@XZ 000000018000cbd0 f i w_key.obj
 0001:0000bcc0       ??_GAsyncVerifyRsaPSS@@UEAAPEAXI@Z 000000018000ccc0 f i w_key.obj
 0001:0000bcc0       ??_EAsyncVerifyRsaPSS@@UEAAPEAXI@Z 000000018000ccc0 f i * CIL library *:* CIL module *
 0001:0000bd00       ??1AsyncEcGenerateKey@@UEAA@XZ 000000018000cd00 f i w_key.obj
 0001:0000bd80       ??_GAsyncEcGenerateKey@@UEAAPEAXI@Z 000000018000cd80 f i w_key.obj
 0001:0000bd80       ??_EAsyncEcGenerateKey@@UEAAPEAXI@Z 000000018000cd80 f i * CIL library *:* CIL module *
 0001:0000bdc0       ??0AsyncEcdhDeriveKey@@QEAA@PEAVCallback@Nan@@V?$shared_ptr@V?$ScopedSSL@Uevp_pkey_st@@$1?ScopedEVP_PKEY_free@@YAXPEAX@Z@@@std@@1_K@Z 000000018000cdc0 f i w_key.obj
 0001:0000bee0       ??1AsyncEcdhDeriveKey@@UEAA@XZ 000000018000cee0 f i w_key.obj
 0001:0000bfd0       ??_GAsyncEcdhDeriveKey@@UEAAPEAXI@Z 000000018000cfd0 f i w_key.obj
 0001:0000bfd0       ??_EAsyncEcdhDeriveKey@@UEAAPEAXI@Z 000000018000cfd0 f i * CIL library *:* CIL module *
 0001:0000c010       ??0AsyncEcExportJwk@@QEAA@PEAVCallback@Nan@@HV?$shared_ptr@V?$ScopedSSL@Uevp_pkey_st@@$1?ScopedEVP_PKEY_free@@YAXPEAX@Z@@@std@@@Z 000000018000d010 f i w_key.obj
 0001:0000c0d0       ??1AsyncEcExportJwk@@UEAA@XZ 000000018000d0d0 f i w_key.obj
 0001:0000c180       ??_EAsyncEcExportJwk@@UEAAPEAXI@Z 000000018000d180 f i * CIL library *:* CIL module *
 0001:0000c180       ??_GAsyncEcExportJwk@@UEAAPEAXI@Z 000000018000d180 f i w_key.obj
 0001:0000c1c0       ??0AsyncEcImportJwk@@QEAA@PEAVCallback@Nan@@V?$shared_ptr@VJwkEc@@@std@@H@Z 000000018000d1c0 f i w_key.obj
 0001:0000c280       ??1AsyncEcImportJwk@@UEAA@XZ 000000018000d280 f i w_key.obj
 0001:0000c330       ??_GAsyncEcImportJwk@@UEAAPEAXI@Z 000000018000d330 f i w_key.obj
 0001:0000c330       ??_EAsyncEcImportJwk@@UEAAPEAXI@Z 000000018000d330 f i * CIL library *:* CIL module *
 0001:0000c370       ??0AsyncEcdsaSign@@QEAA@PEAVCallback@Nan@@PEBUenv_md_st@@V?$shared_ptr@V?$ScopedSSL@Uevp_pkey_st@@$1?ScopedEVP_PKEY_free@@YAXPEAX@Z@@@std@@V?$shared_ptr@V?$basic_string@DU?$char_traits@D@std@@V?$allocator@D@2@@std@@@5@@Z 000000018000d370 f i w_key.obj
 0001:0000c490       ??1AsyncEcdsaSign@@UEAA@XZ 000000018000d490 f i w_key.obj
 0001:0000c580       ??_EAsyncEcdsaSign@@UEAAPEAXI@Z 000000018000d580 f i * CIL library *:* CIL module *
 0001:0000c580       ??_GAsyncEcdsaSign@@UEAAPEAXI@Z 000000018000d580 f i w_key.obj
 0001:0000c5c0       ??0AsyncEcdsaVerify@@QEAA@PEAVCallback@Nan@@PEBUenv_md_st@@V?$shared_ptr@V?$ScopedSSL@Uevp_pkey_st@@$1?ScopedEVP_PKEY_free@@YAXPEAX@Z@@@std@@V?$shared_ptr@V?$basic_string@DU?$char_traits@D@std@@V?$allocator@D@2@@std@@@5@3@Z 000000018000d5c0 f i w_key.obj
 0001:0000c730       ??1AsyncEcdsaVerify@@UEAA@XZ 000000018000d730 f i w_key.obj
 0001:0000c820       ??_GAsyncEcdsaVerify@@UEAAPEAXI@Z 000000018000d820 f i w_key.obj
 0001:0000c820       ??_EAsyncEcdsaVerify@@UEAAPEAXI@Z 000000018000d820 f i * CIL library *:* CIL module *
 0001:0000c860       ??0AsyncEcdhDeriveBits@@QEAA@PEAVCallback@Nan@@V?$shared_ptr@V?$ScopedSSL@Uevp_pkey_st@@$1?ScopedEVP_PKEY_free@@YAXPEAX@Z@@@std@@1_K@Z 000000018000d860 f i w_key.obj
 0001:0000c980       ??1AsyncEcdhDeriveBits@@UEAA@XZ 000000018000d980 f i w_key.obj
 0001:0000ca70       ??_GAsyncEcdhDeriveBits@@UEAAPEAXI@Z 000000018000da70 f i w_key.obj
 0001:0000ca70       ??_EAsyncEcdhDeriveBits@@UEAAPEAXI@Z 000000018000da70 f i * CIL library *:* CIL module *
 0001:0000cab0       ?Init@WKey@@SAXV?$Local@VObject@v8@@@v8@@@Z 000000018000dab0 f   w_key.obj
 0001:0000d0d0       ?New@WKey@@SAXAEBV?$FunctionCallbackInfo@VValue@v8@@@Nan@@@Z 000000018000e0d0 f   w_key.obj
 0001:0000d200       ??_EWKey@@UEAAPEAXI@Z      000000018000e200 f i * CIL library *:* CIL module *
 0001:0000d200       ??_EWAes@@UEAAPEAXI@Z      000000018000e200 f i * CIL library *:* CIL module *
 0001:0000d200       ??_EWHmac@@UEAAPEAXI@Z     000000018000e200 f i * CIL library *:* CIL module *
 0001:0000d200       ??_GWAes@@UEAAPEAXI@Z      000000018000e200 f i w_aes.obj
 0001:0000d200       ??_GWPbkdf2@@UEAAPEAXI@Z   000000018000e200 f i w_pbkdf2.obj
 0001:0000d200       ??_EWPbkdf2@@UEAAPEAXI@Z   000000018000e200 f i * CIL library *:* CIL module *
 0001:0000d200       ??_GWKey@@UEAAPEAXI@Z      000000018000e200 f i w_key.obj
 0001:0000d200       ??_GWHmac@@UEAAPEAXI@Z     000000018000e200 f i w_hmac.obj
 0001:0000d290       ?Type@WKey@@SAXV?$Local@VString@v8@@@v8@@AEBV?$PropertyCallbackInfo@VValue@v8@@@Nan@@@Z 000000018000e290 f   w_key.obj
 0001:0000d310       ?ModulusLength@WKey@@SAXAEBV?$FunctionCallbackInfo@VValue@v8@@@Nan@@@Z 000000018000e310 f   w_key.obj
 0001:0000d3e0       ?PublicExponent@WKey@@SAXAEBV?$FunctionCallbackInfo@VValue@v8@@@Nan@@@Z 000000018000e3e0 f   w_key.obj
 0001:0000d480       ?GenerateRsa@WKey@@SAXAEBV?$FunctionCallbackInfo@VValue@v8@@@Nan@@@Z 000000018000e480 f   w_key.obj
 0001:0000d5c0       ?GenerateEc@WKey@@SAXAEBV?$FunctionCallbackInfo@VValue@v8@@@Nan@@@Z 000000018000e5c0 f   w_key.obj
 0001:0000d6d0       ?ExportJwk@WKey@@SAXAEBV?$FunctionCallbackInfo@VValue@v8@@@Nan@@@Z 000000018000e6d0 f   w_key.obj
 0001:0000e160       ?ExportSpki@WKey@@SAXAEBV?$FunctionCallbackInfo@VValue@v8@@@Nan@@@Z 000000018000f160 f   w_key.obj
 0001:0000e260       ?ExportPkcs8@WKey@@SAXAEBV?$FunctionCallbackInfo@VValue@v8@@@Nan@@@Z 000000018000f260 f   w_key.obj
 0001:0000e360       ?ImportPkcs8@WKey@@SAXAEBV?$FunctionCallbackInfo@VValue@v8@@@Nan@@@Z 000000018000f360 f   w_key.obj
 0001:0000e4b0       ?ImportSpki@WKey@@SAXAEBV?$FunctionCallbackInfo@VValue@v8@@@Nan@@@Z 000000018000f4b0 f   w_key.obj
 0001:0000e600       ?ImportJwk@WKey@@SAXAEBV?$FunctionCallbackInfo@VValue@v8@@@Nan@@@Z 000000018000f600 f   w_key.obj
 0001:0000fa30       ?Sign@WKey@@SAXAEBV?$FunctionCallbackInfo@VValue@v8@@@Nan@@@Z 0000000180010a30 f   w_key.obj
 0001:0000fdb0       ?Verify@WKey@@SAXAEBV?$FunctionCallbackInfo@VValue@v8@@@Nan@@@Z 0000000180010db0 f   w_key.obj
 0001:00010200       ?RsaOaepEncDec@WKey@@SAXAEBV?$FunctionCallbackInfo@VValue@v8@@@Nan@@@Z 0000000180011200 f   w_key.obj
 0001:00010620       ?RsaPssSign@WKey@@SAXAEBV?$FunctionCallbackInfo@VValue@v8@@@Nan@@@Z 0000000180011620 f   w_key.obj
 0001:000108a0       ?RsaPssVerify@WKey@@SAXAEBV?$FunctionCallbackInfo@VValue@v8@@@Nan@@@Z 00000001800118a0 f   w_key.obj
 0001:00010ba0       ?EcdhDeriveKey@WKey@@SAXAEBV?$FunctionCallbackInfo@VValue@v8@@@Nan@@@Z 0000000180011ba0 f   w_key.obj
 0001:00010dd0       ?EcdhDeriveBits@WKey@@SAXAEBV?$FunctionCallbackInfo@VValue@v8@@@Nan@@@Z 0000000180011dd0 f   w_key.obj
 0001:00011000       ??$Unwrap@VWKey@@@ObjectWrap@node@@SAPEAVWKey@@V?$Local@VObject@v8@@@v8@@@Z 0000000180012000 f i w_key.obj
 0001:00011000       ??$Unwrap@VWAes@@@ObjectWrap@node@@SAPEAVWAes@@V?$Local@VObject@v8@@@v8@@@Z 0000000180012000 f i w_aes.obj
 0001:00011000       ??$Unwrap@VWHmac@@@ObjectWrap@node@@SAPEAVWHmac@@V?$Local@VObject@v8@@@v8@@@Z 0000000180012000 f i w_hmac.obj
 0001:00011000       ??$Unwrap@VWPbkdf2@@@ObjectWrap@node@@SAPEAVWPbkdf2@@V?$Local@VObject@v8@@@v8@@@Z 0000000180012000 f i w_pbkdf2.obj
 0001:00011080       ??$SetMethodAux@V?$Local@VFunction@v8@@@v8@@@imp@Nan@@YAXV?$Local@VFunction@v8@@@v8@@V?$Local@VString@v8@@@3@V?$Local@VFunctionTemplate@v8@@@3@ZZ 0000000180012080 f i w_key.obj
 0001:000110d0       ?Call@Nan@@YA?AV?$MaybeLocal@VValue@v8@@@v8@@V?$Local@VFunction@v8@@@3@V?$Local@VObject@v8@@@3@HQEAV?$Local@VValue@v8@@@3@@Z 00000001800120d0 f i w_aes.obj
 0001:00011190       ??1AsyncAesGenerateKey@@UEAA@XZ 0000000180012190 f i w_aes.obj
 0001:00011210       ??_GAsyncAesGenerateKey@@UEAAPEAXI@Z 0000000180012210 f i w_aes.obj
 0001:00011210       ??_EAsyncAesGenerateKey@@UEAAPEAXI@Z 0000000180012210 f i * CIL library *:* CIL module *
 0001:00011250       ??0AsyncAesEncryptCBC@@QEAA@PEAVCallback@Nan@@V?$shared_ptr@VScopedAES@@@std@@V?$shared_ptr@V?$basic_string@DU?$char_traits@D@std@@V?$allocator@D@2@@std@@@4@2_N@Z 0000000180012250 f i w_aes.obj
 0001:000113d0       ??1AsyncAesEncryptCBC@@UEAA@XZ 00000001800123d0 f i w_aes.obj
 0001:000114f0       ??_GAsyncAesEncryptCBC@@UEAAPEAXI@Z 00000001800124f0 f i w_aes.obj
 0001:000114f0       ??_EAsyncAesEncryptCBC@@UEAAPEAXI@Z 00000001800124f0 f i * CIL library *:* CIL module *
 0001:00011530       ??0AsyncAesEncryptECB@@QEAA@PEAVCallback@Nan@@V?$shared_ptr@VScopedAES@@@std@@V?$shared_ptr@V?$basic_string@DU?$char_traits@D@std@@V?$allocator@D@2@@std@@@4@_N@Z 0000000180012530 f i w_aes.obj
 0001:00011650       ??1AsyncAesEncryptECB@@UEAA@XZ 0000000180012650 f i w_aes.obj
 0001:00011740       ??_GAsyncAesEncryptECB@@UEAAPEAXI@Z 0000000180012740 f i w_aes.obj
 0001:00011740       ??_EAsyncAesEncryptECB@@UEAAPEAXI@Z 0000000180012740 f i * CIL library *:* CIL module *
 0001:00011780       ??0AsyncAesExport@@QEAA@PEAVCallback@Nan@@V?$shared_ptr@VScopedAES@@@std@@@Z 0000000180012780 f i w_aes.obj
 0001:00011780       ??0AsyncHmacExport@@QEAA@PEAVCallback@Nan@@V?$shared_ptr@VScopedHMAC@@@std@@@Z 0000000180012780 f i w_hmac.obj
 0001:00011830       ??1AsyncAesExport@@UEAA@XZ 0000000180012830 f i w_aes.obj
 0001:00011830       ??1AsyncHmacExport@@UEAA@XZ 0000000180012830 f i w_hmac.obj
 0001:000118e0       ??_EAsyncHmacExport@@UEAAPEAXI@Z 00000001800128e0 f i * CIL library *:* CIL module *
 0001:000118e0       ??_GAsyncAesExport@@UEAAPEAXI@Z 00000001800128e0 f i w_aes.obj
 0001:000118e0       ??_EAsyncAesExport@@UEAAPEAXI@Z 00000001800128e0 f i * CIL library *:* CIL module *
 0001:000118e0       ??_GAsyncHmacExport@@UEAAPEAXI@Z 00000001800128e0 f i w_hmac.obj
 0001:00011920       ??0AsyncAesImport@@QEAA@PEAVCallback@Nan@@V?$shared_ptr@V?$basic_string@DU?$char_traits@D@std@@V?$allocator@D@2@@std@@@std@@@Z 0000000180012920 f i w_aes.obj
 0001:000119d0       ??1AsyncAesImport@@UEAA@XZ 00000001800129d0 f i w_aes.obj
 0001:00011a80       ??_GAsyncAesImport@@UEAAPEAXI@Z 0000000180012a80 f i w_aes.obj
 0001:00011a80       ??_EAsyncAesImport@@UEAAPEAXI@Z 0000000180012a80 f i * CIL library *:* CIL module *
 0001:00011ac0       ??0AsyncAesEncryptGCM@@QEAA@PEAVCallback@Nan@@V?$shared_ptr@VScopedAES@@@std@@V?$shared_ptr@V?$basic_string@DU?$char_traits@D@std@@V?$allocator@D@2@@std@@@4@22H_N@Z 0000000180012ac0 f i w_aes.obj
 0001:00011cb0       ??1AsyncAesEncryptGCM@@UEAA@XZ 0000000180012cb0 f i w_aes.obj
 0001:00011e10       ??_EAsyncAesEncryptGCM@@UEAAPEAXI@Z 0000000180012e10 f i * CIL library *:* CIL module *
 0001:00011e10       ??_GAsyncAesEncryptGCM@@UEAAPEAXI@Z 0000000180012e10 f i w_aes.obj
 0001:00011e50       ??0AsyncAesWrapKey@@QEAA@PEAVCallback@Nan@@V?$shared_ptr@VScopedAES@@@std@@V?$shared_ptr@V?$basic_string@DU?$char_traits@D@std@@V?$allocator@D@2@@std@@@4@_N@Z 0000000180012e50 f i w_aes.obj
 0001:00011f70       ??1AsyncAesWrapKey@@UEAA@XZ 0000000180012f70 f i w_aes.obj
 0001:00012060       ??_EAsyncAesWrapKey@@UEAAPEAXI@Z 0000000180013060 f i * CIL library *:* CIL module *
 0001:00012060       ??_GAsyncAesWrapKey@@UEAAPEAXI@Z 0000000180013060 f i w_aes.obj
 0001:000120a0       ??0AsyncAesEncryptCTR@@QEAA@PEAVCallback@Nan@@V?$shared_ptr@VScopedAES@@@std@@V?$shared_ptr@V?$basic_string@DU?$char_traits@D@std@@V?$allocator@D@2@@std@@@4@2H_N@Z 00000001800130a0 f i w_aes.obj
 0001:00012230       ??1AsyncAesEncryptCTR@@UEAA@XZ 0000000180013230 f i w_aes.obj
 0001:00012350       ??_GAsyncAesEncryptCTR@@UEAAPEAXI@Z 0000000180013350 f i w_aes.obj
 0001:00012350       ??_EAsyncAesEncryptCTR@@UEAAPEAXI@Z 0000000180013350 f i * CIL library *:* CIL module *
 0001:00012390       ?constructor@WAes@@KAAEAV?$Persistent@VFunction@v8@@V?$NonCopyablePersistentTraits@VFunction@v8@@@2@@Nan@@XZ 0000000180013390 f i w_aes.obj
 0001:00012400       ?Init@WAes@@SAXV?$Local@VObject@v8@@@v8@@@Z 0000000180013400 f   w_aes.obj
 0001:000127e0       ?New@WAes@@SAXAEBV?$FunctionCallbackInfo@VValue@v8@@@Nan@@@Z 00000001800137e0 f   w_aes.obj
 0001:00012910       ?Generate@WAes@@SAXAEBV?$FunctionCallbackInfo@VValue@v8@@@Nan@@@Z 0000000180013910 f   w_aes.obj
 0001:00012a20       ?Encrypt@WAes@@SAXAEBV?$FunctionCallbackInfo@VValue@v8@@@Nan@@@Z 0000000180013a20 f   w_aes.obj
 0001:00012d70       ?Decrypt@WAes@@SAXAEBV?$FunctionCallbackInfo@VValue@v8@@@Nan@@@Z 0000000180013d70 f   w_aes.obj
 0001:000130c0       ?EncryptEcb@WAes@@SAXAEBV?$FunctionCallbackInfo@VValue@v8@@@Nan@@@Z 00000001800140c0 f   w_aes.obj
 0001:00013260       ?DecryptEcb@WAes@@SAXAEBV?$FunctionCallbackInfo@VValue@v8@@@Nan@@@Z 0000000180014260 f   w_aes.obj
 0001:00013400       ?Export@WHmac@@SAXAEBV?$FunctionCallbackInfo@VValue@v8@@@Nan@@@Z 0000000180014400 f   w_hmac.obj
 0001:00013400       ?Export@WAes@@SAXAEBV?$FunctionCallbackInfo@VValue@v8@@@Nan@@@Z 0000000180014400 f   w_aes.obj
 0001:00013500       ?Import@WAes@@SAXAEBV?$FunctionCallbackInfo@VValue@v8@@@Nan@@@Z 0000000180014500 f   w_aes.obj
 0001:00013650       ?EncryptGcm@WAes@@SAXAEBV?$FunctionCallbackInfo@VValue@v8@@@Nan@@@Z 0000000180014650 f   w_aes.obj
 0001:00013960       ?DecryptGcm@WAes@@SAXAEBV?$FunctionCallbackInfo@VValue@v8@@@Nan@@@Z 0000000180014960 f   w_aes.obj
 0001:00013c70       ?WrapKey@WAes@@SAXAEBV?$FunctionCallbackInfo@VValue@v8@@@Nan@@@Z 0000000180014c70 f   w_aes.obj
 0001:00013e10       ?UnwrapKey@WAes@@SAXAEBV?$FunctionCallbackInfo@VValue@v8@@@Nan@@@Z 0000000180014e10 f   w_aes.obj
 0001:00013fb0       ?EncryptCtr@WAes@@SAXAEBV?$FunctionCallbackInfo@VValue@v8@@@Nan@@@Z 0000000180014fb0 f   w_aes.obj
 0001:00014260       ?DecryptCtr@WAes@@SAXAEBV?$FunctionCallbackInfo@VValue@v8@@@Nan@@@Z 0000000180015260 f   w_aes.obj
 0001:00014510       ??1AsyncHmacGenerateKey@@UEAA@XZ 0000000180015510 f i w_hmac.obj
 0001:00014590       ??_GAsyncHmacGenerateKey@@UEAAPEAXI@Z 0000000180015590 f i w_hmac.obj
 0001:00014590       ??_EAsyncHmacGenerateKey@@UEAAPEAXI@Z 0000000180015590 f i * CIL library *:* CIL module *
 0001:000145d0       ??0AsyncHmacImport@@QEAA@PEAVCallback@Nan@@V?$shared_ptr@V?$basic_string@DU?$char_traits@D@std@@V?$allocator@D@2@@std@@@std@@@Z 00000001800155d0 f i w_hmac.obj
 0001:00014680       ??1AsyncHmacImport@@UEAA@XZ 0000000180015680 f i w_hmac.obj
 0001:00014730       ??_EAsyncHmacImport@@UEAAPEAXI@Z 0000000180015730 f i * CIL library *:* CIL module *
 0001:00014730       ??_GAsyncHmacImport@@UEAAPEAXI@Z 0000000180015730 f i w_hmac.obj
 0001:00014770       ??0AsyncHmacSign@@QEAA@PEAVCallback@Nan@@PEBUenv_md_st@@V?$shared_ptr@VScopedHMAC@@@std@@V?$shared_ptr@V?$basic_string@DU?$char_traits@D@std@@V?$allocator@D@2@@std@@@5@@Z 0000000180015770 f i w_hmac.obj
 0001:00014890       ??1AsyncHmacSign@@UEAA@XZ  0000000180015890 f i w_hmac.obj
 0001:00014980       ??_EAsyncHmacSign@@UEAAPEAXI@Z 0000000180015980 f i * CIL library *:* CIL module *
 0001:00014980       ??_GAsyncHmacSign@@UEAAPEAXI@Z 0000000180015980 f i w_hmac.obj
 0001:000149c0       ??0AsyncHmacVerify@@QEAA@PEAVCallback@Nan@@PEBUenv_md_st@@V?$shared_ptr@VScopedHMAC@@@std@@V?$shared_ptr@V?$basic_string@DU?$char_traits@D@std@@V?$allocator@D@2@@std@@@5@3@Z 00000001800159c0 f i w_hmac.obj
 0001:00014b30       ??1AsyncHmacVerify@@UEAA@XZ 0000000180015b30 f i w_hmac.obj
 0001:00014c20       ??_EAsyncHmacVerify@@UEAAPEAXI@Z 0000000180015c20 f i * CIL library *:* CIL module *
 0001:00014c20       ??_GAsyncHmacVerify@@UEAAPEAXI@Z 0000000180015c20 f i w_hmac.obj
 0001:00014c60       ?constructor@WHmac@@KAAEAV?$Persistent@VFunction@v8@@V?$NonCopyablePersistentTraits@VFunction@v8@@@2@@Nan@@XZ 0000000180015c60 f i w_hmac.obj
 0001:00014cd0       ?Init@WHmac@@SAXV?$Local@VObject@v8@@@v8@@@Z 0000000180015cd0 f   w_hmac.obj
 0001:00014ff0       ?New@WHmac@@SAXAEBV?$FunctionCallbackInfo@VValue@v8@@@Nan@@@Z 0000000180015ff0 f   w_hmac.obj
 0001:00015120       ?Generate@WHmac@@SAXAEBV?$FunctionCallbackInfo@VValue@v8@@@Nan@@@Z 0000000180016120 f   w_hmac.obj
 0001:00015230       ?Import@WHmac@@SAXAEBV?$FunctionCallbackInfo@VValue@v8@@@Nan@@@Z 0000000180016230 f   w_hmac.obj
 0001:00015380       ?Sign@WHmac@@SAXAEBV?$FunctionCallbackInfo@VValue@v8@@@Nan@@@Z 0000000180016380 f   w_hmac.obj
 0001:00015620       ?Verify@WHmac@@SAXAEBV?$FunctionCallbackInfo@VValue@v8@@@Nan@@@Z 0000000180016620 f   w_hmac.obj
 0001:00015990       ?convert@?$ToFactory@VNumber@v8@@@imp@Nan@@SA?AV?$MaybeLocal@VNumber@v8@@@v8@@V?$Local@VValue@v8@@@5@@Z 0000000180016990 f i w_pbkdf2.obj
 0001:00015a10       ??0AsyncPbkdf2Import@@QEAA@PEAVCallback@Nan@@V?$shared_ptr@V?$basic_string@DU?$char_traits@D@std@@V?$allocator@D@2@@std@@@std@@@Z 0000000180016a10 f i w_pbkdf2.obj
 0001:00015ac0       ??1AsyncPbkdf2Import@@UEAA@XZ 0000000180016ac0 f i w_pbkdf2.obj
 0001:00015b70       ??_EAsyncPbkdf2Import@@UEAAPEAXI@Z 0000000180016b70 f i * CIL library *:* CIL module *
 0001:00015b70       ??_GAsyncPbkdf2Import@@UEAAPEAXI@Z 0000000180016b70 f i w_pbkdf2.obj
 0001:00015bb0       ??0AsyncPbkdf2DeriveBits@@QEAA@PEAVCallback@Nan@@V?$shared_ptr@VScopedPbkdf2@@@std@@PEBUenv_md_st@@V?$shared_ptr@V?$basic_string@DU?$char_traits@D@std@@V?$allocator@D@2@@std@@@4@HH@Z 0000000180016bb0 f i w_pbkdf2.obj
 0001:00015ce0       ??1AsyncPbkdf2DeriveBits@@UEAA@XZ 0000000180016ce0 f i w_pbkdf2.obj
 0001:00015dd0       ??_EAsyncPbkdf2DeriveBits@@UEAAPEAXI@Z 0000000180016dd0 f i * CIL library *:* CIL module *
 0001:00015dd0       ??_GAsyncPbkdf2DeriveBits@@UEAAPEAXI@Z 0000000180016dd0 f i w_pbkdf2.obj
 0001:00015e10       ?constructor@WPbkdf2@@KAAEAV?$Persistent@VFunction@v8@@V?$NonCopyablePersistentTraits@VFunction@v8@@@2@@Nan@@XZ 0000000180016e10 f i w_pbkdf2.obj
 0001:00015e80       ?Init@WPbkdf2@@SAXV?$Local@VObject@v8@@@v8@@@Z 0000000180016e80 f   w_pbkdf2.obj
 0001:000160d0       ?New@WPbkdf2@@SAXAEBV?$FunctionCallbackInfo@VValue@v8@@@Nan@@@Z 00000001800170d0 f   w_pbkdf2.obj
 0001:00016200       ?ImportKey@WPbkdf2@@SAXAEBV?$FunctionCallbackInfo@VValue@v8@@@Nan@@@Z 0000000180017200 f   w_pbkdf2.obj
 0001:00016350       ?DeriveBits@WPbkdf2@@SAXAEBV?$FunctionCallbackInfo@VValue@v8@@@Nan@@@Z 0000000180017350 f   w_pbkdf2.obj
 0001:00016660       ??0AsyncDigest@@QEAA@PEAVCallback@Nan@@V?$shared_ptr@V?$basic_string@DU?$char_traits@D@std@@V?$allocator@D@2@@std@@@std@@1@Z 0000000180017660 f i w_core.obj
 0001:00016770       ??1AsyncDigest@@UEAA@XZ    0000000180017770 f i w_core.obj
 0001:00016860       ??_GAsyncDigest@@UEAAPEAXI@Z 0000000180017860 f i w_core.obj
 0001:00016860       ??_EAsyncDigest@@UEAAPEAXI@Z 0000000180017860 f i * CIL library *:* CIL module *
 0001:000168a0       ?constructor@WCore@@KAAEAV?$Persistent@VFunction@v8@@V?$NonCopyablePersistentTraits@VFunction@v8@@@2@@Nan@@XZ 00000001800178a0 f i w_core.obj
 0001:00016910       ?Init@WCore@@SAXV?$Local@VObject@v8@@@v8@@@Z 0000000180017910 f   w_core.obj
 0001:00016b50       ?New@WCore@@SAXAEBV?$FunctionCallbackInfo@VValue@v8@@@Nan@@@Z 0000000180017b50 f   w_core.obj
 0001:00016c70       ?Digest@WCore@@SAXAEBV?$FunctionCallbackInfo@VValue@v8@@@Nan@@@Z 0000000180017c70 f   w_core.obj
 0001:00016ed0       ?SetErrorMessage@AsyncWorker@Nan@@IEAAXPEBD@Z 0000000180017ed0 f i async_rsa.obj
 0001:00016f30       ?Execute@AsyncEncrypDecryptRsaOAEP@@UEAAXXZ 0000000180017f30 f   async_rsa.obj
 0001:00017060       ?HandleOKCallback@AsyncEncrypDecryptRsaOAEP@@UEAAXXZ 0000000180018060 f   async_rsa.obj
 0001:00017110       ?Execute@AsyncRsaGenerateKey@@UEAAXXZ 0000000180018110 f   async_rsa.obj
 0001:000171a0       ?HandleOKCallback@AsyncRsaGenerateKey@@UEAAXXZ 00000001800181a0 f   async_rsa.obj
 0001:000171a0       ?HandleOKCallback@AsyncEcGenerateKey@@UEAAXXZ 00000001800181a0 f   async_ec.obj
 0001:00017240       ?Execute@AsyncExportJwkRsa@@UEAAXXZ 0000000180018240 f   async_rsa.obj
 0001:000172f0       ?HandleOKCallback@AsyncExportJwkRsa@@UEAAXXZ 00000001800182f0 f   async_rsa.obj
 0001:00017700       ?Execute@AsyncExportSpki@@UEAAXXZ 0000000180018700 f   async_rsa.obj
 0001:00017780       ?HandleOKCallback@AsyncExportPkcs8@@UEAAXXZ 0000000180018780 f   async_rsa.obj
 0001:00017780       ?HandleOKCallback@AsyncExportSpki@@UEAAXXZ 0000000180018780 f   async_rsa.obj
 0001:00017840       ?Execute@AsyncExportPkcs8@@UEAAXXZ 0000000180018840 f   async_rsa.obj
 0001:000178c0       ?Execute@AsyncImportPkcs8@@UEAAXXZ 00000001800188c0 f   async_rsa.obj
 0001:00017970       ?HandleOKCallback@AsyncImportSpki@@UEAAXXZ 0000000180018970 f   async_rsa.obj
 0001:00017970       ?HandleOKCallback@AsyncImportPkcs8@@UEAAXXZ 0000000180018970 f   async_rsa.obj
 0001:00017a10       ?Execute@AsyncImportSpki@@UEAAXXZ 0000000180018a10 f   async_rsa.obj
 0001:00017ac0       ?Execute@AsyncImportJwkRsa@@UEAAXXZ 0000000180018ac0 f   async_rsa.obj
 0001:00017b50       ?HandleOKCallback@AsyncEcImportJwk@@UEAAXXZ 0000000180018b50 f   async_ec.obj
 0001:00017b50       ?HandleOKCallback@AsyncImportJwkRsa@@UEAAXXZ 0000000180018b50 f   async_rsa.obj
 0001:00017bf0       ?Execute@AsyncSignRsa@@UEAAXXZ 0000000180018bf0 f   async_rsa.obj
 0001:00017cd0       ?HandleOKCallback@AsyncSignRsa@@UEAAXXZ 0000000180018cd0 f   async_rsa.obj
 0001:00017cd0       ?HandleOKCallback@AsyncEcdsaSign@@UEAAXXZ 0000000180018cd0 f   async_ec.obj
 0001:00017cd0       ?HandleOKCallback@AsyncHmacSign@@UEAAXXZ 0000000180018cd0 f   async_hmac.obj
 0001:00017d90       ?Execute@AsyncVerifyRsa@@UEAAXXZ 0000000180018d90 f   async_rsa.obj
 0001:00017e50       ?HandleOKCallback@AsyncHmacVerify@@UEAAXXZ 0000000180018e50 f   async_hmac.obj
 0001:00017e50       ?HandleOKCallback@AsyncVerifyRsa@@UEAAXXZ 0000000180018e50 f   async_rsa.obj
 0001:00017e50       ?HandleOKCallback@AsyncEcdsaVerify@@UEAAXXZ 0000000180018e50 f   async_ec.obj
 0001:00017ee0       ?Execute@AsyncSignRsaPSS@@UEAAXXZ 0000000180018ee0 f   async_rsa.obj
 0001:00017fd0       ?HandleOKCallback@AsyncSignRsaPSS@@UEAAXXZ 0000000180018fd0 f   async_rsa.obj
 0001:00018090       ?Execute@AsyncVerifyRsaPSS@@UEAAXXZ 0000000180019090 f   async_rsa.obj
 0001:00018160       ?HandleOKCallback@AsyncVerifyRsaPSS@@UEAAXXZ 0000000180019160 f   async_rsa.obj
 0001:000181f0       ?Execute@AsyncEcGenerateKey@@UEAAXXZ 00000001800191f0 f   async_ec.obj
 0001:00018270       ?Execute@AsyncEcdhDeriveKey@@UEAAXXZ 0000000180019270 f   async_ec.obj
 0001:00018350       ?HandleOKCallback@AsyncAesWrapKey@@UEAAXXZ 0000000180019350 f   async_aes.obj
 0001:00018350       ?HandleOKCallback@AsyncEcdhDeriveKey@@UEAAXXZ 0000000180019350 f   async_ec.obj
 0001:00018350       ?HandleOKCallback@AsyncAesEncryptECB@@UEAAXXZ 0000000180019350 f   async_aes.obj
 0001:00018350       ?HandleOKCallback@AsyncEcdhDeriveBits@@UEAAXXZ 0000000180019350 f   async_ec.obj
 0001:00018400       ?Execute@AsyncEcExportJwk@@UEAAXXZ 0000000180019400 f   async_ec.obj
 0001:000184b0       ?HandleOKCallback@AsyncEcExportJwk@@UEAAXXZ 00000001800194b0 f   async_ec.obj
 0001:00018760       ?Execute@AsyncEcImportJwk@@UEAAXXZ 0000000180019760 f   async_ec.obj
 0001:000187f0       ?Execute@AsyncEcdsaSign@@UEAAXXZ 00000001800197f0 f   async_ec.obj
 0001:000188d0       ?Execute@AsyncEcdsaVerify@@UEAAXXZ 00000001800198d0 f   async_ec.obj
 0001:00018990       ?Execute@AsyncEcdhDeriveBits@@UEAAXXZ 0000000180019990 f   async_ec.obj
 0001:00018a80       ??0ScopedAES@@QEAA@V?$shared_ptr@V?$basic_string@DU?$char_traits@D@std@@V?$allocator@D@2@@std@@@std@@@Z 0000000180019a80 f i async_aes.obj
 0001:00018b00       ?NewInstance@WAes@@SA?AV?$Local@VObject@v8@@@v8@@XZ 0000000180019b00 f i async_aes.obj
 0001:00018bc0       ?Execute@AsyncAesGenerateKey@@UEAAXXZ 0000000180019bc0 f   async_aes.obj
 0001:00018c40       ?HandleOKCallback@AsyncAesGenerateKey@@UEAAXXZ 0000000180019c40 f   async_aes.obj
 0001:00018ce0       ?Execute@AsyncAesEncryptCBC@@UEAAXXZ 0000000180019ce0 f   async_aes.obj
 0001:00018e50       ?HandleOKCallback@AsyncAesEncryptCBC@@UEAAXXZ 0000000180019e50 f   async_aes.obj
 0001:00018e50       ?HandleOKCallback@AsyncAesEncryptCTR@@UEAAXXZ 0000000180019e50 f   async_aes.obj
 0001:00018f00       ?Execute@AsyncAesEncryptECB@@UEAAXXZ 0000000180019f00 f   async_aes.obj
 0001:00019000       ?Execute@AsyncHmacExport@@UEAAXXZ 000000018001a000 f   async_hmac.obj
 0001:00019000       ?Execute@AsyncAesExport@@UEAAXXZ 000000018001a000 f   async_aes.obj
 0001:00019020       ?HandleOKCallback@AsyncAesExport@@UEAAXXZ 000000018001a020 f   async_aes.obj
 0001:00019020       ?HandleOKCallback@AsyncHmacExport@@UEAAXXZ 000000018001a020 f   async_hmac.obj
 0001:000190d0       ?Execute@AsyncAesImport@@UEAAXXZ 000000018001a0d0 f   async_aes.obj
 0001:000191d0       ?HandleOKCallback@AsyncAesImport@@UEAAXXZ 000000018001a1d0 f   async_aes.obj
 0001:00019270       ?Execute@AsyncAesEncryptGCM@@UEAAXXZ 000000018001a270 f   async_aes.obj
 0001:00019470       ?HandleOKCallback@AsyncAesEncryptGCM@@UEAAXXZ 000000018001a470 f   async_aes.obj
 0001:00019520       ?Execute@AsyncAesWrapKey@@UEAAXXZ 000000018001a520 f   async_aes.obj
 0001:00019620       ?Execute@AsyncAesEncryptCTR@@UEAAXXZ 000000018001a620 f   async_aes.obj
 0001:000197b0       ??0ScopedHMAC@@QEAA@V?$shared_ptr@V?$basic_string@DU?$char_traits@D@std@@V?$allocator@D@2@@std@@@std@@@Z 000000018001a7b0 f i async_hmac.obj
 0001:00019840       ?NewInstance@WHmac@@SA?AV?$Local@VObject@v8@@@v8@@XZ 000000018001a840 f i async_hmac.obj
 0001:00019900       ?Execute@AsyncHmacGenerateKey@@UEAAXXZ 000000018001a900 f   async_hmac.obj
 0001:00019980       ?HandleOKCallback@AsyncHmacGenerateKey@@UEAAXXZ 000000018001a980 f   async_hmac.obj
 0001:00019a20       ?Execute@AsyncHmacImport@@UEAAXXZ 000000018001aa20 f   async_hmac.obj
 0001:00019b20       ?HandleOKCallback@AsyncHmacImport@@UEAAXXZ 000000018001ab20 f   async_hmac.obj
 0001:00019bc0       ?Execute@AsyncHmacSign@@UEAAXXZ 000000018001abc0 f   async_hmac.obj
 0001:00019c80       ?Execute@AsyncHmacVerify@@UEAAXXZ 000000018001ac80 f   async_hmac.obj
 0001:00019d20       ??0ScopedPbkdf2@@QEAA@V?$shared_ptr@V?$basic_string@DU?$char_traits@D@std@@V?$allocator@D@2@@std@@@std@@@Z 000000018001ad20 f i async_pbkdf2.obj
 0001:00019db0       ?NewInstance@WPbkdf2@@SA?AV?$Local@VObject@v8@@@v8@@XZ 000000018001adb0 f i async_pbkdf2.obj
 0001:00019e70       ?Execute@AsyncPbkdf2Import@@UEAAXXZ 000000018001ae70 f   async_pbkdf2.obj
 0001:00019f70       ?HandleOKCallback@AsyncPbkdf2Import@@UEAAXXZ 000000018001af70 f   async_pbkdf2.obj
 0001:0001a010       ?Execute@AsyncPbkdf2DeriveBits@@UEAAXXZ 000000018001b010 f   async_pbkdf2.obj
 0001:0001a0e0       ?HandleOKCallback@AsyncPbkdf2DeriveBits@@UEAAXXZ 000000018001b0e0 f   async_pbkdf2.obj
 0001:0001a190       ?Execute@AsyncDigest@@UEAAXXZ 000000018001b190 f   async_core.obj
 0001:0001a260       ?HandleOKCallback@AsyncDigest@@UEAAXXZ 000000018001b260 f   async_core.obj
 0001:0001a35c       __imp_load_?GetCurrent@Isolate@v8@@SAPEAV12@XZ 000000018001b35c f   node:node.exe
 0001:0001a368       __tailMerge_node_exe       000000018001b368 f i node:node.exe
 0001:0001a3e1       __imp_load_??1HandleScope@v8@@QEAA@XZ 000000018001b3e1 f   node:node.exe
 0001:0001a3ed       __imp_load_??0HandleScope@v8@@QEAA@PEAVIsolate@1@@Z 000000018001b3ed f   node:node.exe
 0001:0001a3f9       __imp_load_?ToLocalEmpty@V8@v8@@CAXXZ 000000018001b3f9 f   node:node.exe
 0001:0001a405       __imp_load_?NewFromUtf8@String@v8@@SA?AV?$MaybeLocal@VString@v8@@@2@PEAVIsolate@2@PEBDW4NewStringType@2@H@Z 000000018001b405 f   node:node.exe
 0001:0001a411       __imp_load_?New@Number@v8@@SA?AV?$Local@VNumber@v8@@@2@PEAVIsolate@2@N@Z 000000018001b411 f   node:node.exe
 0001:0001a41d       __imp_load_?New@Object@v8@@SA?AV?$Local@VObject@v8@@@2@PEAVIsolate@2@@Z 000000018001b41d f   node:node.exe
 0001:0001a429       __imp_load_?Set@Object@v8@@QEAA_NV?$Local@VValue@v8@@@2@0@Z 000000018001b429 f   node:node.exe
 0001:0001a435       __imp_load_?Set@Object@v8@@QEAA_NIV?$Local@VValue@v8@@@2@@Z 000000018001b435 f   node:node.exe
 0001:0001a441       __imp_load_node_module_register 000000018001b441 f   node:node.exe
 0001:0001a44d       __imp_load_OPENSSL_add_all_algorithms_noconf 000000018001b44d f   node:node.exe
 0001:0001a459       __imp_load_ERR_load_crypto_strings 000000018001b459 f   node:node.exe
 0001:0001a465       __imp_load_OPENSSL_init    000000018001b465 f   node:node.exe
 0001:0001a471       __imp_load_BIO_new_mem_buf 000000018001b471 f   node:node.exe
 0001:0001a47d       __imp_load_i2d_PUBKEY_bio  000000018001b47d f   node:node.exe
 0001:0001a489       __imp_load_d2i_PUBKEY_bio  000000018001b489 f   node:node.exe
 0001:0001a495       __imp_load_i2d_PKCS8PrivateKeyInfo_bio 000000018001b495 f   node:node.exe
 0001:0001a4a1       __imp_load_BIO_s_mem       000000018001b4a1 f   node:node.exe
 0001:0001a4ad       __imp_load_d2i_PrivateKey_bio 000000018001b4ad f   node:node.exe
 0001:0001a4b9       __imp_load_BIO_ctrl        000000018001b4b9 f   node:node.exe
 0001:0001a4c5       __imp_load_BIO_new         000000018001b4c5 f   node:node.exe
 0001:0001a4d1       __imp_load_EVP_CIPHER_CTX_free 000000018001b4d1 f   node:node.exe
 0001:0001a4dd       __imp_load_BN_CTX_free     000000018001b4dd f   node:node.exe
 0001:0001a4e9       __imp_load_EVP_MD_CTX_destroy 000000018001b4e9 f   node:node.exe
 0001:0001a4f5       __imp_load_BIO_free        000000018001b4f5 f   node:node.exe
 0001:0001a501       __imp_load_EC_GROUP_free   000000018001b501 f   node:node.exe
 0001:0001a50d       __imp_load_EVP_PKEY_free   000000018001b50d f   node:node.exe
 0001:0001a519       __imp_load_ECDSA_SIG_free  000000018001b519 f   node:node.exe
 0001:0001a525       __imp_load_EC_KEY_free     000000018001b525 f   node:node.exe
 0001:0001a531       __imp_load_BN_free         000000018001b531 f   node:node.exe
 0001:0001a53d       __imp_load_RSA_free        000000018001b53d f   node:node.exe
 0001:0001a549       __imp_load_EVP_PKEY_CTX_free 000000018001b549 f   node:node.exe
 0001:0001a555       __imp_load_ERR_print_errors 000000018001b555 f   node:node.exe
 0001:0001a561       __imp_load_EVP_Digest      000000018001b561 f   node:node.exe
 0001:0001a56d       __imp_load_BN_new          000000018001b56d f   node:node.exe
 0001:0001a579       __imp_load_EVP_PKEY_assign 000000018001b579 f   node:node.exe
 0001:0001a585       __imp_load_BN_set_word     000000018001b585 f   node:node.exe
 0001:0001a591       __imp_load_RSA_new         000000018001b591 f   node:node.exe
 0001:0001a59d       __imp_load_EVP_PKEY_new    000000018001b59d f   node:node.exe
 0001:0001a5a9       __imp_load_RSA_generate_key_ex 000000018001b5a9 f   node:node.exe
 0001:0001a5b5       __imp_load_BN_dup          000000018001b5b5 f   node:node.exe
 0001:0001a5c1       __imp_load_EVP_DigestVerifyInit 000000018001b5c1 f   node:node.exe
 0001:0001a5cd       __imp_load_EVP_DigestSignInit 000000018001b5cd f   node:node.exe
 0001:0001a5d9       __imp_load_EVP_DigestVerifyFinal 000000018001b5d9 f   node:node.exe
 0001:0001a5e5       __imp_load_EVP_DigestSignFinal 000000018001b5e5 f   node:node.exe
 0001:0001a5f1       __imp_load_EVP_MD_CTX_create 000000018001b5f1 f   node:node.exe
 0001:0001a5fd       __imp_load_EVP_DigestUpdate 000000018001b5fd f   node:node.exe
 0001:0001a609       __imp_load_EVP_PKEY_CTX_new 000000018001b609 f   node:node.exe
 0001:0001a615       __imp_load_EVP_PKEY_CTX_ctrl 000000018001b615 f   node:node.exe
 0001:0001a621       __imp_load_EVP_PKEY_encrypt 000000018001b621 f   node:node.exe
 0001:0001a62d       __imp_load_CRYPTO_malloc   000000018001b62d f   node:node.exe
 0001:0001a639       __imp_load_EVP_PKEY_decrypt 000000018001b639 f   node:node.exe
 0001:0001a645       __imp_load_EVP_PKEY_encrypt_init 000000018001b645 f   node:node.exe
 0001:0001a651       __imp_load_EVP_PKEY_decrypt_init 000000018001b651 f   node:node.exe
 0001:0001a65d       __imp_load_EC_KEY_new_by_curve_name 000000018001b65d f   node:node.exe
 0001:0001a669       __imp_load_EC_KEY_get0_group 000000018001b669 f   node:node.exe
 0001:0001a675       __imp_load_EC_GROUP_set_asn1_flag 000000018001b675 f   node:node.exe
 0001:0001a681       __imp_load_EC_KEY_generate_key 000000018001b681 f   node:node.exe
 0001:0001a68d       __imp_load_i2d_ECDSA_SIG   000000018001b68d f   node:node.exe
 0001:0001a699       __imp_load_BN_bin2bn       000000018001b699 f   node:node.exe
 0001:0001a6a5       __imp_load_ECDSA_SIG_new   000000018001b6a5 f   node:node.exe
 0001:0001a6b1       __imp_load_BN_num_bits     000000018001b6b1 f   node:node.exe
 0001:0001a6bd       __imp_load_CRYPTO_free     000000018001b6bd f   node:node.exe
 0001:0001a6c9       __imp_load_d2i_ECDSA_SIG   000000018001b6c9 f   node:node.exe
 0001:0001a6d5       __imp_load_EC_GROUP_get_order 000000018001b6d5 f   node:node.exe
 0001:0001a6e1       __imp_load_EC_GROUP_get_degree 000000018001b6e1 f   node:node.exe
 0001:0001a6ed       __imp_load_EC_KEY_get0_private_key 000000018001b6ed f   node:node.exe
 0001:0001a6f9       __imp_load_EC_GROUP_get_curve_name 000000018001b6f9 f   node:node.exe
 0001:0001a705       __imp_load_EVP_PKEY_derive 000000018001b705 f   node:node.exe
 0001:0001a711       __imp_load_EVP_PKEY_derive_init 000000018001b711 f   node:node.exe
 0001:0001a71d       __imp_load_EC_KEY_get0_public_key 000000018001b71d f   node:node.exe
 0001:0001a729       __imp_load_EVP_PKEY_derive_set_peer 000000018001b729 f   node:node.exe
 0001:0001a735       __imp_load_EVP_PKEY_get1_EC_KEY 000000018001b735 f   node:node.exe
 0001:0001a741       __imp_load_ECDH_compute_key 000000018001b741 f   node:node.exe
 0001:0001a74d       __imp_load_EC_GROUP_new_by_curve_name 000000018001b74d f   node:node.exe
 0001:0001a759       __imp_load_BN_CTX_new      000000018001b759 f   node:node.exe
 0001:0001a765       __imp_load_EC_KEY_new      000000018001b765 f   node:node.exe
 0001:0001a771       __imp_load_EC_KEY_set_group 000000018001b771 f   node:node.exe
 0001:0001a77d       __imp_load_BN_CTX_get      000000018001b77d f   node:node.exe
 0001:0001a789       __imp_load_EC_POINT_get_affine_coordinates_GFp 000000018001b789 f   node:node.exe
 0001:0001a795       __imp_load_EC_KEY_set_private_key 000000018001b795 f   node:node.exe
 0001:0001a7a1       __imp_load_EC_KEY_set_public_key_affine_coordinates 000000018001b7a1 f   node:node.exe
 0001:0001a7ad       __imp_load_RAND_bytes      000000018001b7ad f   node:node.exe
 0001:0001a7b9       __imp_load_EVP_aes_256_ecb 000000018001b7b9 f   node:node.exe
 0001:0001a7c5       __imp_load_EVP_CipherFinal_ex 000000018001b7c5 f   node:node.exe
 0001:0001a7d1       __imp_load_EVP_aes_192_ecb 000000018001b7d1 f   node:node.exe
 0001:0001a7dd       __imp_load_EVP_CipherInit_ex 000000018001b7dd f   node:node.exe
 0001:0001a7e9       __imp_load_EVP_aes_128_ecb 000000018001b7e9 f   node:node.exe
 0001:0001a7f5       __imp_load_EVP_CipherUpdate 000000018001b7f5 f   node:node.exe
 0001:0001a801       __imp_load_EVP_CIPHER_CTX_new 000000018001b801 f   node:node.exe
 0001:0001a80d       __imp_load_AES_set_decrypt_key 000000018001b80d f   node:node.exe
 0001:0001a819       __imp_load_AES_wrap_key    000000018001b819 f   node:node.exe
 0001:0001a825       __imp_load_EVP_aes_192_cbc 000000018001b825 f   node:node.exe
 0001:0001a831       __imp_load_EVP_aes_128_cbc 000000018001b831 f   node:node.exe
 0001:0001a83d       __imp_load_AES_set_encrypt_key 000000018001b83d f   node:node.exe
 0001:0001a849       __imp_load_AES_unwrap_key  000000018001b849 f   node:node.exe
 0001:0001a855       __imp_load_EVP_aes_256_cbc 000000018001b855 f   node:node.exe
 0001:0001a861       __imp_load_EVP_aes_128_gcm 000000018001b861 f   node:node.exe
 0001:0001a86d       __imp_load_EVP_EncryptUpdate 000000018001b86d f   node:node.exe
 0001:0001a879       __imp_load_EVP_aes_256_gcm 000000018001b879 f   node:node.exe
 0001:0001a885       __imp_load_EVP_CIPHER_CTX_ctrl 000000018001b885 f   node:node.exe
 0001:0001a891       __imp_load_EVP_EncryptFinal_ex 000000018001b891 f   node:node.exe
 0001:0001a89d       __imp_load_EVP_DecryptInit_ex 000000018001b89d f   node:node.exe
 0001:0001a8a9       __imp_load_EVP_EncryptInit_ex 000000018001b8a9 f   node:node.exe
 0001:0001a8b5       __imp_load_EVP_DecryptFinal_ex 000000018001b8b5 f   node:node.exe
 0001:0001a8c1       __imp_load_EVP_aes_192_gcm 000000018001b8c1 f   node:node.exe
 0001:0001a8cd       __imp_load_EVP_CIPHER_block_size 000000018001b8cd f   node:node.exe
 0001:0001a8d9       __imp_load_EVP_DecryptUpdate 000000018001b8d9 f   node:node.exe
 0001:0001a8e5       __imp_load_AES_ctr128_encrypt 000000018001b8e5 f   node:node.exe
 0001:0001a8f1       __imp_load_HMAC            000000018001b8f1 f   node:node.exe
 0001:0001a8fd       __imp_load_EVP_MD_size     000000018001b8fd f   node:node.exe
 0001:0001a909       __imp_load_PKCS5_PBKDF2_HMAC 000000018001b909 f   node:node.exe
 0001:0001a915       __imp_load_?New@Buffer@node@@YA?AV?$MaybeLocal@VObject@v8@@@v8@@PEAVIsolate@4@_K@Z 000000018001b915 f   node:node.exe
 0001:0001a921       __imp_load_?Data@Buffer@node@@YAPEADV?$Local@VObject@v8@@@v8@@@Z 000000018001b921 f   node:node.exe
 0001:0001a92d       __imp_load_?Length@Buffer@node@@YA_KV?$Local@VObject@v8@@@v8@@@Z 000000018001b92d f   node:node.exe
 0001:0001a939       __imp_load_BN_bn2bin       000000018001b939 f   node:node.exe
 0001:0001a945       __imp_load_?ToObject@Value@v8@@QEBA?AV?$Local@VObject@v8@@@2@XZ 000000018001b945 f   node:node.exe
 0001:0001a951       __imp_load_uv_queue_work   000000018001b951 f   node:node.exe
 0001:0001a95d       __imp_load_?Global@Context@v8@@QEAA?AV?$Local@VObject@v8@@@2@XZ 000000018001b95d f   node:node.exe
 0001:0001a969       __imp_load_?Value@External@v8@@QEBAPEAXXZ 000000018001b969 f   node:node.exe
 0001:0001a975       __imp_load_?New@External@v8@@SA?AV?$Local@VExternal@v8@@@2@PEAVIsolate@2@PEAX@Z 000000018001b975 f   node:node.exe
 0001:0001a981       __imp_load_?New@Signature@v8@@SA?AV?$Local@VSignature@v8@@@2@PEAVIsolate@2@V?$Local@VFunctionTemplate@v8@@@2@@Z 000000018001b981 f   node:node.exe
 0001:0001a98d       __imp_load_?ThrowException@Isolate@v8@@QEAA?AV?$Local@VValue@v8@@@2@V32@@Z 000000018001b98d f   node:node.exe
 0001:0001a999       __imp_load_?GetCurrentContext@Isolate@v8@@QEAA?AV?$Local@VContext@v8@@@2@XZ 000000018001b999 f   node:node.exe
 0001:0001a9a5       __imp_load_?CreateHandle@HandleScope@v8@@KAPEAPEAVObject@internal@2@PEAVIsolate@42@PEAV342@@Z 000000018001b9a5 f   node:node.exe
 0001:0001a9b1       __imp_load_?CreateHandle@HandleScope@v8@@CAPEAPEAVObject@internal@2@PEAVHeapObject@42@PEAV342@@Z 000000018001b9b1 f   node:node.exe
 0001:0001a9bd       __imp_load_?Set@Template@v8@@QEAAXV?$Local@VName@v8@@@2@V?$Local@VData@v8@@@2@W4PropertyAttribute@2@@Z 000000018001b9bd f   node:node.exe
 0001:0001a9c9       __imp_load_?Error@Exception@v8@@SA?AV?$Local@VValue@v8@@@2@V?$Local@VString@v8@@@2@@Z 000000018001b9c9 f   node:node.exe
 0001:0001a9d5       __imp_load_?SetClassName@FunctionTemplate@v8@@QEAAXV?$Local@VString@v8@@@2@@Z 000000018001b9d5 f   node:node.exe
 0001:0001a9e1       __imp_load_?PrototypeTemplate@FunctionTemplate@v8@@QEAA?AV?$Local@VObjectTemplate@v8@@@2@XZ 000000018001b9e1 f   node:node.exe
 0001:0001a9ed       __imp_load_?InstanceTemplate@FunctionTemplate@v8@@QEAA?AV?$Local@VObjectTemplate@v8@@@2@XZ 000000018001b9ed f   node:node.exe
 0001:0001a9f9       __imp_load_?GetFunction@FunctionTemplate@v8@@QEAA?AV?$Local@VFunction@v8@@@2@XZ 000000018001b9f9 f   node:node.exe
 0001:0001aa05       __imp_load_?GetFunction@FunctionTemplate@v8@@QEAA?AV?$MaybeLocal@VFunction@v8@@@2@V?$Local@VContext@v8@@@2@@Z 000000018001ba05 f   node:node.exe
 0001:0001aa11       __imp_load_?New@FunctionTemplate@v8@@SA?AV?$Local@VFunctionTemplate@v8@@@2@PEAVIsolate@2@P6AXAEBV?$FunctionCallbackInfo@VValue@v8@@@2@@ZV?$Local@VValue@v8@@@2@V?$Local@VSignature@v8@@@2@HW4ConstructorBehavior@2@@Z 000000018001ba11 f   node:node.exe
 0001:0001aa1d       __imp_load_?FromJustIsNothing@V8@v8@@CAXXZ 000000018001ba1d f   node:node.exe
 0001:0001aa29       __imp_load_?ClearWeak@V8@v8@@CAPEAXPEAPEAVObject@internal@2@@Z 000000018001ba29 f   node:node.exe
 0001:0001aa35       __imp_load_?MakeWeak@V8@v8@@CAXPEAPEAVObject@internal@2@PEAXP6AXAEBV?$WeakCallbackInfo@X@2@@ZW4WeakCallbackType@2@@Z 000000018001ba35 f   node:node.exe
 0001:0001aa41       __imp_load_?DisposeGlobal@V8@v8@@CAXPEAPEAVObject@internal@2@@Z 000000018001ba41 f   node:node.exe
 0001:0001aa4d       __imp_load_?GlobalizeReference@V8@v8@@CAPEAPEAVObject@internal@2@PEAVIsolate@42@PEAPEAV342@@Z 000000018001ba4d f   node:node.exe
 0001:0001aa59       __imp_load_?Int32Value@Value@v8@@QEBA?AV?$Maybe@H@2@V?$Local@VContext@v8@@@2@@Z 000000018001ba59 f   node:node.exe
 0001:0001aa65       __imp_load_?BooleanValue@Value@v8@@QEBA_NXZ 000000018001ba65 f   node:node.exe
 0001:0001aa71       __imp_load_?ToObject@Value@v8@@QEBA?AV?$MaybeLocal@VObject@v8@@@2@V?$Local@VContext@v8@@@2@@Z 000000018001ba71 f   node:node.exe
 0001:0001aa7d       __imp_load_?Escape@EscapableHandleScope@v8@@AEAAPEAPEAVObject@internal@2@PEAPEAV342@@Z 000000018001ba7d f   node:node.exe
 0001:0001aa89       __imp_load_??0EscapableHandleScope@v8@@QEAA@PEAVIsolate@1@@Z 000000018001ba89 f   node:node.exe
 0001:0001aa95       __imp_load_??1Utf8Value@String@v8@@QEAA@XZ 000000018001ba95 f   node:node.exe
 0001:0001aaa1       __imp_load_??0Utf8Value@String@v8@@QEAA@V?$Local@VValue@v8@@@2@@Z 000000018001baa1 f   node:node.exe
 0001:0001aaad       __imp_load_?SlowGetAlignedPointerFromInternalField@Object@v8@@AEAAPEAXH@Z 000000018001baad f   node:node.exe
 0001:0001aab9       __imp_load_?SlowGetInternalField@Object@v8@@AEAA?AV?$Local@VValue@v8@@@2@H@Z 000000018001bab9 f   node:node.exe
 0001:0001aac5       __imp_load_?CallAsFunction@Object@v8@@QEAA?AV?$MaybeLocal@VValue@v8@@@2@V?$Local@VContext@v8@@@2@V?$Local@VValue@v8@@@2@HQEAV52@@Z 000000018001bac5 f   node:node.exe
 0001:0001aad1       __imp_load_?SetAlignedPointerInInternalField@Object@v8@@QEAAXHPEAX@Z 000000018001bad1 f   node:node.exe
 0001:0001aadd       __imp_load_?SetInternalField@Object@v8@@QEAAXHV?$Local@VValue@v8@@@2@@Z 000000018001badd f   node:node.exe
 0001:0001aae9       __imp_load_?InternalFieldCount@Object@v8@@QEAAHXZ 000000018001bae9 f   node:node.exe
 0001:0001aaf5       __imp_load_?Get@Object@v8@@QEAA?AV?$MaybeLocal@VValue@v8@@@2@V?$Local@VContext@v8@@@2@V?$Local@VValue@v8@@@2@@Z 000000018001baf5 f   node:node.exe
 0001:0001ab01       __imp_load_?Set@Object@v8@@QEAA?AV?$Maybe@_N@2@V?$Local@VContext@v8@@@2@V?$Local@VValue@v8@@@2@1@Z 000000018001bb01 f   node:node.exe
 0001:0001ab0d       __imp_load_?NewInstance@Function@v8@@QEBA?AV?$MaybeLocal@VObject@v8@@@2@V?$Local@VContext@v8@@@2@HQEAV?$Local@VValue@v8@@@2@@Z 000000018001bb0d f   node:node.exe
 0001:0001ab19       __imp_load_?SetInternalFieldCount@ObjectTemplate@v8@@QEAAXH@Z 000000018001bb19 f   node:node.exe
 0001:0001ab25       __imp_load_?SetAccessor@ObjectTemplate@v8@@QEAAXV?$Local@VName@v8@@@2@P6AX0AEBV?$PropertyCallbackInfo@VValue@v8@@@2@@ZP6AX0V?$Local@VValue@v8@@@2@AEBV?$PropertyCallbackInfo@X@2@@Z3W4AccessControl@2@W4PropertyAttribute@2@V?$Local@VAccessorSignature@v8@@@2@@Z 000000018001bb25 f   node:node.exe
 0001:0001ab31       __imp_load_?NewInstance@ObjectTemplate@v8@@QEAA?AV?$MaybeLocal@VObject@v8@@@2@V?$Local@VContext@v8@@@2@@Z 000000018001bb31 f   node:node.exe
 0001:0001ab3d       __imp_load_?New@ObjectTemplate@v8@@SA?AV?$Local@VObjectTemplate@v8@@@2@PEAVIsolate@2@V?$Local@VFunctionTemplate@v8@@@2@@Z 000000018001bb3d f   node:node.exe
 0001:0001ab49       __imp_load_?MakeCallback@node@@YA?AV?$Local@VValue@v8@@@v8@@PEAVIsolate@3@V?$Local@VObject@v8@@@3@V?$Local@VFunction@v8@@@3@HPEAV23@@Z 000000018001bb49 f   node:node.exe
 0001:0001ab55       __imp_load_RSA_size        000000018001bb55 f   node:node.exe
 0001:0001ab61       __imp_load_EVP_PKEY_get1_RSA 000000018001bb61 f   node:node.exe
 0001:0001ab6d       __imp_load_EVP_get_digestbyname 000000018001bb6d f   node:node.exe
 0001:0001ab79       __imp_load_uv_default_loop 000000018001bb79 f   node:node.exe
 0001:0001ab85       __imp_load_?ToString@Value@v8@@QEBA?AV?$Local@VString@v8@@@2@XZ 000000018001bb85 f   node:node.exe
 0001:0001ab91       __imp_load_??1EscapableHandleScope@v8@@QEAA@XZ 000000018001bb91 f   node:node.exe
 0001:0001ab9d       __imp_load_?IsFunction@Value@v8@@QEBA_NXZ 000000018001bb9d f   node:node.exe
 0001:0001aba9       __imp_load_?Call@Function@v8@@QEAA?AV?$MaybeLocal@VValue@v8@@@2@V?$Local@VContext@v8@@@2@V?$Local@VValue@v8@@@2@HQEAV52@@Z 000000018001bba9 f   node:node.exe
 0001:0001abb5       __imp_load_?Uint32Value@Value@v8@@QEBAIXZ 000000018001bbb5 f   node:node.exe
 0001:0001abc1       __imp_load_?ToNumber@Value@v8@@QEBA?AV?$MaybeLocal@VNumber@v8@@@2@V?$Local@VContext@v8@@@2@@Z 000000018001bbc1 f   node:node.exe
 0001:0001abd0       ??0bad_alloc@std@@QEAA@AEBV01@@Z 000000018001bbd0 f i libcpmt:xthrow.obj
 0001:0001ac10       ??0bad_alloc@std@@QEAA@XZ  000000018001bc10 f i libcpmt:xthrow.obj
 0001:0001ac30       ??0exception@std@@QEAA@AEBV01@@Z 000000018001bc30 f i libcpmt:xthrow.obj
 0001:0001ac68       ??0length_error@std@@QEAA@AEBV01@@Z 000000018001bc68 f i libcpmt:xthrow.obj
 0001:0001aca8       ??0length_error@std@@QEAA@PEBD@Z 000000018001bca8 f i libcpmt:xthrow.obj
 0001:0001acf4       ??0logic_error@std@@QEAA@AEBV01@@Z 000000018001bcf4 f i libcpmt:xthrow.obj
 0001:0001ad34       ??0out_of_range@std@@QEAA@AEBV01@@Z 000000018001bd34 f i libcpmt:xthrow.obj
 0001:0001ad74       ??0out_of_range@std@@QEAA@PEBD@Z 000000018001bd74 f i libcpmt:xthrow.obj
 0001:0001adc0       ??_Ebad_alloc@std@@UEAAPEAXI@Z 000000018001bdc0 f i libcpmt:xthrow.obj
 0001:0001adc0       ??_Elogic_error@std@@UEAAPEAXI@Z 000000018001bdc0 f i libcpmt:xthrow.obj
 0001:0001adc0       ??_Gbad_exception@std@@UEAAPEAXI@Z 000000018001bdc0 f i libvcruntime:frame.obj
 0001:0001adc0       ??_Gout_of_range@std@@UEAAPEAXI@Z 000000018001bdc0 f i libcpmt:xthrow.obj
 0001:0001adc0       ??_Elength_error@std@@UEAAPEAXI@Z 000000018001bdc0 f i libcpmt:xthrow.obj
 0001:0001adc0       ??_Ebad_array_new_length@std@@UEAAPEAXI@Z 000000018001bdc0 f i LIBCMT:throw_bad_alloc.obj
 0001:0001adc0       ??_Eexception@std@@UEAAPEAXI@Z 000000018001bdc0 f i libcpmt:xthrow.obj
 0001:0001adc0       ??_Glogic_error@std@@UEAAPEAXI@Z 000000018001bdc0 f i libcpmt:xthrow.obj
 0001:0001adc0       ??_Gbad_array_new_length@std@@UEAAPEAXI@Z 000000018001bdc0 f i LIBCMT:throw_bad_alloc.obj
 0001:0001adc0       ??_Ebad_exception@std@@UEAAPEAXI@Z 000000018001bdc0 f i libvcruntime:frame.obj
 0001:0001adc0       ??_Gexception@std@@UEAAPEAXI@Z 000000018001bdc0 f i libcpmt:xthrow.obj
 0001:0001adc0       ??_Glength_error@std@@UEAAPEAXI@Z 000000018001bdc0 f i libcpmt:xthrow.obj
 0001:0001adc0       ??_Gbad_alloc@std@@UEAAPEAXI@Z 000000018001bdc0 f i libcpmt:xthrow.obj
 0001:0001adc0       ??_Eout_of_range@std@@UEAAPEAXI@Z 000000018001bdc0 f i libcpmt:xthrow.obj
 0001:0001ae04       ?__scrt_throw_std_bad_alloc@@YAXXZ 000000018001be04 f   LIBCMT:throw_bad_alloc.obj
 0001:0001ae04       ?_Xbad_alloc@std@@YAXXZ    000000018001be04 f   libcpmt:xthrow.obj
 0001:0001ae24       ?_Xlength_error@std@@YAXPEBD@Z 000000018001be24 f   libcpmt:xthrow.obj
 0001:0001ae48       ?_Xout_of_range@std@@YAXPEBD@Z 000000018001be48 f   libcpmt:xthrow.obj
 0001:0001ae6c       ?what@exception@std@@UEBAPEBDXZ 000000018001be6c f i libcpmt:xthrow.obj
 0001:0001ae90       __security_check_cookie    000000018001be90 f   LIBCMT:_amdsecgs_.obj
 0001:0001aeb4       ??2@YAPEAX_K@Z             000000018001beb4 f   LIBCMT:new_scalar.obj
 0001:0001aef0       ??3@YAXPEAX@Z              000000018001bef0 f   LIBCMT:delete_scalar.obj
 0001:0001aef8       ??_V@YAXPEAX@Z             000000018001bef8 f   LIBCMT:delete_array.obj
 0001:0001aef8       ??3@YAXPEAX_K@Z            000000018001bef8 f   LIBCMT:delete_scalar_size.obj
 0001:0001af00       ??_Etype_info@@UEAAPEAXI@Z 000000018001bf00 f i LIBCMT:std_type_info_static.obj
 0001:0001af00       ??_Gtype_info@@UEAAPEAXI@Z 000000018001bf00 f i LIBCMT:std_type_info_static.obj
 0001:0001b074       _Init_thread_footer        000000018001c074 f   LIBCMT:thread_safe_statics.obj
 0001:0001b0d4       _Init_thread_header        000000018001c0d4 f   LIBCMT:thread_safe_statics.obj
 0001:0001b13c       _Init_thread_notify        000000018001c13c f   LIBCMT:thread_safe_statics.obj
 0001:0001b198       _Init_thread_wait          000000018001c198 f   LIBCMT:thread_safe_statics.obj
 0001:0001b230       __scrt_acquire_startup_lock 000000018001c230 f   LIBCMT:utility.obj
 0001:0001b26c       __scrt_dllmain_after_initialize_c 000000018001c26c f   LIBCMT:utility.obj
 0001:0001b2a0       __scrt_dllmain_before_initialize_c 000000018001c2a0 f   LIBCMT:utility.obj
 0001:0001b2b8       __scrt_dllmain_crt_thread_attach 000000018001c2b8 f   LIBCMT:utility.obj
 0001:0001b2e0       __scrt_dllmain_crt_thread_detach 000000018001c2e0 f   LIBCMT:utility.obj
 0001:0001b2f8       __scrt_dllmain_exception_filter 000000018001c2f8 f   LIBCMT:utility.obj
 0001:0001b35c       __scrt_dllmain_uninitialize_c 000000018001c35c f   LIBCMT:utility.obj
 0001:0001b38c       __scrt_dllmain_uninitialize_critical 000000018001c38c f   LIBCMT:utility.obj
 0001:0001b3a0       __scrt_initialize_crt      000000018001c3a0 f   LIBCMT:utility.obj
 0001:0001b3ec       __scrt_initialize_onexit_tables 000000018001c3ec f   LIBCMT:utility.obj
 0001:0001b4b8       __scrt_is_nonwritable_in_current_image 000000018001c4b8 f   LIBCMT:utility.obj
 0001:0001b554       __scrt_release_startup_lock 000000018001c554 f   LIBCMT:utility.obj
 0001:0001b578       __scrt_uninitialize_crt    000000018001c578 f   LIBCMT:utility.obj
 0001:0001b5a4       _onexit                    000000018001c5a4 f   LIBCMT:utility.obj
 0001:0001b5f4       atexit                     000000018001c5f4 f   LIBCMT:utility.obj
 0001:0001b60c       ??_U@YAPEAX_K@Z            000000018001c60c f   LIBCMT:new_array.obj
 0001:0001b960       _DllMainCRTStartup         000000018001c960 f   LIBCMT:dll_dllmain.obj
 0001:0001b9a0       __raise_securityfailure    000000018001c9a0 f   LIBCMT:gs_report.obj
 0001:0001b9d4       __report_gsfailure         000000018001c9d4 f   LIBCMT:gs_report.obj
 0001:0001baa8       __report_rangecheckfailure 000000018001caa8 f   LIBCMT:gs_report.obj
 0001:0001babc       __report_securityfailure   000000018001cabc f   LIBCMT:gs_report.obj
 0001:0001bc3c       ??0bad_array_new_length@std@@QEAA@AEBV01@@Z 000000018001cc3c f i LIBCMT:throw_bad_alloc.obj
 0001:0001bc7c       ??0bad_array_new_length@std@@QEAA@XZ 000000018001cc7c f i LIBCMT:throw_bad_alloc.obj
 0001:0001bc9c       ??1out_of_range@std@@UEAA@XZ 000000018001cc9c f i libcpmt:xthrow.obj
 0001:0001bc9c       ??1bad_alloc@std@@UEAA@XZ  000000018001cc9c f i libcpmt:xthrow.obj
 0001:0001bc9c       ??1bad_exception@std@@UEAA@XZ 000000018001cc9c f i libvcruntime:frame.obj
 0001:0001bc9c       ??1length_error@std@@UEAA@XZ 000000018001cc9c f i libcpmt:xthrow.obj
 0001:0001bc9c       ??1bad_array_new_length@std@@UEAA@XZ 000000018001cc9c f i LIBCMT:throw_bad_alloc.obj
 0001:0001bcb0       ?__scrt_throw_std_bad_array_new_length@@YAXXZ 000000018001ccb0 f   LIBCMT:throw_bad_alloc.obj
 0001:0001bcd0       __crt_debugger_hook        000000018001ccd0 f   LIBCMT:utility_desktop.obj
 0001:0001bcd8       __scrt_fastfail            000000018001ccd8 f   LIBCMT:utility_desktop.obj
 0001:0001be20       _guard_check_icall         000000018001ce20 f i LIBCMT:checkcfg.obj
 0001:0001be28       __isa_available_init       000000018001ce28 f   LIBCMT:_cpu_disp_.obj
 0001:0001bff0       __scrt_is_ucrt_dll_in_use  000000018001cff0 f   LIBCMT:ucrt_detection.obj
 0001:0001bffc       __security_init_cookie     000000018001cffc f   LIBCMT:gs_support.obj
 0001:0001c0a8       _get_startup_argv_mode     000000018001d0a8 f   LIBCMT:argv_mode.obj
 0001:0001c0a8       DllMain                    000000018001d0a8 f   LIBCMT:dll_dllmain_stub.obj
 0001:0001c0b0       ?__scrt_initialize_type_info@@YAXXZ 000000018001d0b0 f   LIBCMT:tncleanup.obj
 0001:0001c0c0       ?__scrt_uninitialize_type_info@@YAXXZ 000000018001d0c0 f   LIBCMT:tncleanup.obj
 0001:0001c0cc       __local_stdio_printf_options 000000018001d0cc f i LIBCMT:default_local_stdio_options.obj
 0001:0001c0d4       __local_stdio_scanf_options 000000018001d0d4 f i LIBCMT:default_local_stdio_options.obj
 0001:0001c0dc       __scrt_initialize_default_local_stdio_options 000000018001d0dc f   LIBCMT:default_local_stdio_options.obj
 0001:0001c0f8       __scrt_get_dyn_tls_init_callback 000000018001d0f8 f   LIBCMT:dyn_tls_init.obj
 0001:0001c100       _RTC_Initialize            000000018001d100 f   LIBCMT:_initsect_.obj
 0001:0001c14c       _RTC_Terminate             000000018001d14c f   LIBCMT:_initsect_.obj
 0001:0001c1a0       __DestructExceptionObject  000000018001d1a0 f   libvcruntime:frame.obj
 0001:0001c228       ??0bad_exception@std@@QEAA@AEBV01@@Z 000000018001d228 f i libvcruntime:frame.obj
 0001:0001c268       ??0bad_exception@std@@QEAA@XZ 000000018001d268 f i libvcruntime:frame.obj
 0001:0001cbe4       ?_CallMemberFunction0@@YAXPEAXP6AX0@Z@Z 000000018001dbe4 f i libvcruntime:frame.obj
 0001:0001cbe8       ?_CallMemberFunction1@@YAXPEAXP6AX0@Z0@Z 000000018001dbe8 f i libvcruntime:frame.obj
 0001:0001cbf4       ?_CallMemberFunction2@@YAXPEAXP6AX0@Z0H@Z 000000018001dbf4 f i libvcruntime:frame.obj
 0001:0001cc04       __AdjustPointer            000000018001dc04 f   libvcruntime:frame.obj
 0001:0001cc28       __BuildCatchObject         000000018001dc28 f   libvcruntime:frame.obj
 0001:0001ccec       __BuildCatchObjectHelper   000000018001dcec f   libvcruntime:frame.obj
 0001:0001cecc       __CxxCallCatchBlock        000000018001decc f   libvcruntime:frame.obj
 0001:0001d0b8       __FrameUnwindFilter        000000018001e0b8 f   libvcruntime:frame.obj
 0001:0001d104       __FrameUnwindToState       000000018001e104 f   libvcruntime:frame.obj
 0001:0001d298       __InternalCxxFrameHandler  000000018001e298 f   libvcruntime:frame.obj
 0001:0001d4f0       __TypeMatch                000000018001e4f0 f   libvcruntime:frame.obj
 0001:0001d630       __std_terminate            000000018001e630 f   libvcruntime:frame.obj
 0001:0001d650       memmove                    000000018001e650 f   libvcruntime:memcpy.obj
 0001:0001d650       memcpy                     000000018001e650 f   libvcruntime:memcpy.obj
 0001:0001da88       _purecall                  000000018001ea88 f   libvcruntime:purevirt.obj
 0001:0001dac4       __std_exception_copy       000000018001eac4 f   libvcruntime:std_exception.obj
 0001:0001db54       __std_exception_destroy    000000018001eb54 f   libvcruntime:std_exception.obj
 0001:0001db7c       _CxxThrowException         000000018001eb7c f   libvcruntime:throw.obj
 0001:0001de1c       __vcrt_FlsAlloc            000000018001ee1c f   libvcruntime:winapi_downlevel.obj
 0001:0001de70       __vcrt_FlsFree             000000018001ee70 f   libvcruntime:winapi_downlevel.obj
 0001:0001dec4       __vcrt_FlsGetValue         000000018001eec4 f   libvcruntime:winapi_downlevel.obj
 0001:0001df18       __vcrt_FlsSetValue         000000018001ef18 f   libvcruntime:winapi_downlevel.obj
 0001:0001df80       __vcrt_InitializeCriticalSectionEx 000000018001ef80 f   libvcruntime:winapi_downlevel.obj
 0001:0001dff8       __vcrt_initialize_winapi_thunks 000000018001eff8 f   libvcruntime:winapi_downlevel.obj
 0001:0001e044       __vcrt_uninitialize_winapi_thunks 000000018001f044 f   libvcruntime:winapi_downlevel.obj
 0001:0001e084       __vcrt_initialize          000000018001f084 f   libvcruntime:initialization.obj
 0001:0001e0b8       __vcrt_thread_attach       000000018001f0b8 f   libvcruntime:initialization.obj
 0001:0001e0cc       __vcrt_thread_detach       000000018001f0cc f   libvcruntime:initialization.obj
 0001:0001e0e0       __vcrt_uninitialize        000000018001f0e0 f   libvcruntime:initialization.obj
 0001:0001e100       __vcrt_uninitialize_critical 000000018001f100 f   libvcruntime:initialization.obj
 0001:0001e110       __C_specific_handler       000000018001f110 f   libvcruntime:_chandler_.obj
 0001:0001e320       memset                     000000018001f320 f   libvcruntime:memset.obj
 0001:0001e4c0       __std_type_info_compare    000000018001f4c0 f   libvcruntime:std_type_info.obj
 0001:0001e4e8       __std_type_info_destroy_list 000000018001f4e8 f   libvcruntime:std_type_info.obj
 0001:0001e514       __vcrt_freefls             000000018001f514 f   libvcruntime:per_thread_data.obj
 0001:0001e534       __vcrt_freeptd             000000018001f534 f   libvcruntime:per_thread_data.obj
 0001:0001e584       __vcrt_getptd              000000018001f584 f   libvcruntime:per_thread_data.obj
 0001:0001e5a0       __vcrt_getptd_noexit       000000018001f5a0 f   libvcruntime:per_thread_data.obj
 0001:0001e658       __vcrt_initialize_ptd      000000018001f658 f   libvcruntime:per_thread_data.obj
 0001:0001e698       __vcrt_uninitialize_ptd    000000018001f698 f   libvcruntime:per_thread_data.obj
 0001:0001e6bc       ?__GetCurrentState@@YAHPEA_KPEAU_xDISPATCHER_CONTEXT@@PEBU_s_FuncInfo@@@Z 000000018001f6bc f   libvcruntime:ehstate.obj
 0001:0001e6e4       ?__GetUnwindTryBlock@@YAHPEA_KPEAU_xDISPATCHER_CONTEXT@@PEBU_s_FuncInfo@@@Z 000000018001f6e4 f   libvcruntime:ehstate.obj
 0001:0001e710       ?__SetState@@YAXPEA_KPEAU_xDISPATCHER_CONTEXT@@PEBU_s_FuncInfo@@H@Z 000000018001f710 f   libvcruntime:ehstate.obj
 0001:0001e71c       ?__SetUnwindTryBlock@@YAXPEA_KPEAU_xDISPATCHER_CONTEXT@@PEBU_s_FuncInfo@@H@Z 000000018001f71c f   libvcruntime:ehstate.obj
 0001:0001e758       ?__StateFromControlPc@@YAHPEBU_s_FuncInfo@@PEAU_xDISPATCHER_CONTEXT@@@Z 000000018001f758 f   libvcruntime:ehstate.obj
 0001:0001e760       ?__StateFromIp@@YAHPEBU_s_FuncInfo@@PEAU_xDISPATCHER_CONTEXT@@_J@Z 000000018001f760 f   libvcruntime:ehstate.obj
 0001:0001e7e0       _CallSettingFrame          000000018001f7e0 f   libvcruntime:handlers.obj
 0001:0001e820       ?_ExecutionInCatch@@YAHPEAU_xDISPATCHER_CONTEXT@@PEBU_s_FuncInfo@@@Z 000000018001f820 f   libvcruntime:trnsctrl.obj
 0001:0001e894       ?_GetEstablisherFrame@@YAPEA_KPEA_KPEAU_xDISPATCHER_CONTEXT@@PEBU_s_FuncInfo@@0@Z 000000018001f894 f   libvcruntime:trnsctrl.obj
 0001:0001e960       ?_GetRangeOfTrysToCheck@@YAPEBU_s_TryBlockMapEntry@@PEA_KPEBU_s_FuncInfo@@HHPEAI2PEAU_xDISPATCHER_CONTEXT@@@Z 000000018001f960 f   libvcruntime:trnsctrl.obj
 0001:0001ea8c       ?__FrameUnwindToEmptyState@@YAXPEA_KPEAU_xDISPATCHER_CONTEXT@@PEBU_s_FuncInfo@@@Z 000000018001fa8c f   libvcruntime:trnsctrl.obj
 0001:0001eb20       ?__SehTransFilter@@YAHPEAU_EXCEPTION_POINTERS@@PEAUEHExceptionRecord@@PEA_KPEAU_CONTEXT@@PEAU_xDISPATCHER_CONTEXT@@PEBU_s_FuncInfo@@PEAH@Z 000000018001fb20 f   libvcruntime:trnsctrl.obj
 0001:0001ebb8       _CallSETranslator          000000018001fbb8 f   libvcruntime:trnsctrl.obj
 0001:0001ec10       _CreateFrameInfo           000000018001fc10 f   libvcruntime:trnsctrl.obj
 0001:0001ec4c       _FindAndUnlinkFrame        000000018001fc4c f   libvcruntime:trnsctrl.obj
 0001:0001eca4       _GetImageBase              000000018001fca4 f   libvcruntime:trnsctrl.obj
 0001:0001ecb8       _GetThrowImageBase         000000018001fcb8 f   libvcruntime:trnsctrl.obj
 0001:0001eccc       _IsExceptionObjectToBeDestroyed 000000018001fccc f   libvcruntime:trnsctrl.obj
 0001:0001ecfc       _SetImageBase              000000018001fcfc f   libvcruntime:trnsctrl.obj
 0001:0001ed14       _SetThrowImageBase         000000018001fd14 f   libvcruntime:trnsctrl.obj
 0001:0001ed2c       _UnwindNestedFrames        000000018001fd2c f   libvcruntime:trnsctrl.obj
 0001:0001ee50       __CxxFrameHandler3         000000018001fe50 f   libvcruntime:trnsctrl.obj
 0001:0001eee0       _local_unwind              000000018001fee0 f   libvcruntime:_jmpuwind_.obj
 0001:0001ef10       _NLG_Notify                000000018001ff10 f   libvcruntime:_jmpuwind_.obj
 0001:0001ef30       __NLG_Dispatch2            000000018001ff30 f   libvcruntime:_jmpuwind_.obj
 0001:0001ef40       __NLG_Return2              000000018001ff40 f   libvcruntime:_jmpuwind_.obj
 0001:0001ef44       __vcrt_initialize_pure_virtual_call_handler 000000018001ff44 f   libvcruntime:purevirt_data.obj
 0001:0001ef68       __vcrt_initialize_locks    000000018001ff68 f   libvcruntime:locks.obj
 0001:0001efb0       __vcrt_uninitialize_locks  000000018001ffb0 f   libvcruntime:locks.obj
 0001:0001efe8       __acrt_call_reportfault    000000018001ffe8 f   libucrt:invalid_parameter.obj
 0001:0001f144       __acrt_initialize_invalid_parameter_handler 0000000180020144 f   libucrt:invalid_parameter.obj
 0001:0001f14c       _invalid_parameter         000000018002014c f   libucrt:invalid_parameter.obj
 0001:0001f1f4       _invalid_parameter_noinfo  00000001800201f4 f   libucrt:invalid_parameter.obj
 0001:0001f214       _invalid_parameter_noinfo_noreturn 0000000180020214 f   libucrt:invalid_parameter.obj
 0001:0001f244       _invoke_watson             0000000180020244 f   libucrt:invalid_parameter.obj
 0001:0001fc74       ??$ftprintf@PEAU_iobuf@@PEB_WAEBQEB_WAEBQEB_WAEBI@?$__crt_char_traits@_W@@SAH$$QEAPEAU_iobuf@@$$QEAPEB_WAEBQEB_W2AEBI@Z 0000000180020c74 f i libucrt:assert.obj
 0001:0001fc9c       _wassert                   0000000180020c9c f   libucrt:assert.obj
 0001:0001fd20       fwprintf                   0000000180020d20 f i libucrt:assert.obj
 0001:0001fd64       swprintf                   0000000180020d64 f i libucrt:assert.obj
 0001:0001fdb8       ??0_LocaleUpdate@@QEAA@QEAU__crt_locale_pointers@@@Z 0000000180020db8 f i libucrt:stricmp.obj
 0001:0001fe48       __ascii_stricmp            0000000180020e48 f   libucrt:stricmp.obj
 0001:0001fe84       _stricmp                   0000000180020e84 f   libucrt:stricmp.obj
 0001:0001fecc       _stricmp_l                 0000000180020ecc f   libucrt:stricmp.obj
 0001:0001ff80       __acrt_initialize_new_handler 0000000180020f80 f   libucrt:new_handler.obj
 0001:0001ff88       _callnewh                  0000000180020f88 f   libucrt:new_handler.obj
 0001:0001ffc8       _query_new_handler         0000000180020fc8 f   libucrt:new_handler.obj
 0001:0001fffc       malloc                     0000000180020ffc f   libucrt:malloc.obj
 0001:00020004       free                       0000000180021004 f   libucrt:free.obj
 0001:0002000c       _seh_filter_dll            000000018002100c f   libucrt:exception_filter.obj
 0001:00020020       _seh_filter_exe            0000000180021020 f   libucrt:exception_filter.obj
 0001:000203e0       __acrt_initialize_thread_local_exit_callback 00000001800213e0 f   libucrt:exit.obj
 0001:000203e8       _cexit                     00000001800213e8 f   libucrt:exit.obj
 0001:000203f8       _exit                      00000001800213f8 f   libucrt:exit.obj
 0001:00020404       _is_c_termination_complete 0000000180021404 f   libucrt:exit.obj
 0001:000205c8       __acrt_allocate_buffer_for_argv 00000001800215c8 f   libucrt:argv_parsing.obj
 0001:0002062c       _configure_narrow_argv     000000018002162c f   libucrt:argv_parsing.obj
 0001:00020988       __dcrt_uninitialize_environments_nolock 0000000180021988 f   libucrt:environment_initialization.obj
 0001:000209c0       _initialize_narrow_environment 00000001800219c0 f   libucrt:environment_initialization.obj
 0001:000209c8       ??$?RV<lambda_b8c45f8f788dd370798f47cfe8ac3a86>@@AEAV<lambda_4e60a939b0d047cfe11ddc22648dfba9>@@V<lambda_332c3edc96d0294ec56c57d38c1cdfd5>@@@?$__crt_seh_guarded_call@H@@QEAAH$$QEAV<lambda_b8c45f8f788dd370798f47cfe8ac3a86>@@AEAV<lambda_4e60a939b0d047cfe11ddc22648dfba9>@@$$QEAV<lambda_332c3edc96d0294ec56c57d38c1cdfd5>@@@Z 00000001800219c8 f i libucrt:onexit.obj
 0001:00020a04       ??$?RV<lambda_e24bbb7b643b32fcea6fa61b31d4c984>@@AEAV<lambda_275893d493268fdec8709772e3fcec0e>@@V<lambda_9d71df4d7cf3f480f8d633942495c3b0>@@@?$__crt_seh_guarded_call@H@@QEAAH$$QEAV<lambda_e24bbb7b643b32fcea6fa61b31d4c984>@@AEAV<lambda_275893d493268fdec8709772e3fcec0e>@@$$QEAV<lambda_9d71df4d7cf3f480f8d633942495c3b0>@@@Z 0000000180021a04 f i libucrt:onexit.obj
 0001:00020d80       _crt_atexit                0000000180021d80 f   libucrt:onexit.obj
 0001:00020d90       _execute_onexit_table      0000000180021d90 f   libucrt:onexit.obj
 0001:00020dcc       _initialize_onexit_table   0000000180021dcc f   libucrt:onexit.obj
 0001:00020e0c       _register_onexit_function  0000000180021e0c f   libucrt:onexit.obj
 0001:00020f88       __acrt_uninitialize_command_line 0000000180021f88 f   libucrt:argv_data.obj
 0001:00020f8c       __acrt_initialize          0000000180021f8c f   libucrt:initialization.obj
 0001:00020fa0       __acrt_thread_attach       0000000180021fa0 f   libucrt:initialization.obj
 0001:00020fb4       __acrt_thread_detach       0000000180021fb4 f   libucrt:initialization.obj
 0001:00020fc4       __acrt_uninitialize        0000000180021fc4 f   libucrt:initialization.obj
 0001:00020fd8       __acrt_uninitialize_critical 0000000180021fd8 f   libucrt:initialization.obj
 0001:00020fe8       _initterm                  0000000180021fe8 f   libucrt:initterm.obj
 0001:00021060       _initterm_e                0000000180022060 f   libucrt:initterm.obj
 0001:000210ac       terminate                  00000001800220ac f   libucrt:terminate.obj
 0001:000210d4       abort                      00000001800220d4 f   libucrt:abort.obj
 0001:0002112c       strcpy_s                   000000018002212c f   libucrt:strcpy_s.obj
 0001:0002118c       _free_base                 000000018002218c f   libucrt:free_base.obj
 0001:000211cc       _malloc_base               00000001800221cc f   libucrt:malloc_base.obj
 0001:0002122c       _calloc_base               000000018002222c f   libucrt:calloc_base.obj
 0001:000212a4       ??$?RV<lambda_7b91131dde12e1c3dfc74ff76b3f2eac>@@AEAV<lambda_dd75445284c072d0bd3768540cc698fa>@@V<lambda_16bc4ecb55b4718497c16bceaea2ceaf>@@@?$__crt_seh_guarded_call@H@@QEAAH$$QEAV<lambda_7b91131dde12e1c3dfc74ff76b3f2eac>@@AEAV<lambda_dd75445284c072d0bd3768540cc698fa>@@$$QEAV<lambda_16bc4ecb55b4718497c16bceaea2ceaf>@@@Z 00000001800222a4 f i libucrt:output.obj
 0001:000212e4       ??$ensure_buffer_is_big_enough@D@formatting_buffer@__crt_stdio_output@@QEAA_N_K@Z 00000001800222e4 f i libucrt:output.obj
 0001:00021390       ??$is_wide_character_specifier@_W@__crt_stdio_output@@YA_N_K_WW4length_modifier@0@@Z 0000000180022390 f i libucrt:output.obj
 0001:000213d4       ??$type_case_integer_parse_into_buffer@I@?$output_processor@_WV?$stream_output_adapter@_W@__crt_stdio_output@@V?$standard_base@_WV?$stream_output_adapter@_W@__crt_stdio_output@@@2@@__crt_stdio_output@@AEAAXII_N@Z 00000001800223d4 f i libucrt:output.obj
 0001:000213d4       ??$type_case_integer_parse_into_buffer@I@?$output_processor@_WV?$string_output_adapter@_W@__crt_stdio_output@@V?$standard_base@_WV?$string_output_adapter@_W@__crt_stdio_output@@@2@@__crt_stdio_output@@AEAAXII_N@Z 00000001800223d4 f i libucrt:output.obj
 0001:00021470       ??$type_case_integer_parse_into_buffer@_K@?$output_processor@_WV?$string_output_adapter@_W@__crt_stdio_output@@V?$standard_base@_WV?$string_output_adapter@_W@__crt_stdio_output@@@2@@__crt_stdio_output@@AEAAX_KI_N@Z 0000000180022470 f i libucrt:output.obj
 0001:00021470       ??$type_case_integer_parse_into_buffer@_K@?$output_processor@_WV?$stream_output_adapter@_W@__crt_stdio_output@@V?$standard_base@_WV?$stream_output_adapter@_W@__crt_stdio_output@@@2@@__crt_stdio_output@@AEAAX_KI_N@Z 0000000180022470 f i libucrt:output.obj
 0001:0002150c       ??$write_multiple_characters@V?$stream_output_adapter@_W@__crt_stdio_output@@D@__crt_stdio_output@@YAXAEBV?$stream_output_adapter@_W@0@DHQEAH@Z 000000018002250c f i libucrt:output.obj
 0001:0002159c       ??$write_multiple_characters@V?$string_output_adapter@_W@__crt_stdio_output@@D@__crt_stdio_output@@YAXAEBV?$string_output_adapter@_W@0@DHQEAH@Z 000000018002259c f i libucrt:output.obj
 0001:0002160c       ??0?$output_processor@_WV?$string_output_adapter@_W@__crt_stdio_output@@V?$standard_base@_WV?$string_output_adapter@_W@__crt_stdio_output@@@2@@__crt_stdio_output@@QEAA@AEBV?$string_output_adapter@_W@1@_KQEB_WQEAU__crt_locale_pointers@@QEAD@Z 000000018002260c f i libucrt:output.obj
 0001:0002160c       ??0?$output_processor@_WV?$stream_output_adapter@_W@__crt_stdio_output@@V?$standard_base@_WV?$stream_output_adapter@_W@__crt_stdio_output@@@2@@__crt_stdio_output@@QEAA@AEBV?$stream_output_adapter@_W@1@_KQEB_WQEAU__crt_locale_pointers@@QEAD@Z 000000018002260c f i libucrt:output.obj
 0001:0002177c       ?force_decimal_point@__crt_stdio_output@@YAXPEADQEAU__crt_locale_pointers@@@Z 000000018002277c f i libucrt:output.obj
 0001:000217ec       ?parse_int_from_format_string@?$output_processor@_WV?$stream_output_adapter@_W@__crt_stdio_output@@V?$standard_base@_WV?$stream_output_adapter@_W@__crt_stdio_output@@@2@@__crt_stdio_output@@AEAA_NQEAH@Z 00000001800227ec f i libucrt:output.obj
 0001:000217ec       ?parse_int_from_format_string@?$output_processor@_WV?$string_output_adapter@_W@__crt_stdio_output@@V?$standard_base@_WV?$string_output_adapter@_W@__crt_stdio_output@@@2@@__crt_stdio_output@@AEAA_NQEAH@Z 00000001800227ec f i libucrt:output.obj
 0001:0002186c       ?process@?$output_processor@_WV?$stream_output_adapter@_W@__crt_stdio_output@@V?$standard_base@_WV?$stream_output_adapter@_W@__crt_stdio_output@@@2@@__crt_stdio_output@@QEAAHXZ 000000018002286c f i libucrt:output.obj
 0001:00021ae4       ?process@?$output_processor@_WV?$string_output_adapter@_W@__crt_stdio_output@@V?$standard_base@_WV?$string_output_adapter@_W@__crt_stdio_output@@@2@@__crt_stdio_output@@QEAAHXZ 0000000180022ae4 f i libucrt:output.obj
 0001:00021d60       ?state_case_size@?$output_processor@_WV?$stream_output_adapter@_W@__crt_stdio_output@@V?$standard_base@_WV?$stream_output_adapter@_W@__crt_stdio_output@@@2@@__crt_stdio_output@@AEAA_NXZ 0000000180022d60 f i libucrt:output.obj
 0001:00021f04       ?state_case_size@?$output_processor@_WV?$string_output_adapter@_W@__crt_stdio_output@@V?$standard_base@_WV?$string_output_adapter@_W@__crt_stdio_output@@@2@@__crt_stdio_output@@AEAA_NXZ 0000000180022f04 f i libucrt:output.obj
 0001:000220a8       ?state_case_type@?$output_processor@_WV?$stream_output_adapter@_W@__crt_stdio_output@@V?$standard_base@_WV?$stream_output_adapter@_W@__crt_stdio_output@@@2@@__crt_stdio_output@@AEAA_NXZ 00000001800230a8 f i libucrt:output.obj
 0001:00022374       ?state_case_type@?$output_processor@_WV?$string_output_adapter@_W@__crt_stdio_output@@V?$standard_base@_WV?$string_output_adapter@_W@__crt_stdio_output@@@2@@__crt_stdio_output@@AEAA_NXZ 0000000180023374 f i libucrt:output.obj
 0001:00022640       ?type_case_Z@?$output_processor@_WV?$string_output_adapter@_W@__crt_stdio_output@@V?$standard_base@_WV?$string_output_adapter@_W@__crt_stdio_output@@@2@@__crt_stdio_output@@AEAA_NXZ 0000000180023640 f i libucrt:output.obj
 0001:00022640       ?type_case_Z@?$output_processor@_WV?$stream_output_adapter@_W@__crt_stdio_output@@V?$standard_base@_WV?$stream_output_adapter@_W@__crt_stdio_output@@@2@@__crt_stdio_output@@AEAA_NXZ 0000000180023640 f i libucrt:output.obj
 0001:000226c0       ?type_case_a@?$output_processor@_WV?$string_output_adapter@_W@__crt_stdio_output@@V?$standard_base@_WV?$string_output_adapter@_W@__crt_stdio_output@@@2@@__crt_stdio_output@@AEAA_NXZ 00000001800236c0 f i libucrt:output.obj
 0001:000226c0       ?type_case_a@?$output_processor@_WV?$stream_output_adapter@_W@__crt_stdio_output@@V?$standard_base@_WV?$stream_output_adapter@_W@__crt_stdio_output@@@2@@__crt_stdio_output@@AEAA_NXZ 00000001800236c0 f i libucrt:output.obj
 0001:00022904       ?type_case_c_tchar@?$output_processor@_WV?$stream_output_adapter@_W@__crt_stdio_output@@V?$standard_base@_WV?$stream_output_adapter@_W@__crt_stdio_output@@@2@@__crt_stdio_output@@AEAA_N_W@Z 0000000180023904 f i libucrt:output.obj
 0001:00022904       ?type_case_c_tchar@?$output_processor@_WV?$string_output_adapter@_W@__crt_stdio_output@@V?$standard_base@_WV?$string_output_adapter@_W@__crt_stdio_output@@@2@@__crt_stdio_output@@AEAA_N_W@Z 0000000180023904 f i libucrt:output.obj
 0001:000229ac       ?type_case_integer@?$output_processor@_WV?$stream_output_adapter@_W@__crt_stdio_output@@V?$standard_base@_WV?$stream_output_adapter@_W@__crt_stdio_output@@@2@@__crt_stdio_output@@AEAA_NI_N@Z 00000001800239ac f i libucrt:output.obj
 0001:000229ac       ?type_case_integer@?$output_processor@_WV?$string_output_adapter@_W@__crt_stdio_output@@V?$standard_base@_WV?$string_output_adapter@_W@__crt_stdio_output@@@2@@__crt_stdio_output@@AEAA_NI_N@Z 00000001800239ac f i libucrt:output.obj
 0001:00022b4c       ?type_case_n@?$output_processor@_WV?$stream_output_adapter@_W@__crt_stdio_output@@V?$standard_base@_WV?$stream_output_adapter@_W@__crt_stdio_output@@@2@@__crt_stdio_output@@AEAA_NXZ 0000000180023b4c f i libucrt:output.obj
 0001:00022b4c       ?type_case_n@?$output_processor@_WV?$string_output_adapter@_W@__crt_stdio_output@@V?$standard_base@_WV?$string_output_adapter@_W@__crt_stdio_output@@@2@@__crt_stdio_output@@AEAA_NXZ 0000000180023b4c f i libucrt:output.obj
 0001:00022c28       ?type_case_s@?$output_processor@_WV?$stream_output_adapter@_W@__crt_stdio_output@@V?$standard_base@_WV?$stream_output_adapter@_W@__crt_stdio_output@@@2@@__crt_stdio_output@@AEAA_NXZ 0000000180023c28 f i libucrt:output.obj
 0001:00022c28       ?type_case_s@?$output_processor@_WV?$string_output_adapter@_W@__crt_stdio_output@@V?$standard_base@_WV?$string_output_adapter@_W@__crt_stdio_output@@@2@@__crt_stdio_output@@AEAA_NXZ 0000000180023c28 f i libucrt:output.obj
 0001:00022cf0       ?write_stored_string_tchar@?$output_processor@_WV?$stream_output_adapter@_W@__crt_stdio_output@@V?$standard_base@_WV?$stream_output_adapter@_W@__crt_stdio_output@@@2@@__crt_stdio_output@@AEAA_N_W@Z 0000000180023cf0 f i libucrt:output.obj
 0001:00022ddc       ?write_stored_string_tchar@?$output_processor@_WV?$string_output_adapter@_W@__crt_stdio_output@@V?$standard_base@_WV?$string_output_adapter@_W@__crt_stdio_output@@@2@@__crt_stdio_output@@AEAA_N_W@Z 0000000180023ddc f i libucrt:output.obj
 0001:00022ecc       ?write_string@?$stream_output_adapter@_W@__crt_stdio_output@@QEBAXQEB_WHQEAH1@Z 0000000180023ecc f i libucrt:output.obj
 0001:00022fd8       ?write_string@?$string_output_adapter@_W@__crt_stdio_output@@QEBAXQEB_WHQEAH1@Z 0000000180023fd8 f i libucrt:output.obj
 0001:00023098       __stdio_common_vfwprintf   0000000180024098 f   libucrt:output.obj
 0001:00023124       __stdio_common_vswprintf   0000000180024124 f   libucrt:output.obj
 0001:0002335c       ??$is_overflow_condition@K@__crt_strtox@@YA_NIK@Z 000000018002435c f i libucrt:atox.obj
 0001:00023388       ??$parse_integer@KV?$c_string_character_source@_W@__crt_strtox@@@__crt_strtox@@YAKQEAU__crt_locale_pointers@@V?$c_string_character_source@_W@0@H_N@Z 0000000180024388 f i libucrt:atox.obj
 0001:00023a5c       ??$?RV<lambda_46352004c1216016012b18bd6f87e700>@@AEAV<lambda_3bd07e1a1191394380780325891bf33f>@@V<lambda_334532d3f185bcaa59b5be82d7d22bff>@@@?$__crt_seh_guarded_call@X@@QEAAX$$QEAV<lambda_46352004c1216016012b18bd6f87e700>@@AEAV<lambda_3bd07e1a1191394380780325891bf33f>@@$$QEAV<lambda_334532d3f185bcaa59b5be82d7d22bff>@@@Z 0000000180024a5c f i libucrt:per_thread_data.obj
 0001:00023abc       ??$?RV<lambda_5e887d1dcbef67a5eb4283622ba103bf>@@AEAV<lambda_4466841279450cc726390878d4a41900>@@V<lambda_341c25c0346d94847f1f3c463c57e077>@@@?$__crt_seh_guarded_call@X@@QEAAX$$QEAV<lambda_5e887d1dcbef67a5eb4283622ba103bf>@@AEAV<lambda_4466841279450cc726390878d4a41900>@@$$QEAV<lambda_341c25c0346d94847f1f3c463c57e077>@@@Z 0000000180024abc f i libucrt:per_thread_data.obj
 0001:00023b04       ??$?RV<lambda_72d1df2b273a38828b1ce30cbf4cdab5>@@AEAV<lambda_876a65b173b8412d3a47c70a915b0cf4>@@V<lambda_41932305e351933ebe8f8be3ed8bb5dc>@@@?$__crt_seh_guarded_call@X@@QEAAX$$QEAV<lambda_72d1df2b273a38828b1ce30cbf4cdab5>@@AEAV<lambda_876a65b173b8412d3a47c70a915b0cf4>@@$$QEAV<lambda_41932305e351933ebe8f8be3ed8bb5dc>@@@Z 0000000180024b04 f i libucrt:per_thread_data.obj
 0001:00023b44       ??$?RV<lambda_fb3a7dec4e47f37f22dae91bb15c9095>@@AEAV<lambda_698284760c8add0bfb0756c19673e34b>@@V<lambda_dfb8eca1e75fef3034a8fb18dd509707>@@@?$__crt_seh_guarded_call@X@@QEAAX$$QEAV<lambda_fb3a7dec4e47f37f22dae91bb15c9095>@@AEAV<lambda_698284760c8add0bfb0756c19673e34b>@@$$QEAV<lambda_dfb8eca1e75fef3034a8fb18dd509707>@@@Z 0000000180024b44 f i libucrt:per_thread_data.obj
 0001:00023dd4       __acrt_freeptd             0000000180024dd4 f   libucrt:per_thread_data.obj
 0001:00023e18       __acrt_getptd              0000000180024e18 f   libucrt:per_thread_data.obj
 0001:00023eac       __acrt_getptd_noexit       0000000180024eac f   libucrt:per_thread_data.obj
 0001:00023f4c       __acrt_initialize_ptd      0000000180024f4c f   libucrt:per_thread_data.obj
 0001:00023f88       __acrt_uninitialize_ptd    0000000180024f88 f   libucrt:per_thread_data.obj
 0001:00023fac       _query_app_type            0000000180024fac f   libucrt:report_runtime_error.obj
 0001:00023fb4       __acrt_errno_from_os_error 0000000180024fb4 f   libucrt:errno.obj
 0001:00023ffc       __acrt_errno_map_os_error  0000000180024ffc f   libucrt:errno.obj
 0001:0002404c       __doserrno                 000000018002504c f   libucrt:errno.obj
 0001:0002406c       _errno                     000000018002506c f   libucrt:errno.obj
 0001:000241b4       _itow_s                    00000001800251b4 f   libucrt:xtoa.obj
 0001:000241d4       _set_error_mode            00000001800251d4 f   libucrt:set_error_mode.obj
 0001:00024214       wcscat_s                   0000000180025214 f   libucrt:wcscat_s.obj
 0001:00024294       wcscpy_s                   0000000180025294 f   libucrt:wcscpy_s.obj
 0001:000242fc       wcsncat_s                  00000001800252fc f   libucrt:wcsncat_s.obj
 0001:00024424       __acrt_show_wide_message_box 0000000180025424 f   libucrt:crtmbox.obj
 0001:00024540       __acrt_initialize_stdio    0000000180025540 f   libucrt:_file.obj
 0001:00024660       __acrt_iob_func            0000000180025660 f   libucrt:_file.obj
 0001:00024674       __acrt_uninitialize_stdio  0000000180025674 f   libucrt:_file.obj
 0001:000246d0       _lock_file                 00000001800256d0 f   libucrt:_file.obj
 0001:000246dc       _unlock_file               00000001800256dc f   libucrt:_file.obj
 0001:000246e8       __acrt_stdio_flush_nolock  00000001800256e8 f   libucrt:fflush.obj
 0001:00024760       _fflush_nolock             0000000180025760 f   libucrt:fflush.obj
 0001:000247ac       _flushall                  00000001800257ac f   libucrt:fflush.obj
 0001:0002489c       fflush                     000000018002589c f   libucrt:fflush.obj
 0001:000248e0       ??$?RV<lambda_7a5ef57ff966f610505f1d28a3d40618>@@AEAV<lambda_b721fa326cdb32351d23dfa67958c160>@@V<lambda_5e0fb27672408a07956fe59e48ccb2aa>@@@?$__crt_seh_guarded_call@H@@QEAAH$$QEAV<lambda_7a5ef57ff966f610505f1d28a3d40618>@@AEAV<lambda_b721fa326cdb32351d23dfa67958c160>@@$$QEAV<lambda_5e0fb27672408a07956fe59e48ccb2aa>@@@Z 00000001800258e0 f i libucrt:setvbuf.obj
 0001:00024a10       setvbuf                    0000000180025a10 f   libucrt:setvbuf.obj
 0001:00024ab0       ??$?RV<lambda_c36588078e9f5dfd39652860aa6b3aaf>@@AEAV<lambda_ec61778202f4f5fc7e7711acc23c3bca>@@V<lambda_dc9d2797ccde5d239b4a0efae8ebd7db>@@@?$__crt_seh_guarded_call@P6AXH@Z@@QEAAP6AXH@Z$$QEAV<lambda_c36588078e9f5dfd39652860aa6b3aaf>@@AEAV<lambda_ec61778202f4f5fc7e7711acc23c3bca>@@$$QEAV<lambda_dc9d2797ccde5d239b4a0efae8ebd7db>@@@Z 0000000180025ab0 f i libucrt:signal.obj
 0001:00024af8       __acrt_get_sigabrt_handler 0000000180025af8 f   libucrt:signal.obj
 0001:00024b28       __acrt_initialize_signal_handlers 0000000180025b28 f   libucrt:signal.obj
 0001:00024b48       raise                      0000000180025b48 f   libucrt:signal.obj
 0001:00024e34       _tolower_l                 0000000180025e34 f   libucrt:tolower_toupper.obj
 0001:00024f74       tolower                    0000000180025f74 f   libucrt:tolower_toupper.obj
 0001:00024fa0       __acrt_update_locale_info  0000000180025fa0 f   libucrt:locale_update.obj
 0001:00024fd4       __acrt_update_multibyte_info 0000000180025fd4 f   libucrt:locale_update.obj
 0001:00025008       __acrt_set_locale_changed  0000000180026008 f   libucrt:wsetlocale.obj
 0001:00025014       __acrt_uninitialize_locale 0000000180026014 f   libucrt:wsetlocale.obj
 0001:0002505c       __acrt_initialize_locks    000000018002605c f   libucrt:locks.obj
 0001:000250a4       __acrt_lock                00000001800260a4 f   libucrt:locks.obj
 0001:000250c0       __acrt_uninitialize_locks  00000001800260c0 f   libucrt:locks.obj
 0001:000250f8       __acrt_unlock              00000001800260f8 f   libucrt:locks.obj
 0001:000252b4       __acrt_FlsAlloc            00000001800262b4 f   libucrt:winapi_thunks.obj
 0001:0002530c       __acrt_FlsFree             000000018002630c f   libucrt:winapi_thunks.obj
 0001:00025364       __acrt_FlsGetValue         0000000180026364 f   libucrt:winapi_thunks.obj
 0001:000253bc       __acrt_FlsSetValue         00000001800263bc f   libucrt:winapi_thunks.obj
 0001:00025424       __acrt_InitializeCriticalSectionEx 0000000180026424 f   libucrt:winapi_thunks.obj
 0001:0002549c       __acrt_LCMapStringEx       000000018002649c f   libucrt:winapi_thunks.obj
 0001:0002558c       __acrt_LocaleNameToLCID    000000018002658c f   libucrt:winapi_thunks.obj
 0001:000255f4       __acrt_MessageBoxW         00000001800265f4 f   libucrt:winapi_thunks.obj
 0001:0002567c       __acrt_can_show_message_box 000000018002667c f   libucrt:winapi_thunks.obj
 0001:000256d8       __acrt_get_parent_window   00000001800266d8 f   libucrt:winapi_thunks.obj
 0001:00025768       __acrt_initialize_winapi_thunks 0000000180026768 f   libucrt:winapi_thunks.obj
 0001:000257a0       __acrt_is_interactive      00000001800267a0 f   libucrt:winapi_thunks.obj
 0001:00025874       __acrt_is_packaged_app     0000000180026874 f   libucrt:winapi_thunks.obj
 0001:000258fc       __acrt_uninitialize_winapi_thunks 00000001800268fc f   libucrt:winapi_thunks.obj
 0001:00025e1c       ?expand_if_necessary@?$argument_list@D@?A0xca0879c4@@AEAAHXZ 0000000180026e1c f i libucrt:argv_wildcards.obj
 0001:00025ee4       __acrt_expand_narrow_argv_wildcards 0000000180026ee4 f   libucrt:argv_wildcards.obj
 0001:00025eec       ??$?RV<lambda_99476a1ad63dd22509b5d3e65b0ffc95>@@AEAV<lambda_ad1ced32f4ac17aa236e5ef05d6b3b7c>@@V<lambda_f7424dd8d45958661754dc4f2697e9c3>@@@?$__crt_seh_guarded_call@X@@QEAAX$$QEAV<lambda_99476a1ad63dd22509b5d3e65b0ffc95>@@AEAV<lambda_ad1ced32f4ac17aa236e5ef05d6b3b7c>@@$$QEAV<lambda_f7424dd8d45958661754dc4f2697e9c3>@@@Z 0000000180026eec f i libucrt:mbctype.obj
 0001:000265e8       __acrt_initialize_multibyte 00000001800275e8 f   libucrt:mbctype.obj
 0001:00026610       __acrt_update_thread_multibyte_data 0000000180027610 f   libucrt:mbctype.obj
 0001:000266d0       _setmbcp_nolock            00000001800276d0 f   libucrt:mbctype.obj
 0001:000269f0       _ismbblead                 00000001800279f0 f   libucrt:ismbbyte.obj
 0001:00026a04       __acrt_initialize_command_line 0000000180027a04 f   libucrt:argv_data.obj
 0001:00026a2c       __dcrt_get_narrow_environment_from_os 0000000180027a2c f   libucrt:get_environment_from_os.obj
 0001:00026b30       _recalloc                  0000000180027b30 f   libucrt:recalloc.obj
 0001:00026b38       _recalloc_base             0000000180027b38 f   libucrt:recalloc.obj
 0001:00026bd0       __acrt_initialize_heap     0000000180027bd0 f   libucrt:heap_handle.obj
 0001:00026bec       __acrt_uninitialize_heap   0000000180027bec f   libucrt:heap_handle.obj
 0001:00026de0       __acrt_initialize_lowio    0000000180027de0 f   libucrt:ioinit.obj
 0001:00026e1c       __acrt_uninitialize_lowio  0000000180027e1c f   libucrt:ioinit.obj
 0001:00026e5c       __acrt_execute_initializers 0000000180027e5c f   libucrt:shared_initialization.obj
 0001:00026ef0       __acrt_execute_uninitializers 0000000180027ef0 f   libucrt:shared_initialization.obj
 0001:00026f40       __acrt_has_user_matherr    0000000180027f40 f   libucrt:matherr.obj
 0001:00026f60       __acrt_initialize_user_matherr 0000000180027f60 f   libucrt:matherr.obj
 0001:00026f68       __acrt_invoke_user_matherr 0000000180027f68 f   libucrt:matherr.obj
 0001:00026fb0       __acrt_stdio_begin_temporary_buffering_nolock 0000000180027fb0 f   libucrt:_sftbuf.obj
 0001:00027080       __acrt_stdio_end_temporary_buffering_nolock 0000000180028080 f   libucrt:_sftbuf.obj
 0001:000270bc       _query_new_mode            00000001800280bc f   libucrt:new_mode.obj
 0001:000270c4       isdigit                    00000001800280c4 f i libucrt:_ctype.obj
 0001:00027138       ??$make_c_string_character_source@_WPEAPEA_W@__crt_strtox@@YA?AV?$c_string_character_source@_W@0@QEB_WQEAPEA_W@Z 0000000180028138 f i libucrt:strtox.obj
 0001:0002714c       wcstol                     000000018002814c f   libucrt:strtox.obj
 0001:0002717c       _mbtowc_l                  000000018002817c f   libucrt:mbtowc.obj
 0001:000272c4       mbtowc                     00000001800282c4 f   libucrt:mbtowc.obj
 0001:000272cc       _wctomb_s_l                00000001800282cc f   libucrt:wctomb.obj
 0001:00027450       wctomb_s                   0000000180028450 f   libucrt:wctomb.obj
 0001:00027464       wcsnlen                    0000000180028464 f   libucrt:strnlen.obj
 0001:00027654       ?__acrt_fp_classify@@YA?AW4__acrt_fp_class@@AEBN@Z 0000000180028654 f i libucrt:cvt.obj
 0001:0002808c       __acrt_fp_format           000000018002908c f   libucrt:cvt.obj
 0001:000282d0       _fputwc_nolock             00000001800292d0 f   libucrt:fputwc.obj
 0001:0002844c       _fileno                    000000018002944c f   libucrt:fileno.obj
 0001:00028474       _fputc_nolock              0000000180029474 f   libucrt:fputc.obj
 0001:0002848c       _get_printf_count_output   000000018002948c f   libucrt:printf_count_output.obj
 0001:000284a4       __pctype_func              00000001800294a4 f   libucrt:ctype.obj
 0001:000284d4       iswctype                   00000001800294d4 f   libucrt:iswctype.obj
 0001:00028544       _isctype_l                 0000000180029544 f   libucrt:isctype.obj
 0001:00028654       __acrt_add_locale_ref      0000000180029654 f   libucrt:locale_refcounting.obj
 0001:000286e0       __acrt_free_locale         00000001800296e0 f   libucrt:locale_refcounting.obj
 0001:00028858       __acrt_locale_add_lc_time_reference 0000000180029858 f   libucrt:locale_refcounting.obj
 0001:00028880       __acrt_locale_free_lc_time_if_unreferenced 0000000180029880 f   libucrt:locale_refcounting.obj
 0001:000288b8       __acrt_locale_release_lc_time_reference 00000001800298b8 f   libucrt:locale_refcounting.obj
 0001:000288e0       __acrt_release_locale_ref  00000001800298e0 f   libucrt:locale_refcounting.obj
 0001:00028988       __acrt_update_thread_locale_data 0000000180029988 f   libucrt:locale_refcounting.obj
 0001:000289f8       _updatetlocinfoEx_nolock   00000001800299f8 f   libucrt:locale_refcounting.obj
 0001:00028a60       _fcloseall                 0000000180029a60 f   libucrt:closeall.obj
 0001:00028b14       __acrt_stdio_free_buffer_nolock 0000000180029b14 f   libucrt:_freebuf.obj
 0001:00028b54       ??$?RV<lambda_b521505b218e5242e90febf6bfebc422>@@AEAV<lambda_6978c1fb23f02e42e1d9e99668cc68aa>@@V<lambda_314360699dd331753a4119843814e9a7>@@@?$__crt_seh_guarded_call@H@@QEAAH$$QEAV<lambda_b521505b218e5242e90febf6bfebc422>@@AEAV<lambda_6978c1fb23f02e42e1d9e99668cc68aa>@@$$QEAV<lambda_314360699dd331753a4119843814e9a7>@@@Z 0000000180029b54 f i libucrt:commit.obj
 0001:00028be0       _commit                    0000000180029be0 f   libucrt:commit.obj
 0001:00029214       _write                     000000018002a214 f   libucrt:write.obj
 0001:00029300       _write_nolock              000000018002a300 f   libucrt:write.obj
 0001:000295e4       _isleadbyte_l              000000018002a5e4 f i libucrt:_wctype.obj
 0001:00029980       __acrt_LCMapStringA        000000018002a980 f   libucrt:lcmapstringa.obj
 0001:00029a18       __acrt_locale_free_monetary 000000018002aa18 f   libucrt:initmon.obj
 0001:00029b24       __acrt_locale_free_numeric 000000018002ab24 f   libucrt:initnum.obj
 0001:00029be8       __acrt_locale_free_time    000000018002abe8 f   libucrt:inittime.obj
 0001:00029cf0       __acrt_GetStringTypeA      000000018002acf0 f   libucrt:getstringtypea.obj
 0001:00029f6c       __acrt_DownlevelLocaleNameToLCID 000000018002af6c f   libucrt:lcidtoname_downlevel.obj
 0001:0002a070       qsort                      000000018002b070 f   libucrt:qsort.obj
 0001:0002a3a4       strncpy_s                  000000018002b3a4 f   libucrt:strncpy_s.obj
 0001:0002a478       strpbrk                    000000018002b478 f   libucrt:strpbrk.obj
 0001:0002a518       _mbsdec                    000000018002b518 f   libucrt:mbsdec.obj
 0001:0002a520       _mbsdec_l                  000000018002b520 f   libucrt:mbsdec.obj
 0001:0002a5d0       _msize                     000000018002b5d0 f   libucrt:msize.obj
 0001:0002a60c       _realloc_base              000000018002b60c f   libucrt:realloc_base.obj
 0001:0002a690       __acrt_lowio_create_handle_array 000000018002b690 f   libucrt:osfinfo.obj
 0001:0002a728       __acrt_lowio_destroy_handle_array 000000018002b728 f   libucrt:osfinfo.obj
 0001:0002a778       __acrt_lowio_ensure_fh_exists 000000018002b778 f   libucrt:osfinfo.obj
 0001:0002a830       __acrt_lowio_lock_fh       000000018002b830 f   libucrt:osfinfo.obj
 0001:0002a854       __acrt_lowio_unlock_fh     000000018002b854 f   libucrt:osfinfo.obj
 0001:0002a878       _free_osfhnd               000000018002b878 f   libucrt:osfinfo.obj
 0001:0002a934       _get_osfhandle             000000018002b934 f   libucrt:osfinfo.obj
 0001:0002a9ac       _isatty                    000000018002b9ac f   libucrt:isatty.obj
 0001:0002aa0c       __acrt_fp_strflt_to_string 000000018002ba0c f   libucrt:_fptostr.obj
 0001:0002aad0       ?divide@__crt_strtox@@YA_KAEAUbig_integer@1@AEBU21@@Z 000000018002bad0 f i libucrt:cfout.obj
 0001:0002afa0       __acrt_fltout              000000018002bfa0 f   libucrt:cfout.obj
 0001:0002c5a4       __acrt_stdio_flush_and_write_narrow_nolock 000000018002d5a4 f   libucrt:_flsbuf.obj
 0001:0002c68c       __acrt_stdio_flush_and_write_wide_nolock 000000018002d68c f   libucrt:_flsbuf.obj
 0001:0002c778       _fclose_nolock             000000018002d778 f   libucrt:fclose.obj
 0001:0002c7fc       fclose                     000000018002d7fc f   libucrt:fclose.obj
 0001:0002c9f4       _lseeki64                  000000018002d9f4 f   libucrt:lseek.obj
 0001:0002c9fc       _lseeki64_nolock           000000018002d9fc f   libucrt:lseek.obj
 0001:0002ca04       _putwch_nolock             000000018002da04 f   libucrt:putwch.obj
 0001:0002ca60       __strncnt                  000000018002da60 f   libucrt:strncnt.obj
 0001:0002ca78       fegetenv                   000000018002da78 f   libucrt:fegetenv.obj
 0001:0002ca98       fesetenv                   000000018002da98 f   libucrt:fesetenv.obj
 0001:0002cae4       feholdexcept               000000018002dae4 f   libucrt:feholdexcept.obj
 0001:0002cb34       ceil                       000000018002db34 f   libucrt:ceil.obj
 0001:0002cc00       log10                      000000018002dc00 f   libucrt:log10.obj
 0001:0002d1ac       __acrt_stdio_allocate_buffer_nolock 000000018002e1ac f   libucrt:_getbuf.obj
 0001:0002d210       ??$?RV<lambda_bfedae4ebbf01fab1bb6dcc6a9e276e0>@@AEAV<lambda_2fe9b910cf3cbf4a0ab98a02ba45b3ec>@@V<lambda_237c231691f317818eb88cc1d5d642d6>@@@?$__crt_seh_guarded_call@H@@QEAAH$$QEAV<lambda_bfedae4ebbf01fab1bb6dcc6a9e276e0>@@AEAV<lambda_2fe9b910cf3cbf4a0ab98a02ba45b3ec>@@$$QEAV<lambda_237c231691f317818eb88cc1d5d642d6>@@@Z 000000018002e210 f i libucrt:close.obj
 0001:0002d284       _close                     000000018002e284 f   libucrt:close.obj
 0001:0002d328       _close_nolock              000000018002e328 f   libucrt:close.obj
 0001:0002d3e4       ?__acrt_stdio_free_stream@@YAXV__crt_stdio_stream@@@Z 000000018002e3e4 f   libucrt:stream.obj
 0001:0002d428       __dcrt_lowio_initialize_console_output 000000018002e428 f   libucrt:initcon.obj
 0001:0002d464       __dcrt_terminate_console_output 000000018002e464 f   libucrt:initcon.obj
 0001:0002d484       _getfpcontrolword          000000018002e484 f   libucrt:_fenvutils.obj
 0001:0002d49c       _getfpstatusword           000000018002e49c f   libucrt:_fenvutils.obj
 0001:0002d4b0       _setfpcontrolword          000000018002e4b0 f   libucrt:_fenvutils.obj
 0001:0002d4bc       _setfpstatusword           000000018002e4bc f   libucrt:_fenvutils.obj
 0001:0002d50c       _clearfp                   000000018002e50c f   libucrt:ieee.obj
 0001:0002d560       _controlfp                 000000018002e560 f   libucrt:ieee.obj
 0001:0002d56c       _statusfp                  000000018002e56c f   libucrt:ieee.obj
 0001:0002d970       _handle_error              000000018002e970 f   libucrt:libm_error.obj
 0001:0002da98       _handle_nan                000000018002ea98 f   libucrt:libm_error.obj
 0001:0002dac0       __acrt_initialize_fma3     000000018002eac0 f   libucrt:fma3_available.obj
 0001:0002db30       _log10_special             000000018002eb30 f   libucrt:log_special.obj
 0001:0002dc00       _get_fpsr                  000000018002ec00 f   libucrt:fpsr.obj
 0001:0002dc10       _set_fpsr                  000000018002ec10 f   libucrt:fpsr.obj
 0001:0002dc1a       _fclrf                     000000018002ec1a f   libucrt:fpsr.obj
 0001:0002dc2e       _frnd                      000000018002ec2e f   libucrt:fpsr.obj
 0001:0002dc50       _raise_exc                 000000018002ec50 f   libucrt:fpexcept.obj
 0001:0002dc78       _raise_exc_ex              000000018002ec78 f   libucrt:fpexcept.obj
 0001:0002df80       _set_errno_from_matherr    000000018002ef80 f   libucrt:fpexcept.obj
 0001:0002dfb0       _clrfp                     000000018002efb0 f   libucrt:fpctrl.obj
 0001:0002dfd0       _ctrlfp                    000000018002efd0 f   libucrt:fpctrl.obj
 0001:0002e04c       _set_statfp                000000018002f04c f   libucrt:fpctrl.obj
 0001:0002e06c       _statfp                    000000018002f06c f   libucrt:fpctrl.obj
 0001:0002e07e       IsProcessorFeaturePresent  000000018002f07e f   kernel32:KERNEL32.dll
 0001:0002e084       RtlUnwindEx                000000018002f084 f   kernel32:KERNEL32.dll
 0001:0002e08c       ?DloadAcquireSectionWriteAccess@@YAXXZ 000000018002f08c f i DelayImp:delayhlp.obj
 0001:0002e148       ?DloadGetSRWLockFunctionPointers@@YAEXZ 000000018002f148 f i DelayImp:delayhlp.obj
 0001:0002e1e4       ?DloadMakePermanentImageCommit@@YAXPEAX_K@Z 000000018002f1e4 f i DelayImp:delayhlp.obj
 0001:0002e27c       ?DloadObtainSection@@YAPEAXPEAK0@Z 000000018002f27c f i DelayImp:delayhlp.obj
 0001:0002e314       ?DloadProtectSection@@YAXKPEAK@Z 000000018002f314 f i DelayImp:delayhlp.obj
 0001:0002e3a4       ?DloadReleaseSectionWriteAccess@@YAXXZ 000000018002f3a4 f i DelayImp:delayhlp.obj
 0001:0002e448       __delayLoadHelper2         000000018002f448 f   DelayImp:delayhlp.obj
 0001:0002e750       _FindPESection             000000018002f750 f   LIBCMT:pesect.obj
 0001:0002e7a0       _IsNonwritableInCurrentImage 000000018002f7a0 f   LIBCMT:pesect.obj
 0001:0002e7f0       _ValidateImageBase         000000018002f7f0 f   LIBCMT:pesect.obj
 0001:0002e820       __GSHandlerCheck           000000018002f820 f   LIBCMT:_gshandler_.obj
 0001:0002e840       __GSHandlerCheckCommon     000000018002f840 f   LIBCMT:_gshandler_.obj
 0001:0002e8b0       _alloca_probe              000000018002f8b0 f   LIBCMT:_chkstk_.obj
 0001:0002e8b0       __chkstk                   000000018002f8b0 f   LIBCMT:_chkstk_.obj
 0001:0002e920       memcmp                     000000018002f920 f   libvcruntime:memcmp.obj
 0001:0002e9e8       strrchr                    000000018002f9e8 f   libvcruntime:strrchr.obj
 0001:0002eb28       __GSHandlerCheck_EH        000000018002fb28 f   LIBCMT:gshandlereh.obj
 0001:0002ebc0       _guard_dispatch_icall_nop  000000018002fbc0 f   LIBCMT:_guard_dispatch_.obj
 0001:00031250       ??__Fmy_constructor@?1??constructor@WKey@@KAAEAV?$Persistent@VFunction@v8@@V?$NonCopyablePersistentTraits@VFunction@v8@@@2@@Nan@@XZ@YAXXZ 0000000180032250 f i w_key.obj
 0001:00031270       ??__Fmy_constructor@?1??constructor@WAes@@KAAEAV?$Persistent@VFunction@v8@@V?$NonCopyablePersistentTraits@VFunction@v8@@@2@@Nan@@XZ@YAXXZ 0000000180032270 f i w_aes.obj
 0001:00031290       ??__Fmy_constructor@?1??constructor@WHmac@@KAAEAV?$Persistent@VFunction@v8@@V?$NonCopyablePersistentTraits@VFunction@v8@@@2@@Nan@@XZ@YAXXZ 0000000180032290 f i w_hmac.obj
 0001:000312b0       ??__Fmy_constructor@?1??constructor@WPbkdf2@@KAAEAV?$Persistent@VFunction@v8@@V?$NonCopyablePersistentTraits@VFunction@v8@@@2@@Nan@@XZ@YAXXZ 00000001800322b0 f i w_pbkdf2.obj
 0001:000312d0       ??__Fmy_constructor@?1??constructor@WCore@@KAAEAV?$Persistent@VFunction@v8@@V?$NonCopyablePersistentTraits@VFunction@v8@@@2@@Nan@@XZ@YAXXZ 00000001800322d0 f i w_core.obj
 0002:00000000       __imp_GetModuleHandleA     0000000180033000     kernel32:KERNEL32.dll
 0002:00000008       __imp_CloseHandle          0000000180033008     kernel32:KERNEL32.dll
 0002:00000010       __imp_EnterCriticalSection 0000000180033010     kernel32:KERNEL32.dll
 0002:00000018       __imp_LeaveCriticalSection 0000000180033018     kernel32:KERNEL32.dll
 0002:00000020       __imp_DeleteCriticalSection 0000000180033020     kernel32:KERNEL32.dll
 0002:00000028       __imp_SetEvent             0000000180033028     kernel32:KERNEL32.dll
 0002:00000030       __imp_ResetEvent           0000000180033030     kernel32:KERNEL32.dll
 0002:00000038       __imp_WaitForSingleObjectEx 0000000180033038     kernel32:KERNEL32.dll
 0002:00000040       __imp_CreateEventW         0000000180033040     kernel32:KERNEL32.dll
 0002:00000048       __imp_GetModuleHandleW     0000000180033048     kernel32:KERNEL32.dll
 0002:00000050       __imp_GetProcAddress       0000000180033050     kernel32:KERNEL32.dll
 0002:00000058       __imp_RtlCaptureContext    0000000180033058     kernel32:KERNEL32.dll
 0002:00000060       __imp_RtlLookupFunctionEntry 0000000180033060     kernel32:KERNEL32.dll
 0002:00000068       __imp_RtlVirtualUnwind     0000000180033068     kernel32:KERNEL32.dll
 0002:00000070       __imp_UnhandledExceptionFilter 0000000180033070     kernel32:KERNEL32.dll
 0002:00000078       __imp_SetUnhandledExceptionFilter 0000000180033078     kernel32:KERNEL32.dll
 0002:00000080       __imp_GetCurrentProcess    0000000180033080     kernel32:KERNEL32.dll
 0002:00000088       __imp_TerminateProcess     0000000180033088     kernel32:KERNEL32.dll
 0002:00000090       __imp_IsProcessorFeaturePresent 0000000180033090     kernel32:KERNEL32.dll
 0002:00000098       __imp_IsDebuggerPresent    0000000180033098     kernel32:KERNEL32.dll
 0002:000000a0       __imp_GetStartupInfoW      00000001800330a0     kernel32:KERNEL32.dll
 0002:000000a8       __imp_QueryPerformanceCounter 00000001800330a8     kernel32:KERNEL32.dll
 0002:000000b0       __imp_GetCurrentProcessId  00000001800330b0     kernel32:KERNEL32.dll
 0002:000000b8       __imp_GetCurrentThreadId   00000001800330b8     kernel32:KERNEL32.dll
 0002:000000c0       __imp_GetSystemTimeAsFileTime 00000001800330c0     kernel32:KERNEL32.dll
 0002:000000c8       __imp_InitializeSListHead  00000001800330c8     kernel32:KERNEL32.dll
 0002:000000d0       __imp_RtlPcToFileHeader    00000001800330d0     kernel32:KERNEL32.dll
 0002:000000d8       __imp_EncodePointer        00000001800330d8     kernel32:KERNEL32.dll
 0002:000000e0       __imp_RaiseException       00000001800330e0     kernel32:KERNEL32.dll
 0002:000000e8       __imp_GetLastError         00000001800330e8     kernel32:KERNEL32.dll
 0002:000000f0       __imp_InitializeCriticalSectionAndSpinCount 00000001800330f0     kernel32:KERNEL32.dll
 0002:000000f8       __imp_TlsAlloc             00000001800330f8     kernel32:KERNEL32.dll
 0002:00000100       __imp_TlsGetValue          0000000180033100     kernel32:KERNEL32.dll
 0002:00000108       __imp_TlsSetValue          0000000180033108     kernel32:KERNEL32.dll
 0002:00000110       __imp_TlsFree              0000000180033110     kernel32:KERNEL32.dll
 0002:00000118       __imp_FreeLibrary          0000000180033118     kernel32:KERNEL32.dll
 0002:00000120       __imp_LoadLibraryExW       0000000180033120     kernel32:KERNEL32.dll
 0002:00000128       __imp_RtlUnwindEx          0000000180033128     kernel32:KERNEL32.dll
 0002:00000130       __imp_InterlockedFlushSList 0000000180033130     kernel32:KERNEL32.dll
 0002:00000138       __imp_SetLastError         0000000180033138     kernel32:KERNEL32.dll
 0002:00000140       __imp_GetStdHandle         0000000180033140     kernel32:KERNEL32.dll
 0002:00000148       __imp_GetFileType          0000000180033148     kernel32:KERNEL32.dll
 0002:00000150       __imp_GetModuleFileNameA   0000000180033150     kernel32:KERNEL32.dll
 0002:00000158       __imp_GetModuleFileNameW   0000000180033158     kernel32:KERNEL32.dll
 0002:00000160       __imp_GetModuleHandleExW   0000000180033160     kernel32:KERNEL32.dll
 0002:00000168       __imp_WriteConsoleW        0000000180033168     kernel32:KERNEL32.dll
 0002:00000170       __imp_ExitProcess          0000000180033170     kernel32:KERNEL32.dll
 0002:00000178       __imp_MultiByteToWideChar  0000000180033178     kernel32:KERNEL32.dll
 0002:00000180       __imp_WideCharToMultiByte  0000000180033180     kernel32:KERNEL32.dll
 0002:00000188       __imp_HeapFree             0000000180033188     kernel32:KERNEL32.dll
 0002:00000190       __imp_HeapAlloc            0000000180033190     kernel32:KERNEL32.dll
 0002:00000198       __imp_WriteFile            0000000180033198     kernel32:KERNEL32.dll
 0002:000001a0       __imp_OutputDebugStringW   00000001800331a0     kernel32:KERNEL32.dll
 0002:000001a8       __imp_CreateThread         00000001800331a8     kernel32:KERNEL32.dll
 0002:000001b0       __imp_GetACP               00000001800331b0     kernel32:KERNEL32.dll
 0002:000001b8       __imp_LCMapStringW         00000001800331b8     kernel32:KERNEL32.dll
 0002:000001c0       __imp_FindClose            00000001800331c0     kernel32:KERNEL32.dll
 0002:000001c8       __imp_FindFirstFileExA     00000001800331c8     kernel32:KERNEL32.dll
 0002:000001d0       __imp_FindNextFileA        00000001800331d0     kernel32:KERNEL32.dll
 0002:000001d8       __imp_IsValidCodePage      00000001800331d8     kernel32:KERNEL32.dll
 0002:000001e0       __imp_GetOEMCP             00000001800331e0     kernel32:KERNEL32.dll
 0002:000001e8       __imp_GetCPInfo            00000001800331e8     kernel32:KERNEL32.dll
 0002:000001f0       __imp_GetCommandLineA      00000001800331f0     kernel32:KERNEL32.dll
 0002:000001f8       __imp_GetCommandLineW      00000001800331f8     kernel32:KERNEL32.dll
 0002:00000200       __imp_GetEnvironmentStringsW 0000000180033200     kernel32:KERNEL32.dll
 0002:00000208       __imp_FreeEnvironmentStringsW 0000000180033208     kernel32:KERNEL32.dll
 0002:00000210       __imp_GetProcessHeap       0000000180033210     kernel32:KERNEL32.dll
 0002:00000218       __imp_GetStringTypeW       0000000180033218     kernel32:KERNEL32.dll
 0002:00000220       __imp_FlushFileBuffers     0000000180033220     kernel32:KERNEL32.dll
 0002:00000228       __imp_GetConsoleCP         0000000180033228     kernel32:KERNEL32.dll
 0002:00000230       __imp_GetConsoleMode       0000000180033230     kernel32:KERNEL32.dll
 0002:00000238       __imp_HeapSize             0000000180033238     kernel32:KERNEL32.dll
 0002:00000240       __imp_HeapReAlloc          0000000180033240     kernel32:KERNEL32.dll
 0002:00000248       __imp_SetStdHandle         0000000180033248     kernel32:KERNEL32.dll
 0002:00000250       __imp_SetFilePointerEx     0000000180033250     kernel32:KERNEL32.dll
 0002:00000258       __imp_CreateFileW          0000000180033258     kernel32:KERNEL32.dll
 0002:00000260       __imp_GetSystemInfo        0000000180033260     kernel32:KERNEL32.dll
 0002:00000268       __imp_VirtualProtect       0000000180033268     kernel32:KERNEL32.dll
 0002:00000270       __imp_VirtualQuery         0000000180033270     kernel32:KERNEL32.dll
 0002:00000278       __imp_LoadLibraryExA       0000000180033278     kernel32:KERNEL32.dll
 0002:00000280       \177KERNEL32_NULL_THUNK_DATA 0000000180033280     kernel32:KERNEL32.dll
 0002:00000288       __guard_check_icall_fptr   0000000180033288     LIBCMT:guard_support.obj
 0002:00000290       __guard_dispatch_icall_fptr 0000000180033290     LIBCMT:guard_support.obj
 0002:00000298       __xc_a                     0000000180033298     LIBCMT:initializers.obj
 0002:000002a0       _register_nodessl_         00000001800332a0     main.obj
 0002:000002a8       __xc_z                     00000001800332a8     LIBCMT:initializers.obj
 0002:000002b0       __xi_a                     00000001800332b0     LIBCMT:initializers.obj
 0002:000002c0       __acrt_stdio_initializer   00000001800332c0     libucrt:stdio_initializer.obj
 0002:000002c8       __acrt_multibyte_initializer 00000001800332c8     libucrt:multibyte_initializer.obj
 0002:000002d0       __acrt_tran_fma3_initializer 00000001800332d0     libucrt:fma3_initializer.obj
 0002:000002d8       __xi_z                     00000001800332d8     LIBCMT:initializers.obj
 0002:000002e0       __xl_a                     00000001800332e0     LIBCMT:tlssup.obj
 0002:000002e8       __xl_z                     00000001800332e8     LIBCMT:tlssup.obj
 0002:000002f0       __xp_a                     00000001800332f0     LIBCMT:initializers.obj
 0002:000002f8       __acrt_locale_terminator   00000001800332f8     libucrt:locale_initializer.obj
 0002:00000300       __dcrt_console_output_terminator 0000000180033300     libucrt:console_output_initializer.obj
 0002:00000308       __acrt_stdio_terminator    0000000180033308     libucrt:stdio_initializer.obj
 0002:00000310       __xp_z                     0000000180033310     LIBCMT:initializers.obj
 0002:00000318       __xt_a                     0000000180033318     LIBCMT:initializers.obj
 0002:00000320       __xt_z                     0000000180033320     LIBCMT:initializers.obj
 0002:00000330       __sz_node_exe              0000000180033330     node:node.exe
 0002:00000348       ??_7exception@std@@6B@     0000000180033348     libcpmt:xthrow.obj
 0002:00000358       ??_C@_0BC@EOODALEL@Unknown?5exception?$AA@ 0000000180033358     libcpmt:xthrow.obj
 0002:00000378       ??_7bad_alloc@std@@6B@     0000000180033378     libcpmt:xthrow.obj
 0002:00000388       ??_C@_0P@GHFPNOJB@bad?5allocation?$AA@ 0000000180033388     libcpmt:xthrow.obj
 0002:000003a0       ??_7logic_error@std@@6B@   00000001800333a0     libcpmt:xthrow.obj
 0002:000003b8       ??_7length_error@std@@6B@  00000001800333b8     libcpmt:xthrow.obj
 0002:000003d0       ??_7out_of_range@std@@6B@  00000001800333d0     libcpmt:xthrow.obj
 0002:000003e8       ??_7runtime_error@std@@6B@ 00000001800333e8     libcpmt:xthrow.obj
 0002:00000400       ??_7type_info@@6B@         0000000180033400     LIBCMT:std_type_info_static.obj
 0002:00000408       ??_C@_1BK@MGMFAEKH@?$AAk?$AAe?$AAr?$AAn?$AAe?$AAl?$AA3?$AA2?$AA?4?$AAd?$AAl?$AAl?$AA?$AA@ 0000000180033408     LIBCMT:thread_safe_statics.obj
 0002:00000428       ??_C@_0BM@HLJJNPAH@InitializeConditionVariable?$AA@ 0000000180033428     LIBCMT:thread_safe_statics.obj
 0002:00000448       ??_C@_0BJ@JEBJOJFJ@SleepConditionVariableCS?$AA@ 0000000180033448     LIBCMT:thread_safe_statics.obj
 0002:00000468       ??_C@_0BJ@PGPPEPCC@WakeAllConditionVariable?$AA@ 0000000180033468     LIBCMT:thread_safe_statics.obj
 0002:00000488       _pDefaultRawDllMain        0000000180033488     LIBCMT:dll_dllmain.obj
 0002:00000488       _pRawDllMain               0000000180033488     LIBCMT:dll_dllmain.obj
 0002:000004a8       ??_7bad_array_new_length@std@@6B@ 00000001800334a8     LIBCMT:throw_bad_alloc.obj
 0002:000004b8       ??_C@_0BF@KINCDENJ@bad?5array?5new?5length?$AA@ 00000001800334b8     LIBCMT:throw_bad_alloc.obj
 0002:000004d0       _pDestructExceptionObject  00000001800334d0     libvcruntime:frame.obj
 0002:000004e0       ??_7bad_exception@std@@6B@ 00000001800334e0     libvcruntime:frame.obj
 0002:000004f0       ??_C@_0O@DPKOEFFH@bad?5exception?$AA@ 00000001800334f0     libvcruntime:frame.obj
 0002:00000560       ??_C@_1BC@DNHGCMLG@?$AAa?$AAd?$AAv?$AAa?$AAp?$AAi?$AA3?$AA2?$AA?$AA@ 0000000180033560     libvcruntime:winapi_downlevel.obj
 0002:00000578       ??_C@_1DM@KHCHBNEB@?$AAa?$AAp?$AAi?$AA?9?$AAm?$AAs?$AA?9?$AAw?$AAi?$AAn?$AA?9?$AAc?$AAo?$AAr?$AAe?$AA?9?$AAf?$AAi?$AAb?$AAe?$AAr?$AAs?$AA?9?$AAl?$AA1?$AA?9?$AA1?$AA?9?$AA1?$AA?$AA@ 0000000180033578     libvcruntime:winapi_downlevel.obj
 0002:000005b8       ??_C@_1DK@LPPGFMPP@?$AAa?$AAp?$AAi?$AA?9?$AAm?$AAs?$AA?9?$AAw?$AAi?$AAn?$AA?9?$AAc?$AAo?$AAr?$AAe?$AA?9?$AAs?$AAy?$AAn?$AAc?$AAh?$AA?9?$AAl?$AA1?$AA?9?$AA2?$AA?9?$AA0?$AA?$AA@ 00000001800335b8     libvcruntime:winapi_downlevel.obj
 0002:000005f8       ??_C@_1BC@GDMECMAK@?$AAk?$AAe?$AAr?$AAn?$AAe?$AAl?$AA3?$AA2?$AA?$AA@ 00000001800335f8     libvcruntime:winapi_downlevel.obj
 0002:00000618       ??_C@_08KNHFBNJ@FlsAlloc?$AA@ 0000000180033618     libvcruntime:winapi_downlevel.obj
 0002:00000630       ??_C@_07PEJMOBNF@FlsFree?$AA@ 0000000180033630     libvcruntime:winapi_downlevel.obj
 0002:00000640       ??_C@_0M@GDNOONDI@FlsGetValue?$AA@ 0000000180033640     libvcruntime:winapi_downlevel.obj
 0002:00000658       ??_C@_0M@JCPCPOEF@FlsSetValue?$AA@ 0000000180033658     libvcruntime:winapi_downlevel.obj
 0002:00000670       ??_C@_0BM@HCFOFFN@InitializeCriticalSectionEx?$AA@ 0000000180033670     libvcruntime:winapi_downlevel.obj
 0002:00000a50       ??_C@_08EHJDFFNH@__based?$CI?$AA@ 0000000180033a50     libvcruntime:undname.obj
 0002:00000a60       ??_C@_07KOLFKCDI@__cdecl?$AA@ 0000000180033a60     libvcruntime:undname.obj
 0002:00000a68       ??_C@_08GHMPAG@__pascal?$AA@ 0000000180033a68     libvcruntime:undname.obj
 0002:00000a78       ??_C@_09IFJBGAPI@__stdcall?$AA@ 0000000180033a78     libvcruntime:undname.obj
 0002:00000a88       ??_C@_0L@NPHFGOKO@__thiscall?$AA@ 0000000180033a88     libvcruntime:undname.obj
 0002:00000a98       ??_C@_0L@JMKHOMEK@__fastcall?$AA@ 0000000180033a98     libvcruntime:undname.obj
 0002:00000aa8       ??_C@_0N@BCKKPABJ@__vectorcall?$AA@ 0000000180033aa8     libvcruntime:undname.obj
 0002:00000ab8       ??_C@_09HIJEGCPM@__clrcall?$AA@ 0000000180033ab8     libvcruntime:undname.obj
 0002:00000ac4       ??_C@_06GHPCKEAG@__eabi?$AA@ 0000000180033ac4     libvcruntime:undname.obj
 0002:00000ad0       ??_C@_07JOMMBBKO@__ptr64?$AA@ 0000000180033ad0     libvcruntime:undname.obj
 0002:00000ad8       ??_C@_0L@PILCLIHE@__restrict?$AA@ 0000000180033ad8     libvcruntime:undname.obj
 0002:00000ae8       ??_C@_0M@GFIIJFMG@__unaligned?$AA@ 0000000180033ae8     libvcruntime:undname.obj
 0002:00000af8       ??_C@_09DHDLOLLB@restrict?$CI?$AA@ 0000000180033af8     libvcruntime:undname.obj
 0002:00000b04       ??_C@_04NIHEBCM@?5new?$AA@ 0000000180033b04     libvcruntime:undname.obj
 0002:00000b10       ??_C@_07FPCDHGMM@?5delete?$AA@ 0000000180033b10     libvcruntime:undname.obj
 0002:00000b18       ??_C@_01NEMOKFLO@?$DN?$AA@ 0000000180033b18     libvcruntime:undname.obj
 0002:00000b1c       ??_C@_02GPIOPFAK@?$DO?$DO?$AA@ 0000000180033b1c     libvcruntime:undname.obj
 0002:00000b20       ??_C@_02FODMEDOG@?$DM?$DM?$AA@ 0000000180033b20     libvcruntime:undname.obj
 0002:00000b24       ??_C@_01DCLJPIOD@?$CB?$AA@ 0000000180033b24     libvcruntime:undname.obj
 0002:00000b28       ??_C@_02EGOFBIJA@?$DN?$DN?$AA@ 0000000180033b28     libvcruntime:undname.obj
 0002:00000b2c       ??_C@_02FDNJECIE@?$CB?$DN?$AA@ 0000000180033b2c     libvcruntime:undname.obj
 0002:00000b30       ??_C@_02GPECMEKF@?$FL?$FN?$AA@ 0000000180033b30     libvcruntime:undname.obj
 0002:00000b38       ??_C@_08LHJFAFGD@operator?$AA@ 0000000180033b38     libvcruntime:undname.obj
 0002:00000b44       ??_C@_02HBOOOICD@?9?$DO?$AA@ 0000000180033b44     libvcruntime:undname.obj
 0002:00000b48       ??_C@_01NBENCBCI@?$CK?$AA@ 0000000180033b48     libvcruntime:undname.obj
 0002:00000b4c       ??_C@_02ECNGHCIF@?$CL?$CL?$AA@ 0000000180033b4c     libvcruntime:undname.obj
 0002:00000b50       ??_C@_02BAABKJLB@?9?9?$AA@ 0000000180033b50     libvcruntime:undname.obj
 0002:00000b54       ??_C@_01JOAMLHOP@?9?$AA@   0000000180033b54     libvcruntime:undname.obj
 0002:00000b58       ??_C@_01MIFGBAGJ@?$CL?$AA@ 0000000180033b58     libvcruntime:undname.obj
 0002:00000b5c       ??_C@_01HNPIGOCE@?$CG?$AA@ 0000000180033b5c     libvcruntime:undname.obj
 0002:00000b60       ??_C@_03MNHNFDLC@?9?$DO?$CK?$AA@ 0000000180033b60     libvcruntime:undname.obj
 0002:00000b64       ??_C@_01KMDKNFGN@?1?$AA@   0000000180033b64     libvcruntime:undname.obj
 0002:00000b68       ??_C@_01FGNFDNOH@?$CF?$AA@ 0000000180033b68     libvcruntime:undname.obj
 0002:00000b6c       ??_C@_01MNNFJEPP@?$DM?$AA@ 0000000180033b6c     libvcruntime:undname.obj
 0002:00000b70       ??_C@_02EHCHHCKH@?$DM?$DN?$AA@ 0000000180033b70     libvcruntime:undname.obj
 0002:00000b74       ??_C@_01PPODPGHN@?$DO?$AA@ 0000000180033b74     libvcruntime:undname.obj
 0002:00000b78       ??_C@_02EEKDKGMJ@?$DO?$DN?$AA@ 0000000180033b78     libvcruntime:undname.obj
 0002:00000b7c       ??_C@_01IHBHIGKO@?0?$AA@   0000000180033b7c     libvcruntime:undname.obj
 0002:00000b80       ??_C@_02HCKGKOFO@?$CI?$CJ?$AA@ 0000000180033b80     libvcruntime:undname.obj
 0002:00000b84       ??_C@_01PJKLJHI@?$HO?$AA@  0000000180033b84     libvcruntime:undname.obj
 0002:00000b88       ??_C@_01JKBOJNNK@?$FO?$AA@ 0000000180033b88     libvcruntime:undname.obj
 0002:00000b8c       ??_C@_01DNKMNLPK@?$HM?$AA@ 0000000180033b8c     libvcruntime:undname.obj
 0002:00000b90       ??_C@_02PPKAJPJL@?$CG?$CG?$AA@ 0000000180033b90     libvcruntime:undname.obj
 0002:00000b94       ??_C@_02NONPIBCD@?$HM?$HM?$AA@ 0000000180033b94     libvcruntime:undname.obj
 0002:00000b98       ??_C@_02FPIMKNGF@?$CK?$DN?$AA@ 0000000180033b98     libvcruntime:undname.obj
 0002:00000b9c       ??_C@_02FOEOMHFC@?$CL?$DN?$AA@ 0000000180033b9c     libvcruntime:undname.obj
 0002:00000ba0       ??_C@_02FKMDLLOA@?9?$DN?$AA@ 0000000180033ba0     libvcruntime:undname.obj
 0002:00000ba4       ??_C@_02FJEHGPIO@?1?$DN?$AA@ 0000000180033ba4     libvcruntime:undname.obj
 0002:00000ba8       ??_C@_02FENAOKFI@?$CF?$DN?$AA@ 0000000180033ba8     libvcruntime:undname.obj
 0002:00000bac       ??_C@_03IKFCCPFF@?$DO?$DO?$DN?$AA@ 0000000180033bac     libvcruntime:undname.obj
 0002:00000bb0       ??_C@_03CDNPDDLA@?$DM?$DM?$DN?$AA@ 0000000180033bb0     libvcruntime:undname.obj
 0002:00000bb4       ??_C@_02FGJGFEAB@?$CG?$DN?$AA@ 0000000180033bb4     libvcruntime:undname.obj
 0002:00000bb8       ??_C@_02DHLNPPGH@?$HM?$DN?$AA@ 0000000180033bb8     libvcruntime:undname.obj
 0002:00000bbc       ??_C@_02MHEGNOJ@?$FO?$DN?$AA@ 0000000180033bbc     libvcruntime:undname.obj
 0002:00000bc0       ??_C@_09IFPLHPGF@?$GAvftable?8?$AA@ 0000000180033bc0     libvcruntime:undname.obj
 0002:00000bd0       ??_C@_09BLBHBJP@?$GAvbtable?8?$AA@ 0000000180033bd0     libvcruntime:undname.obj
 0002:00000be0       ??_C@_07FEEIOKP@?$GAvcall?8?$AA@ 0000000180033be0     libvcruntime:undname.obj
 0002:00000be8       ??_C@_08LLFFHHDJ@?$GAtypeof?8?$AA@ 0000000180033be8     libvcruntime:undname.obj
 0002:00000bf8       ??_C@_0BF@KDPPACIK@?$GAlocal?5static?5guard?8?$AA@ 0000000180033bf8     libvcruntime:undname.obj
 0002:00000c10       ??_C@_08OBABFOLI@?$GAstring?8?$AA@ 0000000180033c10     libvcruntime:undname.obj
 0002:00000c20       ??_C@_0BD@JDLKDPAB@?$GAvbase?5destructor?8?$AA@ 0000000180033c20     libvcruntime:undname.obj
 0002:00000c38       ??_C@_0BN@DEGPLNFK@?$GAvector?5deleting?5destructor?8?$AA@ 0000000180033c38     libvcruntime:undname.obj
 0002:00000c58       ??_C@_0BO@OBMKPJIG@?$GAdefault?5constructor?5closure?8?$AA@ 0000000180033c58     libvcruntime:undname.obj
 0002:00000c78       ??_C@_0BN@IMDCHIKM@?$GAscalar?5deleting?5destructor?8?$AA@ 0000000180033c78     libvcruntime:undname.obj
 0002:00000c98       ??_C@_0BO@PFGOCPJJ@?$GAvector?5constructor?5iterator?8?$AA@ 0000000180033c98     libvcruntime:undname.obj
 0002:00000cb8       ??_C@_0BN@LFPFMEDL@?$GAvector?5destructor?5iterator?8?$AA@ 0000000180033cb8     libvcruntime:undname.obj
 0002:00000cd8       ??_C@_0CE@IKBNEHA@?$GAvector?5vbase?5constructor?5iterat@ 0000000180033cd8     libvcruntime:undname.obj
 0002:00000d00       ??_C@_0BL@NILFHHPC@?$GAvirtual?5displacement?5map?8?$AA@ 0000000180033d00     libvcruntime:undname.obj
 0002:00000d20       ??_C@_0CB@JONCMFFK@?$GAeh?5vector?5constructor?5iterator?8@ 0000000180033d20     libvcruntime:undname.obj
 0002:00000d48       ??_C@_0CA@GCEOPDGL@?$GAeh?5vector?5destructor?5iterator?8?$AA@ 0000000180033d48     libvcruntime:undname.obj
 0002:00000d68       ??_C@_0CH@OOJPLCPH@?$GAeh?5vector?5vbase?5constructor?5ite@ 0000000180033d68     libvcruntime:undname.obj
 0002:00000d90       ??_C@_0BL@LLKPOHJI@?$GAcopy?5constructor?5closure?8?$AA@ 0000000180033d90     libvcruntime:undname.obj
 0002:00000db0       ??_C@_0BA@KBCDOMBN@?$GAudt?5returning?8?$AA@ 0000000180033db0     libvcruntime:undname.obj
 0002:00000dc0       ??_C@_03KLGMFNMG@?$GAEH?$AA@ 0000000180033dc0     libvcruntime:undname.obj
 0002:00000dc4       ??_C@_05KHLCHHI@?$GARTTI?$AA@ 0000000180033dc4     libvcruntime:undname.obj
 0002:00000dd0       ??_C@_0BA@KKLDJDLB@?$GAlocal?5vftable?8?$AA@ 0000000180033dd0     libvcruntime:undname.obj
 0002:00000de0       ??_C@_0CE@IIHCMGGL@?$GAlocal?5vftable?5constructor?5closu@ 0000000180033de0     libvcruntime:undname.obj
 0002:00000e04       ??_C@_06FHBGPFGH@?5new?$FL?$FN?$AA@ 0000000180033e04     libvcruntime:undname.obj
 0002:00000e10       ??_C@_09LBNFPBCA@?5delete?$FL?$FN?$AA@ 0000000180033e10     libvcruntime:undname.obj
 0002:00000e20       ??_C@_0P@HJKNJFNN@?$GAomni?5callsig?8?$AA@ 0000000180033e20     libvcruntime:undname.obj
 0002:00000e30       ??_C@_0BL@CNOONJFP@?$GAplacement?5delete?5closure?8?$AA@ 0000000180033e30     libvcruntime:undname.obj
 0002:00000e50       ??_C@_0BN@CKNJLHMB@?$GAplacement?5delete?$FL?$FN?5closure?8?$AA@ 0000000180033e50     libvcruntime:undname.obj
 0002:00000e70       ??_C@_0CG@CFDHKGGD@?$GAmanaged?5vector?5constructor?5iter@ 0000000180033e70     libvcruntime:undname.obj
 0002:00000e98       ??_C@_0CF@IMGKMJNO@?$GAmanaged?5vector?5destructor?5itera@ 0000000180033e98     libvcruntime:undname.obj
 0002:00000ec0       ??_C@_0CG@HLDDJMAG@?$GAeh?5vector?5copy?5constructor?5iter@ 0000000180033ec0     libvcruntime:undname.obj
 0002:00000ee8       ??_C@_0CM@FCBBDIGB@?$GAeh?5vector?5vbase?5copy?5constructo@ 0000000180033ee8     libvcruntime:undname.obj
 0002:00000f18       ??_C@_0BL@CLIPGLGB@?$GAdynamic?5initializer?5for?5?8?$AA@ 0000000180033f18     libvcruntime:undname.obj
 0002:00000f38       ??_C@_0CB@PDBIFEP@?$GAdynamic?5atexit?5destructor?5for?5?8@ 0000000180033f38     libvcruntime:undname.obj
 0002:00000f60       ??_C@_0CD@CGAJBKEJ@?$GAvector?5copy?5constructor?5iterato@ 0000000180033f60     libvcruntime:undname.obj
 0002:00000f88       ??_C@_0CJ@GJELGAMM@?$GAvector?5vbase?5copy?5constructor?5i@ 0000000180033f88     libvcruntime:undname.obj
 0002:00000fb8       ??_C@_0CL@FGIJHLCE@?$GAmanaged?5vector?5copy?5constructor@ 0000000180033fb8     libvcruntime:undname.obj
 0002:00000fe8       ??_C@_0BM@PMGGMLDN@?$GAlocal?5static?5thread?5guard?8?$AA@ 0000000180033fe8     libvcruntime:undname.obj
 0002:00001008       ??_C@_0N@BDNMDMOL@operator?5?$CC?$CC?5?$AA@ 0000000180034008     libvcruntime:undname.obj
 0002:00001018       ??_C@_0BC@DAFEJGAK@?5Type?5Descriptor?8?$AA@ 0000000180034018     libvcruntime:undname.obj
 0002:00001030       ??_C@_0BM@LDKODKLH@?5Base?5Class?5Descriptor?5at?5?$CI?$AA@ 0000000180034030     libvcruntime:undname.obj
 0002:00001050       ??_C@_0BD@LGICGFMM@?5Base?5Class?5Array?8?$AA@ 0000000180034050     libvcruntime:undname.obj
 0002:00001068       ??_C@_0BN@MECKDCOJ@?5Class?5Hierarchy?5Descriptor?8?$AA@ 0000000180034068     libvcruntime:undname.obj
 0002:00001088       ??_C@_0BK@CFCOFLF@?5Complete?5Object?5Locator?8?$AA@ 0000000180034088     libvcruntime:undname.obj
 0002:000010b0       ??_C@_1EK@MBDPDCGA@?$AAM?$AAi?$AAc?$AAr?$AAo?$AAs?$AAo?$AAf?$AAt?$AA?5?$AAV?$AAi?$AAs?$AAu?$AAa?$AAl?$AA?5?$AAC?$AA?$CL?$AA?$CL?$AA?5?$AAR?$AAu?$AAn?$AAt?$AAi?$AAm?$AAe?$AA?5?$AAL?$AAi?$AAb@ 00000001800340b0     libucrt:assert.obj
 0002:00001100       ??_C@_1FE@LHBLIKM@?$AAA?$AAs?$AAs?$AAe?$AAr?$AAt?$AAi?$AAo?$AAn?$AA?5?$AAf?$AAa?$AAi?$AAl?$AAe?$AAd?$AA?3?$AA?5?$AA?$CF?$AAT?$AAs?$AA?0?$AA?5?$AAf?$AAi?$AAl?$AAe?$AA?5?$AA?$CF?$AAT?$AAs?$AA?0@ 0000000180034100     libucrt:assert.obj
 0002:00001158       ??_C@_1CE@OJBNHDMO@?$AAA?$AAs?$AAs?$AAe?$AAr?$AAt?$AAi?$AAo?$AAn?$AA?5?$AAf?$AAa?$AAi?$AAl?$AAe?$AAd?$AA?$CB?$AA?$AA@ 0000000180034158     libucrt:assert.obj
 0002:00001180       ??_C@_1BE@PHKBBGE@?$AAP?$AAr?$AAo?$AAg?$AAr?$AAa?$AAm?$AA?3?$AA?5?$AA?$AA@ 0000000180034180     libucrt:assert.obj
 0002:00001198       ??_C@_1O@HEMHKNDC@?$AAF?$AAi?$AAl?$AAe?$AA?3?$AA?5?$AA?$AA@ 0000000180034198     libucrt:assert.obj
 0002:000011a8       ??_C@_1O@KCAFKHJE@?$AAL?$AAi?$AAn?$AAe?$AA?3?$AA?5?$AA?$AA@ 00000001800341a8     libucrt:assert.obj
 0002:000011b8       ??_C@_1BK@PEDCIPMA@?$AAE?$AAx?$AAp?$AAr?$AAe?$AAs?$AAs?$AAi?$AAo?$AAn?$AA?3?$AA?5?$AA?$AA@ 00000001800341b8     libucrt:assert.obj
 0002:000011e0       ??_C@_1OA@EGMLFBHJ@?$AAF?$AAo?$AAr?$AA?5?$AAi?$AAn?$AAf?$AAo?$AAr?$AAm?$AAa?$AAt?$AAi?$AAo?$AAn?$AA?5?$AAo?$AAn?$AA?5?$AAh?$AAo?$AAw?$AA?5?$AAy?$AAo?$AAu?$AAr?$AA?5?$AAp?$AAr?$AAo?$AAg@ 00000001800341e0     libucrt:assert.obj
 0002:000012c0       ??_C@_1HK@POCJMFGK@?$AA?$CI?$AAP?$AAr?$AAe?$AAs?$AAs?$AA?5?$AAR?$AAe?$AAt?$AAr?$AAy?$AA?5?$AAt?$AAo?$AA?5?$AAd?$AAe?$AAb?$AAu?$AAg?$AA?5?$AAt?$AAh?$AAe?$AA?5?$AAa?$AAp?$AAp?$AAl?$AAi?$AAc@ 00000001800342c0     libucrt:assert.obj
 0002:00001340       ??_C@_17LGKOMLJ@?$AA?4?$AA?4?$AA?4?$AA?$AA@ 0000000180034340     libucrt:assert.obj
 0002:00001348       ??_C@_13LBAGMAIH@?$AA?6?$AA?$AA@ 0000000180034348     libucrt:assert.obj
 0002:0000134c       ??_C@_15IABLJNFO@?$AA?6?$AA?6?$AA?$AA@ 000000018003434c     libucrt:assert.obj
 0002:00001358       ??_C@_1CO@EAEJAADC@?$AA?$DM?$AAp?$AAr?$AAo?$AAg?$AAr?$AAa?$AAm?$AA?5?$AAn?$AAa?$AAm?$AAe?$AA?5?$AAu?$AAn?$AAk?$AAn?$AAo?$AAw?$AAn?$AA?$DO?$AA?$AA@ 0000000180034358     libucrt:assert.obj
 0002:00001390       __acrt_exception_action_table 0000000180034390     libucrt:exception_filter.obj
 0002:00001450       __acrt_signal_action_table_count 0000000180034450     libucrt:exception_filter.obj
 0002:00001458       __acrt_signal_action_first_fpe_index 0000000180034458     libucrt:exception_filter.obj
 0002:00001460       __acrt_signal_action_fpe_count 0000000180034460     libucrt:exception_filter.obj
 0002:00001468       ??_C@_1BI@BGOHAHKC@?$AAm?$AAs?$AAc?$AAo?$AAr?$AAe?$AAe?$AA?4?$AAd?$AAl?$AAl?$AA?$AA@ 0000000180034468     libucrt:exit.obj
 0002:00001480       ??_C@_0P@MIGLKIOC@CorExitProcess?$AA@ 0000000180034480     libucrt:exit.obj
 0002:00001580       standard_lookup_table      0000000180034580     libucrt:output.obj
 0002:000015dc       ??_C@_06OJHGLDPL@?$CInull?$CJ?$AA@ 00000001800345dc     libucrt:output.obj
 0002:000015e8       ??_C@_1O@CEDCILHN@?$AA?$CI?$AAn?$AAu?$AAl?$AAl?$AA?$CJ?$AA?$AA@ 00000001800345e8     libucrt:output.obj
 0002:00001770       __lc_time_c                0000000180034770     libucrt:nlsdata.obj
 0002:00001a30       ??_C@_03KOEHGMDN@Sun?$AA@  0000000180034a30     libucrt:nlsdata.obj
 0002:00001a34       ??_C@_03PDAGKDH@Mon?$AA@   0000000180034a34     libucrt:nlsdata.obj
 0002:00001a38       ??_C@_03NAGEINEP@Tue?$AA@  0000000180034a38     libucrt:nlsdata.obj
 0002:00001a3c       ??_C@_03MHOMLAJA@Wed?$AA@  0000000180034a3c     libucrt:nlsdata.obj
 0002:00001a40       ??_C@_03IOFIKPDN@Thu?$AA@  0000000180034a40     libucrt:nlsdata.obj
 0002:00001a44       ??_C@_03IDIOELNC@Fri?$AA@  0000000180034a44     libucrt:nlsdata.obj
 0002:00001a48       ??_C@_03FEFJNEK@Sat?$AA@   0000000180034a48     libucrt:nlsdata.obj
 0002:00001a4c       ??_C@_06OOPIFAJ@Sunday?$AA@ 0000000180034a4c     libucrt:nlsdata.obj
 0002:00001a54       ??_C@_06JLEDEDGH@Monday?$AA@ 0000000180034a54     libucrt:nlsdata.obj
 0002:00001a60       ??_C@_07BAAGCFCM@Tuesday?$AA@ 0000000180034a60     libucrt:nlsdata.obj
 0002:00001a68       ??_C@_09DLIGFAKA@Wednesday?$AA@ 0000000180034a68     libucrt:nlsdata.obj
 0002:00001a78       ??_C@_08HACCIKIA@Thursday?$AA@ 0000000180034a78     libucrt:nlsdata.obj
 0002:00001a84       ??_C@_06JECMNKMI@Friday?$AA@ 0000000180034a84     libucrt:nlsdata.obj
 0002:00001a90       ??_C@_08INBOOONO@Saturday?$AA@ 0000000180034a90     libucrt:nlsdata.obj
 0002:00001a9c       ??_C@_03JIHJHPIE@Jan?$AA@  0000000180034a9c     libucrt:nlsdata.obj
 0002:00001aa0       ??_C@_03HJBDCHOM@Feb?$AA@  0000000180034aa0     libucrt:nlsdata.obj
 0002:00001aa4       ??_C@_03ODNJBKGA@Mar?$AA@  0000000180034aa4     libucrt:nlsdata.obj
 0002:00001aa8       ??_C@_03LEOLGMJP@Apr?$AA@  0000000180034aa8     libucrt:nlsdata.obj
 0002:00001aac       ??_C@_03CNMDKL@May?$AA@    0000000180034aac     libucrt:nlsdata.obj
 0002:00001ab0       ??_C@_03IDFGHECI@Jun?$AA@  0000000180034ab0     libucrt:nlsdata.obj
 0002:00001ab4       ??_C@_03LBGABGKK@Jul?$AA@  0000000180034ab4     libucrt:nlsdata.obj
 0002:00001ab8       ??_C@_03IFJFEIGA@Aug?$AA@  0000000180034ab8     libucrt:nlsdata.obj
 0002:00001abc       ??_C@_03GGCAPAJC@Sep?$AA@  0000000180034abc     libucrt:nlsdata.obj
 0002:00001ac0       ??_C@_03BMAOKBAD@Oct?$AA@  0000000180034ac0     libucrt:nlsdata.obj
 0002:00001ac4       ??_C@_03JPJOFNIA@Nov?$AA@  0000000180034ac4     libucrt:nlsdata.obj
 0002:00001ac8       ??_C@_03MKABNOCG@Dec?$AA@  0000000180034ac8     libucrt:nlsdata.obj
 0002:00001ad0       ??_C@_07CGJPFGJA@January?$AA@ 0000000180034ad0     libucrt:nlsdata.obj
 0002:00001ad8       ??_C@_08GNJGEPFN@February?$AA@ 0000000180034ad8     libucrt:nlsdata.obj
 0002:00001ae4       ??_C@_05HPCKOFNC@March?$AA@ 0000000180034ae4     libucrt:nlsdata.obj
 0002:00001aec       ??_C@_05DMJDNLEJ@April?$AA@ 0000000180034aec     libucrt:nlsdata.obj
 0002:00001af4       ??_C@_04CNLMGBGM@June?$AA@ 0000000180034af4     libucrt:nlsdata.obj
 0002:00001afc       ??_C@_04MIEPOIFP@July?$AA@ 0000000180034afc     libucrt:nlsdata.obj
 0002:00001b04       ??_C@_06LBBHFDDG@August?$AA@ 0000000180034b04     libucrt:nlsdata.obj
 0002:00001b10       ??_C@_09BHHEALKD@September?$AA@ 0000000180034b10     libucrt:nlsdata.obj
 0002:00001b20       ??_C@_07JJNFCEND@October?$AA@ 0000000180034b20     libucrt:nlsdata.obj
 0002:00001b28       ??_C@_08HCHEGEOA@November?$AA@ 0000000180034b28     libucrt:nlsdata.obj
 0002:00001b38       ??_C@_08EDHMEBNP@December?$AA@ 0000000180034b38     libucrt:nlsdata.obj
 0002:00001b44       ??_C@_02DEDBPAFC@AM?$AA@   0000000180034b44     libucrt:nlsdata.obj
 0002:00001b48       ??_C@_02CJNFDJBF@PM?$AA@   0000000180034b48     libucrt:nlsdata.obj
 0002:00001b50       ??_C@_08BPBNCDIB@MM?1dd?1yy?$AA@ 0000000180034b50     libucrt:nlsdata.obj
 0002:00001b60       ??_C@_0BE@CKGJFCPC@dddd?0?5MMMM?5dd?0?5yyyy?$AA@ 0000000180034b60     libucrt:nlsdata.obj
 0002:00001b78       ??_C@_08JCCMCCIL@HH?3mm?3ss?$AA@ 0000000180034b78     libucrt:nlsdata.obj
 0002:00001b88       ??_C@_17MBGCMIPB@?$AAS?$AAu?$AAn?$AA?$AA@ 0000000180034b88     libucrt:nlsdata.obj
 0002:00001b90       ??_C@_17KBOMKBF@?$AAM?$AAo?$AAn?$AA?$AA@ 0000000180034b90     libucrt:nlsdata.obj
 0002:00001b98       ??_C@_17BMKGEGOJ@?$AAT?$AAu?$AAe?$AA?$AA@ 0000000180034b98     libucrt:nlsdata.obj
 0002:00001ba0       ??_C@_17CJEDCEPE@?$AAW?$AAe?$AAd?$AA?$AA@ 0000000180034ba0     libucrt:nlsdata.obj
 0002:00001ba8       ??_C@_17PDPHAADD@?$AAT?$AAh?$AAu?$AA?$AA@ 0000000180034ba8     libucrt:nlsdata.obj
 0002:00001bb0       ??_C@_17HFOLPPLP@?$AAF?$AAr?$AAi?$AA?$AA@ 0000000180034bb0     libucrt:nlsdata.obj
 0002:00001bb8       ??_C@_17GGIBDPIH@?$AAS?$AAa?$AAt?$AA?$AA@ 0000000180034bb8     libucrt:nlsdata.obj
 0002:00001bc0       ??_C@_1O@IHNHDHPB@?$AAS?$AAu?$AAn?$AAd?$AAa?$AAy?$AA?$AA@ 0000000180034bc0     libucrt:nlsdata.obj
 0002:00001bd0       ??_C@_1O@MMNBFLIA@?$AAM?$AAo?$AAn?$AAd?$AAa?$AAy?$AA?$AA@ 0000000180034bd0     libucrt:nlsdata.obj
 0002:00001be0       ??_C@_1BA@ENFBFFEK@?$AAT?$AAu?$AAe?$AAs?$AAd?$AAa?$AAy?$AA?$AA@ 0000000180034be0     libucrt:nlsdata.obj
 0002:00001bf0       ??_C@_1BE@EBOGMDOH@?$AAW?$AAe?$AAd?$AAn?$AAe?$AAs?$AAd?$AAa?$AAy?$AA?$AA@ 0000000180034bf0     libucrt:nlsdata.obj
 0002:00001c08       ??_C@_1BC@HHMNLIHE@?$AAT?$AAh?$AAu?$AAr?$AAs?$AAd?$AAa?$AAy?$AA?$AA@ 0000000180034c08     libucrt:nlsdata.obj
 0002:00001c20       ??_C@_1O@PDICJHAG@?$AAF?$AAr?$AAi?$AAd?$AAa?$AAy?$AA?$AA@ 0000000180034c20     libucrt:nlsdata.obj
 0002:00001c30       ??_C@_1BC@ENMNNPAJ@?$AAS?$AAa?$AAt?$AAu?$AAr?$AAd?$AAa?$AAy?$AA?$AA@ 0000000180034c30     libucrt:nlsdata.obj
 0002:00001c48       ??_C@_17DKNBKCHM@?$AAJ?$AAa?$AAn?$AA?$AA@ 0000000180034c48     libucrt:nlsdata.obj
 0002:00001c50       ??_C@_17LMDJEKJN@?$AAF?$AAe?$AAb?$AA?$AA@ 0000000180034c50     libucrt:nlsdata.obj
 0002:00001c58       ??_C@_17CKNLEDEC@?$AAM?$AAa?$AAr?$AA?$AA@ 0000000180034c58     libucrt:nlsdata.obj
 0002:00001c60       ??_C@_17LFPOIHDD@?$AAA?$AAp?$AAr?$AA?$AA@ 0000000180034c60     libucrt:nlsdata.obj
 0002:00001c68       ??_C@_17PNNKMEED@?$AAM?$AAa?$AAy?$AA?$AA@ 0000000180034c68     libucrt:nlsdata.obj
 0002:00001c70       ??_C@_17KCJGOCPB@?$AAJ?$AAu?$AAn?$AA?$AA@ 0000000180034c70     libucrt:nlsdata.obj
 0002:00001c78       ??_C@_17IJPCKHK@?$AAJ?$AAu?$AAl?$AA?$AA@ 0000000180034c78     libucrt:nlsdata.obj
 0002:00001c80       ??_C@_17ICPELBCN@?$AAA?$AAu?$AAg?$AA?$AA@ 0000000180034c80     libucrt:nlsdata.obj
 0002:00001c88       ??_C@_17HCHCOKMG@?$AAS?$AAe?$AAp?$AA?$AA@ 0000000180034c88     libucrt:nlsdata.obj
 0002:00001c90       ??_C@_17FNLKOI@?$AAO?$AAc?$AAt?$AA?$AA@ 0000000180034c90     libucrt:nlsdata.obj
 0002:00001c98       ??_C@_17BBDMLCIG@?$AAN?$AAo?$AAv?$AA?$AA@ 0000000180034c98     libucrt:nlsdata.obj
 0002:00001ca0       ??_C@_17EGKACKIF@?$AAD?$AAe?$AAc?$AA?$AA@ 0000000180034ca0     libucrt:nlsdata.obj
 0002:00001ca8       ??_C@_1BA@EFMEIEBA@?$AAJ?$AAa?$AAn?$AAu?$AAa?$AAr?$AAy?$AA?$AA@ 0000000180034ca8     libucrt:nlsdata.obj
 0002:00001cb8       ??_C@_1BC@JGDDFFAM@?$AAF?$AAe?$AAb?$AAr?$AAu?$AAa?$AAr?$AAy?$AA?$AA@ 0000000180034cb8     libucrt:nlsdata.obj
 0002:00001cd0       ??_C@_1M@IKEENEDF@?$AAM?$AAa?$AAr?$AAc?$AAh?$AA?$AA@ 0000000180034cd0     libucrt:nlsdata.obj
 0002:00001ce0       ??_C@_1M@GJNLMHFD@?$AAA?$AAp?$AAr?$AAi?$AAl?$AA?$AA@ 0000000180034ce0     libucrt:nlsdata.obj
 0002:00001cf0       ??_C@_19EPFLPGAP@?$AAJ?$AAu?$AAn?$AAe?$AA?$AA@ 0000000180034cf0     libucrt:nlsdata.obj
 0002:00001d00       ??_C@_19BIFMLPCD@?$AAJ?$AAu?$AAl?$AAy?$AA?$AA@ 0000000180034d00     libucrt:nlsdata.obj
 0002:00001d10       ??_C@_1O@PAHLKOAC@?$AAA?$AAu?$AAg?$AAu?$AAs?$AAt?$AA?$AA@ 0000000180034d10     libucrt:nlsdata.obj
 0002:00001d20       ??_C@_1BE@DKAAMBJL@?$AAS?$AAe?$AAp?$AAt?$AAe?$AAm?$AAb?$AAe?$AAr?$AA?$AA@ 0000000180034d20     libucrt:nlsdata.obj
 0002:00001d38       ??_C@_1BA@EPANDLNG@?$AAO?$AAc?$AAt?$AAo?$AAb?$AAe?$AAr?$AA?$AA@ 0000000180034d38     libucrt:nlsdata.obj
 0002:00001d48       ??_C@_1BC@BGLIFPF@?$AAN?$AAo?$AAv?$AAe?$AAm?$AAb?$AAe?$AAr?$AA?$AA@ 0000000180034d48     libucrt:nlsdata.obj
 0002:00001d60       ??_C@_1BC@FEMKIFH@?$AAD?$AAe?$AAc?$AAe?$AAm?$AAb?$AAe?$AAr?$AA?$AA@ 0000000180034d60     libucrt:nlsdata.obj
 0002:00001d74       ??_C@_15ODEHAHHF@?$AAA?$AAM?$AA?$AA@ 0000000180034d74     libucrt:nlsdata.obj
 0002:00001d7c       ??_C@_15CLMNNGEL@?$AAP?$AAM?$AA?$AA@ 0000000180034d7c     libucrt:nlsdata.obj
 0002:00001d88       ??_C@_1BC@IEBCMHCM@?$AAM?$AAM?$AA?1?$AAd?$AAd?$AA?1?$AAy?$AAy?$AA?$AA@ 0000000180034d88     libucrt:nlsdata.obj
 0002:00001da0       ??_C@_1CI@KNAKOEBC@?$AAd?$AAd?$AAd?$AAd?$AA?0?$AA?5?$AAM?$AAM?$AAM?$AAM?$AA?5?$AAd?$AAd?$AA?0?$AA?5?$AAy?$AAy?$AAy?$AAy?$AA?$AA@ 0000000180034da0     libucrt:nlsdata.obj
 0002:00001dc8       ??_C@_1BC@GDGBMEMK@?$AAH?$AAH?$AA?3?$AAm?$AAm?$AA?3?$AAs?$AAs?$AA?$AA@ 0000000180034dc8     libucrt:nlsdata.obj
 0002:00001de0       ??_C@_1M@BMHNFIME@?$AAe?$AAn?$AA?9?$AAU?$AAS?$AA?$AA@ 0000000180034de0     libucrt:nlsdata.obj
 0002:00001e90       ??_C@_1EG@CNNIPFIM@?$AAa?$AAp?$AAi?$AA?9?$AAm?$AAs?$AA?9?$AAw?$AAi?$AAn?$AA?9?$AAa?$AAp?$AAp?$AAm?$AAo?$AAd?$AAe?$AAl?$AA?9?$AAr?$AAu?$AAn?$AAt?$AAi?$AAm?$AAe?$AA?9?$AAl?$AA1?$AA?9?$AA1@ 0000000180034e90     libucrt:winapi_thunks.obj
 0002:00001ee0       ??_C@_1EA@JGEFHKEI@?$AAa?$AAp?$AAi?$AA?9?$AAm?$AAs?$AA?9?$AAw?$AAi?$AAn?$AA?9?$AAc?$AAo?$AAr?$AAe?$AA?9?$AAd?$AAa?$AAt?$AAe?$AAt?$AAi?$AAm?$AAe?$AA?9?$AAl?$AA1?$AA?9?$AA1?$AA?9?$AA1?$AA?$AA@ 0000000180034ee0     libucrt:winapi_thunks.obj
 0002:00001f20       ??_C@_1DI@GCIAAENM@?$AAa?$AAp?$AAi?$AA?9?$AAm?$AAs?$AA?9?$AAw?$AAi?$AAn?$AA?9?$AAc?$AAo?$AAr?$AAe?$AA?9?$AAf?$AAi?$AAl?$AAe?$AA?9?$AAl?$AA2?$AA?9?$AA1?$AA?9?$AA1?$AA?$AA@ 0000000180034f20     libucrt:winapi_thunks.obj
 0002:00001f60       ??_C@_1EI@MPIAOHOC@?$AAa?$AAp?$AAi?$AA?9?$AAm?$AAs?$AA?9?$AAw?$AAi?$AAn?$AA?9?$AAc?$AAo?$AAr?$AAe?$AA?9?$AAl?$AAo?$AAc?$AAa?$AAl?$AAi?$AAz?$AAa?$AAt?$AAi?$AAo?$AAn?$AA?9?$AAl?$AA1?$AA?9@ 0000000180034f60     libucrt:winapi_thunks.obj
 0002:00001fb0       ??_C@_1FK@FPHCKFIE@?$AAa?$AAp?$AAi?$AA?9?$AAm?$AAs?$AA?9?$AAw?$AAi?$AAn?$AA?9?$AAc?$AAo?$AAr?$AAe?$AA?9?$AAl?$AAo?$AAc?$AAa?$AAl?$AAi?$AAz?$AAa?$AAt?$AAi?$AAo?$AAn?$AA?9?$AAo?$AAb?$AAs@ 0000000180034fb0     libucrt:winapi_thunks.obj
 0002:00002010       ??_C@_1EM@DILCGIIO@?$AAa?$AAp?$AAi?$AA?9?$AAm?$AAs?$AA?9?$AAw?$AAi?$AAn?$AA?9?$AAc?$AAo?$AAr?$AAe?$AA?9?$AAp?$AAr?$AAo?$AAc?$AAe?$AAs?$AAs?$AAt?$AAh?$AAr?$AAe?$AAa?$AAd?$AAs?$AA?9?$AAl@ 0000000180035010     libucrt:winapi_thunks.obj
 0002:00002060       ??_C@_1DM@LNCGDDPN@?$AAa?$AAp?$AAi?$AA?9?$AAm?$AAs?$AA?9?$AAw?$AAi?$AAn?$AA?9?$AAc?$AAo?$AAr?$AAe?$AA?9?$AAs?$AAt?$AAr?$AAi?$AAn?$AAg?$AA?9?$AAl?$AA1?$AA?9?$AA1?$AA?9?$AA0?$AA?$AA@ 0000000180035060     libucrt:winapi_thunks.obj
 0002:000020a0       ??_C@_1DO@FPAPJEMD@?$AAa?$AAp?$AAi?$AA?9?$AAm?$AAs?$AA?9?$AAw?$AAi?$AAn?$AA?9?$AAc?$AAo?$AAr?$AAe?$AA?9?$AAs?$AAy?$AAs?$AAi?$AAn?$AAf?$AAo?$AA?9?$AAl?$AA1?$AA?9?$AA2?$AA?9?$AA1?$AA?$AA@ 00000001800350a0     libucrt:winapi_thunks.obj
 0002:000020e0       ??_C@_1DK@NDHNAHIO@?$AAa?$AAp?$AAi?$AA?9?$AAm?$AAs?$AA?9?$AAw?$AAi?$AAn?$AA?9?$AAc?$AAo?$AAr?$AAe?$AA?9?$AAw?$AAi?$AAn?$AAr?$AAt?$AA?9?$AAl?$AA1?$AA?9?$AA1?$AA?9?$AA0?$AA?$AA@ 00000001800350e0     libucrt:winapi_thunks.obj
 0002:00002120       ??_C@_1DM@KGHDGBCM@?$AAa?$AAp?$AAi?$AA?9?$AAm?$AAs?$AA?9?$AAw?$AAi?$AAn?$AA?9?$AAc?$AAo?$AAr?$AAe?$AA?9?$AAx?$AAs?$AAt?$AAa?$AAt?$AAe?$AA?9?$AAl?$AA2?$AA?9?$AA1?$AA?9?$AA0?$AA?$AA@ 0000000180035120     libucrt:winapi_thunks.obj
 0002:00002160       ??_C@_1EO@IJIOEFOH@?$AAa?$AAp?$AAi?$AA?9?$AAm?$AAs?$AA?9?$AAw?$AAi?$AAn?$AA?9?$AAr?$AAt?$AAc?$AAo?$AAr?$AAe?$AA?9?$AAn?$AAt?$AAu?$AAs?$AAe?$AAr?$AA?9?$AAw?$AAi?$AAn?$AAd?$AAo?$AAw?$AA?9@ 0000000180035160     libucrt:winapi_thunks.obj
 0002:000021b0       ??_C@_1FG@HHGEKANL@?$AAa?$AAp?$AAi?$AA?9?$AAm?$AAs?$AA?9?$AAw?$AAi?$AAn?$AA?9?$AAs?$AAe?$AAc?$AAu?$AAr?$AAi?$AAt?$AAy?$AA?9?$AAs?$AAy?$AAs?$AAt?$AAe?$AAm?$AAf?$AAu?$AAn?$AAc?$AAt?$AAi@ 00000001800351b0     libucrt:winapi_thunks.obj
 0002:00002210       ??_C@_1FG@NCKKOLKO@?$AAe?$AAx?$AAt?$AA?9?$AAm?$AAs?$AA?9?$AAw?$AAi?$AAn?$AA?9?$AAk?$AAe?$AAr?$AAn?$AAe?$AAl?$AA3?$AA2?$AA?9?$AAp?$AAa?$AAc?$AAk?$AAa?$AAg?$AAe?$AA?9?$AAc?$AAu?$AAr?$AAr@ 0000000180035210     libucrt:winapi_thunks.obj
 0002:00002270       ??_C@_1EG@DBIOJECG@?$AAe?$AAx?$AAt?$AA?9?$AAm?$AAs?$AA?9?$AAw?$AAi?$AAn?$AA?9?$AAn?$AAt?$AAu?$AAs?$AAe?$AAr?$AA?9?$AAd?$AAi?$AAa?$AAl?$AAo?$AAg?$AAb?$AAo?$AAx?$AA?9?$AAl?$AA1?$AA?9?$AA1@ 0000000180035270     libucrt:winapi_thunks.obj
 0002:000022c0       ??_C@_1EO@FIHMJCLF@?$AAe?$AAx?$AAt?$AA?9?$AAm?$AAs?$AA?9?$AAw?$AAi?$AAn?$AA?9?$AAn?$AAt?$AAu?$AAs?$AAe?$AAr?$AA?9?$AAw?$AAi?$AAn?$AAd?$AAo?$AAw?$AAs?$AAt?$AAa?$AAt?$AAi?$AAo?$AAn?$AA?9@ 00000001800352c0     libucrt:winapi_thunks.obj
 0002:00002310       ??_C@_1O@BCCLBEOE@?$AAu?$AAs?$AAe?$AAr?$AA3?$AA2?$AA?$AA@ 0000000180035310     libucrt:winapi_thunks.obj
 0002:00002348       ??_C@_0BA@HNOPNCHB@GetActiveWindow?$AA@ 0000000180035348     libucrt:winapi_thunks.obj
 0002:00002360       ??_C@_0BE@JOGNEJCI@GetCurrentPackageId?$AA@ 0000000180035360     libucrt:winapi_thunks.obj
 0002:00002380       ??_C@_0BD@HHGDFDBJ@GetLastActivePopup?$AA@ 0000000180035380     libucrt:winapi_thunks.obj
 0002:000023a0       ??_C@_0BI@DFKBFLJE@GetProcessWindowStation?$AA@ 00000001800353a0     libucrt:winapi_thunks.obj
 0002:000023c0       ??_C@_0BK@DEKFELLI@GetUserObjectInformationW?$AA@ 00000001800353c0     libucrt:winapi_thunks.obj
 0002:000023f0       ??_C@_0O@KKBNKAPF@LCMapStringEx?$AA@ 00000001800353f0     libucrt:winapi_thunks.obj
 0002:00002408       ??_C@_0BB@HBDEELFH@LocaleNameToLCID?$AA@ 0000000180035408     libucrt:winapi_thunks.obj
 0002:00002428       ??_C@_0M@CHKKJDAI@MessageBoxA?$AA@ 0000000180035428     libucrt:winapi_thunks.obj
 0002:00002440       ??_C@_0M@DLDCCGNP@MessageBoxW?$AA@ 0000000180035440     libucrt:winapi_thunks.obj
 0002:00002470       ??_C@_1M@HPNHIDJI@?$AAj?$AAa?$AA?9?$AAJ?$AAP?$AA?$AA@ 0000000180035470     libucrt:mbctype.obj
 0002:00002480       ??_C@_1M@BIBDDEMK@?$AAz?$AAh?$AA?9?$AAC?$AAN?$AA?$AA@ 0000000180035480     libucrt:mbctype.obj
 0002:00002490       ??_C@_1M@JLOOOEGK@?$AAk?$AAo?$AA?9?$AAK?$AAR?$AA?$AA@ 0000000180035490     libucrt:mbctype.obj
 0002:000024a0       ??_C@_1M@CLNBBOPM@?$AAz?$AAh?$AA?9?$AAT?$AAW?$AA?$AA@ 00000001800354a0     libucrt:mbctype.obj
 0002:000024ac       ??_C@_03OEIAHPBN@INF?$AA@  00000001800354ac     libucrt:cvt.obj
 0002:000024b0       ??_C@_03OJHLLCGB@inf?$AA@  00000001800354b0     libucrt:cvt.obj
 0002:000024b4       ??_C@_03LKNCIKJB@NAN?$AA@  00000001800354b4     libucrt:cvt.obj
 0002:000024b8       ??_C@_03LHCJEHON@nan?$AA@  00000001800354b8     libucrt:cvt.obj
 0002:000024c0       ??_C@_09OFJJIMPC@NAN?$CISNAN?$CJ?$AA@ 00000001800354c0     libucrt:cvt.obj
 0002:000024d0       ??_C@_09IPFBKMDL@nan?$CIsnan?$CJ?$AA@ 00000001800354d0     libucrt:cvt.obj
 0002:000024e0       ??_C@_08IKHNHAJ@NAN?$CIIND?$CJ?$AA@ 00000001800354e0     libucrt:cvt.obj
 0002:000024f0       ??_C@_08OFCDMILK@nan?$CIind?$CJ?$AA@ 00000001800354f0     libucrt:cvt.obj
 0002:000024fc       ??_C@_05KLBDPFGC@e?$CL000?$AA@ 00000001800354fc     libucrt:cvt.obj
 0002:00002510       __newctype                 0000000180035510     libucrt:ctype.obj
 0002:00002810       __newclmap                 0000000180035810     libucrt:ctype.obj
 0002:00002990       __newcumap                 0000000180035990     libucrt:ctype.obj
 0002:00002b10       _wctype                    0000000180035b10     libucrt:ctype.obj
 0002:00002d14       ??_C@_15PJPFLCCM@?$AAu?$AAk?$AA?$AA@ 0000000180035d14     libucrt:get_qualified_locale.obj
 0002:00003b60       ??_C@_15EMKDOKLE@?$AAa?$AAr?$AA?$AA@ 0000000180036b60     libucrt:lcidtoname_downlevel.obj
 0002:00003b68       ??_C@_15KNPADPLH@?$AAb?$AAg?$AA?$AA@ 0000000180036b68     libucrt:lcidtoname_downlevel.obj
 0002:00003b70       ??_C@_15EDMHLDMO@?$AAc?$AAa?$AA?$AA@ 0000000180036b70     libucrt:lcidtoname_downlevel.obj
 0002:00003b78       ??_C@_1O@BPEAJADD@?$AAz?$AAh?$AA?9?$AAC?$AAH?$AAS?$AA?$AA@ 0000000180036b78     libucrt:lcidtoname_downlevel.obj
 0002:00003b88       ??_C@_15LJNHCMNK@?$AAc?$AAs?$AA?$AA@ 0000000180036b88     libucrt:lcidtoname_downlevel.obj
 0002:00003b90       ??_C@_15FOMCIDHG@?$AAd?$AAa?$AA?$AA@ 0000000180036b90     libucrt:lcidtoname_downlevel.obj
 0002:00003b98       ??_C@_15NBKABECB@?$AAd?$AAe?$AA?$AA@ 0000000180036b98     libucrt:lcidtoname_downlevel.obj
 0002:00003ba0       ??_C@_15GHPEIIAO@?$AAe?$AAl?$AA?$AA@ 0000000180036ba0     libucrt:lcidtoname_downlevel.obj
 0002:00003ba8       ??_C@_15MNPNEAIF@?$AAe?$AAn?$AA?$AA@ 0000000180036ba8     libucrt:lcidtoname_downlevel.obj
 0002:00003bb0       ??_C@_15GPIOMPMH@?$AAe?$AAs?$AA?$AA@ 0000000180036bb0     libucrt:lcidtoname_downlevel.obj
 0002:00003bb8       ??_C@_15NGLOAKJC@?$AAf?$AAi?$AA?$AA@ 0000000180036bb8     libucrt:lcidtoname_downlevel.obj
 0002:00003bc0       ??_C@_15FBKGNKAM@?$AAf?$AAr?$AA?$AA@ 0000000180036bc0     libucrt:lcidtoname_downlevel.obj
 0002:00003bc8       ??_C@_15KGGCNEFK@?$AAh?$AAe?$AA?$AA@ 0000000180036bc8     libucrt:lcidtoname_downlevel.obj
 0002:00003bd0       ??_C@_15PGHLIDMF@?$AAh?$AAu?$AA?$AA@ 0000000180036bd0     libucrt:lcidtoname_downlevel.obj
 0002:00003bd8       ??_C@_15BIEMAPLM@?$AAi?$AAs?$AA?$AA@ 0000000180036bd8     libucrt:lcidtoname_downlevel.obj
 0002:00003be0       ??_C@_15IFJLDHAF@?$AAi?$AAt?$AA?$AA@ 0000000180036be0     libucrt:lcidtoname_downlevel.obj
 0002:00003be8       ??_C@_15GEMIOCAG@?$AAj?$AAa?$AA?$AA@ 0000000180036be8     libucrt:lcidtoname_downlevel.obj
 0002:00003bf0       ??_C@_15EPELEGJA@?$AAk?$AAo?$AA?$AA@ 0000000180036bf0     libucrt:lcidtoname_downlevel.obj
 0002:00003bf8       ??_C@_15NDDHIMN@?$AAn?$AAl?$AA?$AA@ 0000000180036bf8     libucrt:lcidtoname_downlevel.obj
 0002:00003c00       ??_C@_15BPIGNHCD@?$AAn?$AAo?$AA?$AA@ 0000000180036c00     libucrt:lcidtoname_downlevel.obj
 0002:00003c08       ??_C@_15DEOPBLCG@?$AAp?$AAl?$AA?$AA@ 0000000180036c08     libucrt:lcidtoname_downlevel.obj
 0002:00003c10       ??_C@_15KBECGEFG@?$AAp?$AAt?$AA?$AA@ 0000000180036c10     libucrt:lcidtoname_downlevel.obj
 0002:00003c18       ??_C@_15GLJCBFMD@?$AAr?$AAo?$AA?$AA@ 0000000180036c18     libucrt:lcidtoname_downlevel.obj
 0002:00003c20       ??_C@_15FEDGKCDI@?$AAr?$AAu?$AA?$AA@ 0000000180036c20     libucrt:lcidtoname_downlevel.obj
 0002:00003c28       ??_C@_15GLKMLLHM@?$AAh?$AAr?$AA?$AA@ 0000000180036c28     libucrt:lcidtoname_downlevel.obj
 0002:00003c30       ??_C@_15CPKMFBDB@?$AAs?$AAk?$AA?$AA@ 0000000180036c30     libucrt:lcidtoname_downlevel.obj
 0002:00003c38       ??_C@_15BAAIOGMK@?$AAs?$AAq?$AA?$AA@ 0000000180036c38     libucrt:lcidtoname_downlevel.obj
 0002:00003c40       ??_C@_15INNPNOHD@?$AAs?$AAv?$AA?$AA@ 0000000180036c40     libucrt:lcidtoname_downlevel.obj
 0002:00003c48       ??_C@_15CABMMOGH@?$AAt?$AAh?$AA?$AA@ 0000000180036c48     libucrt:lcidtoname_downlevel.obj
 0002:00003c50       ??_C@_15BPLIHJJM@?$AAt?$AAr?$AA?$AA@ 0000000180036c50     libucrt:lcidtoname_downlevel.obj
 0002:00003c58       ??_C@_15NEOEKKDJ@?$AAu?$AAr?$AA?$AA@ 0000000180036c58     libucrt:lcidtoname_downlevel.obj
 0002:00003c60       ??_C@_15NFICGAJK@?$AAi?$AAd?$AA?$AA@ 0000000180036c60     libucrt:lcidtoname_downlevel.obj
 0002:00003c68       ??_C@_15HPJPHDM@?$AAb?$AAe?$AA?$AA@ 0000000180036c68     libucrt:lcidtoname_downlevel.obj
 0002:00003c70       ??_C@_15LCHLGJII@?$AAs?$AAl?$AA?$AA@ 0000000180036c70     libucrt:lcidtoname_downlevel.obj
 0002:00003c78       ??_C@_15PCFJPHHO@?$AAe?$AAt?$AA?$AA@ 0000000180036c78     libucrt:lcidtoname_downlevel.obj
 0002:00003c80       ??_C@_15HPFPGODN@?$AAl?$AAv?$AA?$AA@ 0000000180036c80     libucrt:lcidtoname_downlevel.obj
 0002:00003c88       ??_C@_15NFFGKGLG@?$AAl?$AAt?$AA?$AA@ 0000000180036c88     libucrt:lcidtoname_downlevel.obj
 0002:00003c90       ??_C@_15BDAKCCHN@?$AAf?$AAa?$AA?$AA@ 0000000180036c90     libucrt:lcidtoname_downlevel.obj
 0002:00003c98       ??_C@_15NFGIAIAJ@?$AAv?$AAi?$AA?$AA@ 0000000180036c98     libucrt:lcidtoname_downlevel.obj
 0002:00003ca0       ??_C@_15LMKNDMHN@?$AAh?$AAy?$AA?$AA@ 0000000180036ca0     libucrt:lcidtoname_downlevel.obj
 0002:00003ca8       ??_C@_15IJBHMCFL@?$AAa?$AAz?$AA?$AA@ 0000000180036ca8     libucrt:lcidtoname_downlevel.obj
 0002:00003cb0       ??_C@_15EKOFJABL@?$AAe?$AAu?$AA?$AA@ 0000000180036cb0     libucrt:lcidtoname_downlevel.obj
 0002:00003cb8       ??_C@_15BGHADCNK@?$AAm?$AAk?$AA?$AA@ 0000000180036cb8     libucrt:lcidtoname_downlevel.obj
 0002:00003cc0       ??_C@_15JDNICKHM@?$AAa?$AAf?$AA?$AA@ 0000000180036cc0     libucrt:lcidtoname_downlevel.obj
 0002:00003cc8       ??_C@_15KPJEDBKD@?$AAk?$AAa?$AA?$AA@ 0000000180036cc8     libucrt:lcidtoname_downlevel.obj
 0002:00003cd0       ??_C@_15PDNFFFEO@?$AAf?$AAo?$AA?$AA@ 0000000180036cd0     libucrt:lcidtoname_downlevel.obj
 0002:00003cd8       ??_C@_15OMLEGLOC@?$AAh?$AAi?$AA?$AA@ 0000000180036cd8     libucrt:lcidtoname_downlevel.obj
 0002:00003ce0       ??_C@_15IDNNENKK@?$AAm?$AAs?$AA?$AA@ 0000000180036ce0     libucrt:lcidtoname_downlevel.obj
 0002:00003ce8       ??_C@_15MACJNBMH@?$AAk?$AAk?$AA?$AA@ 0000000180036ce8     libucrt:lcidtoname_downlevel.obj
 0002:00003cf0       ??_C@_15DKDJEOND@?$AAk?$AAy?$AA?$AA@ 0000000180036cf0     libucrt:lcidtoname_downlevel.obj
 0002:00003cf8       ??_C@_15DFGDLJBG@?$AAs?$AAw?$AA?$AA@ 0000000180036cf8     libucrt:lcidtoname_downlevel.obj
 0002:00003d00       ??_C@_15BBFAICNG@?$AAu?$AAz?$AA?$AA@ 0000000180036d00     libucrt:lcidtoname_downlevel.obj
 0002:00003d08       ??_C@_15DKNDCGEA@?$AAt?$AAt?$AA?$AA@ 0000000180036d08     libucrt:lcidtoname_downlevel.obj
 0002:00003d10       ??_C@_15MGIFMDPL@?$AAp?$AAa?$AA?$AA@ 0000000180036d10     libucrt:lcidtoname_downlevel.obj
 0002:00003d18       ??_C@_15HCNDBBA@?$AAg?$AAu?$AA?$AA@ 0000000180036d18     libucrt:lcidtoname_downlevel.obj
 0002:00003d20       ??_C@_15FNBEIBON@?$AAt?$AAa?$AA?$AA@ 0000000180036d20     libucrt:lcidtoname_downlevel.obj
 0002:00003d28       ??_C@_15NCHGBGLK@?$AAt?$AAe?$AA?$AA@ 0000000180036d28     libucrt:lcidtoname_downlevel.obj
 0002:00003d30       ??_C@_15PHPHCBPF@?$AAk?$AAn?$AA?$AA@ 0000000180036d30     libucrt:lcidtoname_downlevel.obj
 0002:00003d38       ??_C@_15DLGBCKMP@?$AAm?$AAr?$AA?$AA@ 0000000180036d38     libucrt:lcidtoname_downlevel.obj
 0002:00003d40       ??_C@_15EABBLBFF@?$AAs?$AAa?$AA?$AA@ 0000000180036d40     libucrt:lcidtoname_downlevel.obj
 0002:00003d48       ??_C@_15CBKOMCOI@?$AAm?$AAn?$AA?$AA@ 0000000180036d48     libucrt:lcidtoname_downlevel.obj
 0002:00003d50       ??_C@_15CKDMCJAF@?$AAg?$AAl?$AA?$AA@ 0000000180036d50     libucrt:lcidtoname_downlevel.obj
 0002:00003d58       ??_C@_17CNJFBPG@?$AAk?$AAo?$AAk?$AA?$AA@ 0000000180036d58     libucrt:lcidtoname_downlevel.obj
 0002:00003d60       ??_C@_17FFBJICPL@?$AAs?$AAy?$AAr?$AA?$AA@ 0000000180036d60     libucrt:lcidtoname_downlevel.obj
 0002:00003d68       ??_C@_17KPNDCPAF@?$AAd?$AAi?$AAv?$AA?$AA@ 0000000180036d68     libucrt:lcidtoname_downlevel.obj
 0002:00003d70       ??_C@_11LOCGONAA@?$AA?$AA@ 0000000180036d70     libucrt:lcidtoname_downlevel.obj
 0002:00003d78       ??_C@_1M@OKAHONE@?$AAa?$AAr?$AA?9?$AAS?$AAA?$AA?$AA@ 0000000180036d78     libucrt:lcidtoname_downlevel.obj
 0002:00003d88       ??_C@_1M@FFFIGIGK@?$AAb?$AAg?$AA?9?$AAB?$AAG?$AA?$AA@ 0000000180036d88     libucrt:lcidtoname_downlevel.obj
 0002:00003d98       ??_C@_1M@BJNKEDC@?$AAc?$AAa?$AA?9?$AAE?$AAS?$AA?$AA@ 0000000180036d98     libucrt:lcidtoname_downlevel.obj
 0002:00003da8       ??_C@_1M@IJJHFJHA@?$AAc?$AAs?$AA?9?$AAC?$AAZ?$AA?$AA@ 0000000180036da8     libucrt:lcidtoname_downlevel.obj
 0002:00003db8       ??_C@_1M@CLPEOBGI@?$AAd?$AAa?$AA?9?$AAD?$AAK?$AA?$AA@ 0000000180036db8     libucrt:lcidtoname_downlevel.obj
 0002:00003dc8       ??_C@_1M@MCMADGCB@?$AAd?$AAe?$AA?9?$AAD?$AAE?$AA?$AA@ 0000000180036dc8     libucrt:lcidtoname_downlevel.obj
 0002:00003dd8       ??_C@_1M@OOCKEMAM@?$AAe?$AAl?$AA?9?$AAG?$AAR?$AA?$AA@ 0000000180036dd8     libucrt:lcidtoname_downlevel.obj
 0002:00003de8       ??_C@_1M@DDNJFGID@?$AAf?$AAi?$AA?9?$AAF?$AAI?$AA?$AA@ 0000000180036de8     libucrt:lcidtoname_downlevel.obj
 0002:00003df8       ??_C@_1M@GLIPPMAC@?$AAf?$AAr?$AA?9?$AAF?$AAR?$AA?$AA@ 0000000180036df8     libucrt:lcidtoname_downlevel.obj
 0002:00003e08       ??_C@_1M@GFMCHPE@?$AAh?$AAe?$AA?9?$AAI?$AAL?$AA?$AA@ 0000000180036e08     libucrt:lcidtoname_downlevel.obj
 0002:00003e18       ??_C@_1M@MHLPGNKM@?$AAh?$AAu?$AA?9?$AAH?$AAU?$AA?$AA@ 0000000180036e18     libucrt:lcidtoname_downlevel.obj
 0002:00003e28       ??_C@_1M@LPDDNNPN@?$AAi?$AAs?$AA?9?$AAI?$AAS?$AA?$AA@ 0000000180036e28     libucrt:lcidtoname_downlevel.obj
 0002:00003e38       ??_C@_1M@MADIPODN@?$AAi?$AAt?$AA?9?$AAI?$AAT?$AA?$AA@ 0000000180036e38     libucrt:lcidtoname_downlevel.obj
 0002:00003e48       ??_C@_1M@IHBJJGG@?$AAn?$AAl?$AA?9?$AAN?$AAL?$AA?$AA@ 0000000180036e48     libucrt:lcidtoname_downlevel.obj
 0002:00003e58       ??_C@_1M@EANAGDL@?$AAn?$AAb?$AA?9?$AAN?$AAO?$AA?$AA@ 0000000180036e58     libucrt:lcidtoname_downlevel.obj
 0002:00003e68       ??_C@_1M@NEIEMEGP@?$AAp?$AAl?$AA?9?$AAP?$AAL?$AA?$AA@ 0000000180036e68     libucrt:lcidtoname_downlevel.obj
 0002:00003e78       ??_C@_1M@BOCFIGEP@?$AAp?$AAt?$AA?9?$AAB?$AAR?$AA?$AA@ 0000000180036e78     libucrt:lcidtoname_downlevel.obj
 0002:00003e88       ??_C@_1M@IMPFOPBG@?$AAr?$AAo?$AA?9?$AAR?$AAO?$AA?$AA@ 0000000180036e88     libucrt:lcidtoname_downlevel.obj
 0002:00003e98       ??_C@_1M@IDNNEJMM@?$AAr?$AAu?$AA?9?$AAR?$AAU?$AA?$AA@ 0000000180036e98     libucrt:lcidtoname_downlevel.obj
 0002:00003ea8       ??_C@_1M@LILEEOGM@?$AAh?$AAr?$AA?9?$AAH?$AAR?$AA?$AA@ 0000000180036ea8     libucrt:lcidtoname_downlevel.obj
 0002:00003eb8       ??_C@_1M@FKIFEHPB@?$AAs?$AAk?$AA?9?$AAS?$AAK?$AA?$AA@ 0000000180036eb8     libucrt:lcidtoname_downlevel.obj
 0002:00003ec8       ??_C@_1M@LJMAMNPJ@?$AAs?$AAq?$AA?9?$AAA?$AAL?$AA?$AA@ 0000000180036ec8     libucrt:lcidtoname_downlevel.obj
 0002:00003ed8       ??_C@_1M@GIAKDKJK@?$AAs?$AAv?$AA?9?$AAS?$AAE?$AA?$AA@ 0000000180036ed8     libucrt:lcidtoname_downlevel.obj
 0002:00003ee8       ??_C@_1M@MKJKIKCL@?$AAt?$AAh?$AA?9?$AAT?$AAH?$AA?$AA@ 0000000180036ee8     libucrt:lcidtoname_downlevel.obj
 0002:00003ef8       ??_C@_1M@MFLCCMPB@?$AAt?$AAr?$AA?9?$AAT?$AAR?$AA?$AA@ 0000000180036ef8     libucrt:lcidtoname_downlevel.obj
 0002:00003f08       ??_C@_1M@OIJHDKJN@?$AAu?$AAr?$AA?9?$AAP?$AAK?$AA?$AA@ 0000000180036f08     libucrt:lcidtoname_downlevel.obj
 0002:00003f18       ??_C@_1M@LHIPCIEK@?$AAi?$AAd?$AA?9?$AAI?$AAD?$AA?$AA@ 0000000180036f18     libucrt:lcidtoname_downlevel.obj
 0002:00003f28       ??_C@_1M@MFMOBGI@?$AAu?$AAk?$AA?9?$AAU?$AAA?$AA?$AA@ 0000000180036f28     libucrt:lcidtoname_downlevel.obj
 0002:00003f38       ??_C@_1M@OBGLJIPL@?$AAb?$AAe?$AA?9?$AAB?$AAY?$AA?$AA@ 0000000180036f38     libucrt:lcidtoname_downlevel.obj
 0002:00003f48       ??_C@_1M@BCFAJEAD@?$AAs?$AAl?$AA?9?$AAS?$AAI?$AA?$AA@ 0000000180036f48     libucrt:lcidtoname_downlevel.obj
 0002:00003f58       ??_C@_1M@FKFFEDDN@?$AAe?$AAt?$AA?9?$AAE?$AAE?$AA?$AA@ 0000000180036f58     libucrt:lcidtoname_downlevel.obj
 0002:00003f68       ??_C@_1M@KGKKAACI@?$AAl?$AAv?$AA?9?$AAL?$AAV?$AA?$AA@ 0000000180036f68     libucrt:lcidtoname_downlevel.obj
 0002:00003f78       ??_C@_1M@IFGBIJO@?$AAl?$AAt?$AA?9?$AAL?$AAT?$AA?$AA@ 0000000180036f78     libucrt:lcidtoname_downlevel.obj
 0002:00003f88       ??_C@_1M@FGEAHEDM@?$AAf?$AAa?$AA?9?$AAI?$AAR?$AA?$AA@ 0000000180036f88     libucrt:lcidtoname_downlevel.obj
 0002:00003f98       ??_C@_1M@KBMAIBFN@?$AAv?$AAi?$AA?9?$AAV?$AAN?$AA?$AA@ 0000000180036f98     libucrt:lcidtoname_downlevel.obj
 0002:00003fa8       ??_C@_1M@GPCBKDJK@?$AAh?$AAy?$AA?9?$AAA?$AAM?$AA?$AA@ 0000000180036fa8     libucrt:lcidtoname_downlevel.obj
 0002:00003fb8       ??_C@_1BG@BECMDDJB@?$AAa?$AAz?$AA?9?$AAA?$AAZ?$AA?9?$AAL?$AAa?$AAt?$AAn?$AA?$AA@ 0000000180036fb8     libucrt:lcidtoname_downlevel.obj
 0002:00003fd0       ??_C@_1M@MAOFCAEA@?$AAe?$AAu?$AA?9?$AAE?$AAS?$AA?$AA@ 0000000180036fd0     libucrt:lcidtoname_downlevel.obj
 0002:00003fe0       ??_C@_1M@IGHABKPI@?$AAm?$AAk?$AA?9?$AAM?$AAK?$AA?$AA@ 0000000180036fe0     libucrt:lcidtoname_downlevel.obj
 0002:00003ff0       ??_C@_1M@IAIGNEJG@?$AAt?$AAn?$AA?9?$AAZ?$AAA?$AA?$AA@ 0000000180036ff0     libucrt:lcidtoname_downlevel.obj
 0002:00004000       ??_C@_1M@IIJCOJFA@?$AAx?$AAh?$AA?9?$AAZ?$AAA?$AA?$AA@ 0000000180037000     libucrt:lcidtoname_downlevel.obj
 0002:00004010       ??_C@_1M@LGPJHNJH@?$AAz?$AAu?$AA?9?$AAZ?$AAA?$AA?$AA@ 0000000180037010     libucrt:lcidtoname_downlevel.obj
 0002:00004020       ??_C@_1M@HOKAOIO@?$AAa?$AAf?$AA?9?$AAZ?$AAA?$AA?$AA@ 0000000180037020     libucrt:lcidtoname_downlevel.obj
 0002:00004030       ??_C@_1M@DPCLHLIE@?$AAk?$AAa?$AA?9?$AAG?$AAE?$AA?$AA@ 0000000180037030     libucrt:lcidtoname_downlevel.obj
 0002:00004040       ??_C@_1M@BLKMHJBI@?$AAf?$AAo?$AA?9?$AAF?$AAO?$AA?$AA@ 0000000180037040     libucrt:lcidtoname_downlevel.obj
 0002:00004050       ??_C@_1M@LGGJAPPB@?$AAh?$AAi?$AA?9?$AAI?$AAN?$AA?$AA@ 0000000180037050     libucrt:lcidtoname_downlevel.obj
 0002:00004060       ??_C@_1M@FIKPIHFE@?$AAm?$AAt?$AA?9?$AAM?$AAT?$AA?$AA@ 0000000180037060     libucrt:lcidtoname_downlevel.obj
 0002:00004070       ??_C@_1M@HEGGPBFA@?$AAs?$AAe?$AA?9?$AAN?$AAO?$AA?$AA@ 0000000180037070     libucrt:lcidtoname_downlevel.obj
 0002:00004080       ??_C@_1M@EIBJEEPA@?$AAm?$AAs?$AA?9?$AAM?$AAY?$AA?$AA@ 0000000180037080     libucrt:lcidtoname_downlevel.obj
 0002:00004090       ??_C@_1M@FHLBGMPP@?$AAk?$AAk?$AA?9?$AAK?$AAZ?$AA?$AA@ 0000000180037090     libucrt:lcidtoname_downlevel.obj
 0002:000040a0       ??_C@_1M@NGJJLCGI@?$AAk?$AAy?$AA?9?$AAK?$AAG?$AA?$AA@ 00000001800370a0     libucrt:lcidtoname_downlevel.obj
 0002:000040b0       ??_C@_1M@GIENNBFC@?$AAs?$AAw?$AA?9?$AAK?$AAE?$AA?$AA@ 00000001800370b0     libucrt:lcidtoname_downlevel.obj
 0002:000040c0       ??_C@_1BG@NDGMJIMJ@?$AAu?$AAz?$AA?9?$AAU?$AAZ?$AA?9?$AAL?$AAa?$AAt?$AAn?$AA?$AA@ 00000001800370c0     libucrt:lcidtoname_downlevel.obj
 0002:000040d8       ??_C@_1M@IDCCIHBC@?$AAt?$AAt?$AA?9?$AAR?$AAU?$AA?$AA@ 00000001800370d8     libucrt:lcidtoname_downlevel.obj
 0002:000040e8       ??_C@_1M@LOICPMOJ@?$AAb?$AAn?$AA?9?$AAI?$AAN?$AA?$AA@ 00000001800370e8     libucrt:lcidtoname_downlevel.obj
 0002:000040f8       ??_C@_1M@KPKKNEAH@?$AAp?$AAa?$AA?9?$AAI?$AAN?$AA?$AA@ 00000001800370f8     libucrt:lcidtoname_downlevel.obj
 0002:00004108       ??_C@_1M@PJGPPBOG@?$AAg?$AAu?$AA?9?$AAI?$AAN?$AA?$AA@ 0000000180037108     libucrt:lcidtoname_downlevel.obj
 0002:00004118       ??_C@_1M@KMKMOPHI@?$AAt?$AAa?$AA?9?$AAI?$AAN?$AA?$AA@ 0000000180037118     libucrt:lcidtoname_downlevel.obj
 0002:00004128       ??_C@_1M@KFEHEPAC@?$AAt?$AAe?$AA?9?$AAI?$AAN?$AA?$AA@ 0000000180037128     libucrt:lcidtoname_downlevel.obj
 0002:00004138       ??_C@_1M@CDCLMGHI@?$AAk?$AAn?$AA?9?$AAI?$AAN?$AA?$AA@ 0000000180037138     libucrt:lcidtoname_downlevel.obj
 0002:00004148       ??_C@_1M@MIODLDKF@?$AAm?$AAl?$AA?9?$AAI?$AAN?$AA?$AA@ 0000000180037148     libucrt:lcidtoname_downlevel.obj
 0002:00004158       ??_C@_1M@PBIEACPO@?$AAm?$AAr?$AA?9?$AAI?$AAN?$AA?$AA@ 0000000180037158     libucrt:lcidtoname_downlevel.obj
 0002:00004168       ??_C@_1M@NIDEAGPH@?$AAs?$AAa?$AA?9?$AAI?$AAN?$AA?$AA@ 0000000180037168     libucrt:lcidtoname_downlevel.obj
 0002:00004178       ??_C@_1M@FHIHCBIO@?$AAm?$AAn?$AA?9?$AAM?$AAN?$AA?$AA@ 0000000180037178     libucrt:lcidtoname_downlevel.obj
 0002:00004188       ??_C@_1M@JAIJPENP@?$AAc?$AAy?$AA?9?$AAG?$AAB?$AA?$AA@ 0000000180037188     libucrt:lcidtoname_downlevel.obj
 0002:00004198       ??_C@_1M@PHGFBEPN@?$AAg?$AAl?$AA?9?$AAE?$AAS?$AA?$AA@ 0000000180037198     libucrt:lcidtoname_downlevel.obj
 0002:000041a8       ??_C@_1O@KPIPDNCP@?$AAk?$AAo?$AAk?$AA?9?$AAI?$AAN?$AA?$AA@ 00000001800371a8     libucrt:lcidtoname_downlevel.obj
 0002:000041b8       ??_C@_1O@KNHJLDJA@?$AAs?$AAy?$AAr?$AA?9?$AAS?$AAY?$AA?$AA@ 00000001800371b8     libucrt:lcidtoname_downlevel.obj
 0002:000041c8       ??_C@_1O@MKEKBLAH@?$AAd?$AAi?$AAv?$AA?9?$AAM?$AAV?$AA?$AA@ 00000001800371c8     libucrt:lcidtoname_downlevel.obj
 0002:000041d8       ??_C@_1O@OHDCKDDF@?$AAq?$AAu?$AAz?$AA?9?$AAB?$AAO?$AA?$AA@ 00000001800371d8     libucrt:lcidtoname_downlevel.obj
 0002:000041e8       ??_C@_1M@LEPJNLFD@?$AAn?$AAs?$AA?9?$AAZ?$AAA?$AA?$AA@ 00000001800371e8     libucrt:lcidtoname_downlevel.obj
 0002:000041f8       ??_C@_1M@OMLEIIJB@?$AAm?$AAi?$AA?9?$AAN?$AAZ?$AA?$AA@ 00000001800371f8     libucrt:lcidtoname_downlevel.obj
 0002:00004208       ??_C@_1M@PMPEAILG@?$AAa?$AAr?$AA?9?$AAI?$AAQ?$AA?$AA@ 0000000180037208     libucrt:lcidtoname_downlevel.obj
 0002:00004218       ??_C@_1M@CNKPNOEE@?$AAd?$AAe?$AA?9?$AAC?$AAH?$AA?$AA@ 0000000180037218     libucrt:lcidtoname_downlevel.obj
 0002:00004228       ??_C@_1M@LKMGMLKO@?$AAe?$AAn?$AA?9?$AAG?$AAB?$AA?$AA@ 0000000180037228     libucrt:lcidtoname_downlevel.obj
 0002:00004238       ??_C@_1M@PGKJFFGL@?$AAe?$AAs?$AA?9?$AAM?$AAX?$AA?$AA@ 0000000180037238     libucrt:lcidtoname_downlevel.obj
 0002:00004248       ??_C@_1M@DNNANBDC@?$AAf?$AAr?$AA?9?$AAB?$AAE?$AA?$AA@ 0000000180037248     libucrt:lcidtoname_downlevel.obj
 0002:00004258       ??_C@_1M@HLGMDFHM@?$AAi?$AAt?$AA?9?$AAC?$AAH?$AA?$AA@ 0000000180037258     libucrt:lcidtoname_downlevel.obj
 0002:00004268       ??_C@_1M@CLLBGJH@?$AAn?$AAl?$AA?9?$AAB?$AAE?$AA?$AA@ 0000000180037268     libucrt:lcidtoname_downlevel.obj
 0002:00004278       ??_C@_1M@BODBOGLF@?$AAn?$AAn?$AA?9?$AAN?$AAO?$AA?$AA@ 0000000180037278     libucrt:lcidtoname_downlevel.obj
 0002:00004288       ??_C@_1M@HFFAHKAD@?$AAp?$AAt?$AA?9?$AAP?$AAT?$AA?$AA@ 0000000180037288     libucrt:lcidtoname_downlevel.obj
 0002:00004298       ??_C@_1BG@LNOAKHIE@?$AAs?$AAr?$AA?9?$AAS?$AAP?$AA?9?$AAL?$AAa?$AAt?$AAn?$AA?$AA@ 0000000180037298     libucrt:lcidtoname_downlevel.obj
 0002:000042b0       ??_C@_1M@HBMHBGAK@?$AAs?$AAv?$AA?9?$AAF?$AAI?$AA?$AA@ 00000001800372b0     libucrt:lcidtoname_downlevel.obj
 0002:000042c0       ??_C@_1BG@DGCJGJBE@?$AAa?$AAz?$AA?9?$AAA?$AAZ?$AA?9?$AAC?$AAy?$AAr?$AAl?$AA?$AA@ 00000001800372c0     libucrt:lcidtoname_downlevel.obj
 0002:000042d8       ??_C@_1M@KEJDAAHB@?$AAs?$AAe?$AA?9?$AAS?$AAE?$AA?$AA@ 00000001800372d8     libucrt:lcidtoname_downlevel.obj
 0002:000042e8       ??_C@_1M@HEIBJJAD@?$AAm?$AAs?$AA?9?$AAB?$AAN?$AA?$AA@ 00000001800372e8     libucrt:lcidtoname_downlevel.obj
 0002:000042f8       ??_C@_1BG@PBGJMCEM@?$AAu?$AAz?$AA?9?$AAU?$AAZ?$AA?9?$AAC?$AAy?$AAr?$AAl?$AA?$AA@ 00000001800372f8     libucrt:lcidtoname_downlevel.obj
 0002:00004310       ??_C@_1O@LAOBCMDF@?$AAq?$AAu?$AAz?$AA?9?$AAE?$AAC?$AA?$AA@ 0000000180037310     libucrt:lcidtoname_downlevel.obj
 0002:00004320       ??_C@_1M@POEEMAIO@?$AAa?$AAr?$AA?9?$AAE?$AAG?$AA?$AA@ 0000000180037320     libucrt:lcidtoname_downlevel.obj
 0002:00004330       ??_C@_1M@EFAKDEDL@?$AAz?$AAh?$AA?9?$AAH?$AAK?$AA?$AA@ 0000000180037330     libucrt:lcidtoname_downlevel.obj
 0002:00004340       ??_C@_1M@HKKIJHGI@?$AAd?$AAe?$AA?9?$AAA?$AAT?$AA?$AA@ 0000000180037340     libucrt:lcidtoname_downlevel.obj
 0002:00004350       ??_C@_1M@KBFBEHJF@?$AAe?$AAn?$AA?9?$AAA?$AAU?$AA?$AA@ 0000000180037350     libucrt:lcidtoname_downlevel.obj
 0002:00004360       ??_C@_1M@MNPLFAAH@?$AAe?$AAs?$AA?9?$AAE?$AAS?$AA?$AA@ 0000000180037360     libucrt:lcidtoname_downlevel.obj
 0002:00004370       ??_C@_1M@HJOOJFMA@?$AAf?$AAr?$AA?9?$AAC?$AAA?$AA?$AA@ 0000000180037370     libucrt:lcidtoname_downlevel.obj
 0002:00004380       ??_C@_1BG@JPOFPNAB@?$AAs?$AAr?$AA?9?$AAS?$AAP?$AA?9?$AAC?$AAy?$AAr?$AAl?$AA?$AA@ 0000000180037380     libucrt:lcidtoname_downlevel.obj
 0002:00004398       ??_C@_1M@LNFOCMOB@?$AAs?$AAe?$AA?9?$AAF?$AAI?$AA?$AA@ 0000000180037398     libucrt:lcidtoname_downlevel.obj
 0002:000043a8       ??_C@_1O@MGJBOAMB@?$AAq?$AAu?$AAz?$AA?9?$AAP?$AAE?$AA?$AA@ 00000001800373a8     libucrt:lcidtoname_downlevel.obj
 0002:000043b8       ??_C@_1M@GJINLBOK@?$AAa?$AAr?$AA?9?$AAL?$AAY?$AA?$AA@ 00000001800373b8     libucrt:lcidtoname_downlevel.obj
 0002:000043c8       ??_C@_1M@GGMNHJNL@?$AAz?$AAh?$AA?9?$AAS?$AAG?$AA?$AA@ 00000001800373c8     libucrt:lcidtoname_downlevel.obj
 0002:000043d8       ??_C@_1M@HOIKODND@?$AAd?$AAe?$AA?9?$AAL?$AAU?$AA?$AA@ 00000001800373d8     libucrt:lcidtoname_downlevel.obj
 0002:000043e8       ??_C@_1M@DDOCCGFG@?$AAe?$AAn?$AA?9?$AAC?$AAA?$AA?$AA@ 00000001800373e8     libucrt:lcidtoname_downlevel.obj
 0002:000043f8       ??_C@_1M@BNOEMJLF@?$AAe?$AAs?$AA?9?$AAG?$AAT?$AA?$AA@ 00000001800373f8     libucrt:lcidtoname_downlevel.obj
 0002:00004408       ??_C@_1M@EOGNKEK@?$AAf?$AAr?$AA?9?$AAC?$AAH?$AA?$AA@ 0000000180037408     libucrt:lcidtoname_downlevel.obj
 0002:00004418       ??_C@_1M@FLIDJFHL@?$AAh?$AAr?$AA?9?$AAB?$AAA?$AA?$AA@ 0000000180037418     libucrt:lcidtoname_downlevel.obj
 0002:00004428       ??_C@_1O@FMCELNAJ@?$AAs?$AAm?$AAj?$AA?9?$AAN?$AAO?$AA?$AA@ 0000000180037428     libucrt:lcidtoname_downlevel.obj
 0002:00004438       ??_C@_1M@JHGLJMGJ@?$AAa?$AAr?$AA?9?$AAD?$AAZ?$AA?$AA@ 0000000180037438     libucrt:lcidtoname_downlevel.obj
 0002:00004448       ??_C@_1M@JKKFDCNP@?$AAz?$AAh?$AA?9?$AAM?$AAO?$AA?$AA@ 0000000180037448     libucrt:lcidtoname_downlevel.obj
 0002:00004458       ??_C@_1M@GEEFALPE@?$AAd?$AAe?$AA?9?$AAL?$AAI?$AA?$AA@ 0000000180037458     libucrt:lcidtoname_downlevel.obj
 0002:00004468       ??_C@_1M@IGEOFBG@?$AAe?$AAn?$AA?9?$AAN?$AAZ?$AA?$AA@ 0000000180037468     libucrt:lcidtoname_downlevel.obj
 0002:00004478       ??_C@_1M@KDBONEHP@?$AAe?$AAs?$AA?9?$AAC?$AAR?$AA?$AA@ 0000000180037478     libucrt:lcidtoname_downlevel.obj
 0002:00004488       ??_C@_1M@FHMDOHNN@?$AAf?$AAr?$AA?9?$AAL?$AAU?$AA?$AA@ 0000000180037488     libucrt:lcidtoname_downlevel.obj
 0002:00004498       ??_C@_1BG@NFKKMAFG@?$AAb?$AAs?$AA?9?$AAB?$AAA?$AA?9?$AAL?$AAa?$AAt?$AAn?$AA?$AA@ 0000000180037498     libucrt:lcidtoname_downlevel.obj
 0002:000044b0       ??_C@_1O@IMNBEMCI@?$AAs?$AAm?$AAj?$AA?9?$AAS?$AAE?$AA?$AA@ 00000001800374b0     libucrt:lcidtoname_downlevel.obj
 0002:000044c0       ??_C@_1M@DHHMBNDP@?$AAa?$AAr?$AA?9?$AAM?$AAA?$AA?$AA@ 00000001800374c0     libucrt:lcidtoname_downlevel.obj
 0002:000044d0       ??_C@_1M@BNBLJCGH@?$AAe?$AAn?$AA?9?$AAI?$AAE?$AA?$AA@ 00000001800374d0     libucrt:lcidtoname_downlevel.obj
 0002:000044e0       ??_C@_1M@GEPAFMDL@?$AAe?$AAs?$AA?9?$AAP?$AAA?$AA?$AA@ 00000001800374e0     libucrt:lcidtoname_downlevel.obj
 0002:000044f0       ??_C@_1M@OJONDMDL@?$AAf?$AAr?$AA?9?$AAM?$AAC?$AA?$AA@ 00000001800374f0     libucrt:lcidtoname_downlevel.obj
 0002:00004500       ??_C@_1BG@OBCNFJB@?$AAs?$AAr?$AA?9?$AAB?$AAA?$AA?9?$AAL?$AAa?$AAt?$AAn?$AA?$AA@ 0000000180037500     libucrt:lcidtoname_downlevel.obj
 0002:00004518       ??_C@_1O@KEMEEGPO@?$AAs?$AAm?$AAa?$AA?9?$AAN?$AAO?$AA?$AA@ 0000000180037518     libucrt:lcidtoname_downlevel.obj
 0002:00004528       ??_C@_1M@ELMGFODK@?$AAa?$AAr?$AA?9?$AAT?$AAN?$AA?$AA@ 0000000180037528     libucrt:lcidtoname_downlevel.obj
 0002:00004538       ??_C@_1M@BHDLHFAF@?$AAe?$AAn?$AA?9?$AAZ?$AAA?$AA?$AA@ 0000000180037538     libucrt:lcidtoname_downlevel.obj
 0002:00004548       ??_C@_1M@BMGIGLIF@?$AAe?$AAs?$AA?9?$AAD?$AAO?$AA?$AA@ 0000000180037548     libucrt:lcidtoname_downlevel.obj
 0002:00004558       ??_C@_1BG@CMBHIPBE@?$AAs?$AAr?$AA?9?$AAB?$AAA?$AA?9?$AAC?$AAy?$AAr?$AAl?$AA?$AA@ 0000000180037558     libucrt:lcidtoname_downlevel.obj
 0002:00004570       ??_C@_1O@HEDBLHNP@?$AAs?$AAm?$AAa?$AA?9?$AAS?$AAE?$AA?$AA@ 0000000180037570     libucrt:lcidtoname_downlevel.obj
 0002:00004580       ??_C@_1M@DAGCADIM@?$AAa?$AAr?$AA?9?$AAO?$AAM?$AA?$AA@ 0000000180037580     libucrt:lcidtoname_downlevel.obj
 0002:00004590       ??_C@_1M@FODLMICG@?$AAe?$AAn?$AA?9?$AAJ?$AAM?$AA?$AA@ 0000000180037590     libucrt:lcidtoname_downlevel.obj
 0002:000045a0       ??_C@_1M@DNMLCIHB@?$AAe?$AAs?$AA?9?$AAV?$AAE?$AA?$AA@ 00000001800375a0     libucrt:lcidtoname_downlevel.obj
 0002:000045b0       ??_C@_1O@EOKHMKJK@?$AAs?$AAm?$AAs?$AA?9?$AAF?$AAI?$AA?$AA@ 00000001800375b0     libucrt:lcidtoname_downlevel.obj
 0002:000045c0       ??_C@_1M@CAFJMKOF@?$AAa?$AAr?$AA?9?$AAY?$AAE?$AA?$AA@ 00000001800375c0     libucrt:lcidtoname_downlevel.obj
 0002:000045d0       ??_C@_1M@CBFHIJLI@?$AAe?$AAn?$AA?9?$AAC?$AAB?$AA?$AA@ 00000001800375d0     libucrt:lcidtoname_downlevel.obj
 0002:000045e0       ??_C@_1M@BGNFLDN@?$AAe?$AAs?$AA?9?$AAC?$AAO?$AA?$AA@ 00000001800375e0     libucrt:lcidtoname_downlevel.obj
 0002:000045f0       ??_C@_1O@JMPHMAMC@?$AAs?$AAm?$AAn?$AA?9?$AAF?$AAI?$AA?$AA@ 00000001800375f0     libucrt:lcidtoname_downlevel.obj
 0002:00004600       ??_C@_1M@JLANABKE@?$AAa?$AAr?$AA?9?$AAS?$AAY?$AA?$AA@ 0000000180037600     libucrt:lcidtoname_downlevel.obj
 0002:00004610       ??_C@_1M@HPKGCFGN@?$AAe?$AAn?$AA?9?$AAB?$AAZ?$AA?$AA@ 0000000180037610     libucrt:lcidtoname_downlevel.obj
 0002:00004620       ??_C@_1M@OLJCMLGM@?$AAe?$AAs?$AA?9?$AAP?$AAE?$AA?$AA@ 0000000180037620     libucrt:lcidtoname_downlevel.obj
 0002:00004630       ??_C@_1M@MKKGFKLE@?$AAa?$AAr?$AA?9?$AAJ?$AAO?$AA?$AA@ 0000000180037630     libucrt:lcidtoname_downlevel.obj
 0002:00004640       ??_C@_1M@EKPGLDNI@?$AAe?$AAn?$AA?9?$AAT?$AAT?$AA?$AA@ 0000000180037640     libucrt:lcidtoname_downlevel.obj
 0002:00004650       ??_C@_1M@OONGHFHE@?$AAe?$AAs?$AA?9?$AAA?$AAR?$AA?$AA@ 0000000180037650     libucrt:lcidtoname_downlevel.obj
 0002:00004660       ??_C@_1M@OOJFGBHE@?$AAa?$AAr?$AA?9?$AAL?$AAB?$AA?$AA@ 0000000180037660     libucrt:lcidtoname_downlevel.obj
 0002:00004670       ??_C@_1M@GCEJHNEG@?$AAe?$AAn?$AA?9?$AAZ?$AAW?$AA?$AA@ 0000000180037670     libucrt:lcidtoname_downlevel.obj
 0002:00004680       ??_C@_1M@JNOCAHJI@?$AAe?$AAs?$AA?9?$AAE?$AAC?$AA?$AA@ 0000000180037680     libucrt:lcidtoname_downlevel.obj
 0002:00004690       ??_C@_1M@JEFHPGGB@?$AAa?$AAr?$AA?9?$AAK?$AAW?$AA?$AA@ 0000000180037690     libucrt:lcidtoname_downlevel.obj
 0002:000046a0       ??_C@_1M@MLKIBJOJ@?$AAe?$AAn?$AA?9?$AAP?$AAH?$AA?$AA@ 00000001800376a0     libucrt:lcidtoname_downlevel.obj
 0002:000046b0       ??_C@_1M@BDNIPEND@?$AAe?$AAs?$AA?9?$AAC?$AAL?$AA?$AA@ 00000001800376b0     libucrt:lcidtoname_downlevel.obj
 0002:000046c0       ??_C@_1M@MPNMEKBD@?$AAa?$AAr?$AA?9?$AAA?$AAE?$AA?$AA@ 00000001800376c0     libucrt:lcidtoname_downlevel.obj
 0002:000046d0       ??_C@_1M@KBJALCPI@?$AAe?$AAs?$AA?9?$AAU?$AAY?$AA?$AA@ 00000001800376d0     libucrt:lcidtoname_downlevel.obj
 0002:000046e0       ??_C@_1M@LLCCOAGA@?$AAa?$AAr?$AA?9?$AAB?$AAH?$AA?$AA@ 00000001800376e0     libucrt:lcidtoname_downlevel.obj
 0002:000046f0       ??_C@_1M@PBFNCDEL@?$AAe?$AAs?$AA?9?$AAP?$AAY?$AA?$AA@ 00000001800376f0     libucrt:lcidtoname_downlevel.obj
 0002:00004700       ??_C@_1M@EDGINPNP@?$AAa?$AAr?$AA?9?$AAQ?$AAA?$AA?$AA@ 0000000180037700     libucrt:lcidtoname_downlevel.obj
 0002:00004710       ??_C@_1M@MKDBIIJI@?$AAe?$AAs?$AA?9?$AAB?$AAO?$AA?$AA@ 0000000180037710     libucrt:lcidtoname_downlevel.obj
 0002:00004720       ??_C@_1M@CPKKEBLD@?$AAe?$AAs?$AA?9?$AAS?$AAV?$AA?$AA@ 0000000180037720     libucrt:lcidtoname_downlevel.obj
 0002:00004730       ??_C@_1M@NDBGMMJL@?$AAe?$AAs?$AA?9?$AAH?$AAN?$AA?$AA@ 0000000180037730     libucrt:lcidtoname_downlevel.obj
 0002:00004740       ??_C@_1M@JIJIBHDP@?$AAe?$AAs?$AA?9?$AAN?$AAI?$AA?$AA@ 0000000180037740     libucrt:lcidtoname_downlevel.obj
 0002:00004750       ??_C@_1M@CGFMKEEK@?$AAe?$AAs?$AA?9?$AAP?$AAR?$AA?$AA@ 0000000180037750     libucrt:lcidtoname_downlevel.obj
 0002:00004760       ??_C@_1O@ICJHKIIK@?$AAz?$AAh?$AA?9?$AAC?$AAH?$AAT?$AA?$AA@ 0000000180037760     libucrt:lcidtoname_downlevel.obj
 0002:00004770       ??_C@_15CLNEJCE@?$AAs?$AAr?$AA?$AA@ 0000000180037770     libucrt:lcidtoname_downlevel.obj
 0002:000055c0       ??_C@_1M@KAHEKEIG@?$AAa?$AAf?$AA?9?$AAz?$AAa?$AA?$AA@ 00000001800385c0     libucrt:lcidtoname_downlevel.obj
 0002:000055d0       ??_C@_1M@GIECOABL@?$AAa?$AAr?$AA?9?$AAa?$AAe?$AA?$AA@ 00000001800385d0     libucrt:lcidtoname_downlevel.obj
 0002:000055e0       ??_C@_1M@BMLMEKGI@?$AAa?$AAr?$AA?9?$AAb?$AAh?$AA?$AA@ 00000001800385e0     libucrt:lcidtoname_downlevel.obj
 0002:000055f0       ??_C@_1M@DAPFDGGB@?$AAa?$AAr?$AA?9?$AAd?$AAz?$AA?$AA@ 00000001800385f0     libucrt:lcidtoname_downlevel.obj
 0002:00005600       ??_C@_1M@FJNKGKIG@?$AAa?$AAr?$AA?9?$AAe?$AAg?$AA?$AA@ 0000000180038600     libucrt:lcidtoname_downlevel.obj
 0002:00005610       ??_C@_1M@FLGKKCLO@?$AAa?$AAr?$AA?9?$AAi?$AAq?$AA?$AA@ 0000000180038610     libucrt:lcidtoname_downlevel.obj
 0002:00005620       ??_C@_1M@GNDIPALM@?$AAa?$AAr?$AA?9?$AAj?$AAo?$AA?$AA@ 0000000180038620     libucrt:lcidtoname_downlevel.obj
 0002:00005630       ??_C@_1M@DDMJFMGJ@?$AAa?$AAr?$AA?9?$AAk?$AAw?$AA?$AA@ 0000000180038630     libucrt:lcidtoname_downlevel.obj
 0002:00005640       ??_C@_1M@EJALMLHM@?$AAa?$AAr?$AA?9?$AAl?$AAb?$AA?$AA@ 0000000180038640     libucrt:lcidtoname_downlevel.obj
 0002:00005650       ??_C@_1M@MOBDBLOC@?$AAa?$AAr?$AA?9?$AAl?$AAy?$AA?$AA@ 0000000180038650     libucrt:lcidtoname_downlevel.obj
 0002:00005660       ??_C@_1M@JAOCLHDH@?$AAa?$AAr?$AA?9?$AAm?$AAa?$AA?$AA@ 0000000180038660     libucrt:lcidtoname_downlevel.obj
 0002:00005670       ??_C@_1M@JHPMKJIE@?$AAa?$AAr?$AA?9?$AAo?$AAm?$AA?$AA@ 0000000180038670     libucrt:lcidtoname_downlevel.obj
 0002:00005680       ??_C@_1M@OEPGHFNH@?$AAa?$AAr?$AA?9?$AAq?$AAa?$AA?$AA@ 0000000180038680     libucrt:lcidtoname_downlevel.obj
 0002:00005690       ??_C@_1M@KJDONENM@?$AAa?$AAr?$AA?9?$AAs?$AAa?$AA?$AA@ 0000000180038690     libucrt:lcidtoname_downlevel.obj
 0002:000056a0       ??_C@_1M@DMJDKLKM@?$AAa?$AAr?$AA?9?$AAs?$AAy?$AA?$AA@ 00000001800386a0     libucrt:lcidtoname_downlevel.obj
 0002:000056b0       ??_C@_1M@OMFIPEDC@?$AAa?$AAr?$AA?9?$AAt?$AAn?$AA?$AA@ 00000001800386b0     libucrt:lcidtoname_downlevel.obj
 0002:000056c0       ??_C@_1M@IHMHGAON@?$AAa?$AAr?$AA?9?$AAy?$AAe?$AA?$AA@ 00000001800386c0     libucrt:lcidtoname_downlevel.obj
 0002:000056d0       ??_C@_1BG@KDCPGJGB@?$AAa?$AAz?$AA?9?$AAa?$AAz?$AA?9?$AAc?$AAy?$AAr?$AAl?$AA?$AA@ 00000001800386d0     libucrt:lcidtoname_downlevel.obj
 0002:000056e8       ??_C@_1BG@IBCKDDOE@?$AAa?$AAz?$AA?9?$AAa?$AAz?$AA?9?$AAl?$AAa?$AAt?$AAn?$AA?$AA@ 00000001800386e8     libucrt:lcidtoname_downlevel.obj
 0002:00005700       ??_C@_1M@EGPFDCPD@?$AAb?$AAe?$AA?9?$AAb?$AAy?$AA?$AA@ 0000000180038700     libucrt:lcidtoname_downlevel.obj
 0002:00005710       ??_C@_1M@PCMGMCGC@?$AAb?$AAg?$AA?9?$AAb?$AAg?$AA?$AA@ 0000000180038710     libucrt:lcidtoname_downlevel.obj
 0002:00005720       ??_C@_1M@BJBMFGOB@?$AAb?$AAn?$AA?9?$AAi?$AAn?$AA?$AA@ 0000000180038720     libucrt:lcidtoname_downlevel.obj
 0002:00005730       ??_C@_1BG@EAKMMACD@?$AAb?$AAs?$AA?9?$AAb?$AAa?$AA?9?$AAl?$AAa?$AAt?$AAn?$AA?$AA@ 0000000180038730     libucrt:lcidtoname_downlevel.obj
 0002:00005748       ??_C@_1M@KGADAODK@?$AAc?$AAa?$AA?9?$AAe?$AAs?$AA?$AA@ 0000000180038748     libucrt:lcidtoname_downlevel.obj
 0002:00005758       ??_C@_1M@COAJPDHI@?$AAc?$AAs?$AA?9?$AAc?$AAz?$AA?$AA@ 0000000180038758     libucrt:lcidtoname_downlevel.obj
 0002:00005768       ??_C@_1M@DHBHFONH@?$AAc?$AAy?$AA?9?$AAg?$AAb?$AA?$AA@ 0000000180038768     libucrt:lcidtoname_downlevel.obj
 0002:00005778       ??_C@_1M@IMGKELGA@?$AAd?$AAa?$AA?9?$AAd?$AAk?$AA?$AA@ 0000000180038778     libucrt:lcidtoname_downlevel.obj
 0002:00005788       ??_C@_1M@NNDGDNGA@?$AAd?$AAe?$AA?9?$AAa?$AAt?$AA?$AA@ 0000000180038788     libucrt:lcidtoname_downlevel.obj
 0002:00005798       ??_C@_1M@IKDBHEEM@?$AAd?$AAe?$AA?9?$AAc?$AAh?$AA?$AA@ 0000000180038798     libucrt:lcidtoname_downlevel.obj
 0002:000057a8       ??_C@_1M@GFFOJMCJ@?$AAd?$AAe?$AA?9?$AAd?$AAe?$AA?$AA@ 00000001800387a8     libucrt:lcidtoname_downlevel.obj
 0002:000057b8       ??_C@_1M@MDNLKBPM@?$AAd?$AAe?$AA?9?$AAl?$AAi?$AA?$AA@ 00000001800387b8     libucrt:lcidtoname_downlevel.obj
 0002:000057c8       ??_C@_1M@NJBEEJNL@?$AAd?$AAe?$AA?9?$AAl?$AAu?$AA?$AA@ 00000001800387c8     libucrt:lcidtoname_downlevel.obj
 0002:000057d8       ??_C@_1O@GNNELBAP@?$AAd?$AAi?$AAv?$AA?9?$AAm?$AAv?$AA?$AA@ 00000001800387d8     libucrt:lcidtoname_downlevel.obj
 0002:000057e8       ??_C@_1M@EJLEOGAE@?$AAe?$AAl?$AA?9?$AAg?$AAr?$AA?$AA@ 00000001800387e8     libucrt:lcidtoname_downlevel.obj
 0002:000057f8       ??_C@_1M@GMPONJN@?$AAe?$AAn?$AA?9?$AAa?$AAu?$AA?$AA@ 00000001800387f8     libucrt:lcidtoname_downlevel.obj
 0002:00005808       ??_C@_1M@NIDIIPGF@?$AAe?$AAn?$AA?9?$AAb?$AAz?$AA?$AA@ 0000000180038808     libucrt:lcidtoname_downlevel.obj
 0002:00005818       ??_C@_1M@JEHMIMFO@?$AAe?$AAn?$AA?9?$AAc?$AAa?$AA?$AA@ 0000000180038818     libucrt:lcidtoname_downlevel.obj
 0002:00005828       ??_C@_1M@IGMJCDLA@?$AAe?$AAn?$AA?9?$AAc?$AAb?$AA?$AA@ 0000000180038828     libucrt:lcidtoname_downlevel.obj
 0002:00005838       ??_C@_1M@BNFIGBKG@?$AAe?$AAn?$AA?9?$AAg?$AAb?$AA?$AA@ 0000000180038838     libucrt:lcidtoname_downlevel.obj
 0002:00005848       ??_C@_1M@LKIFDIGP@?$AAe?$AAn?$AA?9?$AAi?$AAe?$AA?$AA@ 0000000180038848     libucrt:lcidtoname_downlevel.obj
 0002:00005858       ??_C@_1M@PJKFGCCO@?$AAe?$AAn?$AA?9?$AAj?$AAm?$AA?$AA@ 0000000180038858     libucrt:lcidtoname_downlevel.obj
 0002:00005868       ??_C@_1M@KPPKEPBO@?$AAe?$AAn?$AA?9?$AAn?$AAz?$AA?$AA@ 0000000180038868     libucrt:lcidtoname_downlevel.obj
 0002:00005878       ??_C@_1M@GMDGLDOB@?$AAe?$AAn?$AA?9?$AAp?$AAh?$AA?$AA@ 0000000180038878     libucrt:lcidtoname_downlevel.obj
 0002:00005888       ??_C@_1M@ONGIBJNA@?$AAe?$AAn?$AA?9?$AAt?$AAt?$AA?$AA@ 0000000180038888     libucrt:lcidtoname_downlevel.obj
 0002:00005898       ??_C@_1M@LLODPCMM@?$AAe?$AAn?$AA?9?$AAu?$AAs?$AA?$AA@ 0000000180038898     libucrt:lcidtoname_downlevel.obj
 0002:000058a8       ??_C@_1M@LAKFNPAN@?$AAe?$AAn?$AA?9?$AAz?$AAa?$AA?$AA@ 00000001800388a8     libucrt:lcidtoname_downlevel.obj
 0002:000058b8       ??_C@_1M@MFNHNHEO@?$AAe?$AAn?$AA?9?$AAz?$AAw?$AA?$AA@ 00000001800388b8     libucrt:lcidtoname_downlevel.obj
 0002:000058c8       ??_C@_1M@EJEINPHM@?$AAe?$AAs?$AA?9?$AAa?$AAr?$AA?$AA@ 00000001800388c8     libucrt:lcidtoname_downlevel.obj
 0002:000058d8       ??_C@_1M@GNKPCCJA@?$AAe?$AAs?$AA?9?$AAb?$AAo?$AA?$AA@ 00000001800388d8     libucrt:lcidtoname_downlevel.obj
 0002:000058e8       ??_C@_1M@LEEGFONL@?$AAe?$AAs?$AA?9?$AAc?$AAl?$AA?$AA@ 00000001800388e8     libucrt:lcidtoname_downlevel.obj
 0002:000058f8       ??_C@_1M@KGPDPBDF@?$AAe?$AAs?$AA?9?$AAc?$AAo?$AA?$AA@ 00000001800388f8     libucrt:lcidtoname_downlevel.obj
 0002:00005908       ??_C@_1M@EIAHOHH@?$AAe?$AAs?$AA?9?$AAc?$AAr?$AA?$AA@ 0000000180038908     libucrt:lcidtoname_downlevel.obj
 0002:00005918       ??_C@_1M@LLPGMBIN@?$AAe?$AAs?$AA?9?$AAd?$AAo?$AA?$AA@ 0000000180038918     libucrt:lcidtoname_downlevel.obj
 0002:00005928       ??_C@_1M@DKHMKNJA@?$AAe?$AAs?$AA?9?$AAe?$AAc?$AA?$AA@ 0000000180038928     libucrt:lcidtoname_downlevel.obj
 0002:00005938       ??_C@_1M@GKGFPKAP@?$AAe?$AAs?$AA?9?$AAe?$AAs?$AA?$AA@ 0000000180038938     libucrt:lcidtoname_downlevel.obj
 0002:00005948       ??_C@_1M@LKHKGDLN@?$AAe?$AAs?$AA?9?$AAg?$AAt?$AA?$AA@ 0000000180038948     libucrt:lcidtoname_downlevel.obj
 0002:00005958       ??_C@_1M@HEIIGGJD@?$AAe?$AAs?$AA?9?$AAh?$AAn?$AA?$AA@ 0000000180038958     libucrt:lcidtoname_downlevel.obj
 0002:00005968       ??_C@_1M@FBDHPPGD@?$AAe?$AAs?$AA?9?$AAm?$AAx?$AA?$AA@ 0000000180038968     libucrt:lcidtoname_downlevel.obj
 0002:00005978       ??_C@_1M@DPAGLNDH@?$AAe?$AAs?$AA?9?$AAn?$AAi?$AA?$AA@ 0000000180038978     libucrt:lcidtoname_downlevel.obj
 0002:00005988       ??_C@_1M@MDGOPGDD@?$AAe?$AAs?$AA?9?$AAp?$AAa?$AA?$AA@ 0000000180038988     libucrt:lcidtoname_downlevel.obj
 0002:00005998       ??_C@_1M@EMAMGBGE@?$AAe?$AAs?$AA?9?$AAp?$AAe?$AA?$AA@ 0000000180038998     libucrt:lcidtoname_downlevel.obj
 0002:000059a8       ??_C@_1M@IBMCAOEC@?$AAe?$AAs?$AA?9?$AAp?$AAr?$AA?$AA@ 00000001800389a8     libucrt:lcidtoname_downlevel.obj
 0002:000059b8       ??_C@_1M@FGMDIJED@?$AAe?$AAs?$AA?9?$AAp?$AAy?$AA?$AA@ 00000001800389b8     libucrt:lcidtoname_downlevel.obj
 0002:000059c8       ??_C@_1M@IIDEOLLL@?$AAe?$AAs?$AA?9?$AAs?$AAv?$AA?$AA@ 00000001800389c8     libucrt:lcidtoname_downlevel.obj
 0002:000059d8       ??_C@_1M@GAOBIPA@?$AAe?$AAs?$AA?9?$AAu?$AAy?$AA?$AA@ 00000001800389d8     libucrt:lcidtoname_downlevel.obj
 0002:000059e8       ??_C@_1M@JKFFICHJ@?$AAe?$AAs?$AA?9?$AAv?$AAe?$AA?$AA@ 00000001800389e8     libucrt:lcidtoname_downlevel.obj
 0002:000059f8       ??_C@_1M@PNMLOJDF@?$AAe?$AAt?$AA?9?$AAe?$AAe?$AA?$AA@ 00000001800389f8     libucrt:lcidtoname_downlevel.obj
 0002:00005a08       ??_C@_1M@GHHLIKEI@?$AAe?$AAu?$AA?9?$AAe?$AAs?$AA?$AA@ 0000000180038a08     libucrt:lcidtoname_downlevel.obj
 0002:00005a18       ??_C@_1M@PBNONODE@?$AAf?$AAa?$AA?9?$AAi?$AAr?$AA?$AA@ 0000000180038a18     libucrt:lcidtoname_downlevel.obj
 0002:00005a28       ??_C@_1M@JEEHPMIL@?$AAf?$AAi?$AA?9?$AAf?$AAi?$AA?$AA@ 0000000180038a28     libucrt:lcidtoname_downlevel.obj
 0002:00005a38       ??_C@_1M@LMDCNDBA@?$AAf?$AAo?$AA?9?$AAf?$AAo?$AA?$AA@ 0000000180038a38     libucrt:lcidtoname_downlevel.obj
 0002:00005a48       ??_C@_1M@JKEOHLDK@?$AAf?$AAr?$AA?9?$AAb?$AAe?$AA?$AA@ 0000000180038a48     libucrt:lcidtoname_downlevel.obj
 0002:00005a58       ??_C@_1M@NOHADPMI@?$AAf?$AAr?$AA?9?$AAc?$AAa?$AA?$AA@ 0000000180038a58     libucrt:lcidtoname_downlevel.obj
 0002:00005a68       ??_C@_1M@KDHIHAEC@?$AAf?$AAr?$AA?9?$AAc?$AAh?$AA?$AA@ 0000000180038a68     libucrt:lcidtoname_downlevel.obj
 0002:00005a78       ??_C@_1M@MMBBFGAK@?$AAf?$AAr?$AA?9?$AAf?$AAr?$AA?$AA@ 0000000180038a78     libucrt:lcidtoname_downlevel.obj
 0002:00005a88       ??_C@_1M@PAFNENNF@?$AAf?$AAr?$AA?9?$AAl?$AAu?$AA?$AA@ 0000000180038a88     libucrt:lcidtoname_downlevel.obj
 0002:00005a98       ??_C@_1M@EOHDJGDD@?$AAf?$AAr?$AA?9?$AAm?$AAc?$AA?$AA@ 0000000180038a98     libucrt:lcidtoname_downlevel.obj
 0002:00005aa8       ??_C@_1M@FAPLLOPF@?$AAg?$AAl?$AA?9?$AAe?$AAs?$AA?$AA@ 0000000180038aa8     libucrt:lcidtoname_downlevel.obj
 0002:00005ab8       ??_C@_1M@FOPBFLOO@?$AAg?$AAu?$AA?9?$AAi?$AAn?$AA?$AA@ 0000000180038ab8     libucrt:lcidtoname_downlevel.obj
 0002:00005ac8       ??_C@_1M@KBMCINPM@?$AAh?$AAe?$AA?9?$AAi?$AAl?$AA?$AA@ 0000000180038ac8     libucrt:lcidtoname_downlevel.obj
 0002:00005ad8       ??_C@_1M@BBPHKFPJ@?$AAh?$AAi?$AA?9?$AAi?$AAn?$AA?$AA@ 0000000180038ad8     libucrt:lcidtoname_downlevel.obj
 0002:00005ae8       ??_C@_1M@PMBNDPHD@?$AAh?$AAr?$AA?9?$AAb?$AAa?$AA?$AA@ 0000000180038ae8     libucrt:lcidtoname_downlevel.obj
 0002:00005af8       ??_C@_1M@BPCKOEGE@?$AAh?$AAr?$AA?9?$AAh?$AAr?$AA?$AA@ 0000000180038af8     libucrt:lcidtoname_downlevel.obj
 0002:00005b08       ??_C@_1M@GACBMHKE@?$AAh?$AAu?$AA?9?$AAh?$AAu?$AA?$AA@ 0000000180038b08     libucrt:lcidtoname_downlevel.obj
 0002:00005b18       ??_C@_1M@MILPAJJC@?$AAh?$AAy?$AA?9?$AAa?$AAm?$AA?$AA@ 0000000180038b18     libucrt:lcidtoname_downlevel.obj
 0002:00005b28       ??_C@_1M@BABBICEC@?$AAi?$AAd?$AA?9?$AAi?$AAd?$AA?$AA@ 0000000180038b28     libucrt:lcidtoname_downlevel.obj
 0002:00005b38       ??_C@_1M@BIKNHHPF@?$AAi?$AAs?$AA?9?$AAi?$AAs?$AA?$AA@ 0000000180038b38     libucrt:lcidtoname_downlevel.obj
 0002:00005b48       ??_C@_1M@NMPCJPHE@?$AAi?$AAt?$AA?9?$AAc?$AAh?$AA?$AA@ 0000000180038b48     libucrt:lcidtoname_downlevel.obj
 0002:00005b58       ??_C@_1M@GHKGFEDF@?$AAi?$AAt?$AA?9?$AAi?$AAt?$AA?$AA@ 0000000180038b58     libucrt:lcidtoname_downlevel.obj
 0002:00005b68       ??_C@_1M@NIEJCJJA@?$AAj?$AAa?$AA?9?$AAj?$AAp?$AA?$AA@ 0000000180038b68     libucrt:lcidtoname_downlevel.obj
 0002:00005b78       ??_C@_1M@JILFNBIM@?$AAk?$AAa?$AA?9?$AAg?$AAe?$AA?$AA@ 0000000180038b78     libucrt:lcidtoname_downlevel.obj
 0002:00005b88       ??_C@_1M@PACPMGPH@?$AAk?$AAk?$AA?9?$AAk?$AAz?$AA?$AA@ 0000000180038b88     libucrt:lcidtoname_downlevel.obj
 0002:00005b98       ??_C@_1M@IELFGMHA@?$AAk?$AAn?$AA?9?$AAi?$AAn?$AA?$AA@ 0000000180038b98     libucrt:lcidtoname_downlevel.obj
 0002:00005ba8       ??_C@_1O@IBBJHCH@?$AAk?$AAo?$AAk?$AA?9?$AAi?$AAn?$AA?$AA@ 0000000180038ba8     libucrt:lcidtoname_downlevel.obj
 0002:00005bb8       ??_C@_1M@DMHAEOGC@?$AAk?$AAo?$AA?9?$AAk?$AAr?$AA?$AA@ 0000000180038bb8     libucrt:lcidtoname_downlevel.obj
 0002:00005bc8       ??_C@_1M@HBAHBIGA@?$AAk?$AAy?$AA?9?$AAk?$AAg?$AA?$AA@ 0000000180038bc8     libucrt:lcidtoname_downlevel.obj
 0002:00005bd8       ??_C@_1M@KPMILCJG@?$AAl?$AAt?$AA?9?$AAl?$AAt?$AA?$AA@ 0000000180038bd8     libucrt:lcidtoname_downlevel.obj
 0002:00005be8       ??_C@_1M@BDEKKCA@?$AAl?$AAv?$AA?9?$AAl?$AAv?$AA?$AA@ 0000000180038be8     libucrt:lcidtoname_downlevel.obj
 0002:00005bf8       ??_C@_1M@ELCKCCJJ@?$AAm?$AAi?$AA?9?$AAn?$AAz?$AA?$AA@ 0000000180038bf8     libucrt:lcidtoname_downlevel.obj
 0002:00005c08       ??_C@_1M@CBOOLAPA@?$AAm?$AAk?$AA?9?$AAm?$AAk?$AA?$AA@ 0000000180038c08     libucrt:lcidtoname_downlevel.obj
 0002:00005c18       ??_C@_1M@GPHNBJKN@?$AAm?$AAl?$AA?9?$AAi?$AAn?$AA?$AA@ 0000000180038c18     libucrt:lcidtoname_downlevel.obj
 0002:00005c28       ??_C@_1M@PABJILIG@?$AAm?$AAn?$AA?9?$AAm?$AAn?$AA?$AA@ 0000000180038c28     libucrt:lcidtoname_downlevel.obj
 0002:00005c38       ??_C@_1M@FGBKKIPG@?$AAm?$AAr?$AA?9?$AAi?$AAn?$AA?$AA@ 0000000180038c38     libucrt:lcidtoname_downlevel.obj
 0002:00005c48       ??_C@_1M@NDBPDDAL@?$AAm?$AAs?$AA?9?$AAb?$AAn?$AA?$AA@ 0000000180038c48     libucrt:lcidtoname_downlevel.obj
 0002:00005c58       ??_C@_1M@OPIHOOPI@?$AAm?$AAs?$AA?9?$AAm?$AAy?$AA?$AA@ 0000000180038c58     libucrt:lcidtoname_downlevel.obj
 0002:00005c68       ??_C@_1M@PPDBCNFM@?$AAm?$AAt?$AA?9?$AAm?$AAt?$AA?$AA@ 0000000180038c68     libucrt:lcidtoname_downlevel.obj
 0002:00005c78       ??_C@_1M@KDJDKMDD@?$AAn?$AAb?$AA?9?$AAn?$AAo?$AA?$AA@ 0000000180038c78     libucrt:lcidtoname_downlevel.obj
 0002:00005c88       ??_C@_1M@KFCFLMJP@?$AAn?$AAl?$AA?9?$AAb?$AAe?$AA?$AA@ 0000000180038c88     libucrt:lcidtoname_downlevel.obj
 0002:00005c98       ??_C@_1M@KPOPDDGO@?$AAn?$AAl?$AA?9?$AAn?$AAl?$AA?$AA@ 0000000180038c98     libucrt:lcidtoname_downlevel.obj
 0002:00005ca8       ??_C@_1M@LJKPEMLN@?$AAn?$AAn?$AA?9?$AAn?$AAo?$AA?$AA@ 0000000180038ca8     libucrt:lcidtoname_downlevel.obj
 0002:00005cb8       ??_C@_1M@BDGHHBFL@?$AAn?$AAs?$AA?9?$AAz?$AAa?$AA?$AA@ 0000000180038cb8     libucrt:lcidtoname_downlevel.obj
 0002:00005cc8       ??_C@_1M@IDEHOAP@?$AAp?$AAa?$AA?9?$AAi?$AAn?$AA?$AA@ 0000000180038cc8     libucrt:lcidtoname_downlevel.obj
 0002:00005cd8       ??_C@_1M@HDBKGOGH@?$AAp?$AAl?$AA?9?$AAp?$AAl?$AA?$AA@ 0000000180038cd8     libucrt:lcidtoname_downlevel.obj
 0002:00005ce8       ??_C@_1M@LJLLCMEH@?$AAp?$AAt?$AA?9?$AAb?$AAr?$AA?$AA@ 0000000180038ce8     libucrt:lcidtoname_downlevel.obj
 0002:00005cf8       ??_C@_1M@NCMONAAL@?$AAp?$AAt?$AA?9?$AAp?$AAt?$AA?$AA@ 0000000180038cf8     libucrt:lcidtoname_downlevel.obj
 0002:00005d08       ??_C@_1O@EAKMAJDN@?$AAq?$AAu?$AAz?$AA?9?$AAb?$AAo?$AA?$AA@ 0000000180038d08     libucrt:lcidtoname_downlevel.obj
 0002:00005d18       ??_C@_1O@BHHPIGDN@?$AAq?$AAu?$AAz?$AA?9?$AAe?$AAc?$AA?$AA@ 0000000180038d18     libucrt:lcidtoname_downlevel.obj
 0002:00005d28       ??_C@_1O@GBAPEKMJ@?$AAq?$AAu?$AAz?$AA?9?$AAp?$AAe?$AA?$AA@ 0000000180038d28     libucrt:lcidtoname_downlevel.obj
 0002:00005d38       ??_C@_1M@CLGLEFBO@?$AAr?$AAo?$AA?9?$AAr?$AAo?$AA?$AA@ 0000000180038d38     libucrt:lcidtoname_downlevel.obj
 0002:00005d48       ??_C@_1M@CEEDODME@?$AAr?$AAu?$AA?9?$AAr?$AAu?$AA?$AA@ 0000000180038d48     libucrt:lcidtoname_downlevel.obj
 0002:00005d58       ??_C@_1M@HPKKKMPP@?$AAs?$AAa?$AA?9?$AAi?$AAn?$AA?$AA@ 0000000180038d58     libucrt:lcidtoname_downlevel.obj
 0002:00005d68       ??_C@_1M@BKMAIGOJ@?$AAs?$AAe?$AA?9?$AAf?$AAi?$AA?$AA@ 0000000180038d68     libucrt:lcidtoname_downlevel.obj
 0002:00005d78       ??_C@_1M@NDPIFLFI@?$AAs?$AAe?$AA?9?$AAn?$AAo?$AA?$AA@ 0000000180038d78     libucrt:lcidtoname_downlevel.obj
 0002:00005d88       ??_C@_1M@DANKKHJ@?$AAs?$AAe?$AA?9?$AAs?$AAe?$AA?$AA@ 0000000180038d88     libucrt:lcidtoname_downlevel.obj
 0002:00005d98       ??_C@_1M@PNBLONPJ@?$AAs?$AAk?$AA?9?$AAs?$AAk?$AA?$AA@ 0000000180038d98     libucrt:lcidtoname_downlevel.obj
 0002:00005da8       ??_C@_1M@LFMODOAL@?$AAs?$AAl?$AA?9?$AAs?$AAi?$AA?$AA@ 0000000180038da8     libucrt:lcidtoname_downlevel.obj
 0002:00005db8       ??_C@_1O@DFKOMPG@?$AAs?$AAm?$AAa?$AA?9?$AAn?$AAo?$AA?$AA@ 0000000180038db8     libucrt:lcidtoname_downlevel.obj
 0002:00005dc8       ??_C@_1O@NDKPBNNH@?$AAs?$AAm?$AAa?$AA?9?$AAs?$AAe?$AA?$AA@ 0000000180038dc8     libucrt:lcidtoname_downlevel.obj
 0002:00005dd8       ??_C@_1O@PLLKBHAB@?$AAs?$AAm?$AAj?$AA?9?$AAn?$AAo?$AA?$AA@ 0000000180038dd8     libucrt:lcidtoname_downlevel.obj
 0002:00005de8       ??_C@_1O@CLEPOGCA@?$AAs?$AAm?$AAj?$AA?9?$AAs?$AAe?$AA?$AA@ 0000000180038de8     libucrt:lcidtoname_downlevel.obj
 0002:00005df8       ??_C@_1O@DLGJGKMK@?$AAs?$AAm?$AAn?$AA?9?$AAf?$AAi?$AA?$AA@ 0000000180038df8     libucrt:lcidtoname_downlevel.obj
 0002:00005e08       ??_C@_1O@OJDJGAJC@?$AAs?$AAm?$AAs?$AA?9?$AAf?$AAi?$AA?$AA@ 0000000180038e08     libucrt:lcidtoname_downlevel.obj
 0002:00005e18       ??_C@_1M@BOFOGHPB@?$AAs?$AAq?$AA?9?$AAa?$AAl?$AA?$AA@ 0000000180038e18     libucrt:lcidtoname_downlevel.obj
 0002:00005e28       ??_C@_1BG@LJBBIPGB@?$AAs?$AAr?$AA?9?$AAb?$AAa?$AA?9?$AAc?$AAy?$AAr?$AAl?$AA?$AA@ 0000000180038e28     libucrt:lcidtoname_downlevel.obj
 0002:00005e40       ??_C@_1BG@JLBENFOE@?$AAs?$AAr?$AA?9?$AAb?$AAa?$AA?9?$AAl?$AAa?$AAt?$AAn?$AA?$AA@ 0000000180038e40     libucrt:lcidtoname_downlevel.obj
 0002:00005e58       ??_C@_1BG@KODPNHE@?$AAs?$AAr?$AA?9?$AAs?$AAp?$AA?9?$AAc?$AAy?$AAr?$AAl?$AA?$AA@ 0000000180038e58     libucrt:lcidtoname_downlevel.obj
 0002:00005e70       ??_C@_1BG@CIOGKHPB@?$AAs?$AAr?$AA?9?$AAs?$AAp?$AA?9?$AAl?$AAa?$AAt?$AAn?$AA?$AA@ 0000000180038e70     libucrt:lcidtoname_downlevel.obj
 0002:00005e88       ??_C@_1M@NGFJLMAC@?$AAs?$AAv?$AA?9?$AAf?$AAi?$AA?$AA@ 0000000180038e88     libucrt:lcidtoname_downlevel.obj
 0002:00005e98       ??_C@_1M@MPJEJAJC@?$AAs?$AAv?$AA?9?$AAs?$AAe?$AA?$AA@ 0000000180038e98     libucrt:lcidtoname_downlevel.obj
 0002:00005ea8       ??_C@_1M@MPNDHLFK@?$AAs?$AAw?$AA?9?$AAk?$AAe?$AA?$AA@ 0000000180038ea8     libucrt:lcidtoname_downlevel.obj
 0002:00005eb8       ??_C@_1O@KOHBJJI@?$AAs?$AAy?$AAr?$AA?9?$AAs?$AAy?$AA?$AA@ 0000000180038eb8     libucrt:lcidtoname_downlevel.obj
 0002:00005ec8       ??_C@_1M@LDCEFHA@?$AAt?$AAa?$AA?9?$AAi?$AAn?$AA?$AA@ 0000000180038ec8     libucrt:lcidtoname_downlevel.obj
 0002:00005ed8       ??_C@_1M@CNJOFAK@?$AAt?$AAe?$AA?9?$AAi?$AAn?$AA?$AA@ 0000000180038ed8     libucrt:lcidtoname_downlevel.obj
 0002:00005ee8       ??_C@_1M@GNAECACD@?$AAt?$AAh?$AA?9?$AAt?$AAh?$AA?$AA@ 0000000180038ee8     libucrt:lcidtoname_downlevel.obj
 0002:00005ef8       ??_C@_1M@CHBIHOJO@?$AAt?$AAn?$AA?9?$AAz?$AAa?$AA?$AA@ 0000000180038ef8     libucrt:lcidtoname_downlevel.obj
 0002:00005f08       ??_C@_1M@GCCMIGPJ@?$AAt?$AAr?$AA?9?$AAt?$AAr?$AA?$AA@ 0000000180038f08     libucrt:lcidtoname_downlevel.obj
 0002:00005f18       ??_C@_1M@CELMCNBK@?$AAt?$AAt?$AA?9?$AAr?$AAu?$AA?$AA@ 0000000180038f18     libucrt:lcidtoname_downlevel.obj
 0002:00005f28       ??_C@_1M@KLMCELGA@?$AAu?$AAk?$AA?9?$AAu?$AAa?$AA?$AA@ 0000000180038f28     libucrt:lcidtoname_downlevel.obj
 0002:00005f38       ??_C@_1M@EPAJJAJF@?$AAu?$AAr?$AA?9?$AAp?$AAk?$AA?$AA@ 0000000180038f38     libucrt:lcidtoname_downlevel.obj
 0002:00005f48       ??_C@_1BG@GEGPMCDJ@?$AAu?$AAz?$AA?9?$AAu?$AAz?$AA?9?$AAc?$AAy?$AAr?$AAl?$AA?$AA@ 0000000180038f48     libucrt:lcidtoname_downlevel.obj
 0002:00005f60       ??_C@_1BG@EGGKJILM@?$AAu?$AAz?$AA?9?$AAu?$AAz?$AA?9?$AAl?$AAa?$AAt?$AAn?$AA?$AA@ 0000000180038f60     libucrt:lcidtoname_downlevel.obj
 0002:00005f78       ??_C@_1M@GFOCLFF@?$AAv?$AAi?$AA?9?$AAv?$AAn?$AA?$AA@ 0000000180038f78     libucrt:lcidtoname_downlevel.obj
 0002:00005f88       ??_C@_1M@CPAMEDFI@?$AAx?$AAh?$AA?9?$AAz?$AAa?$AA?$AA@ 0000000180038f88     libucrt:lcidtoname_downlevel.obj
 0002:00005f98       ??_C@_1O@EBKIFIGN@?$AAz?$AAh?$AA?9?$AAc?$AAh?$AAs?$AA?$AA@ 0000000180038f98     libucrt:lcidtoname_downlevel.obj
 0002:00005fa8       ??_C@_1O@NMHPGANE@?$AAz?$AAh?$AA?9?$AAc?$AAh?$AAt?$AA?$AA@ 0000000180038fa8     libucrt:lcidtoname_downlevel.obj
 0002:00005fb8       ??_C@_1M@LPINJOMC@?$AAz?$AAh?$AA?9?$AAc?$AAn?$AA?$AA@ 0000000180038fb8     libucrt:lcidtoname_downlevel.obj
 0002:00005fc8       ??_C@_1M@OCJEJODD@?$AAz?$AAh?$AA?9?$AAh?$AAk?$AA?$AA@ 0000000180038fc8     libucrt:lcidtoname_downlevel.obj
 0002:00005fd8       ??_C@_1M@DNDLJINH@?$AAz?$AAh?$AA?9?$AAm?$AAo?$AA?$AA@ 0000000180038fd8     libucrt:lcidtoname_downlevel.obj
 0002:00005fe8       ??_C@_1M@MBFDNDND@?$AAz?$AAh?$AA?9?$AAs?$AAg?$AA?$AA@ 0000000180038fe8     libucrt:lcidtoname_downlevel.obj
 0002:00005ff8       ??_C@_1M@IMEPLEPE@?$AAz?$AAh?$AA?9?$AAt?$AAw?$AA?$AA@ 0000000180038ff8     libucrt:lcidtoname_downlevel.obj
 0002:00006008       ??_C@_1M@BBGHNHJP@?$AAz?$AAu?$AA?9?$AAz?$AAa?$AA?$AA@ 0000000180039008     libucrt:lcidtoname_downlevel.obj
 0002:00006020       ?large_power_data@?1??multiply_by_power_of_ten@__crt_strtox@@YA_NAEAUbig_integer@2@I@Z@4QBIB 0000000180039020     libucrt:cfout.obj
 0002:00006930       ?large_power_indices@?1??multiply_by_power_of_ten@__crt_strtox@@YA_NAEAUbig_integer@2@I@Z@4QBUunpack_index@?1??12@YA_N0I@Z@B 0000000180039930     libucrt:cfout.obj
 0002:000069c8       ?small_powers_of_ten@?6??multiply_by_power_of_ten@__crt_strtox@@YA_NAEAUbig_integer@2@I@Z@4QBIB 00000001800399c8     libucrt:cfout.obj
 0002:000069ec       ??_C@_01GBGANLPD@0?$AA@    00000001800399ec     libucrt:cfout.obj
 0002:000069f0       ??_C@_05DNEBIAHO@1?$CDINF?$AA@ 00000001800399f0     libucrt:cfout.obj
 0002:000069f8       ??_C@_06IMKFLFPG@1?$CDQNAN?$AA@ 00000001800399f8     libucrt:cfout.obj
 0002:00006a00       ??_C@_06PGGFOGJG@1?$CDSNAN?$AA@ 0000000180039a00     libucrt:cfout.obj
 0002:00006a08       ??_C@_05PHHOCPM@1?$CDIND?$AA@ 0000000180039a08     libucrt:cfout.obj
 0002:00006c60       ??_C@_1BA@BALFACEM@?$AAC?$AAO?$AAN?$AAO?$AAU?$AAT?$AA$?$AA?$AA@ 0000000180039c60     libucrt:initcon.obj
 0002:00006c70       __log10_256_lead           0000000180039c70     libucrt:log10_256_lead_tail_table.obj
 0002:00007480       __log10_256_tail           000000018003a480     libucrt:log10_256_lead_tail_table.obj
 0002:00007c90       __log_F_inv_qword          000000018003ac90     libucrt:log_f_inv_qword_table.obj
 0002:000084a0       ??_C@_05HGHHAHAP@log10?$AA@ 000000018003b4a0     libucrt:log_special.obj
 0002:000084c0       ??_C@_1BK@DBDEIDLH@?$AAK?$AAE?$AAR?$AAN?$AAE?$AAL?$AA3?$AA2?$AA?4?$AAD?$AAL?$AAL?$AA?$AA@ 000000018003b4c0     DelayImp:delayhlp.obj
 0002:000084e0       ??_C@_0BI@OMNLIJDB@AcquireSRWLockExclusive?$AA@ 000000018003b4e0     DelayImp:delayhlp.obj
 0002:000084f8       ??_C@_0BI@HMIEPCNJ@ReleaseSRWLockExclusive?$AA@ 000000018003b4f8     DelayImp:delayhlp.obj
 0002:00008510       __pfnDliFailureHook2       000000018003b510     DelayImp:delayhk1.obj
 0002:00008520       _load_config_used          000000018003b520     LIBCMT:loadcfg.obj
 0002:000085b8       ??_C@_09DNJONEBC@secp112r1?$AA@ 000000018003b5b8     main.obj
 0002:000085c8       ??_C@_09BGLDIHNB@secp112r2?$AA@ 000000018003b5c8     main.obj
 0002:000085d8       ??_C@_09BFIDEOKG@secp128r1?$AA@ 000000018003b5d8     main.obj
 0002:000085e8       ??_C@_09DOKOBNGF@secp128r2?$AA@ 000000018003b5e8     main.obj
 0002:000085f8       ??_C@_09DGEAFIHG@secp160k1?$AA@ 000000018003b5f8     main.obj
 0002:00008608       ??_C@_09CFLHMAIJ@secp160r1?$AA@ 000000018003b608     main.obj
 0002:00008618       ??_C@_09OJKJDEK@secp160r2?$AA@ 000000018003b618     main.obj
 0002:00008628       ??_C@_09NOOJPND@secp192r1?$AA@ 000000018003b628     main.obj
 0002:00008638       ??_C@_09BOBJAHCM@secp192k1?$AA@ 000000018003b638     main.obj
 0002:00008648       ??_C@_09MKDGBLEP@secp224k1?$AA@ 000000018003b648     main.obj
 0002:00008658       ??_C@_09NJMBIDLA@secp224r1?$AA@ 000000018003b658     main.obj
 0002:00008668       ??_C@_09NCBPAPNE@secp256k1?$AA@ 000000018003b668     main.obj
 0002:00008678       ??_C@_09MBOIJHCL@secp256r1?$AA@ 000000018003b678     main.obj
 0002:00008688       ??_C@_09FICNEILE@secp384r1?$AA@ 000000018003b688     main.obj
 0002:00008698       ??_C@_09PDBKEDDK@secp521r1?$AA@ 000000018003b698     main.obj
 0002:000086a8       ??_C@_09HBGNJHGE@sect113r1?$AA@ 000000018003b6a8     main.obj
 0002:000086b8       ??_C@_09FKEAMEKH@sect113r2?$AA@ 000000018003b6b8     main.obj
 0002:000086c8       ??_C@_09KBKEAMIP@sect131r1?$AA@ 000000018003b6c8     main.obj
 0002:000086d8       ??_C@_09IKIJFPEM@sect131r2?$AA@ 000000018003b6d8     main.obj
 0002:000086e8       ??_C@_09NALKNDIL@sect163k1?$AA@ 000000018003b6e8     main.obj
 0002:000086f8       ??_C@_09MDENELHE@sect163r1?$AA@ 000000018003b6f8     main.obj
 0002:00008708       ??_C@_09OIGABILH@sect163r2?$AA@ 000000018003b708     main.obj
 0002:00008718       ??_C@_09EBBNNMKF@sect193r1?$AA@ 000000018003b718     main.obj
 0002:00008728       ??_C@_09GKDAIPGG@sect193r2?$AA@ 000000018003b728     main.obj
 0002:00008738       ??_C@_09JOMOCOFF@sect233k1?$AA@ 000000018003b738     main.obj
 0002:00008748       ??_C@_09INDJLGKK@sect233r1?$AA@ 000000018003b748     main.obj
 0002:00008758       ??_C@_09PBHDMODB@sect239k1?$AA@ 000000018003b758     main.obj
 0002:00008768       ??_C@_09OJBOBPEE@sect283k1?$AA@ 000000018003b768     main.obj
 0002:00008778       ??_C@_09PKOJIHLL@sect283r1?$AA@ 000000018003b778     main.obj
 0002:00008788       ??_C@_09GAIKFHPM@sect409k1?$AA@ 000000018003b788     main.obj
 0002:00008798       ??_C@_09HDHNMPAD@sect409r1?$AA@ 000000018003b798     main.obj
 0002:000087a8       ??_C@_09NMECHAKG@sect571k1?$AA@ 000000018003b7a8     main.obj
 0002:000087b8       ??_C@_09MPLFOIFJ@sect571r1?$AA@ 000000018003b7b8     main.obj
 0002:000087c8       ??_C@_0O@NPGHPNMP@EcNamedCurves?$AA@ 000000018003b7c8     main.obj
 0002:000087d8       ??_C@_05MAOLHBFO@RSA_3?$AA@ 000000018003b7d8     main.obj
 0002:000087e0       ??_C@_06GFADMOMO@RSA_F4?$AA@ 000000018003b7e0     main.obj
 0002:000087e8       ??_C@_0BC@MGGIKLOM@RsaPublicExponent?$AA@ 000000018003b7e8     main.obj
 0002:000087fc       ??_C@_06EKOLBGFH@PUBLIC?$AA@ 000000018003b7fc     main.obj
 0002:00008808       ??_C@_07CBKGEIHF@PRIVATE?$AA@ 000000018003b808     main.obj
 0002:00008810       ??_C@_07IMFGLAMJ@KeyType?$AA@ 000000018003b810     main.obj
 0002:00008818       ??_C@_0BA@FIPBKFBN@?4?4?2src?2main?4cpp?$AA@ 000000018003b818     main.obj
 0002:00008828       ??_C@_07GIAOGLC@nodessl?$AA@ 000000018003b828     main.obj
 0002:00008830       ??_C@_0BC@BDKFLDHL@unknown?5exception?$AA@ 000000018003b830     key_exp.obj
 0002:00008848       ??_C@_0BA@JFNIOLAK@string?5too?5long?$AA@ 000000018003b848     key_exp.obj
 0002:00008858       ??_C@_0BI@CFPLBAOH@invalid?5string?5position?$AA@ 000000018003b858     key_exp.obj
 0002:00008870       ??_7?$_Ref_count@V?$basic_string@DU?$char_traits@D@std@@V?$allocator@D@2@@std@@@std@@6B@ 000000018003b870     key_exp.obj
 0002:00008890       ??_7?$_Ref_count@V?$ScopedSSL@Uevp_pkey_st@@$1?ScopedEVP_PKEY_free@@YAXPEAX@Z@@@std@@6B@ 000000018003b890     key_exp.obj
 0002:000088b0       ??_7_Ref_count_base@std@@6B@ 000000018003b8b0     key_exp.obj
 0002:000088d0       ??_7exception@stdext@@6B@  000000018003b8d0     key_exp.obj
 0002:000088e8       ??_C@_0P@GKFECDFN@EVP_MD?5is?5NULL?$AA@ 000000018003b8e8     digest.obj
 0002:000088f8       ??_C@_0CB@FBKINMMN@Unsupported?5publicExponent?5value@ 000000018003b8f8     rsa_gen.obj
 0002:0000891c       ??_C@_03DICHAJGH@RSA?$AA@  000000018003b91c     rsa_jwk.obj
 0002:00008920       ??_C@_0BI@DCNGCDG@Wrong?5value?5of?5key_type?$AA@ 000000018003b920     rsa_jwk.obj
 0002:00008938       ??_C@_0BF@BEONMJLH@Key?5value?5is?5nullptr?$AA@ 000000018003b938     rsa_jwk.obj
 0002:00008950       ??_C@_0BE@BIKHACCC@Key?5is?5not?5RSA?5type?$AA@ 000000018003b950     rsa_jwk.obj
 0002:00008968       ??_C@_0BD@JFJKJBNJ@JWK?5key?5is?5not?5RSA?$AA@ 000000018003b968     rsa_jwk.obj
 0002:00008980       ??_7?$_Ref_count@VJwkRsa@@@std@@6B@ 000000018003b980     rsa_jwk.obj
 0002:000089a0       ??_C@_0BI@DOHIBDJD@?4?4?2src?2rsa?2rsa_oaep?4cpp?$AA@ 000000018003b9a0     rsa_oaep.obj
 0002:000089b8       ??_C@_0CE@KAFMPMDJ@GetEcGroupOrderSize?3?5Key?5is?5null@ 000000018003b9b8     ec_dsa.obj
 0002:000089e0       ??_C@_0CD@HJKNMMIE@GetEcGroupOrderSize?3?5Key?5is?5not?5@ 000000018003b9e0     ec_dsa.obj
 0002:00008a08       ??_C@_0BI@KMPPCAKA@Wrong?5leng?5for?5truncate?$AA@ 000000018003ba08     ec_dh.obj
 0002:00008a20       ??_C@_0DB@DOFHAAFP@EVP_PKEY_get1_EC_KEY?4?5Can?5not?5ge@ 000000018003ba20     ec_dh.obj
 0002:00008a58       ??_C@_0CH@DHJFKNEE@Named?5corves?5of?5EC?5keys?5are?5not?5@ 000000018003ba58     ec_dh.obj
 0002:00008a80       ??_C@_0BE@CFAIDCFN@ECDH?5length?5too?5big?$AA@ 000000018003ba80     ec_dh.obj
 0002:00008a94       ??_C@_02KNLLHFAA@EC?$AA@   000000018003ba94     ec_jwk.obj
 0002:00008a98       ??_C@_0BD@PIAINEEO@Key?5is?5not?5EC?5type?$AA@ 000000018003ba98     ec_jwk.obj
 0002:00008ab0       ??_7?$_Ref_count@VJwkEc@@@std@@6B@ 000000018003bab0     ec_jwk.obj
 0002:00008ad0       ??_C@_0BJ@GFIJIPC@Error?5on?5AES?5key?5getting?$AA@ 000000018003bad0     aes_ecb.obj
 0002:00008af0       ??_C@_0BF@PAOJCMKC@Input?5data?5too?5large?$AA@ 000000018003baf0     aes_ecb.obj
 0002:00008b08       ??_C@_0BJ@MLGFNLFE@Unknown?5AES?5CBC?5key?5size?$AA@ 000000018003bb08     aes_ecb.obj
 0002:00008b28       ??_C@_0BE@GGKPKCBB@Incorrect?5IV?5length?$AA@ 000000018003bb28     aes_cbc.obj
 0002:00008b40       ??_C@_0FD@MLHPLIIE@The?5AES?9KW?5input?5data?5length?5is?5@ 000000018003bb40     aes_cbc.obj
 0002:00008ba0       ??_C@_0ED@MHIIPGME@The?5AES?9KW?5input?5data?5length?5is?5@ 000000018003bba0     aes_cbc.obj
 0002:00008bf0       ??_C@_0FD@GDDEEJBC@The?5AES?9KW?5input?5data?5length?5is?5@ 000000018003bbf0     aes_cbc.obj
 0002:00008c48       ??_C@_0BJ@MCAPNGKL@Unknown?5AES?5GCM?5key?5size?$AA@ 000000018003bc48     aes_gcm.obj
 0002:00008c61       ??_C@_00CNPNBAHC@?$AA@     000000018003bc61     aes_ctr.obj
 0002:00008c68       ??_C@_0BI@BHOGLKFO@Wrong?5size?5of?5?8counter?8?$AA@ 000000018003bc68     aes_ctr.obj
 0002:00008c80       ??_C@_0DF@LECHJMOO@Incorrect?5value?5?8length?8?4?5Must?5b@ 000000018003bc80     aes_ctr.obj
 0002:00008cb8       ??_C@_0BG@KBLAMBLD@Size?5of?5key?5too?5small?$AA@ 000000018003bcb8     hmac_gen.obj
 0002:00008cd0       ??_7?$_Ref_count@VScopedHMAC@@@std@@6B@ 000000018003bcd0     hmac_gen.obj
 0002:00008cd0       ??_7?$_Ref_count@VScopedAES@@@std@@6B@ 000000018003bcd0     aes_gen.obj
 0002:00008cd0       ??_7?$_Ref_count@VScopedPbkdf2@@@std@@6B@ 000000018003bcd0     async_pbkdf2.obj
 0002:00008cf0       ??_C@_0BG@NLOKODAK@Parameter?5md?5is?5empty?$AA@ 000000018003bcf0     hmac_sign.obj
 0002:00008d08       ??_C@_0DE@NFGNMJNO@Signature?5length?5is?5not?5equal?5to@ 000000018003bd08     hmac_sign.obj
 0002:00008d40       ??_C@_0CJ@LGHALHJC@PBKDF2?3?5Derive?5bits?5length?5not?5s@ 000000018003bd40     pbkdf2_derive.obj
 0002:00008d70       ??_C@_0DF@GDFOEJIF@PBKDF2?3?5Derive?5bits?5length?5not?5a@ 000000018003bd70     pbkdf2_derive.obj
 0002:00008da8       ??_C@_0BO@OJDPHANA@PBKDF2?3?5Iterations?5can?8t?5be?50?$AA@ 000000018003bda8     pbkdf2_derive.obj
 0002:00008dc8       ??_C@_0CK@OELGDBJH@PBKDF2?3?5Message?5digest?5algorithm@ 000000018003bdc8     pbkdf2_derive.obj
 0002:00008e00       ??_C@_1IO@LMPMPLHK@?$AAC?$AA?3?$AA?2?$AAU?$AAs?$AAe?$AAr?$AAs?$AA?2?$AAH?$AAP?$AA?2?$AAD?$AAe?$AAs?$AAk?$AAt?$AAo?$AAp?$AA?2?$AAn?$AAo?$AAd?$AAe?$AAb?$AAo?$AAo?$AAk?$AA?2?$AAb?$AAa?$AAb@ 000000018003be00     common.obj
 0002:00008e90       ??_C@_1FM@LOELJOFK@?$AAs?$AAi?$AAz?$AAe?$AA?5?$AA?$DM?$AA?$DN?$AA?5?$AAi?$AAm?$AAp?$AA?3?$AA?3?$AAk?$AAM?$AAa?$AAx?$AAL?$AAe?$AAn?$AAg?$AAt?$AAh?$AA?5?$AA?$CG?$AA?$CG?$AA?5?$AA?$CC?$AAt?$AAo?$AAo?$AA?5@ 000000018003be90     common.obj
 0002:00008ef0       ??_C@_1HI@KFCOAJNC@?$AAC?$AA?3?$AA?2?$AAU?$AAs?$AAe?$AAr?$AAs?$AA?2?$AAH?$AAP?$AA?2?$AA?4?$AAn?$AAo?$AAd?$AAe?$AA?9?$AAg?$AAy?$AAp?$AA?2?$AA8?$AA?4?$AA9?$AA?4?$AA4?$AA?2?$AAi?$AAn?$AAc?$AAl@ 000000018003bef0     w_key.obj
 0002:00008f68       ??_C@_1CO@EGNPJLKI@?$AAp?$AAe?$AAr?$AAs?$AAi?$AAs?$AAt?$AAe?$AAn?$AAt?$AA?$CI?$AA?$CJ?$AA?4?$AAI?$AAs?$AAE?$AAm?$AAp?$AAt?$AAy?$AA?$CI?$AA?$CJ?$AA?$AA@ 000000018003bf68     w_key.obj
 0002:00008f98       ??_C@_1DG@OKCGPKIB@?$AAp?$AAe?$AAr?$AAs?$AAi?$AAs?$AAt?$AAe?$AAn?$AAt?$AA?$CI?$AA?$CJ?$AA?4?$AAI?$AAs?$AAN?$AAe?$AAa?$AAr?$AAD?$AAe?$AAa?$AAt?$AAh?$AA?$CI?$AA?$CJ?$AA?$AA@ 000000018003bf98     w_key.obj
 0002:00008fd0       ??_C@_1DA@FBGAEOIO@?$AA?$CB?$AAp?$AAe?$AAr?$AAs?$AAi?$AAs?$AAt?$AAe?$AAn?$AAt?$AA?$CI?$AA?$CJ?$AA?4?$AAI?$AAs?$AAE?$AAm?$AAp?$AAt?$AAy?$AA?$CI?$AA?$CJ?$AA?$AA@ 000000018003bfd0     w_key.obj
 0002:00009000       ??_C@_1EC@NOLNIHNJ@?$AAh?$AAa?$AAn?$AAd?$AAl?$AAe?$AA?9?$AA?$DO?$AAI?$AAn?$AAt?$AAe?$AAr?$AAn?$AAa?$AAl?$AAF?$AAi?$AAe?$AAl?$AAd?$AAC?$AAo?$AAu?$AAn?$AAt?$AA?$CI?$AA?$CJ?$AA?5?$AA?$DO?$AA?5?$AA0@ 000000018003c000     w_key.obj
 0002:00009048       ??_C@_1BE@GMLLOIPJ@?$AAr?$AAe?$AAf?$AAs?$AA_?$AA?5?$AA?$DO?$AA?5?$AA0?$AA?$AA@ 000000018003c048     w_key.obj
 0002:00009060       ??_C@_1CO@JCKLEFMA@?$AA?$CB?$AAp?$AAe?$AAr?$AAs?$AAi?$AAs?$AAt?$AAe?$AAn?$AAt?$AA?$CI?$AA?$CJ?$AA?4?$AAI?$AAs?$AAW?$AAe?$AAa?$AAk?$AA?$CI?$AA?$CJ?$AA?$AA@ 000000018003c060     w_key.obj
 0002:00009090       ??_C@_1CC@GBFLAAPF@?$AAw?$AAr?$AAa?$AAp?$AA?9?$AA?$DO?$AAr?$AAe?$AAf?$AAs?$AA_?$AA?5?$AA?$DN?$AA?$DN?$AA?5?$AA0?$AA?$AA@ 000000018003c090     w_key.obj
 0002:000090b8       ??_C@_09NIMIAKMJ@exportJwk?$AA@ 000000018003c0b8     w_key.obj
 0002:000090c4       ??_C@_03CCEPDEKL@Key?$AA@  000000018003c0c4     w_key.obj
 0002:000090c8       ??_C@_0M@HJCMEELC@exportPkcs8?$AA@ 000000018003c0c8     w_key.obj
 0002:000090d8       ??_C@_0L@KGHIKPLK@exportSpki?$AA@ 000000018003c0d8     w_key.obj
 0002:000090e4       ??_C@_06MCIJCFHC@verify?$AA@ 000000018003c0e4     w_key.obj
 0002:000090ec       ??_C@_04HHGHLBPI@sign?$AA@ 000000018003c0ec     w_key.obj
 0002:000090f8       ??_C@_0L@GIKHFBIL@RsaPssSign?$AA@ 000000018003c0f8     w_key.obj
 0002:00009108       ??_C@_0O@HDDMKJJF@RsaOaepEncDec?$AA@ 000000018003c108     w_key.obj
 0002:00009118       ??_C@_0O@JIIHHHHN@EcdhDeriveKey?$AA@ 000000018003c118     w_key.obj
 0002:00009128       ??_C@_0N@GGJBPCPP@RsaPssVerify?$AA@ 000000018003c128     w_key.obj
 0002:00009138       ??_C@_0O@GOEMINKB@modulusLength?$AA@ 000000018003c138     w_key.obj
 0002:00009148       ??_C@_0P@GFCAOOFJ@EcdhDeriveBits?$AA@ 000000018003c148     w_key.obj
 0002:00009158       ??_C@_04GPMDFGEJ@type?$AA@ 000000018003c158     w_key.obj
 0002:00009160       ??_C@_0P@MPJIJHMC@publicExponent?$AA@ 000000018003c160     w_key.obj
 0002:00009170       ??_C@_0L@FGIHNNPJ@generateEc?$AA@ 000000018003c170     w_key.obj
 0002:00009180       ??_C@_0M@GJDJFLNF@generateRsa?$AA@ 000000018003c180     w_key.obj
 0002:00009190       ??_C@_09CEKDONHJ@importJwk?$AA@ 000000018003c190     w_key.obj
 0002:000091a0       ??_C@_0M@KDIHGBLK@importPkcs8?$AA@ 000000018003c1a0     w_key.obj
 0002:000091b0       ??_C@_0P@KKGKLOBM@Key?5is?5not?5RSA?$AA@ 000000018003c1b0     w_key.obj
 0002:000091c0       ??_C@_0L@GNOFHHNB@importSpki?$AA@ 000000018003c1c0     w_key.obj
 0002:000091cc       ??_C@_03JPJJFCNC@kty?$AA@  000000018003c1cc     w_key.obj
 0002:000091d0       ??_C@_0BH@LKAOFEHL@Unsupported?5Key?5in?5use?$AA@ 000000018003c1d0     w_key.obj
 0002:000091e8       ??_C@_01KGKMHCOC@e?$AA@    000000018003c1e8     w_key.obj
 0002:000091ec       ??_C@_01EFFIKLCJ@n?$AA@    000000018003c1ec     w_key.obj
 0002:000091f0       ??_C@_01JBBJJEPG@p?$AA@    000000018003c1f0     w_key.obj
 0002:000091f4       ??_C@_01LPLHEDKD@d?$AA@    000000018003c1f4     w_key.obj
 0002:000091f8       ??_C@_02GAFPDMOH@dp?$AA@   000000018003c1f8     w_key.obj
 0002:000091fc       ??_C@_01IIACKFLH@q?$AA@    000000018003c1fc     w_key.obj
 0002:00009200       ??_C@_02OBLCPEGE@qi?$AA@   000000018003c200     w_key.obj
 0002:00009204       ??_C@_02HJEEANKG@dq?$AA@   000000018003c204     w_key.obj
 0002:00009208       ??_C@_01FJMABOPO@x?$AA@    000000018003c208     w_key.obj
 0002:0000920c       ??_C@_03NJDIBKEA@crv?$AA@  000000018003c20c     w_key.obj
 0002:00009210       ??_C@_0BE@OCDHFEIL@Unknown?5digest?5name?$AA@ 000000018003c210     w_key.obj
 0002:00009224       ??_C@_01EANLCPLP@y?$AA@    000000018003c224     w_key.obj
 0002:00009228       ??_C@_1CE@IAEMMFJ@?$AA?$CB?$AAh?$AAa?$AAn?$AAd?$AAl?$AAe?$AA?4?$AAI?$AAs?$AAE?$AAm?$AAp?$AAt?$AAy?$AA?$CI?$AA?$CJ?$AA?$AA@ 000000018003c228     w_key.obj
 0002:00009250       ??_7AsyncWorker@Nan@@6B@   000000018003c250     w_key.obj
 0002:00009280       ??_7AsyncEcdhDeriveKey@@6B@ 000000018003c280     w_key.obj
 0002:000092b0       ??_7AsyncSignRsa@@6B@      000000018003c2b0     w_key.obj
 0002:000092e0       ??_7AsyncEcdhDeriveBits@@6B@ 000000018003c2e0     w_key.obj
 0002:00009310       ??_7AsyncEcGenerateKey@@6B@ 000000018003c310     w_key.obj
 0002:00009340       ??_7AsyncEcdsaVerify@@6B@  000000018003c340     w_key.obj
 0002:00009370       ??_7AsyncImportJwkRsa@@6B@ 000000018003c370     w_key.obj
 0002:000093a0       ??_7AsyncEcExportJwk@@6B@  000000018003c3a0     w_key.obj
 0002:000093d0       ??_7AsyncExportSpki@@6B@   000000018003c3d0     w_key.obj
 0002:00009400       ??_7AsyncVerifyRsaPSS@@6B@ 000000018003c400     w_key.obj
 0002:00009430       ?ClassName@WKey@@2PEBDEB   000000018003c430     w_key.obj
 0002:00009438       ?ClassName@WAes@@2PEBDEB   000000018003c438     w_aes.obj
 0002:00009440       ?ClassName@WHmac@@2PEBDEB  000000018003c440     w_hmac.obj
 0002:00009448       ?ClassName@WPbkdf2@@2PEBDEB 000000018003c448     w_pbkdf2.obj
 0002:00009450       ?ClassName@WCore@@2PEBDEB  000000018003c450     w_core.obj
 0002:00009458       __pfnDliNotifyHook2        000000018003c458     win_delay_load_hook.obj
 0002:00009460       ??_7AsyncEcdsaSign@@6B@    000000018003c460     w_key.obj
 0002:00009490       ??_7AsyncSignRsaPSS@@6B@   000000018003c490     w_key.obj
 0002:000094c0       ??_7AsyncImportSpki@@6B@   000000018003c4c0     w_key.obj
 0002:000094f0       ??_7AsyncExportPkcs8@@6B@  000000018003c4f0     w_key.obj
 0002:00009520       ??_7AsyncEncrypDecryptRsaOAEP@@6B@ 000000018003c520     w_key.obj
 0002:00009550       ??_7AsyncExportJwkRsa@@6B@ 000000018003c550     w_key.obj
 0002:00009580       ??_7AsyncVerifyRsa@@6B@    000000018003c580     w_key.obj
 0002:000095b0       ??_7AsyncEcImportJwk@@6B@  000000018003c5b0     w_key.obj
 0002:000095e0       ??_7AsyncImportPkcs8@@6B@  000000018003c5e0     w_key.obj
 0002:00009610       ??_7AsyncRsaGenerateKey@@6B@ 000000018003c610     w_key.obj
 0002:00009640       ??_C@_07NNLIEMBO@encrypt?$AA@ 000000018003c640     w_aes.obj
 0002:00009648       ??_C@_06JKFAEOPC@AesKey?$AA@ 000000018003c648     w_aes.obj
 0002:00009650       ??_C@_07IBDBFBGF@wrapKey?$AA@ 000000018003c650     w_aes.obj
 0002:00009658       ??_C@_07BDBFBIHK@decrypt?$AA@ 000000018003c658     w_aes.obj
 0002:00009660       ??_C@_0L@DOFOGBED@encryptEcb?$AA@ 000000018003c660     w_aes.obj
 0002:00009670       ??_C@_09IDFIPCJA@unwrapKey?$AA@ 000000018003c670     w_aes.obj
 0002:00009680       ??_C@_0L@BDMPLFAH@encryptGcm?$AA@ 000000018003c680     w_aes.obj
 0002:00009690       ??_C@_0L@HDAEFHE@decryptEcb?$AA@ 000000018003c690     w_aes.obj
 0002:000096a0       ??_C@_0L@EIJOJJDL@encryptCtr?$AA@ 000000018003c6a0     w_aes.obj
 0002:000096b0       ??_C@_0L@CKKBJBDA@decryptGcm?$AA@ 000000018003c6b0     w_aes.obj
 0002:000096bc       ??_C@_06NKNNMLDJ@export?$AA@ 000000018003c6bc     w_aes.obj
 0002:000096c8       ??_C@_0L@HBPALNAM@decryptCtr?$AA@ 000000018003c6c8     w_aes.obj
 0002:000096d4       ??_C@_06EOGGDCGF@import?$AA@ 000000018003c6d4     w_aes.obj
 0002:000096e0       ??_C@_08HBLFHMBF@generate?$AA@ 000000018003c6e0     w_aes.obj
 0002:000096f0       ??_C@_0BE@HLJGMNFE@Unknown?5cipher?5name?$AA@ 000000018003c6f0     w_aes.obj
 0002:00009704       ??_C@_03PPFAJCFI@CBC?$AA@  000000018003c704     w_aes.obj
 0002:00009708       ??_C@_0CL@CNFJINGL@Wrong?5size?5of?5?8counter?8?4?5Must?5be@ 000000018003c708     w_aes.obj
 0002:00009738       ??_7AsyncAesEncryptECB@@6B@ 000000018003c738     w_aes.obj
 0002:00009768       ??_7AsyncAesGenerateKey@@6B@ 000000018003c768     w_aes.obj
 0002:00009798       ??_7AsyncAesImport@@6B@    000000018003c798     w_aes.obj
 0002:000097c8       ??_7AsyncAesWrapKey@@6B@   000000018003c7c8     w_aes.obj
 0002:000097f8       ??_7AsyncAesEncryptCTR@@6B@ 000000018003c7f8     w_aes.obj
 0002:00009828       ??_7WKey@@6B@              000000018003c828     w_key.obj
 0002:00009828       ??_7WHmac@@6B@             000000018003c828     w_hmac.obj
 0002:00009828       ??_7WPbkdf2@@6B@           000000018003c828     w_pbkdf2.obj
 0002:00009828       ??_7WAes@@6B@              000000018003c828     w_aes.obj
 0002:00009840       ??_7AsyncAesExport@@6B@    000000018003c840     w_aes.obj
 0002:00009840       ??_7AsyncHmacExport@@6B@   000000018003c840     w_hmac.obj
 0002:00009870       ??_7AsyncAesEncryptGCM@@6B@ 000000018003c870     w_aes.obj
 0002:000098a0       ??_7AsyncAesEncryptCBC@@6B@ 000000018003c8a0     w_aes.obj
 0002:000098d0       ??_C@_07GLAKBBMB@HmacKey?$AA@ 000000018003c8d0     w_hmac.obj
 0002:000098d8       ??_7AsyncHmacGenerateKey@@6B@ 000000018003c8d8     w_hmac.obj
 0002:00009908       ??_7AsyncHmacImport@@6B@   000000018003c908     w_hmac.obj
 0002:00009938       ??_7AsyncHmacVerify@@6B@   000000018003c938     w_hmac.obj
 0002:00009968       ??_7AsyncHmacSign@@6B@     000000018003c968     w_hmac.obj
 0002:00009998       ??_C@_0L@LGDMBGLP@deriveBits?$AA@ 000000018003c998     w_pbkdf2.obj
 0002:000099a8       ??_C@_09NMDEHPBB@Pbkdf2Key?$AA@ 000000018003c9a8     w_pbkdf2.obj
 0002:000099b8       ??_C@_09PLEJINNB@importKey?$AA@ 000000018003c9b8     w_pbkdf2.obj
 0002:000099c8       ??_7AsyncPbkdf2DeriveBits@@6B@ 000000018003c9c8     w_pbkdf2.obj
 0002:000099f8       ??_7AsyncPbkdf2Import@@6B@ 000000018003c9f8     w_pbkdf2.obj
 0002:00009a28       ??_C@_04KDEOOPC@Core?$AA@  000000018003ca28     w_core.obj
 0002:00009a30       ??_C@_06IJPNAHC@digest?$AA@ 000000018003ca30     w_core.obj
 0002:00009a38       ??_7ObjectWrap@node@@6B@   000000018003ca38     w_key.obj
 0002:00009a38       ??_7WCore@@6B@             000000018003ca38     w_core.obj
 0002:00009a50       ??_7AsyncDigest@@6B@       000000018003ca50     w_core.obj
 0002:00009a80       ??_C@_08JDDNMFDB@node?4exe?$AA@ 000000018003ca80     win_delay_load_hook.obj
 0002:00009a90       ??_C@_08HCOMDCCD@iojs?4exe?$AA@ 000000018003ca90     win_delay_load_hook.obj
 0002:00009ac8       __real@3ff0000000000000    000000018003cac8     main.obj
 0002:00009ad0       __real@4079900000000000    000000018003cad0     main.obj
 0002:00009ad8       __real@4079f00000000000    000000018003cad8     main.obj
 0002:00009ae0       __real@4086000000000000    000000018003cae0     main.obj
 0002:00009ae8       __real@4086080000000000    000000018003cae8     main.obj
 0002:00009af0       __real@4086100000000000    000000018003caf0     main.obj
 0002:00009af8       __real@4086180000000000    000000018003caf8     main.obj
 0002:00009b00       __real@4086200000000000    000000018003cb00     main.obj
 0002:00009b08       __real@4086280000000000    000000018003cb08     main.obj
 0002:00009b10       __real@4086300000000000    000000018003cb10     main.obj
 0002:00009b18       __real@4086380000000000    000000018003cb18     main.obj
 0002:00009b20       __real@4086400000000000    000000018003cb20     main.obj
 0002:00009b28       __real@4086480000000000    000000018003cb28     main.obj
 0002:00009b30       __real@4086500000000000    000000018003cb30     main.obj
 0002:00009b38       __real@4086580000000000    000000018003cb38     main.obj
 0002:00009b40       __real@4086600000000000    000000018003cb40     main.obj
 0002:00009b48       __real@4086680000000000    000000018003cb48     main.obj
 0002:00009b50       __real@4086700000000000    000000018003cb50     main.obj
 0002:00009b58       __real@4086780000000000    000000018003cb58     main.obj
 0002:00009b60       __real@4086800000000000    000000018003cb60     main.obj
 0002:00009b68       __real@4086880000000000    000000018003cb68     main.obj
 0002:00009b70       __real@4086900000000000    000000018003cb70     main.obj
 0002:00009b78       __real@4086980000000000    000000018003cb78     main.obj
 0002:00009b80       __real@4086a00000000000    000000018003cb80     main.obj
 0002:00009b88       __real@4086a80000000000    000000018003cb88     main.obj
 0002:00009b90       __real@4086b00000000000    000000018003cb90     main.obj
 0002:00009b98       __real@4086b80000000000    000000018003cb98     main.obj
 0002:00009ba0       __real@4086c00000000000    000000018003cba0     main.obj
 0002:00009ba8       __real@4086c80000000000    000000018003cba8     main.obj
 0002:00009bb0       __real@4086d00000000000    000000018003cbb0     main.obj
 0002:00009bb8       __real@4086d80000000000    000000018003cbb8     main.obj
 0002:00009bc0       __real@4086e00000000000    000000018003cbc0     main.obj
 0002:00009bc8       __real@4086e80000000000    000000018003cbc8     main.obj
 0002:00009bd0       __real@4086f00000000000    000000018003cbd0     main.obj
 0002:0000c278       _tls_used                  000000018003f278     LIBCMT:tlssup.obj
 0002:0000c2a0       ??_R4exception@std@@6B@    000000018003f2a0     libcpmt:xthrow.obj
 0002:0000c2c8       ??_R3exception@std@@8      000000018003f2c8     libcpmt:xthrow.obj
 0002:0000c2e0       ??_R2exception@std@@8      000000018003f2e0     libcpmt:xthrow.obj
 0002:0000c2f0       ??_R1A@?0A@EA@exception@std@@8 000000018003f2f0     libcpmt:xthrow.obj
 0002:0000c318       ??_R4bad_alloc@std@@6B@    000000018003f318     libcpmt:xthrow.obj
 0002:0000c340       ??_R3bad_alloc@std@@8      000000018003f340     libcpmt:xthrow.obj
 0002:0000c358       ??_R2bad_alloc@std@@8      000000018003f358     libcpmt:xthrow.obj
 0002:0000c370       ??_R1A@?0A@EA@bad_alloc@std@@8 000000018003f370     libcpmt:xthrow.obj
 0002:0000c398       ??_R4logic_error@std@@6B@  000000018003f398     libcpmt:xthrow.obj
 0002:0000c3c0       ??_R3logic_error@std@@8    000000018003f3c0     libcpmt:xthrow.obj
 0002:0000c3d8       ??_R2logic_error@std@@8    000000018003f3d8     libcpmt:xthrow.obj
 0002:0000c3f0       ??_R1A@?0A@EA@logic_error@std@@8 000000018003f3f0     libcpmt:xthrow.obj
 0002:0000c418       ??_R4length_error@std@@6B@ 000000018003f418     libcpmt:xthrow.obj
 0002:0000c440       ??_R3length_error@std@@8   000000018003f440     libcpmt:xthrow.obj
 0002:0000c458       ??_R2length_error@std@@8   000000018003f458     libcpmt:xthrow.obj
 0002:0000c478       ??_R1A@?0A@EA@length_error@std@@8 000000018003f478     libcpmt:xthrow.obj
 0002:0000c4a0       ??_R4out_of_range@std@@6B@ 000000018003f4a0     libcpmt:xthrow.obj
 0002:0000c4c8       ??_R3out_of_range@std@@8   000000018003f4c8     libcpmt:xthrow.obj
 0002:0000c4e0       ??_R2out_of_range@std@@8   000000018003f4e0     libcpmt:xthrow.obj
 0002:0000c500       ??_R1A@?0A@EA@out_of_range@std@@8 000000018003f500     libcpmt:xthrow.obj
 0002:0000c528       ??_R4runtime_error@std@@6B@ 000000018003f528     libcpmt:xthrow.obj
 0002:0000c550       ??_R3runtime_error@std@@8  000000018003f550     libcpmt:xthrow.obj
 0002:0000c568       ??_R2runtime_error@std@@8  000000018003f568     libcpmt:xthrow.obj
 0002:0000c580       ??_R1A@?0A@EA@runtime_error@std@@8 000000018003f580     libcpmt:xthrow.obj
 0002:0000c5a8       ??_R4type_info@@6B@        000000018003f5a8     LIBCMT:std_type_info_static.obj
 0002:0000c5d0       ??_R3type_info@@8          000000018003f5d0     LIBCMT:std_type_info_static.obj
 0002:0000c5e8       ??_R2type_info@@8          000000018003f5e8     LIBCMT:std_type_info_static.obj
 0002:0000c5f8       ??_R1A@?0A@EA@type_info@@8 000000018003f5f8     LIBCMT:std_type_info_static.obj
 0002:0000c620       ??_R4bad_array_new_length@std@@6B@ 000000018003f620     LIBCMT:throw_bad_alloc.obj
 0002:0000c648       ??_R3bad_array_new_length@std@@8 000000018003f648     LIBCMT:throw_bad_alloc.obj
 0002:0000c660       ??_R2bad_array_new_length@std@@8 000000018003f660     LIBCMT:throw_bad_alloc.obj
 0002:0000c680       ??_R1A@?0A@EA@bad_array_new_length@std@@8 000000018003f680     LIBCMT:throw_bad_alloc.obj
 0002:0000c6a8       ??_R4bad_exception@std@@6B@ 000000018003f6a8     libvcruntime:frame.obj
 0002:0000c6d0       ??_R3bad_exception@std@@8  000000018003f6d0     libvcruntime:frame.obj
 0002:0000c6e8       ??_R2bad_exception@std@@8  000000018003f6e8     libvcruntime:frame.obj
 0002:0000c700       ??_R1A@?0A@EA@bad_exception@std@@8 000000018003f700     libvcruntime:frame.obj
 0002:0000cba8       __rtc_iaa                  000000018003fba8     LIBCMT:_initsect_.obj
 0002:0000cbb0       __rtc_izz                  000000018003fbb0     LIBCMT:_initsect_.obj
 0002:0000cbb8       __rtc_taa                  000000018003fbb8     LIBCMT:_initsect_.obj
 0002:0000cbc0       __rtc_tzz                  000000018003fbc0     LIBCMT:_initsect_.obj
 0002:00013440       _TI2?AVbad_alloc@std@@     0000000180046440     libcpmt:xthrow.obj
 0002:00013460       _CTA2?AVbad_alloc@std@@    0000000180046460     libcpmt:xthrow.obj
 0002:00013478       _CT??_R0?AVbad_alloc@std@@@8??0bad_alloc@std@@QEAA@AEBV01@@Z24 0000000180046478     libcpmt:xthrow.obj
 0002:000134a0       _CT??_R0?AVexception@std@@@8??0exception@std@@QEAA@AEBV01@@Z24 00000001800464a0     libcpmt:xthrow.obj
 0002:000134c8       _CT??_R0?AVlogic_error@std@@@8??0logic_error@std@@QEAA@AEBV01@@Z24 00000001800464c8     libcpmt:xthrow.obj
 0002:000134f0       _TI3?AVlength_error@std@@  00000001800464f0     libcpmt:xthrow.obj
 0002:00013510       _CTA3?AVlength_error@std@@ 0000000180046510     libcpmt:xthrow.obj
 0002:00013530       _CT??_R0?AVlength_error@std@@@8??0length_error@std@@QEAA@AEBV01@@Z24 0000000180046530     libcpmt:xthrow.obj
 0002:00013558       _TI3?AVout_of_range@std@@  0000000180046558     libcpmt:xthrow.obj
 0002:00013578       _CTA3?AVout_of_range@std@@ 0000000180046578     libcpmt:xthrow.obj
 0002:00013598       _CT??_R0?AVout_of_range@std@@@8??0out_of_range@std@@QEAA@AEBV01@@Z24 0000000180046598     libcpmt:xthrow.obj
 0002:000135c0       _TI3?AVbad_array_new_length@std@@ 00000001800465c0     LIBCMT:throw_bad_alloc.obj
 0002:000135e0       _CTA3?AVbad_array_new_length@std@@ 00000001800465e0     LIBCMT:throw_bad_alloc.obj
 0002:00013600       _CT??_R0?AVbad_array_new_length@std@@@8??0bad_array_new_length@std@@QEAA@AEBV01@@Z24 0000000180046600     LIBCMT:throw_bad_alloc.obj
 0002:00013628       _TI2?AVbad_exception@std@@ 0000000180046628     libvcruntime:frame.obj
 0002:00013648       _CTA2?AVbad_exception@std@@ 0000000180046648     libvcruntime:frame.obj
 0002:00013660       _CT??_R0?AVbad_exception@std@@@8??0bad_exception@std@@QEAA@AEBV01@@Z24 0000000180046660     libvcruntime:frame.obj
 0002:00013688       _TI2?AVruntime_error@std@@ 0000000180046688     key_exp.obj
 0002:000136a8       _CTA2?AVruntime_error@std@@ 00000001800466a8     key_exp.obj
 0002:000136c0       _CT??_R0?AVexception@stdext@@@816 00000001800466c0     key_exp.obj
 0002:000136e8       _CT??_R0?AVruntime_error@std@@@816 00000001800466e8     key_exp.obj
 0002:0001370c       __DELAY_IMPORT_DESCRIPTOR_node_exe 000000018004670c     node:node.exe
 0002:0001372c       __NULL_DELAY_IMPORT_DESCRIPTOR 000000018004672c     node:node.exe
 0002:00013ca0       \177node_NULL_THUNK_DATA_DLN 0000000180046ca0     node:node.exe
 0002:000156d8       \177node_NULL_THUNK_DATA_DLB 00000001800486d8     node:node.exe
 0002:00015c84       __IMPORT_DESCRIPTOR_KERNEL32 0000000180048c84     kernel32:KERNEL32.dll
 0002:00015c98       __NULL_IMPORT_DESCRIPTOR   0000000180048c98     kernel32:KERNEL32.dll
 0003:00000000       _Init_global_epoch         000000018004a000     LIBCMT:thread_safe_statics.obj
 0003:00000004       __scrt_native_dllmain_reason 000000018004a004     LIBCMT:utility.obj
 0003:00000008       __security_cookie          000000018004a008     LIBCMT:gs_cookie.obj
 0003:00000010       __security_cookie_complement 000000018004a010     LIBCMT:gs_cookie.obj
 0003:00000018       __isa_available            000000018004a018     LIBCMT:_cpu_disp_.obj
 0003:0000001c       __isa_enabled              000000018004a01c     LIBCMT:_cpu_disp_.obj
 0003:00000020       __memcpy_nt_iters          000000018004a020     LIBCMT:_cpu_disp_.obj
 0003:00000040       __abort_behavior           000000018004a040     libucrt:abort.obj
 0003:00000050       _iob                       000000018004a050     libucrt:_file.obj
 0003:00000160       __acrt_initial_locale_data 000000018004a160     libucrt:nlsdata.obj
 0003:000002b8       __acrt_initial_locale_pointers 000000018004a2b8     libucrt:nlsdata.obj
 0003:000002c8       __acrt_wide_c_locale_string 000000018004a2c8     libucrt:nlsdata.obj
 0003:000002d0       __acrt_initial_multibyte_data 000000018004a2d0     libucrt:mbctype.obj
 0003:000004f8       __acrt_current_multibyte_data 000000018004a4f8     libucrt:mbctype.obj
 0003:00000600       _mbctype                   000000018004a600     libucrt:mbctype.obj
 0003:00000710       _mbcasemap                 000000018004a710     libucrt:mbctype.obj
 0003:00000810       __badioinfo                000000018004a810     libucrt:ioinit.obj
 0003:00000850       _pwctype                   000000018004a850     libucrt:ctype.obj
 0003:00000858       __globallocalestatus       000000018004a858     libucrt:glstatus.obj
 0003:00000860       __acrt_lconv_c             000000018004a860     libucrt:localeconv.obj
 0003:000008f8       __acrt_lconv_static_decimal 000000018004a8f8     libucrt:localeconv.obj
 0003:000008fc       __acrt_lconv_static_W_decimal 000000018004a8fc     libucrt:localeconv.obj
 0003:00000900       __dcrt_lowio_console_output_handle 000000018004a900     libucrt:initcon.obj
 0003:00000920       _fltused                   000000018004a920     LIBCMT:fltused.obj
 0003:00000970       ??_R0?AVbad_alloc@std@@@8  000000018004a970     libcpmt:xthrow.obj
 0003:00000998       ??_R0?AVexception@std@@@8  000000018004a998     libcpmt:xthrow.obj
 0003:000009c0       ??_R0?AVlogic_error@std@@@8 000000018004a9c0     libcpmt:xthrow.obj
 0003:000009e8       ??_R0?AVlength_error@std@@@8 000000018004a9e8     libcpmt:xthrow.obj
 0003:00000a10       ??_R0?AVout_of_range@std@@@8 000000018004aa10     libcpmt:xthrow.obj
 0003:00000a38       ??_R0?AVtype_info@@@8      000000018004aa38     LIBCMT:std_type_info_static.obj
 0003:00000a58       ??_R0?AVbad_array_new_length@std@@@8 000000018004aa58     LIBCMT:throw_bad_alloc.obj
 0003:00000a88       ??_R0?AVbad_exception@std@@@8 000000018004aa88     libvcruntime:frame.obj
 0003:00000ab0       ??_R0?AVruntime_error@std@@@8 000000018004aab0     key_exp.obj
 0003:00000ad8       ??_R0?AVexception@stdext@@@8 000000018004aad8     key_exp.obj
 0003:00000b00       __imp_?GetCurrent@Isolate@v8@@SAPEAV12@XZ 000000018004ab00     node:node.exe
 0003:00000b08       __imp_??1HandleScope@v8@@QEAA@XZ 000000018004ab08     node:node.exe
 0003:00000b10       __imp_??0HandleScope@v8@@QEAA@PEAVIsolate@1@@Z 000000018004ab10     node:node.exe
 0003:00000b18       __imp_?ToLocalEmpty@V8@v8@@CAXXZ 000000018004ab18     node:node.exe
 0003:00000b20       __imp_?NewFromUtf8@String@v8@@SA?AV?$MaybeLocal@VString@v8@@@2@PEAVIsolate@2@PEBDW4NewStringType@2@H@Z 000000018004ab20     node:node.exe
 0003:00000b28       __imp_?New@Number@v8@@SA?AV?$Local@VNumber@v8@@@2@PEAVIsolate@2@N@Z 000000018004ab28     node:node.exe
 0003:00000b30       __imp_?New@Object@v8@@SA?AV?$Local@VObject@v8@@@2@PEAVIsolate@2@@Z 000000018004ab30     node:node.exe
 0003:00000b38       __imp_?Set@Object@v8@@QEAA_NV?$Local@VValue@v8@@@2@0@Z 000000018004ab38     node:node.exe
 0003:00000b40       __imp_?Set@Object@v8@@QEAA_NIV?$Local@VValue@v8@@@2@@Z 000000018004ab40     node:node.exe
 0003:00000b48       __imp_node_module_register 000000018004ab48     node:node.exe
 0003:00000b50       __imp_OPENSSL_add_all_algorithms_noconf 000000018004ab50     node:node.exe
 0003:00000b58       __imp_ERR_load_crypto_strings 000000018004ab58     node:node.exe
 0003:00000b60       __imp_OPENSSL_init         000000018004ab60     node:node.exe
 0003:00000b68       __imp_BIO_new_mem_buf      000000018004ab68     node:node.exe
 0003:00000b70       __imp_i2d_PUBKEY_bio       000000018004ab70     node:node.exe
 0003:00000b78       __imp_d2i_PUBKEY_bio       000000018004ab78     node:node.exe
 0003:00000b80       __imp_i2d_PKCS8PrivateKeyInfo_bio 000000018004ab80     node:node.exe
 0003:00000b88       __imp_BIO_s_mem            000000018004ab88     node:node.exe
 0003:00000b90       __imp_d2i_PrivateKey_bio   000000018004ab90     node:node.exe
 0003:00000b98       __imp_BIO_ctrl             000000018004ab98     node:node.exe
 0003:00000ba0       __imp_BIO_new              000000018004aba0     node:node.exe
 0003:00000ba8       __imp_EVP_CIPHER_CTX_free  000000018004aba8     node:node.exe
 0003:00000bb0       __imp_BN_CTX_free          000000018004abb0     node:node.exe
 0003:00000bb8       __imp_EVP_MD_CTX_destroy   000000018004abb8     node:node.exe
 0003:00000bc0       __imp_BIO_free             000000018004abc0     node:node.exe
 0003:00000bc8       __imp_EC_GROUP_free        000000018004abc8     node:node.exe
 0003:00000bd0       __imp_EVP_PKEY_free        000000018004abd0     node:node.exe
 0003:00000bd8       __imp_ECDSA_SIG_free       000000018004abd8     node:node.exe
 0003:00000be0       __imp_EC_KEY_free          000000018004abe0     node:node.exe
 0003:00000be8       __imp_BN_free              000000018004abe8     node:node.exe
 0003:00000bf0       __imp_RSA_free             000000018004abf0     node:node.exe
 0003:00000bf8       __imp_EVP_PKEY_CTX_free    000000018004abf8     node:node.exe
 0003:00000c00       __imp_ERR_print_errors     000000018004ac00     node:node.exe
 0003:00000c08       __imp_EVP_Digest           000000018004ac08     node:node.exe
 0003:00000c10       __imp_BN_new               000000018004ac10     node:node.exe
 0003:00000c18       __imp_EVP_PKEY_assign      000000018004ac18     node:node.exe
 0003:00000c20       __imp_BN_set_word          000000018004ac20     node:node.exe
 0003:00000c28       __imp_RSA_new              000000018004ac28     node:node.exe
 0003:00000c30       __imp_EVP_PKEY_new         000000018004ac30     node:node.exe
 0003:00000c38       __imp_RSA_generate_key_ex  000000018004ac38     node:node.exe
 0003:00000c40       __imp_BN_dup               000000018004ac40     node:node.exe
 0003:00000c48       __imp_EVP_DigestVerifyInit 000000018004ac48     node:node.exe
 0003:00000c50       __imp_EVP_DigestSignInit   000000018004ac50     node:node.exe
 0003:00000c58       __imp_EVP_DigestVerifyFinal 000000018004ac58     node:node.exe
 0003:00000c60       __imp_EVP_DigestSignFinal  000000018004ac60     node:node.exe
 0003:00000c68       __imp_EVP_MD_CTX_create    000000018004ac68     node:node.exe
 0003:00000c70       __imp_EVP_DigestUpdate     000000018004ac70     node:node.exe
 0003:00000c78       __imp_EVP_PKEY_CTX_new     000000018004ac78     node:node.exe
 0003:00000c80       __imp_EVP_PKEY_CTX_ctrl    000000018004ac80     node:node.exe
 0003:00000c88       __imp_EVP_PKEY_encrypt     000000018004ac88     node:node.exe
 0003:00000c90       __imp_CRYPTO_malloc        000000018004ac90     node:node.exe
 0003:00000c98       __imp_EVP_PKEY_decrypt     000000018004ac98     node:node.exe
 0003:00000ca0       __imp_EVP_PKEY_encrypt_init 000000018004aca0     node:node.exe
 0003:00000ca8       __imp_EVP_PKEY_decrypt_init 000000018004aca8     node:node.exe
 0003:00000cb0       __imp_EC_KEY_new_by_curve_name 000000018004acb0     node:node.exe
 0003:00000cb8       __imp_EC_KEY_get0_group    000000018004acb8     node:node.exe
 0003:00000cc0       __imp_EC_GROUP_set_asn1_flag 000000018004acc0     node:node.exe
 0003:00000cc8       __imp_EC_KEY_generate_key  000000018004acc8     node:node.exe
 0003:00000cd0       __imp_i2d_ECDSA_SIG        000000018004acd0     node:node.exe
 0003:00000cd8       __imp_BN_bin2bn            000000018004acd8     node:node.exe
 0003:00000ce0       __imp_ECDSA_SIG_new        000000018004ace0     node:node.exe
 0003:00000ce8       __imp_BN_num_bits          000000018004ace8     node:node.exe
 0003:00000cf0       __imp_CRYPTO_free          000000018004acf0     node:node.exe
 0003:00000cf8       __imp_d2i_ECDSA_SIG        000000018004acf8     node:node.exe
 0003:00000d00       __imp_EC_GROUP_get_order   000000018004ad00     node:node.exe
 0003:00000d08       __imp_EC_GROUP_get_degree  000000018004ad08     node:node.exe
 0003:00000d10       __imp_EC_KEY_get0_private_key 000000018004ad10     node:node.exe
 0003:00000d18       __imp_EC_GROUP_get_curve_name 000000018004ad18     node:node.exe
 0003:00000d20       __imp_EVP_PKEY_derive      000000018004ad20     node:node.exe
 0003:00000d28       __imp_EVP_PKEY_derive_init 000000018004ad28     node:node.exe
 0003:00000d30       __imp_EC_KEY_get0_public_key 000000018004ad30     node:node.exe
 0003:00000d38       __imp_EVP_PKEY_derive_set_peer 000000018004ad38     node:node.exe
 0003:00000d40       __imp_EVP_PKEY_get1_EC_KEY 000000018004ad40     node:node.exe
 0003:00000d48       __imp_ECDH_compute_key     000000018004ad48     node:node.exe
 0003:00000d50       __imp_EC_GROUP_new_by_curve_name 000000018004ad50     node:node.exe
 0003:00000d58       __imp_BN_CTX_new           000000018004ad58     node:node.exe
 0003:00000d60       __imp_EC_KEY_new           000000018004ad60     node:node.exe
 0003:00000d68       __imp_EC_KEY_set_group     000000018004ad68     node:node.exe
 0003:00000d70       __imp_BN_CTX_get           000000018004ad70     node:node.exe
 0003:00000d78       __imp_EC_POINT_get_affine_coordinates_GFp 000000018004ad78     node:node.exe
 0003:00000d80       __imp_EC_KEY_set_private_key 000000018004ad80     node:node.exe
 0003:00000d88       __imp_EC_KEY_set_public_key_affine_coordinates 000000018004ad88     node:node.exe
 0003:00000d90       __imp_RAND_bytes           000000018004ad90     node:node.exe
 0003:00000d98       __imp_EVP_aes_256_ecb      000000018004ad98     node:node.exe
 0003:00000da0       __imp_EVP_CipherFinal_ex   000000018004ada0     node:node.exe
 0003:00000da8       __imp_EVP_aes_192_ecb      000000018004ada8     node:node.exe
 0003:00000db0       __imp_EVP_CipherInit_ex    000000018004adb0     node:node.exe
 0003:00000db8       __imp_EVP_aes_128_ecb      000000018004adb8     node:node.exe
 0003:00000dc0       __imp_EVP_CipherUpdate     000000018004adc0     node:node.exe
 0003:00000dc8       __imp_EVP_CIPHER_CTX_new   000000018004adc8     node:node.exe
 0003:00000dd0       __imp_AES_set_decrypt_key  000000018004add0     node:node.exe
 0003:00000dd8       __imp_AES_wrap_key         000000018004add8     node:node.exe
 0003:00000de0       __imp_EVP_aes_192_cbc      000000018004ade0     node:node.exe
 0003:00000de8       __imp_EVP_aes_128_cbc      000000018004ade8     node:node.exe
 0003:00000df0       __imp_AES_set_encrypt_key  000000018004adf0     node:node.exe
 0003:00000df8       __imp_AES_unwrap_key       000000018004adf8     node:node.exe
 0003:00000e00       __imp_EVP_aes_256_cbc      000000018004ae00     node:node.exe
 0003:00000e08       __imp_EVP_aes_128_gcm      000000018004ae08     node:node.exe
 0003:00000e10       __imp_EVP_EncryptUpdate    000000018004ae10     node:node.exe
 0003:00000e18       __imp_EVP_aes_256_gcm      000000018004ae18     node:node.exe
 0003:00000e20       __imp_EVP_CIPHER_CTX_ctrl  000000018004ae20     node:node.exe
 0003:00000e28       __imp_EVP_EncryptFinal_ex  000000018004ae28     node:node.exe
 0003:00000e30       __imp_EVP_DecryptInit_ex   000000018004ae30     node:node.exe
 0003:00000e38       __imp_EVP_EncryptInit_ex   000000018004ae38     node:node.exe
 0003:00000e40       __imp_EVP_DecryptFinal_ex  000000018004ae40     node:node.exe
 0003:00000e48       __imp_EVP_aes_192_gcm      000000018004ae48     node:node.exe
 0003:00000e50       __imp_EVP_CIPHER_block_size 000000018004ae50     node:node.exe
 0003:00000e58       __imp_EVP_DecryptUpdate    000000018004ae58     node:node.exe
 0003:00000e60       __imp_AES_ctr128_encrypt   000000018004ae60     node:node.exe
 0003:00000e68       __imp_HMAC                 000000018004ae68     node:node.exe
 0003:00000e70       __imp_EVP_MD_size          000000018004ae70     node:node.exe
 0003:00000e78       __imp_PKCS5_PBKDF2_HMAC    000000018004ae78     node:node.exe
 0003:00000e80       __imp_?New@Buffer@node@@YA?AV?$MaybeLocal@VObject@v8@@@v8@@PEAVIsolate@4@_K@Z 000000018004ae80     node:node.exe
 0003:00000e88       __imp_?Data@Buffer@node@@YAPEADV?$Local@VObject@v8@@@v8@@@Z 000000018004ae88     node:node.exe
 0003:00000e90       __imp_?Length@Buffer@node@@YA_KV?$Local@VObject@v8@@@v8@@@Z 000000018004ae90     node:node.exe
 0003:00000e98       __imp_BN_bn2bin            000000018004ae98     node:node.exe
 0003:00000ea0       __imp_?ToObject@Value@v8@@QEBA?AV?$Local@VObject@v8@@@2@XZ 000000018004aea0     node:node.exe
 0003:00000ea8       __imp_uv_queue_work        000000018004aea8     node:node.exe
 0003:00000eb0       __imp_?Global@Context@v8@@QEAA?AV?$Local@VObject@v8@@@2@XZ 000000018004aeb0     node:node.exe
 0003:00000eb8       __imp_?Value@External@v8@@QEBAPEAXXZ 000000018004aeb8     node:node.exe
 0003:00000ec0       __imp_?New@External@v8@@SA?AV?$Local@VExternal@v8@@@2@PEAVIsolate@2@PEAX@Z 000000018004aec0     node:node.exe
 0003:00000ec8       __imp_?New@Signature@v8@@SA?AV?$Local@VSignature@v8@@@2@PEAVIsolate@2@V?$Local@VFunctionTemplate@v8@@@2@@Z 000000018004aec8     node:node.exe
 0003:00000ed0       __imp_?ThrowException@Isolate@v8@@QEAA?AV?$Local@VValue@v8@@@2@V32@@Z 000000018004aed0     node:node.exe
 0003:00000ed8       __imp_?GetCurrentContext@Isolate@v8@@QEAA?AV?$Local@VContext@v8@@@2@XZ 000000018004aed8     node:node.exe
 0003:00000ee0       __imp_?CreateHandle@HandleScope@v8@@KAPEAPEAVObject@internal@2@PEAVIsolate@42@PEAV342@@Z 000000018004aee0     node:node.exe
 0003:00000ee8       __imp_?CreateHandle@HandleScope@v8@@CAPEAPEAVObject@internal@2@PEAVHeapObject@42@PEAV342@@Z 000000018004aee8     node:node.exe
 0003:00000ef0       __imp_?Set@Template@v8@@QEAAXV?$Local@VName@v8@@@2@V?$Local@VData@v8@@@2@W4PropertyAttribute@2@@Z 000000018004aef0     node:node.exe
 0003:00000ef8       __imp_?Error@Exception@v8@@SA?AV?$Local@VValue@v8@@@2@V?$Local@VString@v8@@@2@@Z 000000018004aef8     node:node.exe
 0003:00000f00       __imp_?SetClassName@FunctionTemplate@v8@@QEAAXV?$Local@VString@v8@@@2@@Z 000000018004af00     node:node.exe
 0003:00000f08       __imp_?PrototypeTemplate@FunctionTemplate@v8@@QEAA?AV?$Local@VObjectTemplate@v8@@@2@XZ 000000018004af08     node:node.exe
 0003:00000f10       __imp_?InstanceTemplate@FunctionTemplate@v8@@QEAA?AV?$Local@VObjectTemplate@v8@@@2@XZ 000000018004af10     node:node.exe
 0003:00000f18       __imp_?GetFunction@FunctionTemplate@v8@@QEAA?AV?$Local@VFunction@v8@@@2@XZ 000000018004af18     node:node.exe
 0003:00000f20       __imp_?GetFunction@FunctionTemplate@v8@@QEAA?AV?$MaybeLocal@VFunction@v8@@@2@V?$Local@VContext@v8@@@2@@Z 000000018004af20     node:node.exe
 0003:00000f28       __imp_?New@FunctionTemplate@v8@@SA?AV?$Local@VFunctionTemplate@v8@@@2@PEAVIsolate@2@P6AXAEBV?$FunctionCallbackInfo@VValue@v8@@@2@@ZV?$Local@VValue@v8@@@2@V?$Local@VSignature@v8@@@2@HW4ConstructorBehavior@2@@Z 000000018004af28     node:node.exe
 0003:00000f30       __imp_?FromJustIsNothing@V8@v8@@CAXXZ 000000018004af30     node:node.exe
 0003:00000f38       __imp_?ClearWeak@V8@v8@@CAPEAXPEAPEAVObject@internal@2@@Z 000000018004af38     node:node.exe
 0003:00000f40       __imp_?MakeWeak@V8@v8@@CAXPEAPEAVObject@internal@2@PEAXP6AXAEBV?$WeakCallbackInfo@X@2@@ZW4WeakCallbackType@2@@Z 000000018004af40     node:node.exe
 0003:00000f48       __imp_?DisposeGlobal@V8@v8@@CAXPEAPEAVObject@internal@2@@Z 000000018004af48     node:node.exe
 0003:00000f50       __imp_?GlobalizeReference@V8@v8@@CAPEAPEAVObject@internal@2@PEAVIsolate@42@PEAPEAV342@@Z 000000018004af50     node:node.exe
 0003:00000f58       __imp_?Int32Value@Value@v8@@QEBA?AV?$Maybe@H@2@V?$Local@VContext@v8@@@2@@Z 000000018004af58     node:node.exe
 0003:00000f60       __imp_?BooleanValue@Value@v8@@QEBA_NXZ 000000018004af60     node:node.exe
 0003:00000f68       __imp_?ToObject@Value@v8@@QEBA?AV?$MaybeLocal@VObject@v8@@@2@V?$Local@VContext@v8@@@2@@Z 000000018004af68     node:node.exe
 0003:00000f70       __imp_?Escape@EscapableHandleScope@v8@@AEAAPEAPEAVObject@internal@2@PEAPEAV342@@Z 000000018004af70     node:node.exe
 0003:00000f78       __imp_??0EscapableHandleScope@v8@@QEAA@PEAVIsolate@1@@Z 000000018004af78     node:node.exe
 0003:00000f80       __imp_??1Utf8Value@String@v8@@QEAA@XZ 000000018004af80     node:node.exe
 0003:00000f88       __imp_??0Utf8Value@String@v8@@QEAA@V?$Local@VValue@v8@@@2@@Z 000000018004af88     node:node.exe
 0003:00000f90       __imp_?SlowGetAlignedPointerFromInternalField@Object@v8@@AEAAPEAXH@Z 000000018004af90     node:node.exe
 0003:00000f98       __imp_?SlowGetInternalField@Object@v8@@AEAA?AV?$Local@VValue@v8@@@2@H@Z 000000018004af98     node:node.exe
 0003:00000fa0       __imp_?CallAsFunction@Object@v8@@QEAA?AV?$MaybeLocal@VValue@v8@@@2@V?$Local@VContext@v8@@@2@V?$Local@VValue@v8@@@2@HQEAV52@@Z 000000018004afa0     node:node.exe
 0003:00000fa8       __imp_?SetAlignedPointerInInternalField@Object@v8@@QEAAXHPEAX@Z 000000018004afa8     node:node.exe
 0003:00000fb0       __imp_?SetInternalField@Object@v8@@QEAAXHV?$Local@VValue@v8@@@2@@Z 000000018004afb0     node:node.exe
 0003:00000fb8       __imp_?InternalFieldCount@Object@v8@@QEAAHXZ 000000018004afb8     node:node.exe
 0003:00000fc0       __imp_?Get@Object@v8@@QEAA?AV?$MaybeLocal@VValue@v8@@@2@V?$Local@VContext@v8@@@2@V?$Local@VValue@v8@@@2@@Z 000000018004afc0     node:node.exe
 0003:00000fc8       __imp_?Set@Object@v8@@QEAA?AV?$Maybe@_N@2@V?$Local@VContext@v8@@@2@V?$Local@VValue@v8@@@2@1@Z 000000018004afc8     node:node.exe
 0003:00000fd0       __imp_?NewInstance@Function@v8@@QEBA?AV?$MaybeLocal@VObject@v8@@@2@V?$Local@VContext@v8@@@2@HQEAV?$Local@VValue@v8@@@2@@Z 000000018004afd0     node:node.exe
 0003:00000fd8       __imp_?SetInternalFieldCount@ObjectTemplate@v8@@QEAAXH@Z 000000018004afd8     node:node.exe
 0003:00000fe0       __imp_?SetAccessor@ObjectTemplate@v8@@QEAAXV?$Local@VName@v8@@@2@P6AX0AEBV?$PropertyCallbackInfo@VValue@v8@@@2@@ZP6AX0V?$Local@VValue@v8@@@2@AEBV?$PropertyCallbackInfo@X@2@@Z3W4AccessControl@2@W4PropertyAttribute@2@V?$Local@VAccessorSignature@v8@@@2@@Z 000000018004afe0     node:node.exe
 0003:00000fe8       __imp_?NewInstance@ObjectTemplate@v8@@QEAA?AV?$MaybeLocal@VObject@v8@@@2@V?$Local@VContext@v8@@@2@@Z 000000018004afe8     node:node.exe
 0003:00000ff0       __imp_?New@ObjectTemplate@v8@@SA?AV?$Local@VObjectTemplate@v8@@@2@PEAVIsolate@2@V?$Local@VFunctionTemplate@v8@@@2@@Z 000000018004aff0     node:node.exe
 0003:00000ff8       __imp_?MakeCallback@node@@YA?AV?$Local@VValue@v8@@@v8@@PEAVIsolate@3@V?$Local@VObject@v8@@@3@V?$Local@VFunction@v8@@@3@HPEAV23@@Z 000000018004aff8     node:node.exe
 0003:00001000       __imp_RSA_size             000000018004b000     node:node.exe
 0003:00001008       __imp_EVP_PKEY_get1_RSA    000000018004b008     node:node.exe
 0003:00001010       __imp_EVP_get_digestbyname 000000018004b010     node:node.exe
 0003:00001018       __imp_uv_default_loop      000000018004b018     node:node.exe
 0003:00001020       __imp_?ToString@Value@v8@@QEBA?AV?$Local@VString@v8@@@2@XZ 000000018004b020     node:node.exe
 0003:00001028       __imp_??1EscapableHandleScope@v8@@QEAA@XZ 000000018004b028     node:node.exe
 0003:00001030       __imp_?IsFunction@Value@v8@@QEBA_NXZ 000000018004b030     node:node.exe
 0003:00001038       __imp_?Call@Function@v8@@QEAA?AV?$MaybeLocal@VValue@v8@@@2@V?$Local@VContext@v8@@@2@V?$Local@VValue@v8@@@2@HQEAV52@@Z 000000018004b038     node:node.exe
 0003:00001040       __imp_?Uint32Value@Value@v8@@QEBAIXZ 000000018004b040     node:node.exe
 0003:00001048       __imp_?ToNumber@Value@v8@@QEBA?AV?$MaybeLocal@VNumber@v8@@@2@V?$Local@VContext@v8@@@2@@Z 000000018004b048     node:node.exe
 0003:00001050       \177node_NULL_THUNK_DATA_DLA 000000018004b050     node:node.exe
 0003:00001060       __hmod__node_exe           000000018004b060     node:node.exe
 0003:000010b0       __scrt_current_native_startup_state 000000018004b0b0     LIBCMT:utility.obj
 0003:000010b8       __scrt_native_startup_lock 000000018004b0b8     LIBCMT:utility.obj
 0003:00001670       __scrt_debugger_hook_flag  000000018004b670     LIBCMT:utility_desktop.obj
 0003:00001674       _tls_index                 000000018004b674     LIBCMT:tlssup.obj
 0003:00001678       __favor                    000000018004b678     LIBCMT:_cpu_disp_.obj
 0003:00001680       ?__type_info_root_node@@3U__type_info_node@@A 000000018004b680     LIBCMT:tncleanup.obj
 0003:00001690       ?_OptionsStorage@?1??__local_stdio_printf_options@@9@4_KA 000000018004b690     LIBCMT:default_local_stdio_options.obj
 0003:00001698       ?_OptionsStorage@?1??__local_stdio_scanf_options@@9@4_KA 000000018004b698     LIBCMT:default_local_stdio_options.obj
 0003:000016a0       ?g_OutOfMemoryExceptionCallback@@3P6APEAXXZEA 000000018004b6a0     libvcruntime:frame.obj
 0003:00001798       __pPurecall                000000018004b798     libvcruntime:purevirt_data.obj
 0003:000017d0       ?pArgList@UnDecorator@@0PEAVReplicator@@EA 000000018004b7d0     libvcruntime:undname.obj
 0003:000017d8       ?pZNameList@UnDecorator@@0PEAVReplicator@@EA 000000018004b7d8     libvcruntime:undname.obj
 0003:000017e0       ?pTemplateArgList@UnDecorator@@0PEAVReplicator@@EA 000000018004b7e0     libvcruntime:undname.obj
 0003:000017e8       ?gName@UnDecorator@@0PEBDEB 000000018004b7e8     libvcruntime:undname.obj
 0003:000017f0       ?name@UnDecorator@@0PEBDEB 000000018004b7f0     libvcruntime:undname.obj
 0003:000017f8       ?outputString@UnDecorator@@0PEADEA 000000018004b7f8     libvcruntime:undname.obj
 0003:00001800       ?maxStringLength@UnDecorator@@0HA 000000018004b800     libvcruntime:undname.obj
 0003:00001804       ?disableFlags@UnDecorator@@0KA 000000018004b804     libvcruntime:undname.obj
 0003:00001808       ?fExplicitTemplateParams@UnDecorator@@0_NA 000000018004b808     libvcruntime:undname.obj
 0003:00001809       ?fGetTemplateArgumentList@UnDecorator@@0_NA 000000018004b809     libvcruntime:undname.obj
 0003:00001810       ?m_pGetParameter@UnDecorator@@0P6APEADJ@ZEA 000000018004b810     libvcruntime:undname.obj
 0003:00001978       _environ_table             000000018004b978     libucrt:environment_initialization.obj
 0003:00001980       _wenviron_table            000000018004b980     libucrt:environment_initialization.obj
 0003:00001988       __dcrt_initial_wide_environment 000000018004b988     libucrt:environment_initialization.obj
 0003:00001990       __dcrt_initial_narrow_environment 000000018004b990     libucrt:environment_initialization.obj
 0003:00001998       __acrt_atexit_table        000000018004b998     libucrt:onexit.obj
 0003:000019b0       __acrt_at_quick_exit_table 000000018004b9b0     libucrt:onexit.obj
 0003:000019d0       _nstream                   000000018004b9d0     libucrt:_file.obj
 0003:000019d8       __piob                     000000018004b9d8     libucrt:_file.obj
 0003:000019e0       _cflush                    000000018004b9e0     libucrt:_file.obj
 0003:00001a08       __acrt_locale_changed_data 000000018004ba08     libucrt:wsetlocale.obj
 0003:00001a10       __acrt_current_locale_data 000000018004ba10     libucrt:nlsdata.obj
 0003:00001dd4       __mbcodepage               000000018004bdd4     libucrt:mbctype.obj
 0003:00001dd8       __ismbcodepage             000000018004bdd8     libucrt:mbctype.obj
 0003:00001de0       __mbulinfo                 000000018004bde0     libucrt:mbctype.obj
 0003:00001df0       __mblocalename             000000018004bdf0     libucrt:mbctype.obj
 0003:00001dfc       __argc                     000000018004bdfc     libucrt:argv_data.obj
 0003:00001e00       __argv                     000000018004be00     libucrt:argv_data.obj
 0003:00001e08       __wargv                    000000018004be08     libucrt:argv_data.obj
 0003:00001e10       _acmdln                    000000018004be10     libucrt:argv_data.obj
 0003:00001e18       _wcmdln                    000000018004be18     libucrt:argv_data.obj
 0003:00001e20       _pgmptr                    000000018004be20     libucrt:argv_data.obj
 0003:00001e28       __acrt_heap                000000018004be28     libucrt:heap_handle.obj
 0003:00001e30       __pioinfo                  000000018004be30     libucrt:ioinit.obj
 0003:00002230       _nhandle                   000000018004c230     libucrt:ioinit.obj
 0003:00002240       __acrt_stdout_buffer       000000018004c240     libucrt:_sftbuf.obj
 0003:00002248       __acrt_stderr_buffer       000000018004c248     libucrt:_sftbuf.obj
 0003:00002260       __acrt_lconv_static_null   000000018004c260     libucrt:localeconv.obj
 0003:00002264       __acrt_lconv_static_W_null 000000018004c264     libucrt:localeconv.obj
 0003:00002268       __fma3_is_available        000000018004c268     libucrt:fma3_available.obj
 0003:0000226c       __use_fma3_lib             000000018004c26c     libucrt:fma3_available.obj
 0003:00002270       ?DloadKernel32@@3PEAUHINSTANCE__@@EA 000000018004c270     DelayImp:delayhlp.obj
 0003:00002278       ?DloadAcquireSRWLockExclusive@@3P6AXPEA_K@ZEA 000000018004c278     DelayImp:delayhlp.obj
 0003:00002280       ?DloadReleaseSRWLockExclusive@@3P6AXPEA_K@ZEA 000000018004c280     DelayImp:delayhlp.obj
 0003:00002288       ?DloadSrwLock@@3_KA        000000018004c288     DelayImp:delayhlp.obj
 0003:00002290       ?DloadSectionLockCount@@3KA 000000018004c290     DelayImp:delayhlp.obj
 0003:00002294       ?DloadSectionOldProtection@@3KA 000000018004c294     DelayImp:delayhlp.obj
 0003:00002298       ?DloadSectionCommitPermanent@@3KA 000000018004c298     DelayImp:delayhlp.obj
 0003:000022a0       ?my_constructor@?1??constructor@WKey@@KAAEAV?$Persistent@VFunction@v8@@V?$NonCopyablePersistentTraits@VFunction@v8@@@2@@Nan@@XZ@4V34@A 000000018004c2a0     w_key.obj
 0003:000022a8       ?$TSS0@?1??constructor@WKey@@KAAEAV?$Persistent@VFunction@v8@@V?$NonCopyablePersistentTraits@VFunction@v8@@@2@@Nan@@XZ@4HA 000000018004c2a8     w_key.obj
 0003:000022ac       ?$TSS0@?1??constructor@WAes@@KAAEAV?$Persistent@VFunction@v8@@V?$NonCopyablePersistentTraits@VFunction@v8@@@2@@Nan@@XZ@4HA 000000018004c2ac     w_aes.obj
 0003:000022b0       ?my_constructor@?1??constructor@WAes@@KAAEAV?$Persistent@VFunction@v8@@V?$NonCopyablePersistentTraits@VFunction@v8@@@2@@Nan@@XZ@4V34@A 000000018004c2b0     w_aes.obj
 0003:000022b8       ?my_constructor@?1??constructor@WHmac@@KAAEAV?$Persistent@VFunction@v8@@V?$NonCopyablePersistentTraits@VFunction@v8@@@2@@Nan@@XZ@4V34@A 000000018004c2b8     w_hmac.obj
 0003:000022c0       ?$TSS0@?1??constructor@WHmac@@KAAEAV?$Persistent@VFunction@v8@@V?$NonCopyablePersistentTraits@VFunction@v8@@@2@@Nan@@XZ@4HA 000000018004c2c0     w_hmac.obj
 0003:000022c8       ?my_constructor@?1??constructor@WPbkdf2@@KAAEAV?$Persistent@VFunction@v8@@V?$NonCopyablePersistentTraits@VFunction@v8@@@2@@Nan@@XZ@4V34@A 000000018004c2c8     w_pbkdf2.obj
 0003:000022d0       ?$TSS0@?1??constructor@WPbkdf2@@KAAEAV?$Persistent@VFunction@v8@@V?$NonCopyablePersistentTraits@VFunction@v8@@@2@@Nan@@XZ@4HA 000000018004c2d0     w_pbkdf2.obj
 0003:000022d4       ?$TSS0@?1??constructor@WCore@@KAAEAV?$Persistent@VFunction@v8@@V?$NonCopyablePersistentTraits@VFunction@v8@@@2@@Nan@@XZ@4HA 000000018004c2d4     w_core.obj
 0003:000022d8       ?my_constructor@?1??constructor@WCore@@KAAEAV?$Persistent@VFunction@v8@@V?$NonCopyablePersistentTraits@VFunction@v8@@@2@@Nan@@XZ@4V34@A 000000018004c2d8     w_core.obj
 0003:000022e0       __dyn_tls_init_callback    000000018004c2e0     <common>
 0003:000022e8       __scrt_ucrt_dll_is_in_use  000000018004c2e8     <common>
 0006:00000000       _tls_start                 0000000180051000     LIBCMT:tlssup.obj
 0006:00000004       _Init_thread_epoch         0000000180051004     LIBCMT:thread_safe_statics.obj
 0006:00000008       _tls_end                   0000000180051008     LIBCMT:tlssup.obj

 entry point at        0001:0001b960

 Static symbols

 0000:fffac000       .debug$S                   0000000180000000     node:node.exe
 0000:fffac000       .debug$S                   0000000180000000     kernel32:KERNEL32.dll
 0000:fffac000       .debug$S                   0000000180000000     kernel32:KERNEL32.dll
 0000:fffac000       .debug$S                   0000000180000000     kernel32:KERNEL32.dll
 0000:fffac000       .debug$S                   0000000180000000     kernel32:KERNEL32.dll
 0000:fffac000       .debug$S                   0000000180000000     kernel32:KERNEL32.dll
 0000:fffac000       .debug$S                   0000000180000000     kernel32:KERNEL32.dll
 0000:fffac000       .debug$S                   0000000180000000     kernel32:KERNEL32.dll
 0000:fffac000       .debug$S                   0000000180000000     kernel32:KERNEL32.dll
 0000:fffac000       .debug$S                   0000000180000000     kernel32:KERNEL32.dll
 0000:fffac000       .debug$S                   0000000180000000     kernel32:KERNEL32.dll
 0000:fffac000       .debug$S                   0000000180000000     kernel32:KERNEL32.dll
 0000:fffac000       .debug$S                   0000000180000000     kernel32:KERNEL32.dll
 0000:fffac000       .debug$S                   0000000180000000     kernel32:KERNEL32.dll
 0000:fffac000       .debug$S                   0000000180000000     kernel32:KERNEL32.dll
 0000:fffac000       .debug$S                   0000000180000000     kernel32:KERNEL32.dll
 0000:fffac000       .debug$S                   0000000180000000     kernel32:KERNEL32.dll
 0000:fffac000       .debug$S                   0000000180000000     node:node.exe
 0000:fffac000       .debug$S                   0000000180000000     kernel32:KERNEL32.dll
 0000:fffac000       .debug$S                   0000000180000000     kernel32:KERNEL32.dll
 0000:fffac000       .debug$S                   0000000180000000     kernel32:KERNEL32.dll
 0000:fffac000       .debug$S                   0000000180000000     node:node.exe
 0000:fffac000       .debug$S                   0000000180000000     kernel32:KERNEL32.dll
 0000:fffac000       .debug$S                   0000000180000000     kernel32:KERNEL32.dll
 0000:fffac000       .debug$S                   0000000180000000     kernel32:KERNEL32.dll
 0000:fffac000       .debug$S                   0000000180000000     kernel32:KERNEL32.dll
 0000:fffac000       .debug$S                   0000000180000000     kernel32:KERNEL32.dll
 0000:fffac000       .debug$S                   0000000180000000     kernel32:KERNEL32.dll
 0000:fffac000       .debug$S                   0000000180000000     kernel32:KERNEL32.dll
 0000:fffac000       .debug$S                   0000000180000000     kernel32:KERNEL32.dll
 0000:fffac000       .debug$S                   0000000180000000     kernel32:KERNEL32.dll
 0000:fffac000       .debug$S                   0000000180000000     kernel32:KERNEL32.dll
 0000:fffac000       .debug$S                   0000000180000000     kernel32:KERNEL32.dll
 0000:fffac000       .debug$S                   0000000180000000     kernel32:KERNEL32.dll
 0000:fffac000       .debug$S                   0000000180000000     node:node.exe
 0000:fffac000       .debug$S                   0000000180000000     node:node.exe
 0000:fffac000       .debug$S                   0000000180000000     node:node.exe
 0000:fffac000       .debug$S                   0000000180000000     node:node.exe
 0000:fffac000       .debug$S                   0000000180000000     node:node.exe
 0000:fffac000       .debug$S                   0000000180000000     node:node.exe
 0000:fffac000       .debug$S                   0000000180000000     node:node.exe
 0000:fffac000       .debug$S                   0000000180000000     node:node.exe
 0000:fffac000       .debug$S                   0000000180000000     node:node.exe
 0000:fffac000       .debug$S                   0000000180000000     node:node.exe
 0000:fffac000       .debug$S                   0000000180000000     node:node.exe
 0000:fffac000       .debug$S                   0000000180000000     node:node.exe
 0000:fffac000       .debug$S                   0000000180000000     node:node.exe
 0000:fffac000       .debug$S                   0000000180000000     kernel32:KERNEL32.dll
 0000:fffac000       .debug$S                   0000000180000000     node:node.exe
 0000:fffac000       .debug$S                   0000000180000000     kernel32:KERNEL32.dll
 0000:fffac000       .debug$S                   0000000180000000     node:node.exe
 0000:fffac000       .debug$S                   0000000180000000     kernel32:KERNEL32.dll
 0000:fffac000       .debug$S                   0000000180000000     node:node.exe
 0000:fffac000       .debug$S                   0000000180000000     kernel32:KERNEL32.dll
 0000:fffac000       .debug$S                   0000000180000000     kernel32:KERNEL32.dll
 0000:fffac000       .debug$S                   0000000180000000     kernel32:KERNEL32.dll
 0000:fffac000       .debug$S                   0000000180000000     kernel32:KERNEL32.dll
 0000:fffac000       .debug$S                   0000000180000000     kernel32:KERNEL32.dll
 0000:fffac000       .debug$S                   0000000180000000     kernel32:KERNEL32.dll
 0000:fffac000       .debug$S                   0000000180000000     node:node.exe
 0000:fffac000       .debug$S                   0000000180000000     node:node.exe
 0000:fffac000       .debug$S                   0000000180000000     node:node.exe
 0000:fffac000       .debug$S                   0000000180000000     kernel32:KERNEL32.dll
 0000:fffac000       .debug$S                   0000000180000000     node:node.exe
 0000:fffac000       .debug$S                   0000000180000000     node:node.exe
 0000:fffac000       .debug$S                   0000000180000000     node:node.exe
 0000:fffac000       .debug$S                   0000000180000000     node:node.exe
 0000:fffac000       .debug$S                   0000000180000000     node:node.exe
 0000:fffac000       .debug$S                   0000000180000000     node:node.exe
 0000:fffac000       .debug$S                   0000000180000000     node:node.exe
 0000:fffac000       .debug$S                   0000000180000000     node:node.exe
 0000:fffac000       .debug$S                   0000000180000000     node:node.exe
 0000:fffac000       .debug$S                   0000000180000000     node:node.exe
 0000:fffac000       .debug$S                   0000000180000000     node:node.exe
 0000:fffac000       .debug$S                   0000000180000000     node:node.exe
 0000:fffac000       .debug$S                   0000000180000000     node:node.exe
 0000:fffac000       .debug$S                   0000000180000000     kernel32:KERNEL32.dll
 0000:fffac000       .debug$S                   0000000180000000     kernel32:KERNEL32.dll
 0000:fffac000       .debug$S                   0000000180000000     node:node.exe
 0000:fffac000       .debug$S                   0000000180000000     node:node.exe
 0000:fffac000       .debug$S                   0000000180000000     node:node.exe
 0000:fffac000       .debug$S                   0000000180000000     kernel32:KERNEL32.dll
 0000:fffac000       .debug$S                   0000000180000000     node:node.exe
 0000:fffac000       .debug$S                   0000000180000000     node:node.exe
 0000:fffac000       .debug$S                   0000000180000000     node:node.exe
 0000:fffac000       .debug$S                   0000000180000000     kernel32:KERNEL32.dll
 0000:fffac000       .debug$S                   0000000180000000     node:node.exe
 0000:fffac000       .debug$S                   0000000180000000     kernel32:KERNEL32.dll
 0000:fffac000       .debug$S                   0000000180000000     node:node.exe
 0000:fffac000       .debug$S                   0000000180000000     node:node.exe
 0000:fffac000       .debug$S                   0000000180000000     node:node.exe
 0000:fffac000       .debug$S                   0000000180000000     node:node.exe
 0000:fffac000       .debug$S                   0000000180000000     kernel32:KERNEL32.dll
 0000:fffac000       .debug$S                   0000000180000000     kernel32:KERNEL32.dll
 0000:fffac000       .debug$S                   0000000180000000     kernel32:KERNEL32.dll
 0000:fffac000       .debug$S                   0000000180000000     node:node.exe
 0000:fffac000       .debug$S                   0000000180000000     node:node.exe
 0000:fffac000       .debug$S                   0000000180000000     node:node.exe
 0000:fffac000       .debug$S                   0000000180000000     kernel32:KERNEL32.dll
 0000:fffac000       .debug$S                   0000000180000000     node:node.exe
 0000:fffac000       .debug$S                   0000000180000000     node:node.exe
 0000:fffac000       .debug$S                   0000000180000000     kernel32:KERNEL32.dll
 0000:fffac000       .debug$S                   0000000180000000     node:node.exe
 0000:fffac000       .debug$S                   0000000180000000     node:node.exe
 0000:fffac000       .debug$S                   0000000180000000     node:node.exe
 0000:fffac000       .debug$S                   0000000180000000     kernel32:KERNEL32.dll
 0000:fffac000       .debug$S                   0000000180000000     node:node.exe
 0000:fffac000       .debug$S                   0000000180000000     node:node.exe
 0000:fffac000       .debug$S                   0000000180000000     kernel32:KERNEL32.dll
 0000:fffac000       .debug$S                   0000000180000000     node:node.exe
 0000:fffac000       .debug$S                   0000000180000000     node:node.exe
 0000:fffac000       .debug$S                   0000000180000000     node:node.exe
 0000:fffac000       .debug$S                   0000000180000000     node:node.exe
 0000:fffac000       .debug$S                   0000000180000000     node:node.exe
 0000:fffac000       .debug$S                   0000000180000000     kernel32:KERNEL32.dll
 0000:fffac000       .debug$S                   0000000180000000     kernel32:KERNEL32.dll
 0000:fffac000       .debug$S                   0000000180000000     node:node.exe
 0000:fffac000       .debug$S                   0000000180000000     node:node.exe
 0000:fffac000       .debug$S                   0000000180000000     node:node.exe
 0000:fffac000       .debug$S                   0000000180000000     node:node.exe
 0000:fffac000       .debug$S                   0000000180000000     kernel32:KERNEL32.dll
 0000:fffac000       .debug$S                   0000000180000000     node:node.exe
 0000:fffac000       .debug$S                   0000000180000000     node:node.exe
 0000:fffac000       .debug$S                   0000000180000000     node:node.exe
 0000:fffac000       .debug$S                   0000000180000000     node:node.exe
 0000:fffac000       .debug$S                   0000000180000000     kernel32:KERNEL32.dll
 0000:fffac000       .debug$S                   0000000180000000     node:node.exe
 0000:fffac000       .debug$S                   0000000180000000     kernel32:KERNEL32.dll
 0000:fffac000       .debug$S                   0000000180000000     node:node.exe
 0000:fffac000       .debug$S                   0000000180000000     kernel32:KERNEL32.dll
 0000:fffac000       .debug$S                   0000000180000000     kernel32:KERNEL32.dll
 0000:fffac000       .debug$S                   0000000180000000     kernel32:KERNEL32.dll
 0000:fffac000       .debug$S                   0000000180000000     node:node.exe
 0000:fffac000       .debug$S                   0000000180000000     node:node.exe
 0000:fffac000       .debug$S                   0000000180000000     kernel32:KERNEL32.dll
 0000:fffac000       .debug$S                   0000000180000000     node:node.exe
 0000:fffac000       .debug$S                   0000000180000000     node:node.exe
 0000:fffac000       .debug$S                   0000000180000000     kernel32:KERNEL32.dll
 0000:fffac000       .debug$S                   0000000180000000     kernel32:KERNEL32.dll
 0000:fffac000       .debug$S                   0000000180000000     kernel32:KERNEL32.dll
 0000:fffac000       .debug$S                   0000000180000000     node:node.exe
 0000:fffac000       .debug$S                   0000000180000000     node:node.exe
 0000:fffac000       .debug$S                   0000000180000000     node:node.exe
 0000:fffac000       .debug$S                   0000000180000000     node:node.exe
 0000:fffac000       .debug$S                   0000000180000000     node:node.exe
 0000:fffac000       .debug$S                   0000000180000000     kernel32:KERNEL32.dll
 0000:fffac000       .debug$S                   0000000180000000     node:node.exe
 0000:fffac000       .debug$S                   0000000180000000     kernel32:KERNEL32.dll
 0000:fffac000       .debug$S                   0000000180000000     node:node.exe
 0000:fffac000       .debug$S                   0000000180000000     kernel32:KERNEL32.dll
 0000:fffac000       .debug$S                   0000000180000000     node:node.exe
 0000:fffac000       .debug$S                   0000000180000000     node:node.exe
 0000:fffac000       .debug$S                   0000000180000000     node:node.exe
 0000:fffac000       .debug$S                   0000000180000000     node:node.exe
 0000:fffac000       .debug$S                   0000000180000000     kernel32:KERNEL32.dll
 0000:fffac000       .debug$S                   0000000180000000     node:node.exe
 0000:fffac000       .debug$S                   0000000180000000     node:node.exe
 0000:fffac000       .debug$S                   0000000180000000     node:node.exe
 0000:fffac000       .debug$S                   0000000180000000     node:node.exe
 0000:fffac000       .debug$S                   0000000180000000     kernel32:KERNEL32.dll
 0000:fffac000       .debug$S                   0000000180000000     kernel32:KERNEL32.dll
 0000:fffac000       .debug$S                   0000000180000000     kernel32:KERNEL32.dll
 0000:fffac000       .debug$S                   0000000180000000     kernel32:KERNEL32.dll
 0000:fffac000       .debug$S                   0000000180000000     kernel32:KERNEL32.dll
 0000:fffac000       .debug$S                   0000000180000000     node:node.exe
 0000:fffac000       .debug$S                   0000000180000000     node:node.exe
 0000:fffac000       .debug$S                   0000000180000000     kernel32:KERNEL32.dll
 0000:fffac000       .debug$S                   0000000180000000     node:node.exe
 0000:fffac000       .debug$S                   0000000180000000     node:node.exe
 0000:fffac000       .debug$S                   0000000180000000     node:node.exe
 0000:fffac000       .debug$S                   0000000180000000     node:node.exe
 0000:fffac000       .debug$S                   0000000180000000     kernel32:KERNEL32.dll
 0000:fffac000       .debug$S                   0000000180000000     kernel32:KERNEL32.dll
 0000:fffac000       .debug$S                   0000000180000000     node:node.exe
 0000:fffac000       .debug$S                   0000000180000000     node:node.exe
 0000:fffac000       .debug$S                   0000000180000000     kernel32:KERNEL32.dll
 0000:fffac000       .debug$S                   0000000180000000     kernel32:KERNEL32.dll
 0000:fffac000       .debug$S                   0000000180000000     kernel32:KERNEL32.dll
 0000:fffac000       .debug$S                   0000000180000000     node:node.exe
 0000:fffac000       .debug$S                   0000000180000000     kernel32:KERNEL32.dll
 0000:fffac000       .debug$S                   0000000180000000     node:node.exe
 0000:fffac000       .debug$S                   0000000180000000     kernel32:KERNEL32.dll
 0000:fffac000       .debug$S                   0000000180000000     node:node.exe
 0000:fffac000       .debug$S                   0000000180000000     kernel32:KERNEL32.dll
 0000:fffac000       .debug$S                   0000000180000000     node:node.exe
 0000:fffac000       .debug$S                   0000000180000000     kernel32:KERNEL32.dll
 0000:fffac000       .debug$S                   0000000180000000     node:node.exe
 0000:fffac000       .debug$S                   0000000180000000     kernel32:KERNEL32.dll
 0000:fffac000       .debug$S                   0000000180000000     kernel32:KERNEL32.dll
 0000:fffac000       .debug$S                   0000000180000000     kernel32:KERNEL32.dll
 0000:fffac000       .debug$S                   0000000180000000     kernel32:KERNEL32.dll
 0000:fffac000       .debug$S                   0000000180000000     kernel32:KERNEL32.dll
 0000:fffac000       .debug$S                   0000000180000000     node:node.exe
 0000:fffac000       .debug$S                   0000000180000000     kernel32:KERNEL32.dll
 0000:fffac000       .debug$S                   0000000180000000     kernel32:KERNEL32.dll
 0000:fffac000       .debug$S                   0000000180000000     node:node.exe
 0000:fffac000       .debug$S                   0000000180000000     node:node.exe
 0000:fffac000       .debug$S                   0000000180000000     node:node.exe
 0000:fffac000       .debug$S                   0000000180000000     kernel32:KERNEL32.dll
 0000:fffac000       .debug$S                   0000000180000000     kernel32:KERNEL32.dll
 0000:fffac000       .debug$S                   0000000180000000     node:node.exe
 0000:fffac000       .debug$S                   0000000180000000     node:node.exe
 0000:fffac000       .debug$S                   0000000180000000     node:node.exe
 0000:fffac000       .debug$S                   0000000180000000     node:node.exe
 0000:fffac000       .debug$S                   0000000180000000     node:node.exe
 0000:fffac000       .debug$S                   0000000180000000     node:node.exe
 0000:fffac000       .debug$S                   0000000180000000     node:node.exe
 0000:fffac000       .debug$S                   0000000180000000     node:node.exe
 0000:fffac000       .debug$S                   0000000180000000     node:node.exe
 0000:fffac000       .debug$S                   0000000180000000     node:node.exe
 0000:fffac000       .debug$S                   0000000180000000     node:node.exe
 0000:fffac000       .debug$S                   0000000180000000     node:node.exe
 0000:fffac000       .debug$S                   0000000180000000     node:node.exe
 0000:fffac000       .debug$S                   0000000180000000     node:node.exe
 0000:fffac000       .debug$S                   0000000180000000     node:node.exe
 0000:fffac000       .debug$S                   0000000180000000     node:node.exe
 0000:fffac000       .debug$S                   0000000180000000     node:node.exe
 0000:fffac000       .debug$S                   0000000180000000     node:node.exe
 0000:fffac000       .debug$S                   0000000180000000     node:node.exe
 0000:fffac000       .debug$S                   0000000180000000     node:node.exe
 0000:fffac000       .debug$S                   0000000180000000     node:node.exe
 0000:fffac000       .debug$S                   0000000180000000     node:node.exe
 0000:fffac000       .debug$S                   0000000180000000     node:node.exe
 0000:fffac000       .debug$S                   0000000180000000     node:node.exe
 0000:fffac000       .debug$S                   0000000180000000     node:node.exe
 0000:fffac000       .debug$S                   0000000180000000     node:node.exe
 0000:fffac000       .debug$S                   0000000180000000     node:node.exe
 0000:fffac000       .debug$S                   0000000180000000     kernel32:KERNEL32.dll
 0000:fffac000       .debug$S                   0000000180000000     node:node.exe
 0000:fffac000       .debug$S                   0000000180000000     node:node.exe
 0000:fffac000       .debug$S                   0000000180000000     node:node.exe
 0000:fffac000       .debug$S                   0000000180000000     node:node.exe
 0000:fffac000       .debug$S                   0000000180000000     node:node.exe
 0000:fffac000       .debug$S                   0000000180000000     nodessl.exp
 0000:fffac000       .debug$S                   0000000180000000     node:node.exe
 0000:fffac000       .debug$S                   0000000180000000     node:node.exe
 0000:fffac000       .debug$S                   0000000180000000     node:node.exe
 0000:fffac000       .debug$S                   0000000180000000     node:node.exe
 0000:fffac000       .debug$S                   0000000180000000     node:node.exe
 0000:fffac000       .debug$S                   0000000180000000     node:node.exe
 0000:fffac000       .debug$S                   0000000180000000     node:node.exe
 0000:fffac000       .debug$S                   0000000180000000     node:node.exe
 0000:fffac000       .debug$S                   0000000180000000     node:node.exe
 0000:fffac000       .debug$S                   0000000180000000     node:node.exe
 0000:fffac000       .debug$S                   0000000180000000     node:node.exe
 0000:fffac000       .debug$S                   0000000180000000     node:node.exe
 0000:fffac000       .debug$S                   0000000180000000     node:node.exe
 0000:fffac000       .debug$S                   0000000180000000     node:node.exe
 0000:fffac000       .debug$S                   0000000180000000     node:node.exe
 0000:fffac000       .debug$S                   0000000180000000     node:node.exe
 0000:fffac000       .debug$S                   0000000180000000     node:node.exe
 0000:fffac000       .debug$S                   0000000180000000     node:node.exe
 0000:fffac000       .debug$S                   0000000180000000     node:node.exe
 0000:fffac000       .debug$S                   0000000180000000     node:node.exe
 0000:fffac000       .debug$S                   0000000180000000     node:node.exe
 0000:fffac000       .debug$S                   0000000180000000     node:node.exe
 0000:fffac000       .debug$S                   0000000180000000     node:node.exe
 0000:fffac000       .debug$S                   0000000180000000     node:node.exe
 0000:fffac000       .debug$S                   0000000180000000     node:node.exe
 0000:fffac000       .debug$S                   0000000180000000     node:node.exe
 0000:fffac000       .debug$S                   0000000180000000     node:node.exe
 0000:fffac000       .debug$S                   0000000180000000     node:node.exe
 0000:fffac000       .debug$S                   0000000180000000     node:node.exe
 0000:fffac000       .debug$S                   0000000180000000     node:node.exe
 0000:fffac000       .debug$S                   0000000180000000     kernel32:KERNEL32.dll
 0000:fffac000       .debug$S                   0000000180000000     node:node.exe
 0000:fffac000       .debug$S                   0000000180000000     node:node.exe
 0000:fffac000       .debug$S                   0000000180000000     node:node.exe
 0000:fffac000       .debug$S                   0000000180000000     node:node.exe
 0000:fffac000       .debug$S                   0000000180000000     node:node.exe
 0000:fffac000       .debug$S                   0000000180000000     node:node.exe
 0000:fffac000       .debug$S                   0000000180000000     node:node.exe
 0000:fffac000       .debug$S                   0000000180000000     node:node.exe
 0000:fffac000       .debug$S                   0000000180000000     node:node.exe
 0000:fffac000       .debug$S                   0000000180000000     node:node.exe
 0000:fffac000       .debug$S                   0000000180000000     node:node.exe
 0000:fffac000       .debug$S                   0000000180000000     node:node.exe
 0000:fffac000       .debug$S                   0000000180000000     node:node.exe
 0000:fffac000       .debug$S                   0000000180000000     node:node.exe
 0001:00001ab0       _register_nodessl          0000000180002ab0 f   main.obj
 0001:00001cf0       ?KEY_export@@YA?AV?$shared_ptr@V?$basic_string@DU?$char_traits@D@std@@V?$allocator@D@2@@std@@@std@@PEAUevp_pkey_st@@P6AHPEAUbio_st@@0@Z@Z 0000000180002cf0 f   key_exp.obj
 0001:00001e70       ?KEY_import@@YA?AV?$shared_ptr@V?$ScopedSSL@Uevp_pkey_st@@$1?ScopedEVP_PKEY_free@@YAXPEAX@Z@@@std@@PEAUbio_st@@P6APEAUevp_pkey_st@@0PEAPEAU4@@Z@Z 0000000180002e70 f   key_exp.obj
 0001:00003e70       ?setRsaPssParams@@YAXPEBUenv_md_st@@HPEAUevp_pkey_ctx_st@@@Z 0000000180004e70 f   rsa_pss.obj
 0001:00004650       ?GetEcGroupOrderSize@@YA_KPEAUevp_pkey_st@@@Z 0000000180005650 f   ec_dsa.obj
 0001:00004790       ?ConvertWebCryptoSignatureToDerSignature@@YA?AV?$shared_ptr@V?$basic_string@DU?$char_traits@D@std@@V?$allocator@D@2@@std@@@std@@PEAUevp_pkey_st@@PEBEAEB_KPEA_N@Z 0000000180005790 f   ec_dsa.obj
 0001:000049c0       ?ConvertDerSignatureToWebCryptoSignature@@YA?AV?$shared_ptr@V?$basic_string@DU?$char_traits@D@std@@V?$allocator@D@2@@std@@@std@@PEAUevp_pkey_st@@PEBEAEA_K@Z 00000001800059c0 f   ec_dsa.obj
 0001:000062a0       ?AES_ECB_encrypt@@YA?AV?$shared_ptr@V?$basic_string@DU?$char_traits@D@std@@V?$allocator@D@2@@std@@@std@@V12@0_N@Z 00000001800072a0 f   aes_ecb.obj
 0001:00006810       ?AES_CBC_encrypt@@YA?AV?$shared_ptr@V?$basic_string@DU?$char_traits@D@std@@V?$allocator@D@2@@std@@@std@@V12@00_N@Z 0000000180007810 f   aes_cbc.obj
 0001:00007310       ?AES_GCM_encrypt@@YA?AV?$shared_ptr@V?$basic_string@DU?$char_traits@D@std@@V?$allocator@D@2@@std@@@std@@V12@000H@Z 0000000180008310 f   aes_gcm.obj
 0001:00007890       ?AES_GCM_decrypt@@YA?AV?$shared_ptr@V?$basic_string@DU?$char_traits@D@std@@V?$allocator@D@2@@std@@@std@@V12@000H@Z 0000000180008890 f   aes_gcm.obj
 0001:00009310       ?FunctionCallbackWrapper@imp@Nan@@YAXAEBV?$FunctionCallbackInfo@VValue@v8@@@v8@@@Z 000000018000a310 f   w_key.obj
 0001:000093e0       ?GetterCallbackWrapper@imp@Nan@@YAXV?$Local@VName@v8@@@v8@@AEBV?$PropertyCallbackInfo@VValue@v8@@@4@@Z 000000018000a3e0 f   w_key.obj
 0001:0001a310       ?load_exe_hook@@YAP6A_JXZIPEAUDelayLoadInfo@@@Z 000000018001b310 f   win_delay_load_hook.obj
 0001:0001ae80       $$000000                   000000018001be80     LIBCMT:_amdsecgs_.obj
 0001:0001af2c       ?__scrt_initialize_thread_safe_statics@@YAHXZ 000000018001bf2c f   LIBCMT:thread_safe_statics.obj
 0001:0001b04c       ?__scrt_uninitialize_thread_safe_statics@@YAXXZ 000000018001c04c f   LIBCMT:thread_safe_statics.obj
 0001:0001b614       ?dllmain_crt_dispatch@@YAHQEAUHINSTANCE__@@KQEAX@Z 000000018001c614 f   LIBCMT:dll_dllmain.obj
 0001:0001b664       ?dllmain_crt_process_attach@@YAHQEAUHINSTANCE__@@QEAX@Z 000000018001c664 f   LIBCMT:dll_dllmain.obj
 0001:0001b790       ?dllmain_crt_process_detach@@YAH_N@Z 000000018001c790 f   LIBCMT:dll_dllmain.obj
 0001:0001b814       ?dllmain_dispatch@@YAHQEAUHINSTANCE__@@KQEAX@Z 000000018001c814 f   LIBCMT:dll_dllmain.obj
 0001:0001b90c       ?dllmain_raw@@YAHQEAUHINSTANCE__@@KQEAX@Z 000000018001c90c f   LIBCMT:dll_dllmain.obj
 0001:0001bb58       capture_current_context    000000018001cb58 f   LIBCMT:gs_report.obj
 0001:0001bbc8       capture_previous_context   000000018001cbc8 f   LIBCMT:gs_report.obj
 0001:0001c288       ?CatchIt@@YAXPEAUEHExceptionRecord@@PEA_KPEAU_CONTEXT@@PEAU_xDISPATCHER_CONTEXT@@PEBU_s_FuncInfo@@PEBU_s_HandlerType@@PEBU_s_CatchableType@@PEBU_s_TryBlockMapEntry@@H1EE@Z 000000018001d288 f   libvcruntime:frame.obj
 0001:0001c34c       ?ExFilterRethrow@@YAHPEAU_EXCEPTION_POINTERS@@PEAUEHExceptionRecord@@PEAH@Z 000000018001d34c f   libvcruntime:frame.obj
 0001:0001c3d4       ?FindHandler@@YAXPEAUEHExceptionRecord@@PEA_KPEAU_CONTEXT@@PEAU_xDISPATCHER_CONTEXT@@PEBU_s_FuncInfo@@EH1@Z 000000018001d3d4 f   libvcruntime:frame.obj
 0001:0001c8a4       ?FindHandlerForForeignException@@YAXPEAUEHExceptionRecord@@PEA_KPEAU_CONTEXT@@PEAU_xDISPATCHER_CONTEXT@@PEBU_s_FuncInfo@@HH1@Z 000000018001d8a4 f   libvcruntime:frame.obj
 0001:0001cb10       ?IsInExceptionSpec@@YAEPEAUEHExceptionRecord@@PEBU_s_ESTypeList@@@Z 000000018001db10 f   libvcruntime:frame.obj
 0001:0001d640       $$000000                   000000018001e640     libvcruntime:memcpy.obj
 0001:0001d6e7       MoveSmall                  000000018001e6e7     libvcruntime:memcpy.obj
 0001:0001dc54       ?try_get_function@@YAPEAXW4function_id@?A0x679b24ab@@QEBDQEBW4module_id@2@2@Z 000000018001ec54 f   libvcruntime:winapi_downlevel.obj
 0001:0001e310       $$000000                   000000018001f310     libvcruntime:memset.obj
 0001:0001e3fc       MsetTab                    000000018001f3fc     libvcruntime:memset.obj
 0001:0001e7d0       $$000000                   000000018001f7d0     libvcruntime:handlers.obj
 0001:0001eed0       $$000000                   000000018001fed0     libvcruntime:_jmpuwind_.obj
 0001:0001f28c       ??$common_assert_to_message_box@_W@@YAXQEB_W0IQEAX@Z 000000018002028c f   libucrt:assert.obj
 0001:0001f350       ??$common_assert_to_message_box_build_string@_W@@YAXQEA_W_KQEB_W2IQEAX@Z 0000000180020350 f   libucrt:assert.obj
 0001:0001fb24       ??$common_assert_to_stderr@_W@@YAXQEB_W0I@Z 0000000180020b24 f   libucrt:assert.obj
 0001:0001fc94       ?get_assert_format@@YAPEB_W_W@Z 0000000180020c94 f   libucrt:assert.obj
 0001:000201b0       ?atexit_exception_filter@@YAHK@Z 00000001800211b0 f   libucrt:exit.obj
 0001:000201bc       ?common_exit@@YAXHW4_crt_exit_cleanup_mode@@W4_crt_exit_return_mode@@@Z 00000001800211bc f   libucrt:exit.obj
 0001:00020328       ?exit_or_terminate_process@@YAXI@Z 0000000180021328 f   libucrt:exit.obj
 0001:00020374       ?try_cor_exit_process@@YAXI@Z 0000000180021374 f   libucrt:exit.obj
 0001:0002040c       ??$parse_command_line@D@@YAXPEADPEAPEAD0PEA_K2@Z 000000018002140c f   libucrt:argv_parsing.obj
 0001:000207a4       ??$common_initialize_environment_nolock@D@@YAHXZ 00000001800217a4 f   libucrt:environment_initialization.obj
 0001:00020810       ??$create_environment@D@@YAQEAPEADQEAD@Z 0000000180021810 f   libucrt:environment_initialization.obj
 0001:0002090c       ??$free_environment@_W@@YAXQEAPEA_W@Z 000000018002190c f   libucrt:environment_initialization.obj
 0001:0002090c       ??$free_environment@D@@YAXQEAPEAD@Z 000000018002190c f   libucrt:environment_initialization.obj
 0001:00020950       ??$uninitialize_environment_internal@D@@YAXAEAPEAPEAD@Z 0000000180021950 f   libucrt:environment_initialization.obj
 0001:0002096c       ??$uninitialize_environment_internal@_W@@YAXAEAPEAPEA_W@Z 000000018002196c f   libucrt:environment_initialization.obj
 0001:00020ba4       ??R<lambda_4e60a939b0d047cfe11ddc22648dfba9>@@QEBAHXZ 0000000180021ba4 f   libucrt:onexit.obj
 0001:00020e54       initialize_global_variables 0000000180021e54 f   libucrt:initialization.obj
 0001:00020e68       initialize_c               0000000180021e68 f   libucrt:initialization.obj
 0001:00020e8c       uninitialize_environment   0000000180021e8c f   libucrt:initialization.obj
 0001:00020e9c       initialize_pointers        0000000180021e9c f   libucrt:initialization.obj
 0001:00020ef0       uninitialize_vcruntime     0000000180021ef0 f   libucrt:initialization.obj
 0001:00020ef8       uninitialize_allocated_memory 0000000180021ef8 f   libucrt:initialization.obj
 0001:00020f88       report_memory_leaks        0000000180021f88 f   libucrt:initialization.obj
 0001:00020f88       uninitialize_c             0000000180021f88 f   libucrt:initialization.obj
 0001:00020f88       initialize_environment     0000000180021f88 f   libucrt:initialization.obj
 0001:00020f88       uninitialize_global_state_isolation 0000000180021f88 f   libucrt:initialization.obj
 0001:00020f88       initialize_global_state_isolation 0000000180021f88 f   libucrt:initialization.obj
 0001:0002168c       ??R<lambda_dd75445284c072d0bd3768540cc698fa>@@QEBAHXZ 000000018002268c f   libucrt:output.obj
 0001:00023b84       ?construct_ptd_array@@YAXQEAU__acrt_ptd@@@Z 0000000180024b84 f   libucrt:per_thread_data.obj
 0001:00023c54       ?destroy_fls@@YAXPEAX@Z    0000000180024c54 f   libucrt:per_thread_data.obj
 0001:00023c74       ?destroy_ptd_array@@YAXQEAU__acrt_ptd@@@Z 0000000180024c74 f   libucrt:per_thread_data.obj
 0001:00023d6c       ?replace_current_thread_locale_nolock@@YAXQEAU__acrt_ptd@@QEAU__crt_locale_data@@@Z 0000000180024d6c f   libucrt:per_thread_data.obj
 0001:0002408c       ??$common_xtox@K_W@@YAHKQEA_W_KI_N@Z 000000018002508c f   libucrt:xtoa.obj
 0001:00024138       ??$common_xtox_s@K_W@@YAHKQEA_W_KI_N@Z 0000000180025138 f   libucrt:xtoa.obj
 0001:000243fc       ??$message_box_wait_thread@_W@@YAKQEAX@Z 00000001800253fc f   libucrt:crtmbox.obj
 0001:000247b8       common_flush_all           00000001800257b8 f   libucrt:fflush.obj
 0001:00024920       ??R<lambda_b721fa326cdb32351d23dfa67958c160>@@QEBAHXZ 0000000180025920 f   libucrt:setvbuf.obj
 0001:00024de4       ?internal_isupper_l@@YA_NHQEAU__crt_locale_pointers@@@Z 0000000180025de4 f   libucrt:tolower_toupper.obj
 0001:00025114       ?try_get_function@@YAPEAXW4function_id@?A0x63058377@@QEBDQEBW4module_id@2@2@Z 0000000180026114 f   libucrt:winapi_thunks.obj
 0001:00025940       ?<helper_func_cdecl>@<lambda_2feae5270eb4d0d5532525f423405775>@@CAHPEBX0@Z 0000000180026940 f   libucrt:argv_wildcards.obj
 0001:00025954       ??$common_expand_argv_wildcards@D@@YAHQEAPEADQEAPEAPEAD@Z 0000000180026954 f   libucrt:argv_wildcards.obj
 0001:00025b60       ??$copy_and_add_argument_to_buffer@D@@YAHQEBD0_KAEAV?$argument_list@D@?A0xca0879c4@@@Z 0000000180026b60 f   libucrt:argv_wildcards.obj
 0001:00025c70       ??$expand_argument_wildcards@D@@YAHQEAD0AEAV?$argument_list@D@?A0xca0879c4@@@Z 0000000180026c70 f   libucrt:argv_wildcards.obj
 0001:00025f24       ??R<lambda_ad1ced32f4ac17aa236e5ef05d6b3b7c>@@QEBAXXZ 0000000180026f24 f   libucrt:mbctype.obj
 0001:0002613c       ?getSystemCP@@YAHH@Z       000000018002713c f   libucrt:mbctype.obj
 0001:000261bc       ?setSBCS@@YAXPEAU__crt_multibyte_data@@@Z 00000001800271bc f   libucrt:mbctype.obj
 0001:0002624c       ?setSBUpLow@@YAXPEAU__crt_multibyte_data@@@Z 000000018002724c f   libucrt:mbctype.obj
 0001:00026430       ?setmbcp_internal@@YAHH_N@Z 0000000180027430 f   libucrt:mbctype.obj
 0001:00026978       ?x_ismbbtype_l@@YAHPEAU__crt_locale_pointers@@IHH@Z 0000000180027978 f   libucrt:ismbbyte.obj
 0001:00026bf8       ?initialize_inherited_file_handles_nolock@@YAXXZ 0000000180027bf8 f   libucrt:ioinit.obj
 0001:00026ce4       ?initialize_stdio_handles_nolock@@YAXXZ 0000000180027ce4 f   libucrt:ioinit.obj
 0001:000276bc       ?fp_format_a@@YAHQEBNPEAD_KQEAD2H_NIQEAU__crt_locale_pointers@@@Z 00000001800286bc f   libucrt:cvt.obj
 0001:00027a1c       ?fp_format_e@@YAHQEBNQEAD_K12H_NIQEAU__crt_locale_pointers@@@Z 0000000180028a1c f   libucrt:cvt.obj
 0001:00027aec       ?fp_format_e_internal@@YAHQEAD_KH_NIQEAU_strflt@@2QEAU__crt_locale_pointers@@@Z 0000000180028aec f   libucrt:cvt.obj
 0001:00027cc8       ?fp_format_f_internal@@YAHQEAD_KHQEAU_strflt@@_NQEAU__crt_locale_pointers@@@Z 0000000180028cc8 f   libucrt:cvt.obj
 0001:00027e10       ?fp_format_g@@YAHQEBNQEAD_K12H_NIQEAU__crt_locale_pointers@@@Z 0000000180028e10 f   libucrt:cvt.obj
 0001:00027f48       ?fp_format_nan_or_infinity@@YAHW4__acrt_fp_class@@_NPEAD_K1@Z 0000000180028f48 f   libucrt:cvt.obj
 0001:00028c74       ?write_double_translated_ansi_nolock@@YA?AUwrite_result@?A0x9c548279@@HQEBDI@Z 0000000180029c74 f   libucrt:write.obj
 0001:00028e7c       ?write_text_ansi_nolock@@YA?AUwrite_result@?A0x9c548279@@HQEBDI@Z 0000000180029e7c f   libucrt:write.obj
 0001:00028f84       ?write_text_utf16le_nolock@@YA?AUwrite_result@?A0x9c548279@@HQEBDI@Z 0000000180029f84 f   libucrt:write.obj
 0001:000290a0       ?write_text_utf8_nolock@@YA?AUwrite_result@?A0x9c548279@@HQEBDI@Z 000000018002a0a0 f   libucrt:write.obj
 0001:00029624       ?__acrt_LCMapStringA_stat@@YAHPEAU__crt_locale_pointers@@PEB_WKPEBDHPEADHHH@Z 000000018002a624 f   libucrt:lcmapstringa.obj
 0001:00029b90       ?free_crt_array_internal@@YAXQEAPEBX_K@Z 000000018002ab90 f   libucrt:inittime.obj
 0001:00029ea4       ?GetTableIndexFromLocaleName@@YAHPEB_W@Z 000000018002aea4 f   libucrt:lcidtoname_downlevel.obj
 0001:00029fa0       ?shortsort@@YAXPEAD0_KP6AHPEBX2@Z@Z 000000018002afa0 f   libucrt:qsort.obj
 0001:0002a5b8       ?initialize_multibyte@@YAHXZ 000000018002b5b8 f   libucrt:multibyte_initializer.obj
 0001:0002c30c       memcpy_s                   000000018002d30c f   libucrt:cfout.obj
 0001:0002c394       ??$write_buffer_nolock@D@@YA_NDV__crt_stdio_stream@@@Z 000000018002d394 f   libucrt:_flsbuf.obj
 0001:0002c498       ??$write_buffer_nolock@_W@@YA_N_WV__crt_stdio_stream@@@Z 000000018002d498 f   libucrt:_flsbuf.obj
 0001:0002c868       ??$common_lseek@_J@@YA_JH_JH@Z 000000018002d868 f   libucrt:lseek.obj
 0001:0002c958       ??$common_lseek_nolock@_J@@YA_JH_JH@Z 000000018002d958 f   libucrt:lseek.obj
 0001:0002cc00       $$000000                   000000018002dc00     libucrt:log10.obj
 0001:0002d5b4       common_control87           000000018002e5b4 f   libucrt:ieee.obj
 0001:0002d84c       _call_matherr              000000018002e84c f   libucrt:libm_error.obj
 0001:0002d8b4       _exception_enabled         000000018002e8b4 f   libucrt:libm_error.obj
 0001:0002db50       _log_special_common        000000018002eb50 f   libucrt:log_special.obj
 0001:0002dbf0       $$000000                   000000018002ebf0     libucrt:fpsr.obj
 0001:0002e8a0       $$000000                   000000018002f8a0     LIBCMT:_chkstk_.obj
 0001:0002e910       $$000000                   000000018002f910     libvcruntime:memcmp.obj
 0001:0002ebb0       $$000000                   000000018002fbb0     LIBCMT:_guard_dispatch_.obj
 0001:0002ebd0       ?dtor$0@?0??WorkComplete@AsyncWorker@Nan@@UEAAXXZ@4HA 000000018002fbd0 f   w_key.obj
 0001:0002ebd0       ?dtor$0@?0??InitModule@@YAXV?$Local@VObject@v8@@@v8@@@Z@4HA 000000018002fbd0 f   main.obj
 0001:0002ebd0       ?dtor$0@?0??ThrowError@Nan@@YAXV?$Local@VString@v8@@@v8@@@Z@4HA 000000018002fbd0 f   w_key.obj
 0001:0002ebe0       ?dtor$0@?0??KEY_export@@YA?AV?$shared_ptr@V?$basic_string@DU?$char_traits@D@std@@V?$allocator@D@2@@std@@@std@@PEAUevp_pkey_st@@P6AHPEAUbio_st@@0@Z@Z@4HA 000000018002fbe0 f   key_exp.obj
 0001:0002ebec       ?dtor$1@?0??KEY_export@@YA?AV?$shared_ptr@V?$basic_string@DU?$char_traits@D@std@@V?$allocator@D@2@@std@@@std@@PEAUevp_pkey_st@@P6AHPEAUbio_st@@0@Z@Z@4HA 000000018002fbec f   key_exp.obj
 0001:0002ebf8       ?dtor$2@?0??KEY_export@@YA?AV?$shared_ptr@V?$basic_string@DU?$char_traits@D@std@@V?$allocator@D@2@@std@@@std@@PEAUevp_pkey_st@@P6AHPEAUbio_st@@0@Z@Z@4HA 000000018002fbf8 f   key_exp.obj
 0001:0002ec20       ?dtor$0@?0??KEY_import@@YA?AV?$shared_ptr@V?$ScopedSSL@Uevp_pkey_st@@$1?ScopedEVP_PKEY_free@@YAXPEAX@Z@@@std@@PEAUbio_st@@P6APEAUevp_pkey_st@@0PEAPEAU4@@Z@Z@4HA 000000018002fc20 f   key_exp.obj
 0001:0002ec2c       ?dtor$1@?0??KEY_import@@YA?AV?$shared_ptr@V?$ScopedSSL@Uevp_pkey_st@@$1?ScopedEVP_PKEY_free@@YAXPEAX@Z@@@std@@PEAUbio_st@@P6APEAUevp_pkey_st@@0PEAPEAU4@@Z@Z@4HA 000000018002fc2c f   key_exp.obj
 0001:0002ec38       ?dtor$2@?0??KEY_import@@YA?AV?$shared_ptr@V?$ScopedSSL@Uevp_pkey_st@@$1?ScopedEVP_PKEY_free@@YAXPEAX@Z@@@std@@PEAUbio_st@@P6APEAUevp_pkey_st@@0PEAPEAU4@@Z@Z@4HA 000000018002fc38 f   key_exp.obj
 0001:0002ec50       ?dtor$0@?0??KEY_import_pkcs8@@YA?AV?$shared_ptr@V?$ScopedSSL@Uevp_pkey_st@@$1?ScopedEVP_PKEY_free@@YAXPEAX@Z@@@std@@V?$shared_ptr@V?$basic_string@DU?$char_traits@D@std@@V?$allocator@D@2@@std@@@2@@Z@4HA 000000018002fc50 f   key_exp.obj
 0001:0002ec50       ?dtor$0@?0??KEY_import_spki@@YA?AV?$shared_ptr@V?$ScopedSSL@Uevp_pkey_st@@$1?ScopedEVP_PKEY_free@@YAXPEAX@Z@@@std@@V?$shared_ptr@V?$basic_string@DU?$char_traits@D@std@@V?$allocator@D@2@@std@@@2@@Z@4HA 000000018002fc50 f   key_exp.obj
 0001:0002ec5c       ?dtor$1@?0??KEY_import_pkcs8@@YA?AV?$shared_ptr@V?$ScopedSSL@Uevp_pkey_st@@$1?ScopedEVP_PKEY_free@@YAXPEAX@Z@@@std@@V?$shared_ptr@V?$basic_string@DU?$char_traits@D@std@@V?$allocator@D@2@@std@@@2@@Z@4HA 000000018002fc5c f   key_exp.obj
 0001:0002ec5c       ?dtor$1@?0??KEY_import_spki@@YA?AV?$shared_ptr@V?$ScopedSSL@Uevp_pkey_st@@$1?ScopedEVP_PKEY_free@@YAXPEAX@Z@@@std@@V?$shared_ptr@V?$basic_string@DU?$char_traits@D@std@@V?$allocator@D@2@@std@@@2@@Z@4HA 000000018002fc5c f   key_exp.obj
 0001:0002ec70       ?dtor$0@?0??OPENSSL_get_errors@@YA?AV?$basic_string@DU?$char_traits@D@std@@V?$allocator@D@2@@std@@XZ@4HA 000000018002fc70 f   excep.obj
 0001:0002ec70       ?dtor$0@?0??To@JwkRsa@@QEAA?AV?$shared_ptr@V?$ScopedSSL@Uevp_pkey_st@@$1?ScopedEVP_PKEY_free@@YAXPEAX@Z@@@std@@AEAH@Z@4HA 000000018002fc70 f   rsa_jwk.obj
 0001:0002ec80       ?dtor$0@?0??digest@@YA?AV?$shared_ptr@V?$basic_string@DU?$char_traits@D@std@@V?$allocator@D@2@@std@@@std@@PEBUenv_md_st@@V12@@Z@4HA 000000018002fc80 f   digest.obj
 0001:0002ec8c       ?dtor$2@?0??digest@@YA?AV?$shared_ptr@V?$basic_string@DU?$char_traits@D@std@@V?$allocator@D@2@@std@@@std@@PEBUenv_md_st@@V12@@Z@4HA 000000018002fc8c f   digest.obj
 0001:0002ecb2       ?dtor$3@?0??digest@@YA?AV?$shared_ptr@V?$basic_string@DU?$char_traits@D@std@@V?$allocator@D@2@@std@@@std@@PEBUenv_md_st@@V12@@Z@4HA 000000018002fcb2 f   digest.obj
 0001:0002ecc0       ?dtor$0@?0??RSA_generate@@YA?AV?$shared_ptr@V?$ScopedSSL@Uevp_pkey_st@@$1?ScopedEVP_PKEY_free@@YAXPEAX@Z@@@std@@HH@Z@4HA 000000018002fcc0 f   rsa_gen.obj
 0001:0002eccc       ?dtor$1@?0??RSA_generate@@YA?AV?$shared_ptr@V?$ScopedSSL@Uevp_pkey_st@@$1?ScopedEVP_PKEY_free@@YAXPEAX@Z@@@std@@HH@Z@4HA 000000018002fccc f   rsa_gen.obj
 0001:0002ecd8       ?dtor$2@?0??RSA_generate@@YA?AV?$shared_ptr@V?$ScopedSSL@Uevp_pkey_st@@$1?ScopedEVP_PKEY_free@@YAXPEAX@Z@@@std@@HH@Z@4HA 000000018002fcd8 f   rsa_gen.obj
 0001:0002ece4       ?dtor$3@?0??RSA_generate@@YA?AV?$shared_ptr@V?$ScopedSSL@Uevp_pkey_st@@$1?ScopedEVP_PKEY_free@@YAXPEAX@Z@@@std@@HH@Z@4HA 000000018002fce4 f   rsa_gen.obj
 0001:0002ecf0       ?dtor$4@?0??RSA_generate@@YA?AV?$shared_ptr@V?$ScopedSSL@Uevp_pkey_st@@$1?ScopedEVP_PKEY_free@@YAXPEAX@Z@@@std@@HH@Z@4HA 000000018002fcf0 f   rsa_gen.obj
 0001:0002ed00       ?dtor$0@?0??From@JwkRsa@@SA?AV?$shared_ptr@VJwkRsa@@@std@@V?$shared_ptr@V?$ScopedSSL@Uevp_pkey_st@@$1?ScopedEVP_PKEY_free@@YAXPEAX@Z@@@3@AEAH@Z@4HA 000000018002fd00 f   rsa_jwk.obj
 0001:0002ed0c       ?dtor$2@?0??From@JwkRsa@@SA?AV?$shared_ptr@VJwkRsa@@@std@@V?$shared_ptr@V?$ScopedSSL@Uevp_pkey_st@@$1?ScopedEVP_PKEY_free@@YAXPEAX@Z@@@3@AEAH@Z@4HA 000000018002fd0c f   rsa_jwk.obj
 0001:0002ed40       ?dtor$0@?0??RSA_PSS_sign@@YA?AV?$shared_ptr@V?$basic_string@DU?$char_traits@D@std@@V?$allocator@D@2@@std@@@std@@V?$shared_ptr@V?$ScopedSSL@Uevp_pkey_st@@$1?ScopedEVP_PKEY_free@@YAXPEAX@Z@@@2@PEBUenv_md_st@@HV12@@Z@4HA 000000018002fd40 f   rsa_pss.obj
 0001:0002ed40       ?dtor$0@?0??RSA_PKCS1_sign@@YA?AV?$shared_ptr@V?$basic_string@DU?$char_traits@D@std@@V?$allocator@D@2@@std@@@std@@V?$shared_ptr@V?$ScopedSSL@Uevp_pkey_st@@$1?ScopedEVP_PKEY_free@@YAXPEAX@Z@@@2@PEBUenv_md_st@@V12@@Z@4HA 000000018002fd40 f   rsa_pkcs1.obj
 0001:0002ed4c       ?dtor$1@?0??RSA_PSS_sign@@YA?AV?$shared_ptr@V?$basic_string@DU?$char_traits@D@std@@V?$allocator@D@2@@std@@@std@@V?$shared_ptr@V?$ScopedSSL@Uevp_pkey_st@@$1?ScopedEVP_PKEY_free@@YAXPEAX@Z@@@2@PEBUenv_md_st@@HV12@@Z@4HA 000000018002fd4c f   rsa_pss.obj
 0001:0002ed4c       ?dtor$1@?0??RSA_PKCS1_sign@@YA?AV?$shared_ptr@V?$basic_string@DU?$char_traits@D@std@@V?$allocator@D@2@@std@@@std@@V?$shared_ptr@V?$ScopedSSL@Uevp_pkey_st@@$1?ScopedEVP_PKEY_free@@YAXPEAX@Z@@@2@PEBUenv_md_st@@V12@@Z@4HA 000000018002fd4c f   rsa_pkcs1.obj
 0001:0002ed58       ?dtor$2@?0??RSA_PSS_sign@@YA?AV?$shared_ptr@V?$basic_string@DU?$char_traits@D@std@@V?$allocator@D@2@@std@@@std@@V?$shared_ptr@V?$ScopedSSL@Uevp_pkey_st@@$1?ScopedEVP_PKEY_free@@YAXPEAX@Z@@@2@PEBUenv_md_st@@HV12@@Z@4HA 000000018002fd58 f   rsa_pss.obj
 0001:0002ed58       ?dtor$2@?0??RSA_PKCS1_sign@@YA?AV?$shared_ptr@V?$basic_string@DU?$char_traits@D@std@@V?$allocator@D@2@@std@@@std@@V?$shared_ptr@V?$ScopedSSL@Uevp_pkey_st@@$1?ScopedEVP_PKEY_free@@YAXPEAX@Z@@@2@PEBUenv_md_st@@V12@@Z@4HA 000000018002fd58 f   rsa_pkcs1.obj
 0001:0002ed64       ?dtor$3@?0??RSA_PKCS1_sign@@YA?AV?$shared_ptr@V?$basic_string@DU?$char_traits@D@std@@V?$allocator@D@2@@std@@@std@@V?$shared_ptr@V?$ScopedSSL@Uevp_pkey_st@@$1?ScopedEVP_PKEY_free@@YAXPEAX@Z@@@2@PEBUenv_md_st@@V12@@Z@4HA 000000018002fd64 f   rsa_pkcs1.obj
 0001:0002ed64       ?dtor$3@?0??RSA_PSS_sign@@YA?AV?$shared_ptr@V?$basic_string@DU?$char_traits@D@std@@V?$allocator@D@2@@std@@@std@@V?$shared_ptr@V?$ScopedSSL@Uevp_pkey_st@@$1?ScopedEVP_PKEY_free@@YAXPEAX@Z@@@2@PEBUenv_md_st@@HV12@@Z@4HA 000000018002fd64 f   rsa_pss.obj
 0001:0002ed70       ?dtor$4@?0??RSA_PSS_sign@@YA?AV?$shared_ptr@V?$basic_string@DU?$char_traits@D@std@@V?$allocator@D@2@@std@@@std@@V?$shared_ptr@V?$ScopedSSL@Uevp_pkey_st@@$1?ScopedEVP_PKEY_free@@YAXPEAX@Z@@@2@PEBUenv_md_st@@HV12@@Z@4HA 000000018002fd70 f   rsa_pss.obj
 0001:0002ed70       ?dtor$4@?0??RSA_PKCS1_sign@@YA?AV?$shared_ptr@V?$basic_string@DU?$char_traits@D@std@@V?$allocator@D@2@@std@@@std@@V?$shared_ptr@V?$ScopedSSL@Uevp_pkey_st@@$1?ScopedEVP_PKEY_free@@YAXPEAX@Z@@@2@PEBUenv_md_st@@V12@@Z@4HA 000000018002fd70 f   rsa_pkcs1.obj
 0001:0002ed7c       ?dtor$5@?0??RSA_PKCS1_sign@@YA?AV?$shared_ptr@V?$basic_string@DU?$char_traits@D@std@@V?$allocator@D@2@@std@@@std@@V?$shared_ptr@V?$ScopedSSL@Uevp_pkey_st@@$1?ScopedEVP_PKEY_free@@YAXPEAX@Z@@@2@PEBUenv_md_st@@V12@@Z@4HA 000000018002fd7c f   rsa_pkcs1.obj
 0001:0002ed7c       ?dtor$5@?0??RSA_PSS_sign@@YA?AV?$shared_ptr@V?$basic_string@DU?$char_traits@D@std@@V?$allocator@D@2@@std@@@std@@V?$shared_ptr@V?$ScopedSSL@Uevp_pkey_st@@$1?ScopedEVP_PKEY_free@@YAXPEAX@Z@@@2@PEBUenv_md_st@@HV12@@Z@4HA 000000018002fd7c f   rsa_pss.obj
 0001:0002ed88       ?dtor$7@?0??RSA_PSS_sign@@YA?AV?$shared_ptr@V?$basic_string@DU?$char_traits@D@std@@V?$allocator@D@2@@std@@@std@@V?$shared_ptr@V?$ScopedSSL@Uevp_pkey_st@@$1?ScopedEVP_PKEY_free@@YAXPEAX@Z@@@2@PEBUenv_md_st@@HV12@@Z@4HA 000000018002fd88 f   rsa_pss.obj
 0001:0002ed88       ?dtor$7@?0??RSA_PKCS1_sign@@YA?AV?$shared_ptr@V?$basic_string@DU?$char_traits@D@std@@V?$allocator@D@2@@std@@@std@@V?$shared_ptr@V?$ScopedSSL@Uevp_pkey_st@@$1?ScopedEVP_PKEY_free@@YAXPEAX@Z@@@2@PEBUenv_md_st@@V12@@Z@4HA 000000018002fd88 f   rsa_pkcs1.obj
 0001:0002edae       ?dtor$8@?0??RSA_PKCS1_sign@@YA?AV?$shared_ptr@V?$basic_string@DU?$char_traits@D@std@@V?$allocator@D@2@@std@@@std@@V?$shared_ptr@V?$ScopedSSL@Uevp_pkey_st@@$1?ScopedEVP_PKEY_free@@YAXPEAX@Z@@@2@PEBUenv_md_st@@V12@@Z@4HA 000000018002fdae f   rsa_pkcs1.obj
 0001:0002edae       ?dtor$8@?0??RSA_PSS_sign@@YA?AV?$shared_ptr@V?$basic_string@DU?$char_traits@D@std@@V?$allocator@D@2@@std@@@std@@V?$shared_ptr@V?$ScopedSSL@Uevp_pkey_st@@$1?ScopedEVP_PKEY_free@@YAXPEAX@Z@@@2@PEBUenv_md_st@@HV12@@Z@4HA 000000018002fdae f   rsa_pss.obj
 0001:0002edc0       ?dtor$0@?0??RSA_PKCS1_verify@@YA_NV?$shared_ptr@V?$ScopedSSL@Uevp_pkey_st@@$1?ScopedEVP_PKEY_free@@YAXPEAX@Z@@@std@@PEBUenv_md_st@@V?$shared_ptr@V?$basic_string@DU?$char_traits@D@std@@V?$allocator@D@2@@std@@@2@2@Z@4HA 000000018002fdc0 f   rsa_pkcs1.obj
 0001:0002edc0       ?dtor$0@?0??RSA_PSS_verify@@YA_NV?$shared_ptr@V?$ScopedSSL@Uevp_pkey_st@@$1?ScopedEVP_PKEY_free@@YAXPEAX@Z@@@std@@PEBUenv_md_st@@HV?$shared_ptr@V?$basic_string@DU?$char_traits@D@std@@V?$allocator@D@2@@std@@@2@2@Z@4HA 000000018002fdc0 f   rsa_pss.obj
 0001:0002edcc       ?dtor$1@?0??RSA_PKCS1_verify@@YA_NV?$shared_ptr@V?$ScopedSSL@Uevp_pkey_st@@$1?ScopedEVP_PKEY_free@@YAXPEAX@Z@@@std@@PEBUenv_md_st@@V?$shared_ptr@V?$basic_string@DU?$char_traits@D@std@@V?$allocator@D@2@@std@@@2@2@Z@4HA 000000018002fdcc f   rsa_pkcs1.obj
 0001:0002edcc       ?dtor$1@?0??RSA_PSS_verify@@YA_NV?$shared_ptr@V?$ScopedSSL@Uevp_pkey_st@@$1?ScopedEVP_PKEY_free@@YAXPEAX@Z@@@std@@PEBUenv_md_st@@HV?$shared_ptr@V?$basic_string@DU?$char_traits@D@std@@V?$allocator@D@2@@std@@@2@2@Z@4HA 000000018002fdcc f   rsa_pss.obj
 0001:0002edd8       ?dtor$2@?0??RSA_PSS_verify@@YA_NV?$shared_ptr@V?$ScopedSSL@Uevp_pkey_st@@$1?ScopedEVP_PKEY_free@@YAXPEAX@Z@@@std@@PEBUenv_md_st@@HV?$shared_ptr@V?$basic_string@DU?$char_traits@D@std@@V?$allocator@D@2@@std@@@2@2@Z@4HA 000000018002fdd8 f   rsa_pss.obj
 0001:0002edd8       ?dtor$2@?0??RSA_PKCS1_verify@@YA_NV?$shared_ptr@V?$ScopedSSL@Uevp_pkey_st@@$1?ScopedEVP_PKEY_free@@YAXPEAX@Z@@@std@@PEBUenv_md_st@@V?$shared_ptr@V?$basic_string@DU?$char_traits@D@std@@V?$allocator@D@2@@std@@@2@2@Z@4HA 000000018002fdd8 f   rsa_pkcs1.obj
 0001:0002ede4       ?dtor$3@?0??RSA_PSS_verify@@YA_NV?$shared_ptr@V?$ScopedSSL@Uevp_pkey_st@@$1?ScopedEVP_PKEY_free@@YAXPEAX@Z@@@std@@PEBUenv_md_st@@HV?$shared_ptr@V?$basic_string@DU?$char_traits@D@std@@V?$allocator@D@2@@std@@@2@2@Z@4HA 000000018002fde4 f   rsa_pss.obj
 0001:0002ede4       ?dtor$3@?0??RSA_PKCS1_verify@@YA_NV?$shared_ptr@V?$ScopedSSL@Uevp_pkey_st@@$1?ScopedEVP_PKEY_free@@YAXPEAX@Z@@@std@@PEBUenv_md_st@@V?$shared_ptr@V?$basic_string@DU?$char_traits@D@std@@V?$allocator@D@2@@std@@@2@2@Z@4HA 000000018002fde4 f   rsa_pkcs1.obj
 0001:0002edf0       ?dtor$4@?0??RSA_PSS_verify@@YA_NV?$shared_ptr@V?$ScopedSSL@Uevp_pkey_st@@$1?ScopedEVP_PKEY_free@@YAXPEAX@Z@@@std@@PEBUenv_md_st@@HV?$shared_ptr@V?$basic_string@DU?$char_traits@D@std@@V?$allocator@D@2@@std@@@2@2@Z@4HA 000000018002fdf0 f   rsa_pss.obj
 0001:0002edf0       ?dtor$4@?0??RSA_PKCS1_verify@@YA_NV?$shared_ptr@V?$ScopedSSL@Uevp_pkey_st@@$1?ScopedEVP_PKEY_free@@YAXPEAX@Z@@@std@@PEBUenv_md_st@@V?$shared_ptr@V?$basic_string@DU?$char_traits@D@std@@V?$allocator@D@2@@std@@@2@2@Z@4HA 000000018002fdf0 f   rsa_pkcs1.obj
 0001:0002edfc       ?dtor$5@?0??RSA_PSS_verify@@YA_NV?$shared_ptr@V?$ScopedSSL@Uevp_pkey_st@@$1?ScopedEVP_PKEY_free@@YAXPEAX@Z@@@std@@PEBUenv_md_st@@HV?$shared_ptr@V?$basic_string@DU?$char_traits@D@std@@V?$allocator@D@2@@std@@@2@2@Z@4HA 000000018002fdfc f   rsa_pss.obj
 0001:0002edfc       ?dtor$5@?0??RSA_PKCS1_verify@@YA_NV?$shared_ptr@V?$ScopedSSL@Uevp_pkey_st@@$1?ScopedEVP_PKEY_free@@YAXPEAX@Z@@@std@@PEBUenv_md_st@@V?$shared_ptr@V?$basic_string@DU?$char_traits@D@std@@V?$allocator@D@2@@std@@@2@2@Z@4HA 000000018002fdfc f   rsa_pkcs1.obj
 0001:0002ee10       ?dtor$0@?0??RSA_OAEP_enc_dec@@YA?AV?$shared_ptr@V?$basic_string@DU?$char_traits@D@std@@V?$allocator@D@2@@std@@@std@@V?$shared_ptr@V?$ScopedSSL@Uevp_pkey_st@@$1?ScopedEVP_PKEY_free@@YAXPEAX@Z@@@2@PEBUenv_md_st@@V12@2_N@Z@4HA 000000018002fe10 f   rsa_oaep.obj
 0001:0002ee1c       ?dtor$1@?0??RSA_OAEP_enc_dec@@YA?AV?$shared_ptr@V?$basic_string@DU?$char_traits@D@std@@V?$allocator@D@2@@std@@@std@@V?$shared_ptr@V?$ScopedSSL@Uevp_pkey_st@@$1?ScopedEVP_PKEY_free@@YAXPEAX@Z@@@2@PEBUenv_md_st@@V12@2_N@Z@4HA 000000018002fe1c f   rsa_oaep.obj
 0001:0002ee28       ?dtor$2@?0??RSA_OAEP_enc_dec@@YA?AV?$shared_ptr@V?$basic_string@DU?$char_traits@D@std@@V?$allocator@D@2@@std@@@std@@V?$shared_ptr@V?$ScopedSSL@Uevp_pkey_st@@$1?ScopedEVP_PKEY_free@@YAXPEAX@Z@@@2@PEBUenv_md_st@@V12@2_N@Z@4HA 000000018002fe28 f   rsa_oaep.obj
 0001:0002ee34       ?dtor$3@?0??RSA_OAEP_enc_dec@@YA?AV?$shared_ptr@V?$basic_string@DU?$char_traits@D@std@@V?$allocator@D@2@@std@@@std@@V?$shared_ptr@V?$ScopedSSL@Uevp_pkey_st@@$1?ScopedEVP_PKEY_free@@YAXPEAX@Z@@@2@PEBUenv_md_st@@V12@2_N@Z@4HA 000000018002fe34 f   rsa_oaep.obj
 0001:0002ee40       ?dtor$4@?0??RSA_OAEP_enc_dec@@YA?AV?$shared_ptr@V?$basic_string@DU?$char_traits@D@std@@V?$allocator@D@2@@std@@@std@@V?$shared_ptr@V?$ScopedSSL@Uevp_pkey_st@@$1?ScopedEVP_PKEY_free@@YAXPEAX@Z@@@2@PEBUenv_md_st@@V12@2_N@Z@4HA 000000018002fe40 f   rsa_oaep.obj
 0001:0002ee4c       ?dtor$5@?0??RSA_OAEP_enc_dec@@YA?AV?$shared_ptr@V?$basic_string@DU?$char_traits@D@std@@V?$allocator@D@2@@std@@@std@@V?$shared_ptr@V?$ScopedSSL@Uevp_pkey_st@@$1?ScopedEVP_PKEY_free@@YAXPEAX@Z@@@2@PEBUenv_md_st@@V12@2_N@Z@4HA 000000018002fe4c f   rsa_oaep.obj
 0001:0002ee58       ?dtor$6@?0??RSA_OAEP_enc_dec@@YA?AV?$shared_ptr@V?$basic_string@DU?$char_traits@D@std@@V?$allocator@D@2@@std@@@std@@V?$shared_ptr@V?$ScopedSSL@Uevp_pkey_st@@$1?ScopedEVP_PKEY_free@@YAXPEAX@Z@@@2@PEBUenv_md_st@@V12@2_N@Z@4HA 000000018002fe58 f   rsa_oaep.obj
 0001:0002ee64       ?dtor$7@?0??RSA_OAEP_enc_dec@@YA?AV?$shared_ptr@V?$basic_string@DU?$char_traits@D@std@@V?$allocator@D@2@@std@@@std@@V?$shared_ptr@V?$ScopedSSL@Uevp_pkey_st@@$1?ScopedEVP_PKEY_free@@YAXPEAX@Z@@@2@PEBUenv_md_st@@V12@2_N@Z@4HA 000000018002fe64 f   rsa_oaep.obj
 0001:0002ee70       ?dtor$8@?0??RSA_OAEP_enc_dec@@YA?AV?$shared_ptr@V?$basic_string@DU?$char_traits@D@std@@V?$allocator@D@2@@std@@@std@@V?$shared_ptr@V?$ScopedSSL@Uevp_pkey_st@@$1?ScopedEVP_PKEY_free@@YAXPEAX@Z@@@2@PEBUenv_md_st@@V12@2_N@Z@4HA 000000018002fe70 f   rsa_oaep.obj
 0001:0002ee7c       ?dtor$9@?0??RSA_OAEP_enc_dec@@YA?AV?$shared_ptr@V?$basic_string@DU?$char_traits@D@std@@V?$allocator@D@2@@std@@@std@@V?$shared_ptr@V?$ScopedSSL@Uevp_pkey_st@@$1?ScopedEVP_PKEY_free@@YAXPEAX@Z@@@2@PEBUenv_md_st@@V12@2_N@Z@4HA 000000018002fe7c f   rsa_oaep.obj
 0001:0002ee88       ?dtor$10@?0??RSA_OAEP_enc_dec@@YA?AV?$shared_ptr@V?$basic_string@DU?$char_traits@D@std@@V?$allocator@D@2@@std@@@std@@V?$shared_ptr@V?$ScopedSSL@Uevp_pkey_st@@$1?ScopedEVP_PKEY_free@@YAXPEAX@Z@@@2@PEBUenv_md_st@@V12@2_N@Z@4HA 000000018002fe88 f   rsa_oaep.obj
 0001:0002ee94       ?dtor$11@?0??RSA_OAEP_enc_dec@@YA?AV?$shared_ptr@V?$basic_string@DU?$char_traits@D@std@@V?$allocator@D@2@@std@@@std@@V?$shared_ptr@V?$ScopedSSL@Uevp_pkey_st@@$1?ScopedEVP_PKEY_free@@YAXPEAX@Z@@@2@PEBUenv_md_st@@V12@2_N@Z@4HA 000000018002fe94 f   rsa_oaep.obj
 0001:0002eea0       ?dtor$13@?0??RSA_OAEP_enc_dec@@YA?AV?$shared_ptr@V?$basic_string@DU?$char_traits@D@std@@V?$allocator@D@2@@std@@@std@@V?$shared_ptr@V?$ScopedSSL@Uevp_pkey_st@@$1?ScopedEVP_PKEY_free@@YAXPEAX@Z@@@2@PEBUenv_md_st@@V12@2_N@Z@4HA 000000018002fea0 f   rsa_oaep.obj
 0001:0002eec6       ?dtor$14@?0??RSA_OAEP_enc_dec@@YA?AV?$shared_ptr@V?$basic_string@DU?$char_traits@D@std@@V?$allocator@D@2@@std@@@std@@V?$shared_ptr@V?$ScopedSSL@Uevp_pkey_st@@$1?ScopedEVP_PKEY_free@@YAXPEAX@Z@@@2@PEBUenv_md_st@@V12@2_N@Z@4HA 000000018002fec6 f   rsa_oaep.obj
 0001:0002eee0       ?dtor$0@?0??setRsaPssParams@@YAXPEBUenv_md_st@@HPEAUevp_pkey_ctx_st@@@Z@4HA 000000018002fee0 f   rsa_pss.obj
 0001:0002eef0       ?dtor$0@?0??EC_generate@@YA?AV?$shared_ptr@V?$ScopedSSL@Uevp_pkey_st@@$1?ScopedEVP_PKEY_free@@YAXPEAX@Z@@@std@@AEAH@Z@4HA 000000018002fef0 f   ec_gen.obj
 0001:0002ef19       ?dtor$1@?0??EC_generate@@YA?AV?$shared_ptr@V?$ScopedSSL@Uevp_pkey_st@@$1?ScopedEVP_PKEY_free@@YAXPEAX@Z@@@std@@AEAH@Z@4HA 000000018002ff19 f   ec_gen.obj
 0001:0002ef25       ?dtor$2@?0??EC_generate@@YA?AV?$shared_ptr@V?$ScopedSSL@Uevp_pkey_st@@$1?ScopedEVP_PKEY_free@@YAXPEAX@Z@@@std@@AEAH@Z@4HA 000000018002ff25 f   ec_gen.obj
 0001:0002ef31       ?dtor$3@?0??EC_generate@@YA?AV?$shared_ptr@V?$ScopedSSL@Uevp_pkey_st@@$1?ScopedEVP_PKEY_free@@YAXPEAX@Z@@@std@@AEAH@Z@4HA 000000018002ff31 f   ec_gen.obj
 0001:0002ef3d       ?dtor$6@?0??EC_generate@@YA?AV?$shared_ptr@V?$ScopedSSL@Uevp_pkey_st@@$1?ScopedEVP_PKEY_free@@YAXPEAX@Z@@@std@@AEAH@Z@4HA 000000018002ff3d f   ec_gen.obj
 0001:0002ef50       ?dtor$0@?0??GetEcGroupOrderSize@@YA_KPEAUevp_pkey_st@@@Z@4HA 000000018002ff50 f   ec_dsa.obj
 0001:0002ef5c       ?dtor$1@?0??GetEcGroupOrderSize@@YA_KPEAUevp_pkey_st@@@Z@4HA 000000018002ff5c f   ec_dsa.obj
 0001:0002ef70       ?dtor$1@?0??ConvertWebCryptoSignatureToDerSignature@@YA?AV?$shared_ptr@V?$basic_string@DU?$char_traits@D@std@@V?$allocator@D@2@@std@@@std@@PEAUevp_pkey_st@@PEBEAEB_KPEA_N@Z@4HA 000000018002ff70 f   ec_dsa.obj
 0001:0002ef7c       ?dtor$2@?0??ConvertWebCryptoSignatureToDerSignature@@YA?AV?$shared_ptr@V?$basic_string@DU?$char_traits@D@std@@V?$allocator@D@2@@std@@@std@@PEAUevp_pkey_st@@PEBEAEB_KPEA_N@Z@4HA 000000018002ff7c f   ec_dsa.obj
 0001:0002ef88       ?dtor$3@?0??ConvertWebCryptoSignatureToDerSignature@@YA?AV?$shared_ptr@V?$basic_string@DU?$char_traits@D@std@@V?$allocator@D@2@@std@@@std@@PEAUevp_pkey_st@@PEBEAEB_KPEA_N@Z@4HA 000000018002ff88 f   ec_dsa.obj
 0001:0002ef94       ?dtor$4@?0??ConvertWebCryptoSignatureToDerSignature@@YA?AV?$shared_ptr@V?$basic_string@DU?$char_traits@D@std@@V?$allocator@D@2@@std@@@std@@PEAUevp_pkey_st@@PEBEAEB_KPEA_N@Z@4HA 000000018002ff94 f   ec_dsa.obj
 0001:0002efa0       ?dtor$5@?0??ConvertWebCryptoSignatureToDerSignature@@YA?AV?$shared_ptr@V?$basic_string@DU?$char_traits@D@std@@V?$allocator@D@2@@std@@@std@@PEAUevp_pkey_st@@PEBEAEB_KPEA_N@Z@4HA 000000018002ffa0 f   ec_dsa.obj
 0001:0002efc0       ?dtor$0@?0??ConvertDerSignatureToWebCryptoSignature@@YA?AV?$shared_ptr@V?$basic_string@DU?$char_traits@D@std@@V?$allocator@D@2@@std@@@std@@PEAUevp_pkey_st@@PEBEAEA_K@Z@4HA 000000018002ffc0 f   ec_dsa.obj
 0001:0002efcc       ?dtor$1@?0??ConvertDerSignatureToWebCryptoSignature@@YA?AV?$shared_ptr@V?$basic_string@DU?$char_traits@D@std@@V?$allocator@D@2@@std@@@std@@PEAUevp_pkey_st@@PEBEAEA_K@Z@4HA 000000018002ffcc f   ec_dsa.obj
 0001:0002efd8       ?dtor$3@?0??ConvertDerSignatureToWebCryptoSignature@@YA?AV?$shared_ptr@V?$basic_string@DU?$char_traits@D@std@@V?$allocator@D@2@@std@@@std@@PEAUevp_pkey_st@@PEBEAEA_K@Z@4HA 000000018002ffd8 f   ec_dsa.obj
 0001:0002effe       ?dtor$4@?0??ConvertDerSignatureToWebCryptoSignature@@YA?AV?$shared_ptr@V?$basic_string@DU?$char_traits@D@std@@V?$allocator@D@2@@std@@@std@@PEAUevp_pkey_st@@PEBEAEA_K@Z@4HA 000000018002fffe f   ec_dsa.obj
 0001:0002f00a       ?dtor$5@?0??ConvertDerSignatureToWebCryptoSignature@@YA?AV?$shared_ptr@V?$basic_string@DU?$char_traits@D@std@@V?$allocator@D@2@@std@@@std@@PEAUevp_pkey_st@@PEBEAEA_K@Z@4HA 000000018003000a f   ec_dsa.obj
 0001:0002f020       ?dtor$0@?0??EC_DSA_sign@@YA?AV?$shared_ptr@V?$basic_string@DU?$char_traits@D@std@@V?$allocator@D@2@@std@@@std@@V?$shared_ptr@V?$ScopedSSL@Uevp_pkey_st@@$1?ScopedEVP_PKEY_free@@YAXPEAX@Z@@@2@PEBUenv_md_st@@V12@@Z@4HA 0000000180030020 f   ec_dsa.obj
 0001:0002f02c       ?dtor$1@?0??EC_DSA_sign@@YA?AV?$shared_ptr@V?$basic_string@DU?$char_traits@D@std@@V?$allocator@D@2@@std@@@std@@V?$shared_ptr@V?$ScopedSSL@Uevp_pkey_st@@$1?ScopedEVP_PKEY_free@@YAXPEAX@Z@@@2@PEBUenv_md_st@@V12@@Z@4HA 000000018003002c f   ec_dsa.obj
 0001:0002f038       ?dtor$2@?0??EC_DSA_sign@@YA?AV?$shared_ptr@V?$basic_string@DU?$char_traits@D@std@@V?$allocator@D@2@@std@@@std@@V?$shared_ptr@V?$ScopedSSL@Uevp_pkey_st@@$1?ScopedEVP_PKEY_free@@YAXPEAX@Z@@@2@PEBUenv_md_st@@V12@@Z@4HA 0000000180030038 f   ec_dsa.obj
 0001:0002f044       ?dtor$3@?0??EC_DSA_sign@@YA?AV?$shared_ptr@V?$basic_string@DU?$char_traits@D@std@@V?$allocator@D@2@@std@@@std@@V?$shared_ptr@V?$ScopedSSL@Uevp_pkey_st@@$1?ScopedEVP_PKEY_free@@YAXPEAX@Z@@@2@PEBUenv_md_st@@V12@@Z@4HA 0000000180030044 f   ec_dsa.obj
 0001:0002f050       ?dtor$4@?0??EC_DSA_sign@@YA?AV?$shared_ptr@V?$basic_string@DU?$char_traits@D@std@@V?$allocator@D@2@@std@@@std@@V?$shared_ptr@V?$ScopedSSL@Uevp_pkey_st@@$1?ScopedEVP_PKEY_free@@YAXPEAX@Z@@@2@PEBUenv_md_st@@V12@@Z@4HA 0000000180030050 f   ec_dsa.obj
 0001:0002f05c       ?dtor$5@?0??EC_DSA_sign@@YA?AV?$shared_ptr@V?$basic_string@DU?$char_traits@D@std@@V?$allocator@D@2@@std@@@std@@V?$shared_ptr@V?$ScopedSSL@Uevp_pkey_st@@$1?ScopedEVP_PKEY_free@@YAXPEAX@Z@@@2@PEBUenv_md_st@@V12@@Z@4HA 000000018003005c f   ec_dsa.obj
 0001:0002f068       ?dtor$7@?0??EC_DSA_sign@@YA?AV?$shared_ptr@V?$basic_string@DU?$char_traits@D@std@@V?$allocator@D@2@@std@@@std@@V?$shared_ptr@V?$ScopedSSL@Uevp_pkey_st@@$1?ScopedEVP_PKEY_free@@YAXPEAX@Z@@@2@PEBUenv_md_st@@V12@@Z@4HA 0000000180030068 f   ec_dsa.obj
 0001:0002f074       ?dtor$8@?0??EC_DSA_sign@@YA?AV?$shared_ptr@V?$basic_string@DU?$char_traits@D@std@@V?$allocator@D@2@@std@@@std@@V?$shared_ptr@V?$ScopedSSL@Uevp_pkey_st@@$1?ScopedEVP_PKEY_free@@YAXPEAX@Z@@@2@PEBUenv_md_st@@V12@@Z@4HA 0000000180030074 f   ec_dsa.obj
 0001:0002f080       ?dtor$0@?0??EC_DSA_verify@@YA_NV?$shared_ptr@V?$ScopedSSL@Uevp_pkey_st@@$1?ScopedEVP_PKEY_free@@YAXPEAX@Z@@@std@@PEBUenv_md_st@@V?$shared_ptr@V?$basic_string@DU?$char_traits@D@std@@V?$allocator@D@2@@std@@@2@2@Z@4HA 0000000180030080 f   ec_dsa.obj
 0001:0002f08c       ?dtor$1@?0??EC_DSA_verify@@YA_NV?$shared_ptr@V?$ScopedSSL@Uevp_pkey_st@@$1?ScopedEVP_PKEY_free@@YAXPEAX@Z@@@std@@PEBUenv_md_st@@V?$shared_ptr@V?$basic_string@DU?$char_traits@D@std@@V?$allocator@D@2@@std@@@2@2@Z@4HA 000000018003008c f   ec_dsa.obj
 0001:0002f098       ?dtor$2@?0??EC_DSA_verify@@YA_NV?$shared_ptr@V?$ScopedSSL@Uevp_pkey_st@@$1?ScopedEVP_PKEY_free@@YAXPEAX@Z@@@std@@PEBUenv_md_st@@V?$shared_ptr@V?$basic_string@DU?$char_traits@D@std@@V?$allocator@D@2@@std@@@2@2@Z@4HA 0000000180030098 f   ec_dsa.obj
 0001:0002f0a4       ?dtor$3@?0??EC_DSA_verify@@YA_NV?$shared_ptr@V?$ScopedSSL@Uevp_pkey_st@@$1?ScopedEVP_PKEY_free@@YAXPEAX@Z@@@std@@PEBUenv_md_st@@V?$shared_ptr@V?$basic_string@DU?$char_traits@D@std@@V?$allocator@D@2@@std@@@2@2@Z@4HA 00000001800300a4 f   ec_dsa.obj
 0001:0002f0b0       ?dtor$4@?0??EC_DSA_verify@@YA_NV?$shared_ptr@V?$ScopedSSL@Uevp_pkey_st@@$1?ScopedEVP_PKEY_free@@YAXPEAX@Z@@@std@@PEBUenv_md_st@@V?$shared_ptr@V?$basic_string@DU?$char_traits@D@std@@V?$allocator@D@2@@std@@@2@2@Z@4HA 00000001800300b0 f   ec_dsa.obj
 0001:0002f0bc       ?dtor$5@?0??EC_DSA_verify@@YA_NV?$shared_ptr@V?$ScopedSSL@Uevp_pkey_st@@$1?ScopedEVP_PKEY_free@@YAXPEAX@Z@@@std@@PEBUenv_md_st@@V?$shared_ptr@V?$basic_string@DU?$char_traits@D@std@@V?$allocator@D@2@@std@@@2@2@Z@4HA 00000001800300bc f   ec_dsa.obj
 0001:0002f0c8       ?dtor$6@?0??EC_DSA_verify@@YA_NV?$shared_ptr@V?$ScopedSSL@Uevp_pkey_st@@$1?ScopedEVP_PKEY_free@@YAXPEAX@Z@@@std@@PEBUenv_md_st@@V?$shared_ptr@V?$basic_string@DU?$char_traits@D@std@@V?$allocator@D@2@@std@@@2@2@Z@4HA 00000001800300c8 f   ec_dsa.obj
 0001:0002f0e0       ?dtor$0@?0??ECDH_derive_key@@YA?AV?$shared_ptr@V?$basic_string@DU?$char_traits@D@std@@V?$allocator@D@2@@std@@@std@@V?$shared_ptr@V?$ScopedSSL@Uevp_pkey_st@@$1?ScopedEVP_PKEY_free@@YAXPEAX@Z@@@2@0AEA_K@Z@4HA 00000001800300e0 f   ec_dh.obj
 0001:0002f0ec       ?dtor$1@?0??ECDH_derive_key@@YA?AV?$shared_ptr@V?$basic_string@DU?$char_traits@D@std@@V?$allocator@D@2@@std@@@std@@V?$shared_ptr@V?$ScopedSSL@Uevp_pkey_st@@$1?ScopedEVP_PKEY_free@@YAXPEAX@Z@@@2@0AEA_K@Z@4HA 00000001800300ec f   ec_dh.obj
 0001:0002f0f8       ?dtor$2@?0??ECDH_derive_key@@YA?AV?$shared_ptr@V?$basic_string@DU?$char_traits@D@std@@V?$allocator@D@2@@std@@@std@@V?$shared_ptr@V?$ScopedSSL@Uevp_pkey_st@@$1?ScopedEVP_PKEY_free@@YAXPEAX@Z@@@2@0AEA_K@Z@4HA 00000001800300f8 f   ec_dh.obj
 0001:0002f104       ?dtor$4@?0??ECDH_derive_key@@YA?AV?$shared_ptr@V?$basic_string@DU?$char_traits@D@std@@V?$allocator@D@2@@std@@@std@@V?$shared_ptr@V?$ScopedSSL@Uevp_pkey_st@@$1?ScopedEVP_PKEY_free@@YAXPEAX@Z@@@2@0AEA_K@Z@4HA 0000000180030104 f   ec_dh.obj
 0001:0002f12a       ?dtor$5@?0??ECDH_derive_key@@YA?AV?$shared_ptr@V?$basic_string@DU?$char_traits@D@std@@V?$allocator@D@2@@std@@@std@@V?$shared_ptr@V?$ScopedSSL@Uevp_pkey_st@@$1?ScopedEVP_PKEY_free@@YAXPEAX@Z@@@2@0AEA_K@Z@4HA 000000018003012a f   ec_dh.obj
 0001:0002f136       ?dtor$6@?0??ECDH_derive_key@@YA?AV?$shared_ptr@V?$basic_string@DU?$char_traits@D@std@@V?$allocator@D@2@@std@@@std@@V?$shared_ptr@V?$ScopedSSL@Uevp_pkey_st@@$1?ScopedEVP_PKEY_free@@YAXPEAX@Z@@@2@0AEA_K@Z@4HA 0000000180030136 f   ec_dh.obj
 0001:0002f142       ?dtor$7@?0??ECDH_derive_key@@YA?AV?$shared_ptr@V?$basic_string@DU?$char_traits@D@std@@V?$allocator@D@2@@std@@@std@@V?$shared_ptr@V?$ScopedSSL@Uevp_pkey_st@@$1?ScopedEVP_PKEY_free@@YAXPEAX@Z@@@2@0AEA_K@Z@4HA 0000000180030142 f   ec_dh.obj
 0001:0002f14e       ?dtor$8@?0??ECDH_derive_key@@YA?AV?$shared_ptr@V?$basic_string@DU?$char_traits@D@std@@V?$allocator@D@2@@std@@@std@@V?$shared_ptr@V?$ScopedSSL@Uevp_pkey_st@@$1?ScopedEVP_PKEY_free@@YAXPEAX@Z@@@2@0AEA_K@Z@4HA 000000018003014e f   ec_dh.obj
 0001:0002f15a       ?dtor$9@?0??ECDH_derive_key@@YA?AV?$shared_ptr@V?$basic_string@DU?$char_traits@D@std@@V?$allocator@D@2@@std@@@std@@V?$shared_ptr@V?$ScopedSSL@Uevp_pkey_st@@$1?ScopedEVP_PKEY_free@@YAXPEAX@Z@@@2@0AEA_K@Z@4HA 000000018003015a f   ec_dh.obj
 0001:0002f170       ?dtor$0@?0??EC_get_named_curve@@YAHPEAUec_key_st@@@Z@4HA 0000000180030170 f   ec_dh.obj
 0001:0002f170       ?dtor$0@?0??bn2buf@@YA?AV?$Local@VObject@v8@@@v8@@PEAUbignum_st@@@Z@4HA 0000000180030170 f   common.obj
 0001:0002f180       ?dtor$0@?0??ECDH_derive_bits@@YA?AV?$shared_ptr@V?$basic_string@DU?$char_traits@D@std@@V?$allocator@D@2@@std@@@std@@V?$shared_ptr@V?$ScopedSSL@Uevp_pkey_st@@$1?ScopedEVP_PKEY_free@@YAXPEAX@Z@@@2@0_NI@Z@4HA 0000000180030180 f   ec_dh.obj
 0001:0002f18c       ?dtor$1@?0??ECDH_derive_bits@@YA?AV?$shared_ptr@V?$basic_string@DU?$char_traits@D@std@@V?$allocator@D@2@@std@@@std@@V?$shared_ptr@V?$ScopedSSL@Uevp_pkey_st@@$1?ScopedEVP_PKEY_free@@YAXPEAX@Z@@@2@0_NI@Z@4HA 000000018003018c f   ec_dh.obj
 0001:0002f198       ?dtor$2@?0??ECDH_derive_bits@@YA?AV?$shared_ptr@V?$basic_string@DU?$char_traits@D@std@@V?$allocator@D@2@@std@@@std@@V?$shared_ptr@V?$ScopedSSL@Uevp_pkey_st@@$1?ScopedEVP_PKEY_free@@YAXPEAX@Z@@@2@0_NI@Z@4HA 0000000180030198 f   ec_dh.obj
 0001:0002f1a4       ?dtor$3@?0??ECDH_derive_bits@@YA?AV?$shared_ptr@V?$basic_string@DU?$char_traits@D@std@@V?$allocator@D@2@@std@@@std@@V?$shared_ptr@V?$ScopedSSL@Uevp_pkey_st@@$1?ScopedEVP_PKEY_free@@YAXPEAX@Z@@@2@0_NI@Z@4HA 00000001800301a4 f   ec_dh.obj
 0001:0002f1b0       ?dtor$4@?0??ECDH_derive_bits@@YA?AV?$shared_ptr@V?$basic_string@DU?$char_traits@D@std@@V?$allocator@D@2@@std@@@std@@V?$shared_ptr@V?$ScopedSSL@Uevp_pkey_st@@$1?ScopedEVP_PKEY_free@@YAXPEAX@Z@@@2@0_NI@Z@4HA 00000001800301b0 f   ec_dh.obj
 0001:0002f1bc       ?dtor$6@?0??ECDH_derive_bits@@YA?AV?$shared_ptr@V?$basic_string@DU?$char_traits@D@std@@V?$allocator@D@2@@std@@@std@@V?$shared_ptr@V?$ScopedSSL@Uevp_pkey_st@@$1?ScopedEVP_PKEY_free@@YAXPEAX@Z@@@2@0_NI@Z@4HA 00000001800301bc f   ec_dh.obj
 0001:0002f1c8       ?dtor$8@?0??ECDH_derive_bits@@YA?AV?$shared_ptr@V?$basic_string@DU?$char_traits@D@std@@V?$allocator@D@2@@std@@@std@@V?$shared_ptr@V?$ScopedSSL@Uevp_pkey_st@@$1?ScopedEVP_PKEY_free@@YAXPEAX@Z@@@2@0_NI@Z@4HA 00000001800301c8 f   ec_dh.obj
 0001:0002f1e0       ?dtor$0@?0??From@JwkEc@@SA?AV?$shared_ptr@VJwkEc@@@std@@V?$shared_ptr@V?$ScopedSSL@Uevp_pkey_st@@$1?ScopedEVP_PKEY_free@@YAXPEAX@Z@@@3@AEAH@Z@4HA 00000001800301e0 f   ec_jwk.obj
 0001:0002f1ec       ?dtor$2@?0??From@JwkEc@@SA?AV?$shared_ptr@VJwkEc@@@std@@V?$shared_ptr@V?$ScopedSSL@Uevp_pkey_st@@$1?ScopedEVP_PKEY_free@@YAXPEAX@Z@@@3@AEAH@Z@4HA 00000001800301ec f   ec_jwk.obj
 0001:0002f212       ?dtor$3@?0??From@JwkEc@@SA?AV?$shared_ptr@VJwkEc@@@std@@V?$shared_ptr@V?$ScopedSSL@Uevp_pkey_st@@$1?ScopedEVP_PKEY_free@@YAXPEAX@Z@@@3@AEAH@Z@4HA 0000000180030212 f   ec_jwk.obj
 0001:0002f21e       ?dtor$4@?0??From@JwkEc@@SA?AV?$shared_ptr@VJwkEc@@@std@@V?$shared_ptr@V?$ScopedSSL@Uevp_pkey_st@@$1?ScopedEVP_PKEY_free@@YAXPEAX@Z@@@3@AEAH@Z@4HA 000000018003021e f   ec_jwk.obj
 0001:0002f22a       ?dtor$5@?0??From@JwkEc@@SA?AV?$shared_ptr@VJwkEc@@@std@@V?$shared_ptr@V?$ScopedSSL@Uevp_pkey_st@@$1?ScopedEVP_PKEY_free@@YAXPEAX@Z@@@3@AEAH@Z@4HA 000000018003022a f   ec_jwk.obj
 0001:0002f236       ?dtor$6@?0??From@JwkEc@@SA?AV?$shared_ptr@VJwkEc@@@std@@V?$shared_ptr@V?$ScopedSSL@Uevp_pkey_st@@$1?ScopedEVP_PKEY_free@@YAXPEAX@Z@@@3@AEAH@Z@4HA 0000000180030236 f   ec_jwk.obj
 0001:0002f242       ?dtor$7@?0??From@JwkEc@@SA?AV?$shared_ptr@VJwkEc@@@std@@V?$shared_ptr@V?$ScopedSSL@Uevp_pkey_st@@$1?ScopedEVP_PKEY_free@@YAXPEAX@Z@@@3@AEAH@Z@4HA 0000000180030242 f   ec_jwk.obj
 0001:0002f250       ?dtor$0@?0??To@JwkEc@@QEAA?AV?$shared_ptr@V?$ScopedSSL@Uevp_pkey_st@@$1?ScopedEVP_PKEY_free@@YAXPEAX@Z@@@std@@AEAH@Z@4HA 0000000180030250 f   ec_jwk.obj
 0001:0002f25c       ?dtor$1@?0??To@JwkEc@@QEAA?AV?$shared_ptr@V?$ScopedSSL@Uevp_pkey_st@@$1?ScopedEVP_PKEY_free@@YAXPEAX@Z@@@std@@AEAH@Z@4HA 000000018003025c f   ec_jwk.obj
 0001:0002f268       ?dtor$2@?0??To@JwkEc@@QEAA?AV?$shared_ptr@V?$ScopedSSL@Uevp_pkey_st@@$1?ScopedEVP_PKEY_free@@YAXPEAX@Z@@@std@@AEAH@Z@4HA 0000000180030268 f   ec_jwk.obj
 0001:0002f274       ?dtor$3@?0??To@JwkEc@@QEAA?AV?$shared_ptr@V?$ScopedSSL@Uevp_pkey_st@@$1?ScopedEVP_PKEY_free@@YAXPEAX@Z@@@std@@AEAH@Z@4HA 0000000180030274 f   ec_jwk.obj
 0001:0002f280       ?dtor$4@?0??To@JwkEc@@QEAA?AV?$shared_ptr@V?$ScopedSSL@Uevp_pkey_st@@$1?ScopedEVP_PKEY_free@@YAXPEAX@Z@@@std@@AEAH@Z@4HA 0000000180030280 f   ec_jwk.obj
 0001:0002f28c       ?dtor$5@?0??To@JwkEc@@QEAA?AV?$shared_ptr@V?$ScopedSSL@Uevp_pkey_st@@$1?ScopedEVP_PKEY_free@@YAXPEAX@Z@@@std@@AEAH@Z@4HA 000000018003028c f   ec_jwk.obj
 0001:0002f298       ?dtor$6@?0??To@JwkEc@@QEAA?AV?$shared_ptr@V?$ScopedSSL@Uevp_pkey_st@@$1?ScopedEVP_PKEY_free@@YAXPEAX@Z@@@std@@AEAH@Z@4HA 0000000180030298 f   ec_jwk.obj
 0001:0002f2a4       ?dtor$7@?0??To@JwkEc@@QEAA?AV?$shared_ptr@V?$ScopedSSL@Uevp_pkey_st@@$1?ScopedEVP_PKEY_free@@YAXPEAX@Z@@@std@@AEAH@Z@4HA 00000001800302a4 f   ec_jwk.obj
 0001:0002f2b0       ?dtor$1@?0??generate@ScopedAES@@SA?AV?$shared_ptr@VScopedAES@@@std@@AEAH@Z@4HA 00000001800302b0 f   aes_gen.obj
 0001:0002f2c0       ?dtor$0@?0??AES_ECB_encrypt@@YA?AV?$shared_ptr@V?$basic_string@DU?$char_traits@D@std@@V?$allocator@D@2@@std@@@std@@V12@0_N@Z@4HA 00000001800302c0 f   aes_ecb.obj
 0001:0002f2cc       ?dtor$1@?0??AES_ECB_encrypt@@YA?AV?$shared_ptr@V?$basic_string@DU?$char_traits@D@std@@V?$allocator@D@2@@std@@@std@@V12@0_N@Z@4HA 00000001800302cc f   aes_ecb.obj
 0001:0002f2d8       ?dtor$2@?0??AES_ECB_encrypt@@YA?AV?$shared_ptr@V?$basic_string@DU?$char_traits@D@std@@V?$allocator@D@2@@std@@@std@@V12@0_N@Z@4HA 00000001800302d8 f   aes_ecb.obj
 0001:0002f2e4       ?dtor$3@?0??AES_ECB_encrypt@@YA?AV?$shared_ptr@V?$basic_string@DU?$char_traits@D@std@@V?$allocator@D@2@@std@@@std@@V12@0_N@Z@4HA 00000001800302e4 f   aes_ecb.obj
 0001:0002f2f0       ?dtor$5@?0??AES_ECB_encrypt@@YA?AV?$shared_ptr@V?$basic_string@DU?$char_traits@D@std@@V?$allocator@D@2@@std@@@std@@V12@0_N@Z@4HA 00000001800302f0 f   aes_ecb.obj
 0001:0002f316       ?dtor$6@?0??AES_ECB_encrypt@@YA?AV?$shared_ptr@V?$basic_string@DU?$char_traits@D@std@@V?$allocator@D@2@@std@@@std@@V12@0_N@Z@4HA 0000000180030316 f   aes_ecb.obj
 0001:0002f322       ?dtor$7@?0??AES_ECB_encrypt@@YA?AV?$shared_ptr@V?$basic_string@DU?$char_traits@D@std@@V?$allocator@D@2@@std@@@std@@V12@0_N@Z@4HA 0000000180030322 f   aes_ecb.obj
 0001:0002f32e       ?dtor$8@?0??AES_ECB_encrypt@@YA?AV?$shared_ptr@V?$basic_string@DU?$char_traits@D@std@@V?$allocator@D@2@@std@@@std@@V12@0_N@Z@4HA 000000018003032e f   aes_ecb.obj
 0001:0002f340       ?dtor$0@?0??decryptEcb@ScopedAES@@QEAA?AV?$shared_ptr@V?$basic_string@DU?$char_traits@D@std@@V?$allocator@D@2@@std@@@std@@V23@@Z@4HA 0000000180030340 f   aes_ecb.obj
 0001:0002f340       ?dtor$0@?0??encryptEcb@ScopedAES@@QEAA?AV?$shared_ptr@V?$basic_string@DU?$char_traits@D@std@@V?$allocator@D@2@@std@@@std@@V23@@Z@4HA 0000000180030340 f   aes_ecb.obj
 0001:0002f350       ?dtor$0@?0??AES_CBC_encrypt@@YA?AV?$shared_ptr@V?$basic_string@DU?$char_traits@D@std@@V?$allocator@D@2@@std@@@std@@V12@00_N@Z@4HA 0000000180030350 f   aes_cbc.obj
 0001:0002f35c       ?dtor$1@?0??AES_CBC_encrypt@@YA?AV?$shared_ptr@V?$basic_string@DU?$char_traits@D@std@@V?$allocator@D@2@@std@@@std@@V12@00_N@Z@4HA 000000018003035c f   aes_cbc.obj
 0001:0002f368       ?dtor$2@?0??AES_CBC_encrypt@@YA?AV?$shared_ptr@V?$basic_string@DU?$char_traits@D@std@@V?$allocator@D@2@@std@@@std@@V12@00_N@Z@4HA 0000000180030368 f   aes_cbc.obj
 0001:0002f374       ?dtor$3@?0??AES_CBC_encrypt@@YA?AV?$shared_ptr@V?$basic_string@DU?$char_traits@D@std@@V?$allocator@D@2@@std@@@std@@V12@00_N@Z@4HA 0000000180030374 f   aes_cbc.obj
 0001:0002f380       ?dtor$4@?0??AES_CBC_encrypt@@YA?AV?$shared_ptr@V?$basic_string@DU?$char_traits@D@std@@V?$allocator@D@2@@std@@@std@@V12@00_N@Z@4HA 0000000180030380 f   aes_cbc.obj
 0001:0002f38c       ?dtor$6@?0??AES_CBC_encrypt@@YA?AV?$shared_ptr@V?$basic_string@DU?$char_traits@D@std@@V?$allocator@D@2@@std@@@std@@V12@00_N@Z@4HA 000000018003038c f   aes_cbc.obj
 0001:0002f3b2       ?dtor$7@?0??AES_CBC_encrypt@@YA?AV?$shared_ptr@V?$basic_string@DU?$char_traits@D@std@@V?$allocator@D@2@@std@@@std@@V12@00_N@Z@4HA 00000001800303b2 f   aes_cbc.obj
 0001:0002f3be       ?dtor$8@?0??AES_CBC_encrypt@@YA?AV?$shared_ptr@V?$basic_string@DU?$char_traits@D@std@@V?$allocator@D@2@@std@@@std@@V12@00_N@Z@4HA 00000001800303be f   aes_cbc.obj
 0001:0002f3ca       ?dtor$9@?0??AES_CBC_encrypt@@YA?AV?$shared_ptr@V?$basic_string@DU?$char_traits@D@std@@V?$allocator@D@2@@std@@@std@@V12@00_N@Z@4HA 00000001800303ca f   aes_cbc.obj
 0001:0002f3e0       ?dtor$0@?0??decryptCbc@ScopedAES@@QEAA?AV?$shared_ptr@V?$basic_string@DU?$char_traits@D@std@@V?$allocator@D@2@@std@@@std@@V23@0@Z@4HA 00000001800303e0 f   aes_cbc.obj
 0001:0002f3e0       ?dtor$0@?0??encryptCtr@ScopedAES@@QEAA?AV?$shared_ptr@V?$basic_string@DU?$char_traits@D@std@@V?$allocator@D@2@@std@@@std@@V23@0H@Z@4HA 00000001800303e0 f   aes_ctr.obj
 0001:0002f3e0       ?dtor$0@?0??decryptCtr@ScopedAES@@QEAA?AV?$shared_ptr@V?$basic_string@DU?$char_traits@D@std@@V?$allocator@D@2@@std@@@std@@V23@0H@Z@4HA 00000001800303e0 f   aes_ctr.obj
 0001:0002f3e0       ?dtor$0@?0??encryptCbc@ScopedAES@@QEAA?AV?$shared_ptr@V?$basic_string@DU?$char_traits@D@std@@V?$allocator@D@2@@std@@@std@@V23@0@Z@4HA 00000001800303e0 f   aes_cbc.obj
 0001:0002f3ec       ?dtor$1@?0??encryptCbc@ScopedAES@@QEAA?AV?$shared_ptr@V?$basic_string@DU?$char_traits@D@std@@V?$allocator@D@2@@std@@@std@@V23@0@Z@4HA 00000001800303ec f   aes_cbc.obj
 0001:0002f3ec       ?dtor$1@?0??encryptCtr@ScopedAES@@QEAA?AV?$shared_ptr@V?$basic_string@DU?$char_traits@D@std@@V?$allocator@D@2@@std@@@std@@V23@0H@Z@4HA 00000001800303ec f   aes_ctr.obj
 0001:0002f3ec       ?dtor$1@?0??decryptCtr@ScopedAES@@QEAA?AV?$shared_ptr@V?$basic_string@DU?$char_traits@D@std@@V?$allocator@D@2@@std@@@std@@V23@0H@Z@4HA 00000001800303ec f   aes_ctr.obj
 0001:0002f3ec       ?dtor$1@?0??decryptCbc@ScopedAES@@QEAA?AV?$shared_ptr@V?$basic_string@DU?$char_traits@D@std@@V?$allocator@D@2@@std@@@std@@V23@0@Z@4HA 00000001800303ec f   aes_cbc.obj
 0001:0002f400       ?dtor$0@?0??wrap@ScopedAES@@QEAA?AV?$shared_ptr@V?$basic_string@DU?$char_traits@D@std@@V?$allocator@D@2@@std@@@std@@V23@@Z@4HA 0000000180030400 f   aes_cbc.obj
 0001:0002f400       ?dtor$0@?0??unwrap@ScopedAES@@QEAA?AV?$shared_ptr@V?$basic_string@DU?$char_traits@D@std@@V?$allocator@D@2@@std@@@std@@V23@@Z@4HA 0000000180030400 f   aes_cbc.obj
 0001:0002f40c       ?dtor$1@?0??unwrap@ScopedAES@@QEAA?AV?$shared_ptr@V?$basic_string@DU?$char_traits@D@std@@V?$allocator@D@2@@std@@@std@@V23@@Z@4HA 000000018003040c f   aes_cbc.obj
 0001:0002f40c       ?dtor$1@?0??wrap@ScopedAES@@QEAA?AV?$shared_ptr@V?$basic_string@DU?$char_traits@D@std@@V?$allocator@D@2@@std@@@std@@V23@@Z@4HA 000000018003040c f   aes_cbc.obj
 0001:0002f418       ?dtor$3@?0??wrap@ScopedAES@@QEAA?AV?$shared_ptr@V?$basic_string@DU?$char_traits@D@std@@V?$allocator@D@2@@std@@@std@@V23@@Z@4HA 0000000180030418 f   aes_cbc.obj
 0001:0002f418       ?dtor$3@?0??unwrap@ScopedAES@@QEAA?AV?$shared_ptr@V?$basic_string@DU?$char_traits@D@std@@V?$allocator@D@2@@std@@@std@@V23@@Z@4HA 0000000180030418 f   aes_cbc.obj
 0001:0002f43e       ?dtor$4@?0??wrap@ScopedAES@@QEAA?AV?$shared_ptr@V?$basic_string@DU?$char_traits@D@std@@V?$allocator@D@2@@std@@@std@@V23@@Z@4HA 000000018003043e f   aes_cbc.obj
 0001:0002f43e       ?dtor$4@?0??unwrap@ScopedAES@@QEAA?AV?$shared_ptr@V?$basic_string@DU?$char_traits@D@std@@V?$allocator@D@2@@std@@@std@@V23@@Z@4HA 000000018003043e f   aes_cbc.obj
 0001:0002f450       ?dtor$0@?0??AES_GCM_encrypt@@YA?AV?$shared_ptr@V?$basic_string@DU?$char_traits@D@std@@V?$allocator@D@2@@std@@@std@@V12@000H@Z@4HA 0000000180030450 f   aes_gcm.obj
 0001:0002f45c       ?dtor$1@?0??AES_GCM_encrypt@@YA?AV?$shared_ptr@V?$basic_string@DU?$char_traits@D@std@@V?$allocator@D@2@@std@@@std@@V12@000H@Z@4HA 000000018003045c f   aes_gcm.obj
 0001:0002f468       ?dtor$2@?0??AES_GCM_encrypt@@YA?AV?$shared_ptr@V?$basic_string@DU?$char_traits@D@std@@V?$allocator@D@2@@std@@@std@@V12@000H@Z@4HA 0000000180030468 f   aes_gcm.obj
 0001:0002f474       ?dtor$3@?0??AES_GCM_encrypt@@YA?AV?$shared_ptr@V?$basic_string@DU?$char_traits@D@std@@V?$allocator@D@2@@std@@@std@@V12@000H@Z@4HA 0000000180030474 f   aes_gcm.obj
 0001:0002f480       ?dtor$5@?0??AES_GCM_encrypt@@YA?AV?$shared_ptr@V?$basic_string@DU?$char_traits@D@std@@V?$allocator@D@2@@std@@@std@@V12@000H@Z@4HA 0000000180030480 f   aes_gcm.obj
 0001:0002f4a6       ?dtor$6@?0??AES_GCM_encrypt@@YA?AV?$shared_ptr@V?$basic_string@DU?$char_traits@D@std@@V?$allocator@D@2@@std@@@std@@V12@000H@Z@4HA 00000001800304a6 f   aes_gcm.obj
 0001:0002f4b2       ?dtor$7@?0??AES_GCM_encrypt@@YA?AV?$shared_ptr@V?$basic_string@DU?$char_traits@D@std@@V?$allocator@D@2@@std@@@std@@V12@000H@Z@4HA 00000001800304b2 f   aes_gcm.obj
 0001:0002f4be       ?dtor$8@?0??AES_GCM_encrypt@@YA?AV?$shared_ptr@V?$basic_string@DU?$char_traits@D@std@@V?$allocator@D@2@@std@@@std@@V12@000H@Z@4HA 00000001800304be f   aes_gcm.obj
 0001:0002f4ca       ?dtor$9@?0??AES_GCM_encrypt@@YA?AV?$shared_ptr@V?$basic_string@DU?$char_traits@D@std@@V?$allocator@D@2@@std@@@std@@V12@000H@Z@4HA 00000001800304ca f   aes_gcm.obj
 0001:0002f4d6       ?dtor$10@?0??AES_GCM_encrypt@@YA?AV?$shared_ptr@V?$basic_string@DU?$char_traits@D@std@@V?$allocator@D@2@@std@@@std@@V12@000H@Z@4HA 00000001800304d6 f   aes_gcm.obj
 0001:0002f4e2       ?dtor$11@?0??AES_GCM_encrypt@@YA?AV?$shared_ptr@V?$basic_string@DU?$char_traits@D@std@@V?$allocator@D@2@@std@@@std@@V12@000H@Z@4HA 00000001800304e2 f   aes_gcm.obj
 0001:0002f4ee       ?dtor$12@?0??AES_GCM_encrypt@@YA?AV?$shared_ptr@V?$basic_string@DU?$char_traits@D@std@@V?$allocator@D@2@@std@@@std@@V12@000H@Z@4HA 00000001800304ee f   aes_gcm.obj
 0001:0002f4fa       ?dtor$13@?0??AES_GCM_encrypt@@YA?AV?$shared_ptr@V?$basic_string@DU?$char_traits@D@std@@V?$allocator@D@2@@std@@@std@@V12@000H@Z@4HA 00000001800304fa f   aes_gcm.obj
 0001:0002f506       ?dtor$14@?0??AES_GCM_encrypt@@YA?AV?$shared_ptr@V?$basic_string@DU?$char_traits@D@std@@V?$allocator@D@2@@std@@@std@@V12@000H@Z@4HA 0000000180030506 f   aes_gcm.obj
 0001:0002f520       ?dtor$0@?0??AES_GCM_decrypt@@YA?AV?$shared_ptr@V?$basic_string@DU?$char_traits@D@std@@V?$allocator@D@2@@std@@@std@@V12@000H@Z@4HA 0000000180030520 f   aes_gcm.obj
 0001:0002f52c       ?dtor$1@?0??AES_GCM_decrypt@@YA?AV?$shared_ptr@V?$basic_string@DU?$char_traits@D@std@@V?$allocator@D@2@@std@@@std@@V12@000H@Z@4HA 000000018003052c f   aes_gcm.obj
 0001:0002f538       ?dtor$2@?0??AES_GCM_decrypt@@YA?AV?$shared_ptr@V?$basic_string@DU?$char_traits@D@std@@V?$allocator@D@2@@std@@@std@@V12@000H@Z@4HA 0000000180030538 f   aes_gcm.obj
 0001:0002f544       ?dtor$3@?0??AES_GCM_decrypt@@YA?AV?$shared_ptr@V?$basic_string@DU?$char_traits@D@std@@V?$allocator@D@2@@std@@@std@@V12@000H@Z@4HA 0000000180030544 f   aes_gcm.obj
 0001:0002f550       ?dtor$5@?0??AES_GCM_decrypt@@YA?AV?$shared_ptr@V?$basic_string@DU?$char_traits@D@std@@V?$allocator@D@2@@std@@@std@@V12@000H@Z@4HA 0000000180030550 f   aes_gcm.obj
 0001:0002f576       ?dtor$6@?0??AES_GCM_decrypt@@YA?AV?$shared_ptr@V?$basic_string@DU?$char_traits@D@std@@V?$allocator@D@2@@std@@@std@@V12@000H@Z@4HA 0000000180030576 f   aes_gcm.obj
 0001:0002f582       ?dtor$7@?0??AES_GCM_decrypt@@YA?AV?$shared_ptr@V?$basic_string@DU?$char_traits@D@std@@V?$allocator@D@2@@std@@@std@@V12@000H@Z@4HA 0000000180030582 f   aes_gcm.obj
 0001:0002f58e       ?dtor$8@?0??AES_GCM_decrypt@@YA?AV?$shared_ptr@V?$basic_string@DU?$char_traits@D@std@@V?$allocator@D@2@@std@@@std@@V12@000H@Z@4HA 000000018003058e f   aes_gcm.obj
 0001:0002f59a       ?dtor$9@?0??AES_GCM_decrypt@@YA?AV?$shared_ptr@V?$basic_string@DU?$char_traits@D@std@@V?$allocator@D@2@@std@@@std@@V12@000H@Z@4HA 000000018003059a f   aes_gcm.obj
 0001:0002f5a6       ?dtor$10@?0??AES_GCM_decrypt@@YA?AV?$shared_ptr@V?$basic_string@DU?$char_traits@D@std@@V?$allocator@D@2@@std@@@std@@V12@000H@Z@4HA 00000001800305a6 f   aes_gcm.obj
 0001:0002f5b2       ?dtor$11@?0??AES_GCM_decrypt@@YA?AV?$shared_ptr@V?$basic_string@DU?$char_traits@D@std@@V?$allocator@D@2@@std@@@std@@V12@000H@Z@4HA 00000001800305b2 f   aes_gcm.obj
 0001:0002f5be       ?dtor$12@?0??AES_GCM_decrypt@@YA?AV?$shared_ptr@V?$basic_string@DU?$char_traits@D@std@@V?$allocator@D@2@@std@@@std@@V12@000H@Z@4HA 00000001800305be f   aes_gcm.obj
 0001:0002f5ca       ?dtor$13@?0??AES_GCM_decrypt@@YA?AV?$shared_ptr@V?$basic_string@DU?$char_traits@D@std@@V?$allocator@D@2@@std@@@std@@V12@000H@Z@4HA 00000001800305ca f   aes_gcm.obj
 0001:0002f5d6       ?dtor$14@?0??AES_GCM_decrypt@@YA?AV?$shared_ptr@V?$basic_string@DU?$char_traits@D@std@@V?$allocator@D@2@@std@@@std@@V12@000H@Z@4HA 00000001800305d6 f   aes_gcm.obj
 0001:0002f5e2       ?dtor$15@?0??AES_GCM_decrypt@@YA?AV?$shared_ptr@V?$basic_string@DU?$char_traits@D@std@@V?$allocator@D@2@@std@@@std@@V12@000H@Z@4HA 00000001800305e2 f   aes_gcm.obj
 0001:0002f5f0       ?dtor$0@?0??decryptGcm@ScopedAES@@QEAA?AV?$shared_ptr@V?$basic_string@DU?$char_traits@D@std@@V?$allocator@D@2@@std@@@std@@V23@00H@Z@4HA 00000001800305f0 f   aes_gcm.obj
 0001:0002f5f0       ?dtor$0@?0??encryptGcm@ScopedAES@@QEAA?AV?$shared_ptr@V?$basic_string@DU?$char_traits@D@std@@V?$allocator@D@2@@std@@@std@@V23@00H@Z@4HA 00000001800305f0 f   aes_gcm.obj
 0001:0002f5fc       ?dtor$1@?0??decryptGcm@ScopedAES@@QEAA?AV?$shared_ptr@V?$basic_string@DU?$char_traits@D@std@@V?$allocator@D@2@@std@@@std@@V23@00H@Z@4HA 00000001800305fc f   aes_gcm.obj
 0001:0002f5fc       ?dtor$1@?0??encryptGcm@ScopedAES@@QEAA?AV?$shared_ptr@V?$basic_string@DU?$char_traits@D@std@@V?$allocator@D@2@@std@@@std@@V23@00H@Z@4HA 00000001800305fc f   aes_gcm.obj
 0001:0002f608       ?dtor$2@?0??decryptGcm@ScopedAES@@QEAA?AV?$shared_ptr@V?$basic_string@DU?$char_traits@D@std@@V?$allocator@D@2@@std@@@std@@V23@00H@Z@4HA 0000000180030608 f   aes_gcm.obj
 0001:0002f608       ?dtor$2@?0??encryptGcm@ScopedAES@@QEAA?AV?$shared_ptr@V?$basic_string@DU?$char_traits@D@std@@V?$allocator@D@2@@std@@@std@@V23@00H@Z@4HA 0000000180030608 f   aes_gcm.obj
 0001:0002f620       ?dtor$0@?0??AES_CTR_encrypt@@YA?AV?$shared_ptr@V?$basic_string@DU?$char_traits@D@std@@V?$allocator@D@2@@std@@@std@@V12@00H_N@Z@4HA 0000000180030620 f   aes_ctr.obj
 0001:0002f62c       ?dtor$1@?0??AES_CTR_encrypt@@YA?AV?$shared_ptr@V?$basic_string@DU?$char_traits@D@std@@V?$allocator@D@2@@std@@@std@@V12@00H_N@Z@4HA 000000018003062c f   aes_ctr.obj
 0001:0002f638       ?dtor$2@?0??AES_CTR_encrypt@@YA?AV?$shared_ptr@V?$basic_string@DU?$char_traits@D@std@@V?$allocator@D@2@@std@@@std@@V12@00H_N@Z@4HA 0000000180030638 f   aes_ctr.obj
 0001:0002f644       ?dtor$3@?0??AES_CTR_encrypt@@YA?AV?$shared_ptr@V?$basic_string@DU?$char_traits@D@std@@V?$allocator@D@2@@std@@@std@@V12@00H_N@Z@4HA 0000000180030644 f   aes_ctr.obj
 0001:0002f650       ?dtor$4@?0??AES_CTR_encrypt@@YA?AV?$shared_ptr@V?$basic_string@DU?$char_traits@D@std@@V?$allocator@D@2@@std@@@std@@V12@00H_N@Z@4HA 0000000180030650 f   aes_ctr.obj
 0001:0002f66d       ?dtor$5@?0??AES_CTR_encrypt@@YA?AV?$shared_ptr@V?$basic_string@DU?$char_traits@D@std@@V?$allocator@D@2@@std@@@std@@V12@00H_N@Z@4HA 000000018003066d f   aes_ctr.obj
 0001:0002f6a0       ?dtor$1@?0??generate@ScopedHMAC@@SA?AV?$shared_ptr@VScopedHMAC@@@std@@AEAH@Z@4HA 00000001800306a0 f   hmac_gen.obj
 0001:0002f6b0       ?dtor$0@?0??sign@ScopedHMAC@@QEAA?AV?$shared_ptr@V?$basic_string@DU?$char_traits@D@std@@V?$allocator@D@2@@std@@@std@@V23@PEBUenv_md_st@@@Z@4HA 00000001800306b0 f   hmac_sign.obj
 0001:0002f6b0       ?dtor$0@?0??deriveBits@ScopedPbkdf2@@QEAA?AV?$shared_ptr@V?$basic_string@DU?$char_traits@D@std@@V?$allocator@D@2@@std@@@std@@V23@_KPEBUenv_md_st@@1@Z@4HA 00000001800306b0 f   pbkdf2_derive.obj
 0001:0002f6bc       ?dtor$2@?0??sign@ScopedHMAC@@QEAA?AV?$shared_ptr@V?$basic_string@DU?$char_traits@D@std@@V?$allocator@D@2@@std@@@std@@V23@PEBUenv_md_st@@@Z@4HA 00000001800306bc f   hmac_sign.obj
 0001:0002f6bc       ?dtor$2@?0??deriveBits@ScopedPbkdf2@@QEAA?AV?$shared_ptr@V?$basic_string@DU?$char_traits@D@std@@V?$allocator@D@2@@std@@@std@@V23@_KPEBUenv_md_st@@1@Z@4HA 00000001800306bc f   pbkdf2_derive.obj
 0001:0002f6e2       ?dtor$3@?0??sign@ScopedHMAC@@QEAA?AV?$shared_ptr@V?$basic_string@DU?$char_traits@D@std@@V?$allocator@D@2@@std@@@std@@V23@PEBUenv_md_st@@@Z@4HA 00000001800306e2 f   hmac_sign.obj
 0001:0002f6e2       ?dtor$3@?0??deriveBits@ScopedPbkdf2@@QEAA?AV?$shared_ptr@V?$basic_string@DU?$char_traits@D@std@@V?$allocator@D@2@@std@@@std@@V23@_KPEBUenv_md_st@@1@Z@4HA 00000001800306e2 f   pbkdf2_derive.obj
 0001:0002f6f0       ?dtor$0@?0??verify@ScopedHMAC@@QEAA_NV?$shared_ptr@V?$basic_string@DU?$char_traits@D@std@@V?$allocator@D@2@@std@@@std@@PEBUenv_md_st@@0@Z@4HA 00000001800306f0 f   hmac_sign.obj
 0001:0002f6fc       ?dtor$1@?0??verify@ScopedHMAC@@QEAA_NV?$shared_ptr@V?$basic_string@DU?$char_traits@D@std@@V?$allocator@D@2@@std@@@std@@PEBUenv_md_st@@0@Z@4HA 00000001800306fc f   hmac_sign.obj
 0001:0002f710       ?dtor$0@?0??v8Buffer_to_String@@YA?AV?$shared_ptr@V?$basic_string@DU?$char_traits@D@std@@V?$allocator@D@2@@std@@@std@@V?$Local@VObject@v8@@@v8@@@Z@4HA 0000000180030710 f   common.obj
 0001:0002f730       ?dtor$0@?0??String_to_v8Buffer@@YA?AV?$Local@VObject@v8@@@v8@@V?$shared_ptr@V?$basic_string@DU?$char_traits@D@std@@V?$allocator@D@2@@std@@@std@@@Z@4HA 0000000180030730 f   common.obj
 0001:0002f730       ?dtor$0@?0???0AsyncEcExportJwk@@QEAA@PEAVCallback@Nan@@HV?$shared_ptr@V?$ScopedSSL@Uevp_pkey_st@@$1?ScopedEVP_PKEY_free@@YAXPEAX@Z@@@std@@@Z@4HA 0000000180030730 f   w_key.obj
 0001:0002f730       ?dtor$0@?0???0AsyncExportJwkRsa@@QEAA@PEAVCallback@Nan@@HV?$shared_ptr@V?$ScopedSSL@Uevp_pkey_st@@$1?ScopedEVP_PKEY_free@@YAXPEAX@Z@@@std@@@Z@4HA 0000000180030730 f   w_key.obj
 0001:0002f740       ?dtor$0@?0??NewInstance@Nan@@YA?AV?$MaybeLocal@VObject@v8@@@v8@@V?$Local@VFunction@v8@@@3@HQEAV?$Local@VValue@v8@@@3@@Z@4HA 0000000180030740 f   w_key.obj
 0001:0002f740       ?dtor$0@?0??NewInstance@Nan@@YA?AV?$MaybeLocal@VObject@v8@@@v8@@V?$Local@VFunction@v8@@@3@@Z@4HA 0000000180030740 f   w_key.obj
 0001:0002f750       ?dtor$0@?0??convert@?$ToFactory@VNumber@v8@@@imp@Nan@@SA?AV?$MaybeLocal@VNumber@v8@@@v8@@V?$Local@VValue@v8@@@5@@Z@4HA 0000000180030750 f   w_pbkdf2.obj
 0001:0002f750       ?dtor$0@?0??NewInstance@Nan@@YA?AV?$MaybeLocal@VObject@v8@@@v8@@V?$Local@VObjectTemplate@v8@@@3@@Z@4HA 0000000180030750 f   w_key.obj
 0001:0002f750       ?dtor$0@?0??Get@Nan@@YA?AV?$MaybeLocal@VValue@v8@@@v8@@V?$Local@VObject@v8@@@3@V?$Local@VValue@v8@@@3@@Z@4HA 0000000180030750 f   w_key.obj
 0001:0002f750       ?dtor$0@?0??GetFunction@Nan@@YA?AV?$MaybeLocal@VFunction@v8@@@v8@@V?$Local@VFunctionTemplate@v8@@@3@@Z@4HA 0000000180030750 f   w_key.obj
 0001:0002f750       ?dtor$0@?0??convert@?$ToFactory@VObject@v8@@@imp@Nan@@SA?AV?$MaybeLocal@VObject@v8@@@v8@@V?$Local@VValue@v8@@@5@@Z@4HA 0000000180030750 f   w_key.obj
 0001:0002f760       ?dtor$0@?0??Set@Nan@@YA?AV?$Maybe@_N@v8@@V?$Local@VObject@v8@@@3@V?$Local@VValue@v8@@@3@1@Z@4HA 0000000180030760 f   w_key.obj
 0001:0002f770       ?dtor$0@?0??Call@Nan@@YA?AV?$MaybeLocal@VValue@v8@@@v8@@V?$Local@VFunction@v8@@@3@V?$Local@VObject@v8@@@3@HQEAV?$Local@VValue@v8@@@3@@Z@4HA 0000000180030770 f   w_aes.obj
 0001:0002f770       ?dtor$0@?0??CallAsFunction@Nan@@YA?AV?$MaybeLocal@VValue@v8@@@v8@@V?$Local@VObject@v8@@@3@0HQEAV?$Local@VValue@v8@@@3@@Z@4HA 0000000180030770 f   w_key.obj
 0001:0002f770       ?dtor$0@?0??Call@Callback@Nan@@QEBA?AV?$MaybeLocal@VValue@v8@@@v8@@HQEAV?$Local@VValue@v8@@@4@PEAVAsyncResource@2@@Z@4HA 0000000180030770 f   w_key.obj
 0001:0002f780       ?dtor$0@?0??convert@?$ToFactory@H@imp@Nan@@SA?AV?$Maybe@H@v8@@V?$Local@VValue@v8@@@5@@Z@4HA 0000000180030780 f   w_key.obj
 0001:0002f790       ?dtor$0@?0??New@?$Factory@VFunctionTemplate@v8@@@imp@Nan@@SA?AV?$Local@VFunctionTemplate@v8@@@v8@@P6AXAEBV?$FunctionCallbackInfo@VValue@v8@@@3@@ZV?$Local@VValue@v8@@@5@V?$Local@VSignature@v8@@@5@@Z@4HA 0000000180030790 f   w_key.obj
 0001:0002f7a0       ?dtor$0@?0??HandleOKCallback@AsyncWorker@Nan@@MEAAXXZ@4HA 00000001800307a0 f   w_key.obj
 0001:0002f7a0       ?dtor$0@?0??HandleErrorCallback@AsyncWorker@Nan@@MEAAXXZ@4HA 00000001800307a0 f   w_key.obj
 0001:0002f7a0       ?dtor$0@?0??Call_@Callback@Nan@@AEBA?AV?$Local@VValue@v8@@@v8@@PEAVIsolate@4@V?$Local@VObject@v8@@@4@HQEAV34@@Z@4HA 00000001800307a0 f   w_key.obj
 0001:0002f7a0       ?dtor$0@?0??ThrowError@Nan@@YAXPEBD@Z@4HA 00000001800307a0 f   w_key.obj
 0001:0002f7b0       ?dtor$0@?0???0AsyncWorker@Nan@@QEAA@PEAVCallback@1@PEBD@Z@4HA 00000001800307b0 f   w_key.obj
 0001:0002f7c3       ?dtor$1@?0???0AsyncWorker@Nan@@QEAA@PEAVCallback@1@PEBD@Z@4HA 00000001800307c3 f   w_key.obj
 0001:0002f7d0       ?dtor$1@?0??Init@WPbkdf2@@SAXV?$Local@VObject@v8@@@v8@@@Z@4HA 00000001800307d0 f   w_pbkdf2.obj
 0001:0002f7d0       ?dtor$1@?0??Init@WCore@@SAXV?$Local@VObject@v8@@@v8@@@Z@4HA 00000001800307d0 f   w_core.obj
 0001:0002f7d0       ?dtor$0@?0??SetPrototypeMethod@Nan@@YAXV?$Local@VFunctionTemplate@v8@@@v8@@PEBDP6AXAEBV?$FunctionCallbackInfo@VValue@v8@@@1@@Z@Z@4HA 00000001800307d0 f   w_key.obj
 0001:0002f7e0       ?dtor$0@?0??SetAccessor@Nan@@YAXV?$Local@VObjectTemplate@v8@@@v8@@V?$Local@VString@v8@@@3@P6AX1AEBV?$PropertyCallbackInfo@VValue@v8@@@1@@ZP6AX1V?$Local@VValue@v8@@@3@AEBV?$PropertyCallbackInfo@X@1@@Z4W4AccessControl@3@W4PropertyAttribute@3@V?$Local@VAccessorSignature@v8@@@3@@Z@4HA 00000001800307e0 f   w_key.obj
 0001:0002f7f0       ?dtor$0@?0???0AsyncEncrypDecryptRsaOAEP@@QEAA@PEAVCallback@Nan@@V?$shared_ptr@V?$ScopedSSL@Uevp_pkey_st@@$1?ScopedEVP_PKEY_free@@YAXPEAX@Z@@@std@@PEBUenv_md_st@@V?$shared_ptr@V?$basic_string@DU?$char_traits@D@std@@V?$allocator@D@2@@std@@@4@3_N@Z@4HA 00000001800307f0 f   w_key.obj
 0001:0002f7fc       ?dtor$1@?0???0AsyncEncrypDecryptRsaOAEP@@QEAA@PEAVCallback@Nan@@V?$shared_ptr@V?$ScopedSSL@Uevp_pkey_st@@$1?ScopedEVP_PKEY_free@@YAXPEAX@Z@@@std@@PEBUenv_md_st@@V?$shared_ptr@V?$basic_string@DU?$char_traits@D@std@@V?$allocator@D@2@@std@@@4@3_N@Z@4HA 00000001800307fc f   w_key.obj
 0001:0002f808       ?dtor$2@?0???0AsyncEncrypDecryptRsaOAEP@@QEAA@PEAVCallback@Nan@@V?$shared_ptr@V?$ScopedSSL@Uevp_pkey_st@@$1?ScopedEVP_PKEY_free@@YAXPEAX@Z@@@std@@PEBUenv_md_st@@V?$shared_ptr@V?$basic_string@DU?$char_traits@D@std@@V?$allocator@D@2@@std@@@4@3_N@Z@4HA 0000000180030808 f   w_key.obj
 0001:0002f820       ?dtor$0@?0???0AsyncImportPkcs8@@QEAA@PEAVCallback@Nan@@V?$shared_ptr@V?$basic_string@DU?$char_traits@D@std@@V?$allocator@D@2@@std@@@std@@@Z@4HA 0000000180030820 f   w_key.obj
 0001:0002f820       ?dtor$0@?0???0AsyncImportJwkRsa@@QEAA@PEAVCallback@Nan@@V?$shared_ptr@VJwkRsa@@@std@@H@Z@4HA 0000000180030820 f   w_key.obj
 0001:0002f820       ?dtor$0@?0???0AsyncExportPkcs8@@QEAA@PEAVCallback@Nan@@V?$shared_ptr@V?$ScopedSSL@Uevp_pkey_st@@$1?ScopedEVP_PKEY_free@@YAXPEAX@Z@@@std@@@Z@4HA 0000000180030820 f   w_key.obj
 0001:0002f820       ?dtor$0@?0???0AsyncHmacImport@@QEAA@PEAVCallback@Nan@@V?$shared_ptr@V?$basic_string@DU?$char_traits@D@std@@V?$allocator@D@2@@std@@@std@@@Z@4HA 0000000180030820 f   w_hmac.obj
 0001:0002f820       ?dtor$0@?0???0AsyncPbkdf2Import@@QEAA@PEAVCallback@Nan@@V?$shared_ptr@V?$basic_string@DU?$char_traits@D@std@@V?$allocator@D@2@@std@@@std@@@Z@4HA 0000000180030820 f   w_pbkdf2.obj
 0001:0002f820       ?dtor$0@?0???0AsyncAesImport@@QEAA@PEAVCallback@Nan@@V?$shared_ptr@V?$basic_string@DU?$char_traits@D@std@@V?$allocator@D@2@@std@@@std@@@Z@4HA 0000000180030820 f   w_aes.obj
 0001:0002f820       ?dtor$0@?0???0AsyncExportSpki@@QEAA@PEAVCallback@Nan@@V?$shared_ptr@V?$ScopedSSL@Uevp_pkey_st@@$1?ScopedEVP_PKEY_free@@YAXPEAX@Z@@@std@@@Z@4HA 0000000180030820 f   w_key.obj
 0001:0002f820       ?dtor$0@?0???0AsyncEcImportJwk@@QEAA@PEAVCallback@Nan@@V?$shared_ptr@VJwkEc@@@std@@H@Z@4HA 0000000180030820 f   w_key.obj
 0001:0002f820       ?dtor$0@?0???0AsyncHmacExport@@QEAA@PEAVCallback@Nan@@V?$shared_ptr@VScopedHMAC@@@std@@@Z@4HA 0000000180030820 f   w_hmac.obj
 0001:0002f820       ?dtor$0@?0???0AsyncImportSpki@@QEAA@PEAVCallback@Nan@@V?$shared_ptr@V?$basic_string@DU?$char_traits@D@std@@V?$allocator@D@2@@std@@@std@@@Z@4HA 0000000180030820 f   w_key.obj
 0001:0002f820       ?dtor$0@?0???0AsyncAesExport@@QEAA@PEAVCallback@Nan@@V?$shared_ptr@VScopedAES@@@std@@@Z@4HA 0000000180030820 f   w_aes.obj
 0001:0002f830       ?dtor$0@?0???0AsyncSignRsa@@QEAA@PEAVCallback@Nan@@PEBUenv_md_st@@V?$shared_ptr@V?$ScopedSSL@Uevp_pkey_st@@$1?ScopedEVP_PKEY_free@@YAXPEAX@Z@@@std@@V?$shared_ptr@V?$basic_string@DU?$char_traits@D@std@@V?$allocator@D@2@@std@@@5@@Z@4HA 0000000180030830 f   w_key.obj
 0001:0002f830       ?dtor$0@?0???0AsyncEcdsaSign@@QEAA@PEAVCallback@Nan@@PEBUenv_md_st@@V?$shared_ptr@V?$ScopedSSL@Uevp_pkey_st@@$1?ScopedEVP_PKEY_free@@YAXPEAX@Z@@@std@@V?$shared_ptr@V?$basic_string@DU?$char_traits@D@std@@V?$allocator@D@2@@std@@@5@@Z@4HA 0000000180030830 f   w_key.obj
 0001:0002f830       ?dtor$0@?0???0AsyncHmacSign@@QEAA@PEAVCallback@Nan@@PEBUenv_md_st@@V?$shared_ptr@VScopedHMAC@@@std@@V?$shared_ptr@V?$basic_string@DU?$char_traits@D@std@@V?$allocator@D@2@@std@@@5@@Z@4HA 0000000180030830 f   w_hmac.obj
 0001:0002f83c       ?dtor$1@?0???0AsyncSignRsa@@QEAA@PEAVCallback@Nan@@PEBUenv_md_st@@V?$shared_ptr@V?$ScopedSSL@Uevp_pkey_st@@$1?ScopedEVP_PKEY_free@@YAXPEAX@Z@@@std@@V?$shared_ptr@V?$basic_string@DU?$char_traits@D@std@@V?$allocator@D@2@@std@@@5@@Z@4HA 000000018003083c f   w_key.obj
 0001:0002f83c       ?dtor$1@?0???0AsyncHmacSign@@QEAA@PEAVCallback@Nan@@PEBUenv_md_st@@V?$shared_ptr@VScopedHMAC@@@std@@V?$shared_ptr@V?$basic_string@DU?$char_traits@D@std@@V?$allocator@D@2@@std@@@5@@Z@4HA 000000018003083c f   w_hmac.obj
 0001:0002f83c       ?dtor$1@?0???0AsyncEcdsaSign@@QEAA@PEAVCallback@Nan@@PEBUenv_md_st@@V?$shared_ptr@V?$ScopedSSL@Uevp_pkey_st@@$1?ScopedEVP_PKEY_free@@YAXPEAX@Z@@@std@@V?$shared_ptr@V?$basic_string@DU?$char_traits@D@std@@V?$allocator@D@2@@std@@@5@@Z@4HA 000000018003083c f   w_key.obj
 0001:0002f850       ?dtor$0@?0???0AsyncVerifyRsa@@QEAA@PEAVCallback@Nan@@PEBUenv_md_st@@V?$shared_ptr@V?$ScopedSSL@Uevp_pkey_st@@$1?ScopedEVP_PKEY_free@@YAXPEAX@Z@@@std@@V?$shared_ptr@V?$basic_string@DU?$char_traits@D@std@@V?$allocator@D@2@@std@@@5@3@Z@4HA 0000000180030850 f   w_key.obj
 0001:0002f850       ?dtor$0@?0???0AsyncEcdsaVerify@@QEAA@PEAVCallback@Nan@@PEBUenv_md_st@@V?$shared_ptr@V?$ScopedSSL@Uevp_pkey_st@@$1?ScopedEVP_PKEY_free@@YAXPEAX@Z@@@std@@V?$shared_ptr@V?$basic_string@DU?$char_traits@D@std@@V?$allocator@D@2@@std@@@5@3@Z@4HA 0000000180030850 f   w_key.obj
 0001:0002f850       ?dtor$0@?0???0AsyncHmacVerify@@QEAA@PEAVCallback@Nan@@PEBUenv_md_st@@V?$shared_ptr@VScopedHMAC@@@std@@V?$shared_ptr@V?$basic_string@DU?$char_traits@D@std@@V?$allocator@D@2@@std@@@5@3@Z@4HA 0000000180030850 f   w_hmac.obj
 0001:0002f85c       ?dtor$1@?0???0AsyncVerifyRsa@@QEAA@PEAVCallback@Nan@@PEBUenv_md_st@@V?$shared_ptr@V?$ScopedSSL@Uevp_pkey_st@@$1?ScopedEVP_PKEY_free@@YAXPEAX@Z@@@std@@V?$shared_ptr@V?$basic_string@DU?$char_traits@D@std@@V?$allocator@D@2@@std@@@5@3@Z@4HA 000000018003085c f   w_key.obj
 0001:0002f85c       ?dtor$1@?0???0AsyncEcdsaVerify@@QEAA@PEAVCallback@Nan@@PEBUenv_md_st@@V?$shared_ptr@V?$ScopedSSL@Uevp_pkey_st@@$1?ScopedEVP_PKEY_free@@YAXPEAX@Z@@@std@@V?$shared_ptr@V?$basic_string@DU?$char_traits@D@std@@V?$allocator@D@2@@std@@@5@3@Z@4HA 000000018003085c f   w_key.obj
 0001:0002f85c       ?dtor$1@?0???0AsyncHmacVerify@@QEAA@PEAVCallback@Nan@@PEBUenv_md_st@@V?$shared_ptr@VScopedHMAC@@@std@@V?$shared_ptr@V?$basic_string@DU?$char_traits@D@std@@V?$allocator@D@2@@std@@@5@3@Z@4HA 000000018003085c f   w_hmac.obj
 0001:0002f868       ?dtor$2@?0???0AsyncVerifyRsa@@QEAA@PEAVCallback@Nan@@PEBUenv_md_st@@V?$shared_ptr@V?$ScopedSSL@Uevp_pkey_st@@$1?ScopedEVP_PKEY_free@@YAXPEAX@Z@@@std@@V?$shared_ptr@V?$basic_string@DU?$char_traits@D@std@@V?$allocator@D@2@@std@@@5@3@Z@4HA 0000000180030868 f   w_key.obj
 0001:0002f868       ?dtor$2@?0???0AsyncEcdsaVerify@@QEAA@PEAVCallback@Nan@@PEBUenv_md_st@@V?$shared_ptr@V?$ScopedSSL@Uevp_pkey_st@@$1?ScopedEVP_PKEY_free@@YAXPEAX@Z@@@std@@V?$shared_ptr@V?$basic_string@DU?$char_traits@D@std@@V?$allocator@D@2@@std@@@5@3@Z@4HA 0000000180030868 f   w_key.obj
 0001:0002f868       ?dtor$2@?0???0AsyncHmacVerify@@QEAA@PEAVCallback@Nan@@PEBUenv_md_st@@V?$shared_ptr@VScopedHMAC@@@std@@V?$shared_ptr@V?$basic_string@DU?$char_traits@D@std@@V?$allocator@D@2@@std@@@5@3@Z@4HA 0000000180030868 f   w_hmac.obj
 0001:0002f880       ?dtor$0@?0???0AsyncSignRsaPSS@@QEAA@PEAVCallback@Nan@@PEBUenv_md_st@@V?$shared_ptr@V?$ScopedSSL@Uevp_pkey_st@@$1?ScopedEVP_PKEY_free@@YAXPEAX@Z@@@std@@HV?$shared_ptr@V?$basic_string@DU?$char_traits@D@std@@V?$allocator@D@2@@std@@@5@@Z@4HA 0000000180030880 f   w_key.obj
 0001:0002f88c       ?dtor$1@?0???0AsyncSignRsaPSS@@QEAA@PEAVCallback@Nan@@PEBUenv_md_st@@V?$shared_ptr@V?$ScopedSSL@Uevp_pkey_st@@$1?ScopedEVP_PKEY_free@@YAXPEAX@Z@@@std@@HV?$shared_ptr@V?$basic_string@DU?$char_traits@D@std@@V?$allocator@D@2@@std@@@5@@Z@4HA 000000018003088c f   w_key.obj
 0001:0002f8a0       ?dtor$0@?0???0AsyncVerifyRsaPSS@@QEAA@PEAVCallback@Nan@@PEBUenv_md_st@@V?$shared_ptr@V?$ScopedSSL@Uevp_pkey_st@@$1?ScopedEVP_PKEY_free@@YAXPEAX@Z@@@std@@HV?$shared_ptr@V?$basic_string@DU?$char_traits@D@std@@V?$allocator@D@2@@std@@@5@3@Z@4HA 00000001800308a0 f   w_key.obj
 0001:0002f8ac       ?dtor$1@?0???0AsyncVerifyRsaPSS@@QEAA@PEAVCallback@Nan@@PEBUenv_md_st@@V?$shared_ptr@V?$ScopedSSL@Uevp_pkey_st@@$1?ScopedEVP_PKEY_free@@YAXPEAX@Z@@@std@@HV?$shared_ptr@V?$basic_string@DU?$char_traits@D@std@@V?$allocator@D@2@@std@@@5@3@Z@4HA 00000001800308ac f   w_key.obj
 0001:0002f8b8       ?dtor$2@?0???0AsyncVerifyRsaPSS@@QEAA@PEAVCallback@Nan@@PEBUenv_md_st@@V?$shared_ptr@V?$ScopedSSL@Uevp_pkey_st@@$1?ScopedEVP_PKEY_free@@YAXPEAX@Z@@@std@@HV?$shared_ptr@V?$basic_string@DU?$char_traits@D@std@@V?$allocator@D@2@@std@@@5@3@Z@4HA 00000001800308b8 f   w_key.obj
 0001:0002f8d0       ?dtor$0@?0???0AsyncEcdhDeriveKey@@QEAA@PEAVCallback@Nan@@V?$shared_ptr@V?$ScopedSSL@Uevp_pkey_st@@$1?ScopedEVP_PKEY_free@@YAXPEAX@Z@@@std@@1_K@Z@4HA 00000001800308d0 f   w_key.obj
 0001:0002f8d0       ?dtor$0@?0???0AsyncDigest@@QEAA@PEAVCallback@Nan@@V?$shared_ptr@V?$basic_string@DU?$char_traits@D@std@@V?$allocator@D@2@@std@@@std@@1@Z@4HA 00000001800308d0 f   w_core.obj
 0001:0002f8d0       ?dtor$0@?0???0AsyncAesWrapKey@@QEAA@PEAVCallback@Nan@@V?$shared_ptr@VScopedAES@@@std@@V?$shared_ptr@V?$basic_string@DU?$char_traits@D@std@@V?$allocator@D@2@@std@@@4@_N@Z@4HA 00000001800308d0 f   w_aes.obj
 0001:0002f8d0       ?dtor$0@?0???0AsyncAesEncryptECB@@QEAA@PEAVCallback@Nan@@V?$shared_ptr@VScopedAES@@@std@@V?$shared_ptr@V?$basic_string@DU?$char_traits@D@std@@V?$allocator@D@2@@std@@@4@_N@Z@4HA 00000001800308d0 f   w_aes.obj
 0001:0002f8d0       ?dtor$0@?0???0AsyncEcdhDeriveBits@@QEAA@PEAVCallback@Nan@@V?$shared_ptr@V?$ScopedSSL@Uevp_pkey_st@@$1?ScopedEVP_PKEY_free@@YAXPEAX@Z@@@std@@1_K@Z@4HA 00000001800308d0 f   w_key.obj
 0001:0002f8dc       ?dtor$1@?0???0AsyncAesEncryptECB@@QEAA@PEAVCallback@Nan@@V?$shared_ptr@VScopedAES@@@std@@V?$shared_ptr@V?$basic_string@DU?$char_traits@D@std@@V?$allocator@D@2@@std@@@4@_N@Z@4HA 00000001800308dc f   w_aes.obj
 0001:0002f8dc       ?dtor$1@?0???0AsyncDigest@@QEAA@PEAVCallback@Nan@@V?$shared_ptr@V?$basic_string@DU?$char_traits@D@std@@V?$allocator@D@2@@std@@@std@@1@Z@4HA 00000001800308dc f   w_core.obj
 0001:0002f8dc       ?dtor$1@?0???0AsyncEcdhDeriveBits@@QEAA@PEAVCallback@Nan@@V?$shared_ptr@V?$ScopedSSL@Uevp_pkey_st@@$1?ScopedEVP_PKEY_free@@YAXPEAX@Z@@@std@@1_K@Z@4HA 00000001800308dc f   w_key.obj
 0001:0002f8dc       ?dtor$1@?0???0AsyncEcdhDeriveKey@@QEAA@PEAVCallback@Nan@@V?$shared_ptr@V?$ScopedSSL@Uevp_pkey_st@@$1?ScopedEVP_PKEY_free@@YAXPEAX@Z@@@std@@1_K@Z@4HA 00000001800308dc f   w_key.obj
 0001:0002f8dc       ?dtor$1@?0???0AsyncAesWrapKey@@QEAA@PEAVCallback@Nan@@V?$shared_ptr@VScopedAES@@@std@@V?$shared_ptr@V?$basic_string@DU?$char_traits@D@std@@V?$allocator@D@2@@std@@@4@_N@Z@4HA 00000001800308dc f   w_aes.obj
 0001:0002f8f0       ?dtor$1@?0??Init@WKey@@SAXV?$Local@VObject@v8@@@v8@@@Z@4HA 00000001800308f0 f   w_key.obj
 0001:0002f8fc       ?dtor$4@?0??Init@WKey@@SAXV?$Local@VObject@v8@@@v8@@@Z@4HA 00000001800308fc f   w_key.obj
 0001:0002f908       ?dtor$7@?0??Init@WKey@@SAXV?$Local@VObject@v8@@@v8@@@Z@4HA 0000000180030908 f   w_key.obj
 0001:0002f914       ?dtor$10@?0??Init@WKey@@SAXV?$Local@VObject@v8@@@v8@@@Z@4HA 0000000180030914 f   w_key.obj
 0001:0002f920       ?dtor$13@?0??Init@WKey@@SAXV?$Local@VObject@v8@@@v8@@@Z@4HA 0000000180030920 f   w_key.obj
 0001:0002f930       ?dtor$0@?0??ModulusLength@WKey@@SAXAEBV?$FunctionCallbackInfo@VValue@v8@@@Nan@@@Z@4HA 0000000180030930 f   w_key.obj
 0001:0002f930       ?dtor$0@?0??PublicExponent@WKey@@SAXAEBV?$FunctionCallbackInfo@VValue@v8@@@Nan@@@Z@4HA 0000000180030930 f   w_key.obj
 0001:0002f940       ?dtor$0@?0??GenerateRsa@WKey@@SAXAEBV?$FunctionCallbackInfo@VValue@v8@@@Nan@@@Z@4HA 0000000180030940 f   w_key.obj
 0001:0002f95d       ?dtor$1@?0??GenerateRsa@WKey@@SAXAEBV?$FunctionCallbackInfo@VValue@v8@@@Nan@@@Z@4HA 000000018003095d f   w_key.obj
 0001:0002f980       ?dtor$0@?0??Generate@WAes@@SAXAEBV?$FunctionCallbackInfo@VValue@v8@@@Nan@@@Z@4HA 0000000180030980 f   w_aes.obj
 0001:0002f980       ?dtor$0@?0??Generate@WHmac@@SAXAEBV?$FunctionCallbackInfo@VValue@v8@@@Nan@@@Z@4HA 0000000180030980 f   w_hmac.obj
 0001:0002f980       ?dtor$0@?0??GenerateEc@WKey@@SAXAEBV?$FunctionCallbackInfo@VValue@v8@@@Nan@@@Z@4HA 0000000180030980 f   w_key.obj
 0001:0002f99d       ?dtor$1@?0??GenerateEc@WKey@@SAXAEBV?$FunctionCallbackInfo@VValue@v8@@@Nan@@@Z@4HA 000000018003099d f   w_key.obj
 0001:0002f99d       ?dtor$1@?0??Generate@WAes@@SAXAEBV?$FunctionCallbackInfo@VValue@v8@@@Nan@@@Z@4HA 000000018003099d f   w_aes.obj
 0001:0002f99d       ?dtor$1@?0??Generate@WHmac@@SAXAEBV?$FunctionCallbackInfo@VValue@v8@@@Nan@@@Z@4HA 000000018003099d f   w_hmac.obj
 0001:0002f9c0       ?dtor$0@?0??ExportJwk@WKey@@SAXAEBV?$FunctionCallbackInfo@VValue@v8@@@Nan@@@Z@4HA 00000001800309c0 f   w_key.obj
 0001:0002f9e0       ?dtor$1@?0??ExportJwk@WKey@@SAXAEBV?$FunctionCallbackInfo@VValue@v8@@@Nan@@@Z@4HA 00000001800309e0 f   w_key.obj
 0001:0002fa00       ?dtor$4@?0??ExportJwk@WKey@@SAXAEBV?$FunctionCallbackInfo@VValue@v8@@@Nan@@@Z@4HA 0000000180030a00 f   w_key.obj
 0001:0002fa0c       ?dtor$5@?0??ExportJwk@WKey@@SAXAEBV?$FunctionCallbackInfo@VValue@v8@@@Nan@@@Z@4HA 0000000180030a0c f   w_key.obj
 0001:0002fa2c       ?dtor$8@?0??ExportJwk@WKey@@SAXAEBV?$FunctionCallbackInfo@VValue@v8@@@Nan@@@Z@4HA 0000000180030a2c f   w_key.obj
 0001:0002fa40       ?dtor$0@?0??Export@WAes@@SAXAEBV?$FunctionCallbackInfo@VValue@v8@@@Nan@@@Z@4HA 0000000180030a40 f   w_aes.obj
 0001:0002fa40       ?dtor$0@?0??ExportSpki@WKey@@SAXAEBV?$FunctionCallbackInfo@VValue@v8@@@Nan@@@Z@4HA 0000000180030a40 f   w_key.obj
 0001:0002fa40       ?dtor$0@?0??Export@WHmac@@SAXAEBV?$FunctionCallbackInfo@VValue@v8@@@Nan@@@Z@4HA 0000000180030a40 f   w_hmac.obj
 0001:0002fa40       ?dtor$0@?0??ExportPkcs8@WKey@@SAXAEBV?$FunctionCallbackInfo@VValue@v8@@@Nan@@@Z@4HA 0000000180030a40 f   w_key.obj
 0001:0002fa5d       ?dtor$1@?0??ExportSpki@WKey@@SAXAEBV?$FunctionCallbackInfo@VValue@v8@@@Nan@@@Z@4HA 0000000180030a5d f   w_key.obj
 0001:0002fa5d       ?dtor$1@?0??Export@WAes@@SAXAEBV?$FunctionCallbackInfo@VValue@v8@@@Nan@@@Z@4HA 0000000180030a5d f   w_aes.obj
 0001:0002fa5d       ?dtor$1@?0??Export@WHmac@@SAXAEBV?$FunctionCallbackInfo@VValue@v8@@@Nan@@@Z@4HA 0000000180030a5d f   w_hmac.obj
 0001:0002fa5d       ?dtor$1@?0??ExportPkcs8@WKey@@SAXAEBV?$FunctionCallbackInfo@VValue@v8@@@Nan@@@Z@4HA 0000000180030a5d f   w_key.obj
 0001:0002fa80       ?dtor$0@?0??Import@WAes@@SAXAEBV?$FunctionCallbackInfo@VValue@v8@@@Nan@@@Z@4HA 0000000180030a80 f   w_aes.obj
 0001:0002fa80       ?dtor$0@?0??ImportKey@WPbkdf2@@SAXAEBV?$FunctionCallbackInfo@VValue@v8@@@Nan@@@Z@4HA 0000000180030a80 f   w_pbkdf2.obj
 0001:0002fa80       ?dtor$0@?0??Import@WHmac@@SAXAEBV?$FunctionCallbackInfo@VValue@v8@@@Nan@@@Z@4HA 0000000180030a80 f   w_hmac.obj
 0001:0002fa80       ?dtor$0@?0??ImportSpki@WKey@@SAXAEBV?$FunctionCallbackInfo@VValue@v8@@@Nan@@@Z@4HA 0000000180030a80 f   w_key.obj
 0001:0002fa80       ?dtor$0@?0??ImportPkcs8@WKey@@SAXAEBV?$FunctionCallbackInfo@VValue@v8@@@Nan@@@Z@4HA 0000000180030a80 f   w_key.obj
 0001:0002fa8c       ?dtor$1@?0??ImportSpki@WKey@@SAXAEBV?$FunctionCallbackInfo@VValue@v8@@@Nan@@@Z@4HA 0000000180030a8c f   w_key.obj
 0001:0002fa8c       ?dtor$1@?0??Import@WAes@@SAXAEBV?$FunctionCallbackInfo@VValue@v8@@@Nan@@@Z@4HA 0000000180030a8c f   w_aes.obj
 0001:0002fa8c       ?dtor$1@?0??ImportPkcs8@WKey@@SAXAEBV?$FunctionCallbackInfo@VValue@v8@@@Nan@@@Z@4HA 0000000180030a8c f   w_key.obj
 0001:0002fa8c       ?dtor$1@?0??Import@WHmac@@SAXAEBV?$FunctionCallbackInfo@VValue@v8@@@Nan@@@Z@4HA 0000000180030a8c f   w_hmac.obj
 0001:0002fa8c       ?dtor$1@?0??ImportKey@WPbkdf2@@SAXAEBV?$FunctionCallbackInfo@VValue@v8@@@Nan@@@Z@4HA 0000000180030a8c f   w_pbkdf2.obj
 0001:0002faa9       ?dtor$2@?0??ImportPkcs8@WKey@@SAXAEBV?$FunctionCallbackInfo@VValue@v8@@@Nan@@@Z@4HA 0000000180030aa9 f   w_key.obj
 0001:0002faa9       ?dtor$2@?0??Import@WHmac@@SAXAEBV?$FunctionCallbackInfo@VValue@v8@@@Nan@@@Z@4HA 0000000180030aa9 f   w_hmac.obj
 0001:0002faa9       ?dtor$2@?0??Import@WAes@@SAXAEBV?$FunctionCallbackInfo@VValue@v8@@@Nan@@@Z@4HA 0000000180030aa9 f   w_aes.obj
 0001:0002faa9       ?dtor$2@?0??ImportSpki@WKey@@SAXAEBV?$FunctionCallbackInfo@VValue@v8@@@Nan@@@Z@4HA 0000000180030aa9 f   w_key.obj
 0001:0002faa9       ?dtor$2@?0??ImportKey@WPbkdf2@@SAXAEBV?$FunctionCallbackInfo@VValue@v8@@@Nan@@@Z@4HA 0000000180030aa9 f   w_pbkdf2.obj
 0001:0002fad0       ?dtor$0@?0??ImportJwk@WKey@@SAXAEBV?$FunctionCallbackInfo@VValue@v8@@@Nan@@@Z@4HA 0000000180030ad0 f   w_key.obj
 0001:0002fade       ?dtor$1@?0??ImportJwk@WKey@@SAXAEBV?$FunctionCallbackInfo@VValue@v8@@@Nan@@@Z@4HA 0000000180030ade f   w_key.obj
 0001:0002fafe       ?dtor$3@?0??ImportJwk@WKey@@SAXAEBV?$FunctionCallbackInfo@VValue@v8@@@Nan@@@Z@4HA 0000000180030afe f   w_key.obj
 0001:0002fb0a       ?dtor$4@?0??ImportJwk@WKey@@SAXAEBV?$FunctionCallbackInfo@VValue@v8@@@Nan@@@Z@4HA 0000000180030b0a f   w_key.obj
 0001:0002fb2a       ?dtor$6@?0??ImportJwk@WKey@@SAXAEBV?$FunctionCallbackInfo@VValue@v8@@@Nan@@@Z@4HA 0000000180030b2a f   w_key.obj
 0001:0002fb36       ?dtor$8@?0??ImportJwk@WKey@@SAXAEBV?$FunctionCallbackInfo@VValue@v8@@@Nan@@@Z@4HA 0000000180030b36 f   w_key.obj
 0001:0002fb42       ?dtor$9@?0??ImportJwk@WKey@@SAXAEBV?$FunctionCallbackInfo@VValue@v8@@@Nan@@@Z@4HA 0000000180030b42 f   w_key.obj
 0001:0002fb62       ?dtor$11@?0??ImportJwk@WKey@@SAXAEBV?$FunctionCallbackInfo@VValue@v8@@@Nan@@@Z@4HA 0000000180030b62 f   w_key.obj
 0001:0002fb70       ?dtor$0@?0??Sign@WKey@@SAXAEBV?$FunctionCallbackInfo@VValue@v8@@@Nan@@@Z@4HA 0000000180030b70 f   w_key.obj
 0001:0002fb7e       ?dtor$1@?0??Sign@WKey@@SAXAEBV?$FunctionCallbackInfo@VValue@v8@@@Nan@@@Z@4HA 0000000180030b7e f   w_key.obj
 0001:0002fb8a       ?dtor$2@?0??Sign@WKey@@SAXAEBV?$FunctionCallbackInfo@VValue@v8@@@Nan@@@Z@4HA 0000000180030b8a f   w_key.obj
 0001:0002fb96       ?dtor$3@?0??Sign@WKey@@SAXAEBV?$FunctionCallbackInfo@VValue@v8@@@Nan@@@Z@4HA 0000000180030b96 f   w_key.obj
 0001:0002fbb3       ?dtor$4@?0??Sign@WKey@@SAXAEBV?$FunctionCallbackInfo@VValue@v8@@@Nan@@@Z@4HA 0000000180030bb3 f   w_key.obj
 0001:0002fbd0       ?dtor$7@?0??Sign@WKey@@SAXAEBV?$FunctionCallbackInfo@VValue@v8@@@Nan@@@Z@4HA 0000000180030bd0 f   w_key.obj
 0001:0002fbf0       ?dtor$0@?0??Verify@WKey@@SAXAEBV?$FunctionCallbackInfo@VValue@v8@@@Nan@@@Z@4HA 0000000180030bf0 f   w_key.obj
 0001:0002fbfe       ?dtor$1@?0??Verify@WKey@@SAXAEBV?$FunctionCallbackInfo@VValue@v8@@@Nan@@@Z@4HA 0000000180030bfe f   w_key.obj
 0001:0002fc0a       ?dtor$2@?0??Verify@WKey@@SAXAEBV?$FunctionCallbackInfo@VValue@v8@@@Nan@@@Z@4HA 0000000180030c0a f   w_key.obj
 0001:0002fc16       ?dtor$3@?0??Verify@WKey@@SAXAEBV?$FunctionCallbackInfo@VValue@v8@@@Nan@@@Z@4HA 0000000180030c16 f   w_key.obj
 0001:0002fc22       ?dtor$4@?0??Verify@WKey@@SAXAEBV?$FunctionCallbackInfo@VValue@v8@@@Nan@@@Z@4HA 0000000180030c22 f   w_key.obj
 0001:0002fc3f       ?dtor$5@?0??Verify@WKey@@SAXAEBV?$FunctionCallbackInfo@VValue@v8@@@Nan@@@Z@4HA 0000000180030c3f f   w_key.obj
 0001:0002fc5c       ?dtor$9@?0??Verify@WKey@@SAXAEBV?$FunctionCallbackInfo@VValue@v8@@@Nan@@@Z@4HA 0000000180030c5c f   w_key.obj
 0001:0002fc80       ?dtor$0@?0??RsaOaepEncDec@WKey@@SAXAEBV?$FunctionCallbackInfo@VValue@v8@@@Nan@@@Z@4HA 0000000180030c80 f   w_key.obj
 0001:0002fc8e       ?dtor$1@?0??RsaOaepEncDec@WKey@@SAXAEBV?$FunctionCallbackInfo@VValue@v8@@@Nan@@@Z@4HA 0000000180030c8e f   w_key.obj
 0001:0002fc9a       ?dtor$3@?0??RsaOaepEncDec@WKey@@SAXAEBV?$FunctionCallbackInfo@VValue@v8@@@Nan@@@Z@4HA 0000000180030c9a f   w_key.obj
 0001:0002fca6       ?dtor$5@?0??RsaOaepEncDec@WKey@@SAXAEBV?$FunctionCallbackInfo@VValue@v8@@@Nan@@@Z@4HA 0000000180030ca6 f   w_key.obj
 0001:0002fcb2       ?dtor$6@?0??RsaOaepEncDec@WKey@@SAXAEBV?$FunctionCallbackInfo@VValue@v8@@@Nan@@@Z@4HA 0000000180030cb2 f   w_key.obj
 0001:0002fccf       ?dtor$7@?0??RsaOaepEncDec@WKey@@SAXAEBV?$FunctionCallbackInfo@VValue@v8@@@Nan@@@Z@4HA 0000000180030ccf f   w_key.obj
 0001:0002fcf0       ?dtor$0@?0??RsaPssSign@WKey@@SAXAEBV?$FunctionCallbackInfo@VValue@v8@@@Nan@@@Z@4HA 0000000180030cf0 f   w_key.obj
 0001:0002fcfe       ?dtor$1@?0??RsaPssSign@WKey@@SAXAEBV?$FunctionCallbackInfo@VValue@v8@@@Nan@@@Z@4HA 0000000180030cfe f   w_key.obj
 0001:0002fd0a       ?dtor$2@?0??RsaPssSign@WKey@@SAXAEBV?$FunctionCallbackInfo@VValue@v8@@@Nan@@@Z@4HA 0000000180030d0a f   w_key.obj
 0001:0002fd16       ?dtor$3@?0??RsaPssSign@WKey@@SAXAEBV?$FunctionCallbackInfo@VValue@v8@@@Nan@@@Z@4HA 0000000180030d16 f   w_key.obj
 0001:0002fd36       ?dtor$4@?0??RsaPssSign@WKey@@SAXAEBV?$FunctionCallbackInfo@VValue@v8@@@Nan@@@Z@4HA 0000000180030d36 f   w_key.obj
 0001:0002fd60       ?dtor$0@?0??RsaPssVerify@WKey@@SAXAEBV?$FunctionCallbackInfo@VValue@v8@@@Nan@@@Z@4HA 0000000180030d60 f   w_key.obj
 0001:0002fd6e       ?dtor$1@?0??RsaPssVerify@WKey@@SAXAEBV?$FunctionCallbackInfo@VValue@v8@@@Nan@@@Z@4HA 0000000180030d6e f   w_key.obj
 0001:0002fd7a       ?dtor$2@?0??RsaPssVerify@WKey@@SAXAEBV?$FunctionCallbackInfo@VValue@v8@@@Nan@@@Z@4HA 0000000180030d7a f   w_key.obj
 0001:0002fd86       ?dtor$3@?0??RsaPssVerify@WKey@@SAXAEBV?$FunctionCallbackInfo@VValue@v8@@@Nan@@@Z@4HA 0000000180030d86 f   w_key.obj
 0001:0002fd92       ?dtor$4@?0??RsaPssVerify@WKey@@SAXAEBV?$FunctionCallbackInfo@VValue@v8@@@Nan@@@Z@4HA 0000000180030d92 f   w_key.obj
 0001:0002fdb2       ?dtor$5@?0??RsaPssVerify@WKey@@SAXAEBV?$FunctionCallbackInfo@VValue@v8@@@Nan@@@Z@4HA 0000000180030db2 f   w_key.obj
 0001:0002fde0       ?dtor$0@?0??EcdhDeriveBits@WKey@@SAXAEBV?$FunctionCallbackInfo@VValue@v8@@@Nan@@@Z@4HA 0000000180030de0 f   w_key.obj
 0001:0002fde0       ?dtor$0@?0??EcdhDeriveKey@WKey@@SAXAEBV?$FunctionCallbackInfo@VValue@v8@@@Nan@@@Z@4HA 0000000180030de0 f   w_key.obj
 0001:0002fdec       ?dtor$1@?0??EcdhDeriveKey@WKey@@SAXAEBV?$FunctionCallbackInfo@VValue@v8@@@Nan@@@Z@4HA 0000000180030dec f   w_key.obj
 0001:0002fdec       ?dtor$1@?0??EcdhDeriveBits@WKey@@SAXAEBV?$FunctionCallbackInfo@VValue@v8@@@Nan@@@Z@4HA 0000000180030dec f   w_key.obj
 0001:0002fdf8       ?dtor$2@?0??EcdhDeriveBits@WKey@@SAXAEBV?$FunctionCallbackInfo@VValue@v8@@@Nan@@@Z@4HA 0000000180030df8 f   w_key.obj
 0001:0002fdf8       ?dtor$2@?0??EcdhDeriveKey@WKey@@SAXAEBV?$FunctionCallbackInfo@VValue@v8@@@Nan@@@Z@4HA 0000000180030df8 f   w_key.obj
 0001:0002fe18       ?dtor$3@?0??EcdhDeriveKey@WKey@@SAXAEBV?$FunctionCallbackInfo@VValue@v8@@@Nan@@@Z@4HA 0000000180030e18 f   w_key.obj
 0001:0002fe18       ?dtor$3@?0??EcdhDeriveBits@WKey@@SAXAEBV?$FunctionCallbackInfo@VValue@v8@@@Nan@@@Z@4HA 0000000180030e18 f   w_key.obj
 0001:0002fe40       ?dtor$0@?0???0AsyncAesEncryptCTR@@QEAA@PEAVCallback@Nan@@V?$shared_ptr@VScopedAES@@@std@@V?$shared_ptr@V?$basic_string@DU?$char_traits@D@std@@V?$allocator@D@2@@std@@@4@2H_N@Z@4HA 0000000180030e40 f   w_aes.obj
 0001:0002fe40       ?dtor$0@?0???0AsyncAesEncryptCBC@@QEAA@PEAVCallback@Nan@@V?$shared_ptr@VScopedAES@@@std@@V?$shared_ptr@V?$basic_string@DU?$char_traits@D@std@@V?$allocator@D@2@@std@@@4@2_N@Z@4HA 0000000180030e40 f   w_aes.obj
 0001:0002fe4c       ?dtor$1@?0???0AsyncAesEncryptCBC@@QEAA@PEAVCallback@Nan@@V?$shared_ptr@VScopedAES@@@std@@V?$shared_ptr@V?$basic_string@DU?$char_traits@D@std@@V?$allocator@D@2@@std@@@4@2_N@Z@4HA 0000000180030e4c f   w_aes.obj
 0001:0002fe4c       ?dtor$1@?0???0AsyncAesEncryptCTR@@QEAA@PEAVCallback@Nan@@V?$shared_ptr@VScopedAES@@@std@@V?$shared_ptr@V?$basic_string@DU?$char_traits@D@std@@V?$allocator@D@2@@std@@@4@2H_N@Z@4HA 0000000180030e4c f   w_aes.obj
 0001:0002fe58       ?dtor$2@?0???0AsyncAesEncryptCBC@@QEAA@PEAVCallback@Nan@@V?$shared_ptr@VScopedAES@@@std@@V?$shared_ptr@V?$basic_string@DU?$char_traits@D@std@@V?$allocator@D@2@@std@@@4@2_N@Z@4HA 0000000180030e58 f   w_aes.obj
 0001:0002fe58       ?dtor$2@?0???0AsyncAesEncryptCTR@@QEAA@PEAVCallback@Nan@@V?$shared_ptr@VScopedAES@@@std@@V?$shared_ptr@V?$basic_string@DU?$char_traits@D@std@@V?$allocator@D@2@@std@@@4@2H_N@Z@4HA 0000000180030e58 f   w_aes.obj
 0001:0002fe70       ?dtor$0@?0???0AsyncAesEncryptGCM@@QEAA@PEAVCallback@Nan@@V?$shared_ptr@VScopedAES@@@std@@V?$shared_ptr@V?$basic_string@DU?$char_traits@D@std@@V?$allocator@D@2@@std@@@4@22H_N@Z@4HA 0000000180030e70 f   w_aes.obj
 0001:0002fe7c       ?dtor$1@?0???0AsyncAesEncryptGCM@@QEAA@PEAVCallback@Nan@@V?$shared_ptr@VScopedAES@@@std@@V?$shared_ptr@V?$basic_string@DU?$char_traits@D@std@@V?$allocator@D@2@@std@@@4@22H_N@Z@4HA 0000000180030e7c f   w_aes.obj
 0001:0002fe88       ?dtor$2@?0???0AsyncAesEncryptGCM@@QEAA@PEAVCallback@Nan@@V?$shared_ptr@VScopedAES@@@std@@V?$shared_ptr@V?$basic_string@DU?$char_traits@D@std@@V?$allocator@D@2@@std@@@4@22H_N@Z@4HA 0000000180030e88 f   w_aes.obj
 0001:0002fe94       ?dtor$3@?0???0AsyncAesEncryptGCM@@QEAA@PEAVCallback@Nan@@V?$shared_ptr@VScopedAES@@@std@@V?$shared_ptr@V?$basic_string@DU?$char_traits@D@std@@V?$allocator@D@2@@std@@@4@22H_N@Z@4HA 0000000180030e94 f   w_aes.obj
 0001:0002fea0       ?dtor$1@?0??Init@WHmac@@SAXV?$Local@VObject@v8@@@v8@@@Z@4HA 0000000180030ea0 f   w_hmac.obj
 0001:0002fea0       ?dtor$1@?0??Init@WAes@@SAXV?$Local@VObject@v8@@@v8@@@Z@4HA 0000000180030ea0 f   w_aes.obj
 0001:0002feac       ?dtor$4@?0??Init@WHmac@@SAXV?$Local@VObject@v8@@@v8@@@Z@4HA 0000000180030eac f   w_hmac.obj
 0001:0002feac       ?dtor$4@?0??Init@WAes@@SAXV?$Local@VObject@v8@@@v8@@@Z@4HA 0000000180030eac f   w_aes.obj
 0001:0002fec0       ?dtor$0@?0??Encrypt@WAes@@SAXAEBV?$FunctionCallbackInfo@VValue@v8@@@Nan@@@Z@4HA 0000000180030ec0 f   w_aes.obj
 0001:0002fec0       ?dtor$0@?0??Decrypt@WAes@@SAXAEBV?$FunctionCallbackInfo@VValue@v8@@@Nan@@@Z@4HA 0000000180030ec0 f   w_aes.obj
 0001:0002fece       ?dtor$1@?0??Decrypt@WAes@@SAXAEBV?$FunctionCallbackInfo@VValue@v8@@@Nan@@@Z@4HA 0000000180030ece f   w_aes.obj
 0001:0002fece       ?dtor$1@?0??Encrypt@WAes@@SAXAEBV?$FunctionCallbackInfo@VValue@v8@@@Nan@@@Z@4HA 0000000180030ece f   w_aes.obj
 0001:0002feda       ?dtor$2@?0??Encrypt@WAes@@SAXAEBV?$FunctionCallbackInfo@VValue@v8@@@Nan@@@Z@4HA 0000000180030eda f   w_aes.obj
 0001:0002feda       ?dtor$2@?0??Decrypt@WAes@@SAXAEBV?$FunctionCallbackInfo@VValue@v8@@@Nan@@@Z@4HA 0000000180030eda f   w_aes.obj
 0001:0002fee6       ?dtor$3@?0??Encrypt@WAes@@SAXAEBV?$FunctionCallbackInfo@VValue@v8@@@Nan@@@Z@4HA 0000000180030ee6 f   w_aes.obj
 0001:0002fee6       ?dtor$3@?0??Decrypt@WAes@@SAXAEBV?$FunctionCallbackInfo@VValue@v8@@@Nan@@@Z@4HA 0000000180030ee6 f   w_aes.obj
 0001:0002ff06       ?dtor$4@?0??Encrypt@WAes@@SAXAEBV?$FunctionCallbackInfo@VValue@v8@@@Nan@@@Z@4HA 0000000180030f06 f   w_aes.obj
 0001:0002ff06       ?dtor$4@?0??Decrypt@WAes@@SAXAEBV?$FunctionCallbackInfo@VValue@v8@@@Nan@@@Z@4HA 0000000180030f06 f   w_aes.obj
 0001:0002ff30       ?dtor$0@?0??WrapKey@WAes@@SAXAEBV?$FunctionCallbackInfo@VValue@v8@@@Nan@@@Z@4HA 0000000180030f30 f   w_aes.obj
 0001:0002ff30       ?dtor$0@?0??EncryptEcb@WAes@@SAXAEBV?$FunctionCallbackInfo@VValue@v8@@@Nan@@@Z@4HA 0000000180030f30 f   w_aes.obj
 0001:0002ff30       ?dtor$0@?0??UnwrapKey@WAes@@SAXAEBV?$FunctionCallbackInfo@VValue@v8@@@Nan@@@Z@4HA 0000000180030f30 f   w_aes.obj
 0001:0002ff30       ?dtor$0@?0??DecryptEcb@WAes@@SAXAEBV?$FunctionCallbackInfo@VValue@v8@@@Nan@@@Z@4HA 0000000180030f30 f   w_aes.obj
 0001:0002ff3c       ?dtor$1@?0??UnwrapKey@WAes@@SAXAEBV?$FunctionCallbackInfo@VValue@v8@@@Nan@@@Z@4HA 0000000180030f3c f   w_aes.obj
 0001:0002ff3c       ?dtor$1@?0??WrapKey@WAes@@SAXAEBV?$FunctionCallbackInfo@VValue@v8@@@Nan@@@Z@4HA 0000000180030f3c f   w_aes.obj
 0001:0002ff3c       ?dtor$1@?0??DecryptEcb@WAes@@SAXAEBV?$FunctionCallbackInfo@VValue@v8@@@Nan@@@Z@4HA 0000000180030f3c f   w_aes.obj
 0001:0002ff3c       ?dtor$1@?0??EncryptEcb@WAes@@SAXAEBV?$FunctionCallbackInfo@VValue@v8@@@Nan@@@Z@4HA 0000000180030f3c f   w_aes.obj
 0001:0002ff5c       ?dtor$2@?0??DecryptEcb@WAes@@SAXAEBV?$FunctionCallbackInfo@VValue@v8@@@Nan@@@Z@4HA 0000000180030f5c f   w_aes.obj
 0001:0002ff5c       ?dtor$2@?0??WrapKey@WAes@@SAXAEBV?$FunctionCallbackInfo@VValue@v8@@@Nan@@@Z@4HA 0000000180030f5c f   w_aes.obj
 0001:0002ff5c       ?dtor$2@?0??UnwrapKey@WAes@@SAXAEBV?$FunctionCallbackInfo@VValue@v8@@@Nan@@@Z@4HA 0000000180030f5c f   w_aes.obj
 0001:0002ff5c       ?dtor$2@?0??EncryptEcb@WAes@@SAXAEBV?$FunctionCallbackInfo@VValue@v8@@@Nan@@@Z@4HA 0000000180030f5c f   w_aes.obj
 0001:0002ff80       ?dtor$0@?0??EncryptGcm@WAes@@SAXAEBV?$FunctionCallbackInfo@VValue@v8@@@Nan@@@Z@4HA 0000000180030f80 f   w_aes.obj
 0001:0002ff80       ?dtor$0@?0??DecryptGcm@WAes@@SAXAEBV?$FunctionCallbackInfo@VValue@v8@@@Nan@@@Z@4HA 0000000180030f80 f   w_aes.obj
 0001:0002ff8c       ?dtor$1@?0??DecryptGcm@WAes@@SAXAEBV?$FunctionCallbackInfo@VValue@v8@@@Nan@@@Z@4HA 0000000180030f8c f   w_aes.obj
 0001:0002ff8c       ?dtor$1@?0??EncryptGcm@WAes@@SAXAEBV?$FunctionCallbackInfo@VValue@v8@@@Nan@@@Z@4HA 0000000180030f8c f   w_aes.obj
 0001:0002ff98       ?dtor$2@?0??DecryptGcm@WAes@@SAXAEBV?$FunctionCallbackInfo@VValue@v8@@@Nan@@@Z@4HA 0000000180030f98 f   w_aes.obj
 0001:0002ff98       ?dtor$2@?0??EncryptGcm@WAes@@SAXAEBV?$FunctionCallbackInfo@VValue@v8@@@Nan@@@Z@4HA 0000000180030f98 f   w_aes.obj
 0001:0002ffa4       ?dtor$3@?0??DecryptGcm@WAes@@SAXAEBV?$FunctionCallbackInfo@VValue@v8@@@Nan@@@Z@4HA 0000000180030fa4 f   w_aes.obj
 0001:0002ffa4       ?dtor$3@?0??EncryptGcm@WAes@@SAXAEBV?$FunctionCallbackInfo@VValue@v8@@@Nan@@@Z@4HA 0000000180030fa4 f   w_aes.obj
 0001:0002ffc4       ?dtor$4@?0??DecryptGcm@WAes@@SAXAEBV?$FunctionCallbackInfo@VValue@v8@@@Nan@@@Z@4HA 0000000180030fc4 f   w_aes.obj
 0001:0002ffc4       ?dtor$4@?0??EncryptGcm@WAes@@SAXAEBV?$FunctionCallbackInfo@VValue@v8@@@Nan@@@Z@4HA 0000000180030fc4 f   w_aes.obj
 0001:0002fff0       ?dtor$0@?0??EncryptCtr@WAes@@SAXAEBV?$FunctionCallbackInfo@VValue@v8@@@Nan@@@Z@4HA 0000000180030ff0 f   w_aes.obj
 0001:0002fff0       ?dtor$0@?0??DecryptCtr@WAes@@SAXAEBV?$FunctionCallbackInfo@VValue@v8@@@Nan@@@Z@4HA 0000000180030ff0 f   w_aes.obj
 0001:0002fffc       ?dtor$1@?0??DecryptCtr@WAes@@SAXAEBV?$FunctionCallbackInfo@VValue@v8@@@Nan@@@Z@4HA 0000000180030ffc f   w_aes.obj
 0001:0002fffc       ?dtor$1@?0??EncryptCtr@WAes@@SAXAEBV?$FunctionCallbackInfo@VValue@v8@@@Nan@@@Z@4HA 0000000180030ffc f   w_aes.obj
 0001:00030008       ?dtor$2@?0??DecryptCtr@WAes@@SAXAEBV?$FunctionCallbackInfo@VValue@v8@@@Nan@@@Z@4HA 0000000180031008 f   w_aes.obj
 0001:00030008       ?dtor$2@?0??EncryptCtr@WAes@@SAXAEBV?$FunctionCallbackInfo@VValue@v8@@@Nan@@@Z@4HA 0000000180031008 f   w_aes.obj
 0001:00030028       ?dtor$3@?0??EncryptCtr@WAes@@SAXAEBV?$FunctionCallbackInfo@VValue@v8@@@Nan@@@Z@4HA 0000000180031028 f   w_aes.obj
 0001:00030028       ?dtor$3@?0??DecryptCtr@WAes@@SAXAEBV?$FunctionCallbackInfo@VValue@v8@@@Nan@@@Z@4HA 0000000180031028 f   w_aes.obj
 0001:00030050       ?dtor$0@?0??Sign@WHmac@@SAXAEBV?$FunctionCallbackInfo@VValue@v8@@@Nan@@@Z@4HA 0000000180031050 f   w_hmac.obj
 0001:0003005e       ?dtor$1@?0??Sign@WHmac@@SAXAEBV?$FunctionCallbackInfo@VValue@v8@@@Nan@@@Z@4HA 000000018003105e f   w_hmac.obj
 0001:0003006a       ?dtor$2@?0??Sign@WHmac@@SAXAEBV?$FunctionCallbackInfo@VValue@v8@@@Nan@@@Z@4HA 000000018003106a f   w_hmac.obj
 0001:0003008a       ?dtor$3@?0??Sign@WHmac@@SAXAEBV?$FunctionCallbackInfo@VValue@v8@@@Nan@@@Z@4HA 000000018003108a f   w_hmac.obj
 0001:000300b0       ?dtor$0@?0??Verify@WHmac@@SAXAEBV?$FunctionCallbackInfo@VValue@v8@@@Nan@@@Z@4HA 00000001800310b0 f   w_hmac.obj
 0001:000300be       ?dtor$1@?0??Verify@WHmac@@SAXAEBV?$FunctionCallbackInfo@VValue@v8@@@Nan@@@Z@4HA 00000001800310be f   w_hmac.obj
 0001:000300ca       ?dtor$2@?0??Verify@WHmac@@SAXAEBV?$FunctionCallbackInfo@VValue@v8@@@Nan@@@Z@4HA 00000001800310ca f   w_hmac.obj
 0001:000300d6       ?dtor$3@?0??Verify@WHmac@@SAXAEBV?$FunctionCallbackInfo@VValue@v8@@@Nan@@@Z@4HA 00000001800310d6 f   w_hmac.obj
 0001:000300e2       ?dtor$4@?0??Verify@WHmac@@SAXAEBV?$FunctionCallbackInfo@VValue@v8@@@Nan@@@Z@4HA 00000001800310e2 f   w_hmac.obj
 0001:000300ff       ?dtor$5@?0??Verify@WHmac@@SAXAEBV?$FunctionCallbackInfo@VValue@v8@@@Nan@@@Z@4HA 00000001800310ff f   w_hmac.obj
 0001:00030120       ?dtor$0@?0???0AsyncPbkdf2DeriveBits@@QEAA@PEAVCallback@Nan@@V?$shared_ptr@VScopedPbkdf2@@@std@@PEBUenv_md_st@@V?$shared_ptr@V?$basic_string@DU?$char_traits@D@std@@V?$allocator@D@2@@std@@@4@HH@Z@4HA 0000000180031120 f   w_pbkdf2.obj
 0001:0003012c       ?dtor$1@?0???0AsyncPbkdf2DeriveBits@@QEAA@PEAVCallback@Nan@@V?$shared_ptr@VScopedPbkdf2@@@std@@PEBUenv_md_st@@V?$shared_ptr@V?$basic_string@DU?$char_traits@D@std@@V?$allocator@D@2@@std@@@4@HH@Z@4HA 000000018003112c f   w_pbkdf2.obj
 0001:00030140       ?dtor$0@?0??DeriveBits@WPbkdf2@@SAXAEBV?$FunctionCallbackInfo@VValue@v8@@@Nan@@@Z@4HA 0000000180031140 f   w_pbkdf2.obj
 0001:0003014e       ?dtor$1@?0??DeriveBits@WPbkdf2@@SAXAEBV?$FunctionCallbackInfo@VValue@v8@@@Nan@@@Z@4HA 000000018003114e f   w_pbkdf2.obj
 0001:0003015a       ?dtor$2@?0??DeriveBits@WPbkdf2@@SAXAEBV?$FunctionCallbackInfo@VValue@v8@@@Nan@@@Z@4HA 000000018003115a f   w_pbkdf2.obj
 0001:0003017a       ?dtor$3@?0??DeriveBits@WPbkdf2@@SAXAEBV?$FunctionCallbackInfo@VValue@v8@@@Nan@@@Z@4HA 000000018003117a f   w_pbkdf2.obj
 0001:000301a0       ?dtor$0@?0??Digest@WCore@@SAXAEBV?$FunctionCallbackInfo@VValue@v8@@@Nan@@@Z@4HA 00000001800311a0 f   w_core.obj
 0001:000301ae       ?dtor$1@?0??Digest@WCore@@SAXAEBV?$FunctionCallbackInfo@VValue@v8@@@Nan@@@Z@4HA 00000001800311ae f   w_core.obj
 0001:000301ce       ?dtor$2@?0??Digest@WCore@@SAXAEBV?$FunctionCallbackInfo@VValue@v8@@@Nan@@@Z@4HA 00000001800311ce f   w_core.obj
 0001:000301da       ?dtor$3@?0??Digest@WCore@@SAXAEBV?$FunctionCallbackInfo@VValue@v8@@@Nan@@@Z@4HA 00000001800311da f   w_core.obj
 0001:000301e6       ?dtor$4@?0??Digest@WCore@@SAXAEBV?$FunctionCallbackInfo@VValue@v8@@@Nan@@@Z@4HA 00000001800311e6 f   w_core.obj
 0001:00030206       ?dtor$5@?0??Digest@WCore@@SAXAEBV?$FunctionCallbackInfo@VValue@v8@@@Nan@@@Z@4HA 0000000180031206 f   w_core.obj
 0001:00030230       ?catch$4@?0??Execute@AsyncEncrypDecryptRsaOAEP@@UEAAXXZ@4HA 0000000180031230 f   async_rsa.obj
 0001:0003023d       __catch$?Execute@AsyncEncrypDecryptRsaOAEP@@UEAAXXZ$0 000000018003123d f   async_rsa.obj
 0001:00030290       ?dtor$0@?0??HandleOKCallback@AsyncAesEncryptCBC@@UEAAXXZ@4HA 0000000180031290 f   async_aes.obj
 0001:00030290       ?dtor$0@?0??HandleOKCallback@AsyncPbkdf2DeriveBits@@UEAAXXZ@4HA 0000000180031290 f   async_pbkdf2.obj
 0001:00030290       ?dtor$0@?0??HandleOKCallback@AsyncAesEncryptCTR@@UEAAXXZ@4HA 0000000180031290 f   async_aes.obj
 0001:00030290       ?dtor$0@?0??HandleOKCallback@AsyncEncrypDecryptRsaOAEP@@UEAAXXZ@4HA 0000000180031290 f   async_rsa.obj
 0001:00030290       ?dtor$0@?0??HandleOKCallback@AsyncHmacExport@@UEAAXXZ@4HA 0000000180031290 f   async_hmac.obj
 0001:00030290       ?dtor$0@?0??HandleOKCallback@AsyncExportPkcs8@@UEAAXXZ@4HA 0000000180031290 f   async_rsa.obj
 0001:00030290       ?dtor$0@?0??HandleOKCallback@AsyncExportSpki@@UEAAXXZ@4HA 0000000180031290 f   async_rsa.obj
 0001:00030290       ?dtor$0@?0??HandleOKCallback@AsyncAesEncryptECB@@UEAAXXZ@4HA 0000000180031290 f   async_aes.obj
 0001:00030290       ?dtor$0@?0??HandleOKCallback@AsyncAesEncryptGCM@@UEAAXXZ@4HA 0000000180031290 f   async_aes.obj
 0001:00030290       ?dtor$0@?0??HandleOKCallback@AsyncHmacSign@@UEAAXXZ@4HA 0000000180031290 f   async_hmac.obj
 0001:00030290       ?dtor$0@?0??HandleOKCallback@AsyncAesExport@@UEAAXXZ@4HA 0000000180031290 f   async_aes.obj
 0001:00030290       ?dtor$0@?0??HandleOKCallback@AsyncSignRsa@@UEAAXXZ@4HA 0000000180031290 f   async_rsa.obj
 0001:00030290       ?dtor$0@?0??HandleOKCallback@AsyncSignRsaPSS@@UEAAXXZ@4HA 0000000180031290 f   async_rsa.obj
 0001:00030290       ?dtor$0@?0??HandleOKCallback@AsyncAesWrapKey@@UEAAXXZ@4HA 0000000180031290 f   async_aes.obj
 0001:00030290       ?dtor$0@?0??HandleOKCallback@AsyncEcdsaSign@@UEAAXXZ@4HA 0000000180031290 f   async_ec.obj
 0001:00030290       ?dtor$0@?0??HandleOKCallback@AsyncEcdhDeriveKey@@UEAAXXZ@4HA 0000000180031290 f   async_ec.obj
 0001:00030290       ?dtor$0@?0??HandleOKCallback@AsyncDigest@@UEAAXXZ@4HA 0000000180031290 f   async_core.obj
 0001:00030290       ?dtor$0@?0??HandleOKCallback@AsyncEcdhDeriveBits@@UEAAXXZ@4HA 0000000180031290 f   async_ec.obj
 0001:000302a0       ?catch$1@?0??Execute@AsyncRsaGenerateKey@@UEAAXXZ@4HA 00000001800312a0 f   async_rsa.obj
 0001:000302ad       __catch$?Execute@AsyncRsaGenerateKey@@UEAAXXZ$0 00000001800312ad f   async_rsa.obj
 0001:00030300       ?dtor$0@?0??HandleOKCallback@AsyncEcExportJwk@@UEAAXXZ@4HA 0000000180031300 f   async_ec.obj
 0001:00030300       ?dtor$0@?0??HandleOKCallback@AsyncEcImportJwk@@UEAAXXZ@4HA 0000000180031300 f   async_ec.obj
 0001:00030300       ?dtor$0@?0??HandleOKCallback@AsyncVerifyRsaPSS@@UEAAXXZ@4HA 0000000180031300 f   async_rsa.obj
 0001:00030300       ?dtor$0@?0??HandleOKCallback@AsyncHmacVerify@@UEAAXXZ@4HA 0000000180031300 f   async_hmac.obj
 0001:00030300       ?dtor$0@?0??HandleOKCallback@AsyncEcdsaVerify@@UEAAXXZ@4HA 0000000180031300 f   async_ec.obj
 0001:00030300       ?dtor$0@?0??HandleOKCallback@AsyncVerifyRsa@@UEAAXXZ@4HA 0000000180031300 f   async_rsa.obj
 0001:00030300       ?dtor$0@?0??HandleOKCallback@AsyncAesImport@@UEAAXXZ@4HA 0000000180031300 f   async_aes.obj
 0001:00030300       ?dtor$0@?0??HandleOKCallback@AsyncAesGenerateKey@@UEAAXXZ@4HA 0000000180031300 f   async_aes.obj
 0001:00030300       ?dtor$0@?0??HandleOKCallback@AsyncRsaGenerateKey@@UEAAXXZ@4HA 0000000180031300 f   async_rsa.obj
 0001:00030300       ?dtor$0@?0??HandleOKCallback@AsyncImportSpki@@UEAAXXZ@4HA 0000000180031300 f   async_rsa.obj
 0001:00030300       ?dtor$0@?0??HandleOKCallback@AsyncImportPkcs8@@UEAAXXZ@4HA 0000000180031300 f   async_rsa.obj
 0001:00030300       ?dtor$0@?0??HandleOKCallback@AsyncHmacImport@@UEAAXXZ@4HA 0000000180031300 f   async_hmac.obj
 0001:00030300       ?dtor$0@?0??HandleOKCallback@AsyncHmacGenerateKey@@UEAAXXZ@4HA 0000000180031300 f   async_hmac.obj
 0001:00030300       ?dtor$0@?0??HandleOKCallback@AsyncExportJwkRsa@@UEAAXXZ@4HA 0000000180031300 f   async_rsa.obj
 0001:00030300       ?dtor$0@?0??HandleOKCallback@AsyncEcGenerateKey@@UEAAXXZ@4HA 0000000180031300 f   async_ec.obj
 0001:00030300       ?dtor$0@?0??HandleOKCallback@AsyncPbkdf2Import@@UEAAXXZ@4HA 0000000180031300 f   async_pbkdf2.obj
 0001:00030300       ?dtor$0@?0??HandleOKCallback@AsyncImportJwkRsa@@UEAAXXZ@4HA 0000000180031300 f   async_rsa.obj
 0001:00030310       ?catch$2@?0??Execute@AsyncExportJwkRsa@@UEAAXXZ@4HA 0000000180031310 f   async_rsa.obj
 0001:0003031d       __catch$?Execute@AsyncExportJwkRsa@@UEAAXXZ$0 000000018003131d f   async_rsa.obj
 0001:00030370       ?catch$1@?0??Execute@AsyncExportSpki@@UEAAXXZ@4HA 0000000180031370 f   async_rsa.obj
 0001:0003037d       __catch$?Execute@AsyncExportSpki@@UEAAXXZ$0 000000018003137d f   async_rsa.obj
 0001:000303d0       ?catch$1@?0??Execute@AsyncExportPkcs8@@UEAAXXZ@4HA 00000001800313d0 f   async_rsa.obj
 0001:000303dd       __catch$?Execute@AsyncExportPkcs8@@UEAAXXZ$0 00000001800313dd f   async_rsa.obj
 0001:00030430       ?catch$2@?0??Execute@AsyncImportPkcs8@@UEAAXXZ@4HA 0000000180031430 f   async_rsa.obj
 0001:0003043d       __catch$?Execute@AsyncImportPkcs8@@UEAAXXZ$0 000000018003143d f   async_rsa.obj
 0001:00030490       ?catch$2@?0??Execute@AsyncImportSpki@@UEAAXXZ@4HA 0000000180031490 f   async_rsa.obj
 0001:0003049d       __catch$?Execute@AsyncImportSpki@@UEAAXXZ$0 000000018003149d f   async_rsa.obj
 0001:000304f0       ?catch$1@?0??Execute@AsyncImportJwkRsa@@UEAAXXZ@4HA 00000001800314f0 f   async_rsa.obj
 0001:000304fd       __catch$?Execute@AsyncImportJwkRsa@@UEAAXXZ$0 00000001800314fd f   async_rsa.obj
 0001:00030550       ?catch$3@?0??Execute@AsyncSignRsa@@UEAAXXZ@4HA 0000000180031550 f   async_rsa.obj
 0001:0003055d       __catch$?Execute@AsyncSignRsa@@UEAAXXZ$0 000000018003155d f   async_rsa.obj
 0001:000305b0       ?catch$3@?0??Execute@AsyncVerifyRsa@@UEAAXXZ@4HA 00000001800315b0 f   async_rsa.obj
 0001:000305bd       __catch$?Execute@AsyncVerifyRsa@@UEAAXXZ$0 00000001800315bd f   async_rsa.obj
 0001:00030610       ?catch$3@?0??Execute@AsyncSignRsaPSS@@UEAAXXZ@4HA 0000000180031610 f   async_rsa.obj
 0001:0003061d       __catch$?Execute@AsyncSignRsaPSS@@UEAAXXZ$0 000000018003161d f   async_rsa.obj
 0001:00030670       ?catch$3@?0??Execute@AsyncVerifyRsaPSS@@UEAAXXZ@4HA 0000000180031670 f   async_rsa.obj
 0001:0003067d       __catch$?Execute@AsyncVerifyRsaPSS@@UEAAXXZ$0 000000018003167d f   async_rsa.obj
 0001:000306d0       ?catch$1@?0??Execute@AsyncEcGenerateKey@@UEAAXXZ@4HA 00000001800316d0 f   async_ec.obj
 0001:000306dd       __catch$?Execute@AsyncEcGenerateKey@@UEAAXXZ$0 00000001800316dd f   async_ec.obj
 0001:00030730       ?catch$3@?0??Execute@AsyncEcdhDeriveKey@@UEAAXXZ@4HA 0000000180031730 f   async_ec.obj
 0001:0003073d       __catch$?Execute@AsyncEcdhDeriveKey@@UEAAXXZ$0 000000018003173d f   async_ec.obj
 0001:00030790       ?catch$2@?0??Execute@AsyncEcExportJwk@@UEAAXXZ@4HA 0000000180031790 f   async_ec.obj
 0001:0003079d       __catch$?Execute@AsyncEcExportJwk@@UEAAXXZ$0 000000018003179d f   async_ec.obj
 0001:000307f0       ?catch$1@?0??Execute@AsyncEcImportJwk@@UEAAXXZ@4HA 00000001800317f0 f   async_ec.obj
 0001:000307fd       __catch$?Execute@AsyncEcImportJwk@@UEAAXXZ$0 00000001800317fd f   async_ec.obj
 0001:00030850       ?catch$3@?0??Execute@AsyncEcdsaSign@@UEAAXXZ@4HA 0000000180031850 f   async_ec.obj
 0001:0003085d       __catch$?Execute@AsyncEcdsaSign@@UEAAXXZ$0 000000018003185d f   async_ec.obj
 0001:000308b0       ?catch$3@?0??Execute@AsyncEcdsaVerify@@UEAAXXZ@4HA 00000001800318b0 f   async_ec.obj
 0001:000308bd       __catch$?Execute@AsyncEcdsaVerify@@UEAAXXZ$0 00000001800318bd f   async_ec.obj
 0001:00030910       ?catch$3@?0??Execute@AsyncEcdhDeriveBits@@UEAAXXZ@4HA 0000000180031910 f   async_ec.obj
 0001:0003091d       __catch$?Execute@AsyncEcdhDeriveBits@@UEAAXXZ$0 000000018003191d f   async_ec.obj
 0001:00030970       ?catch$1@?0??Execute@AsyncAesGenerateKey@@UEAAXXZ@4HA 0000000180031970 f   async_aes.obj
 0001:0003097d       __catch$?Execute@AsyncAesGenerateKey@@UEAAXXZ$0 000000018003197d f   async_aes.obj
 0001:000309d0       ?catch$6@?0??Execute@AsyncAesEncryptCBC@@UEAAXXZ@4HA 00000001800319d0 f   async_aes.obj
 0001:000309dd       __catch$?Execute@AsyncAesEncryptCBC@@UEAAXXZ$0 00000001800319dd f   async_aes.obj
 0001:00030a30       ?catch$4@?0??Execute@AsyncAesEncryptECB@@UEAAXXZ@4HA 0000000180031a30 f   async_aes.obj
 0001:00030a3d       __catch$?Execute@AsyncAesEncryptECB@@UEAAXXZ$0 0000000180031a3d f   async_aes.obj
 0001:00030a90       ?catch$4@?0??Execute@AsyncAesImport@@UEAAXXZ@4HA 0000000180031a90 f   async_aes.obj
 0001:00030a9d       __catch$?Execute@AsyncAesImport@@UEAAXXZ$0 0000000180031a9d f   async_aes.obj
 0001:00030af0       ?catch$8@?0??Execute@AsyncAesEncryptGCM@@UEAAXXZ@4HA 0000000180031af0 f   async_aes.obj
 0001:00030afd       __catch$?Execute@AsyncAesEncryptGCM@@UEAAXXZ$0 0000000180031afd f   async_aes.obj
 0001:00030b50       ?catch$4@?0??Execute@AsyncAesWrapKey@@UEAAXXZ@4HA 0000000180031b50 f   async_aes.obj
 0001:00030b5d       __catch$?Execute@AsyncAesWrapKey@@UEAAXXZ$0 0000000180031b5d f   async_aes.obj
 0001:00030bb0       ?catch$6@?0??Execute@AsyncAesEncryptCTR@@UEAAXXZ@4HA 0000000180031bb0 f   async_aes.obj
 0001:00030bbd       __catch$?Execute@AsyncAesEncryptCTR@@UEAAXXZ$0 0000000180031bbd f   async_aes.obj
 0001:00030c10       ?catch$1@?0??Execute@AsyncHmacGenerateKey@@UEAAXXZ@4HA 0000000180031c10 f   async_hmac.obj
 0001:00030c1d       __catch$?Execute@AsyncHmacGenerateKey@@UEAAXXZ$0 0000000180031c1d f   async_hmac.obj
 0001:00030c70       ?catch$4@?0??Execute@AsyncHmacImport@@UEAAXXZ@4HA 0000000180031c70 f   async_hmac.obj
 0001:00030c7d       __catch$?Execute@AsyncHmacImport@@UEAAXXZ$0 0000000180031c7d f   async_hmac.obj
 0001:00030cd0       ?catch$2@?0??Execute@AsyncHmacSign@@UEAAXXZ@4HA 0000000180031cd0 f   async_hmac.obj
 0001:00030cdd       __catch$?Execute@AsyncHmacSign@@UEAAXXZ$0 0000000180031cdd f   async_hmac.obj
 0001:00030d30       ?catch$2@?0??Execute@AsyncHmacVerify@@UEAAXXZ@4HA 0000000180031d30 f   async_hmac.obj
 0001:00030d3d       __catch$?Execute@AsyncHmacVerify@@UEAAXXZ$0 0000000180031d3d f   async_hmac.obj
 0001:00030d90       ?catch$4@?0??Execute@AsyncPbkdf2Import@@UEAAXXZ@4HA 0000000180031d90 f   async_pbkdf2.obj
 0001:00030d9d       __catch$?Execute@AsyncPbkdf2Import@@UEAAXXZ$0 0000000180031d9d f   async_pbkdf2.obj
 0001:00030df0       ?catch$2@?0??Execute@AsyncPbkdf2DeriveBits@@UEAAXXZ@4HA 0000000180031df0 f   async_pbkdf2.obj
 0001:00030dfd       __catch$?Execute@AsyncPbkdf2DeriveBits@@UEAAXXZ$0 0000000180031dfd f   async_pbkdf2.obj
 0001:00030e50       ?catch$2@?0??Execute@AsyncDigest@@UEAAXXZ@4HA 0000000180031e50 f   async_core.obj
 0001:00030e5d       __catch$?Execute@AsyncDigest@@UEAAXXZ$0 0000000180031e5d f   async_core.obj
 0001:00030ea5       __scrt_is_nonwritable_in_current_image$filt$0 0000000180031ea5 f   LIBCMT:utility.obj
 0001:00030ebd       ?fin$0@?0??dllmain_crt_process_attach@@YAHQEAUHINSTANCE__@@QEAX@Z@4HA 0000000180031ebd f   LIBCMT:dll_dllmain.obj
 0001:00030ed4       ?fin$0@?0??dllmain_crt_process_detach@@YAH_N@Z@4HA 0000000180031ed4 f   LIBCMT:dll_dllmain.obj
 0001:00030ef0       ?filt$0@?0??dllmain_dispatch@@YAHQEAUHINSTANCE__@@KQEAX@Z@4HA 0000000180031ef0 f   LIBCMT:dll_dllmain.obj
 0001:00030f26       __CxxCallCatchBlock$filt$0 0000000180031f26 f   libvcruntime:frame.obj
 0001:00030f4b       __CxxCallCatchBlock$fin$1  0000000180031f4b f   libvcruntime:frame.obj
 0001:00030fc3       __DestructExceptionObject$filt$0 0000000180031fc3 f   libvcruntime:frame.obj
 0001:00030fdb       __FrameUnwindToState$filt$0 0000000180031fdb f   libvcruntime:frame.obj
 0001:00030ff1       __FrameUnwindToState$fin$1 0000000180031ff1 f   libvcruntime:frame.obj
 0001:00031014       _CallSETranslator$filt$0   0000000180032014 f   libvcruntime:trnsctrl.obj
 0001:00031060       _query_new_handler$fin$0   0000000180032060 f   libucrt:new_handler.obj
 0001:00031076       ?filt$0@?0??common_exit@@YAXHW4_crt_exit_cleanup_mode@@W4_crt_exit_return_mode@@@Z@4HA 0000000180032076 f   libucrt:exit.obj
 0001:00031091       ?fin$1@?0??common_exit@@YAXHW4_crt_exit_cleanup_mode@@W4_crt_exit_return_mode@@@Z@4HA 0000000180032091 f   libucrt:exit.obj
 0001:000310aa       ?fin$0@?0???$?RV<lambda_e24bbb7b643b32fcea6fa61b31d4c984>@@AEAV<lambda_275893d493268fdec8709772e3fcec0e>@@V<lambda_9d71df4d7cf3f480f8d633942495c3b0>@@@?$__crt_seh_guarded_call@H@@QEAAH$$QEAV<lambda_e24bbb7b643b32fcea6fa61b31d4c984>@@AEAV<lambda_275893d493268fdec8709772e3fcec0e>@@$$QEAV<lambda_9d71df4d7cf3f480f8d633942495c3b0>@@@Z@4HA 00000001800320aa f   libucrt:onexit.obj
 0001:000310c7       ?fin$0@?0???$?RV<lambda_c36588078e9f5dfd39652860aa6b3aaf>@@AEAV<lambda_ec61778202f4f5fc7e7711acc23c3bca>@@V<lambda_dc9d2797ccde5d239b4a0efae8ebd7db>@@@?$__crt_seh_guarded_call@P6AXH@Z@@QEAAP6AXH@Z$$QEAV<lambda_c36588078e9f5dfd39652860aa6b3aaf>@@AEAV<lambda_ec61778202f4f5fc7e7711acc23c3bca>@@$$QEAV<lambda_dc9d2797ccde5d239b4a0efae8ebd7db>@@@Z@4HA 00000001800320c7 f   libucrt:signal.obj
 0001:000310c7       ?fin$0@?0???$?RV<lambda_5e887d1dcbef67a5eb4283622ba103bf>@@AEAV<lambda_4466841279450cc726390878d4a41900>@@V<lambda_341c25c0346d94847f1f3c463c57e077>@@@?$__crt_seh_guarded_call@X@@QEAAX$$QEAV<lambda_5e887d1dcbef67a5eb4283622ba103bf>@@AEAV<lambda_4466841279450cc726390878d4a41900>@@$$QEAV<lambda_341c25c0346d94847f1f3c463c57e077>@@@Z@4HA 00000001800320c7 f   libucrt:per_thread_data.obj
 0001:000310c7       ?fin$0@?0???$?RV<lambda_fb3a7dec4e47f37f22dae91bb15c9095>@@AEAV<lambda_698284760c8add0bfb0756c19673e34b>@@V<lambda_dfb8eca1e75fef3034a8fb18dd509707>@@@?$__crt_seh_guarded_call@X@@QEAAX$$QEAV<lambda_fb3a7dec4e47f37f22dae91bb15c9095>@@AEAV<lambda_698284760c8add0bfb0756c19673e34b>@@$$QEAV<lambda_dfb8eca1e75fef3034a8fb18dd509707>@@@Z@4HA 00000001800320c7 f   libucrt:per_thread_data.obj
 0001:000310c7       ?fin$0@?0???$?RV<lambda_46352004c1216016012b18bd6f87e700>@@AEAV<lambda_3bd07e1a1191394380780325891bf33f>@@V<lambda_334532d3f185bcaa59b5be82d7d22bff>@@@?$__crt_seh_guarded_call@X@@QEAAX$$QEAV<lambda_46352004c1216016012b18bd6f87e700>@@AEAV<lambda_3bd07e1a1191394380780325891bf33f>@@$$QEAV<lambda_334532d3f185bcaa59b5be82d7d22bff>@@@Z@4HA 00000001800320c7 f   libucrt:per_thread_data.obj
 0001:000310c7       ?fin$0@?0???$?RV<lambda_b8c45f8f788dd370798f47cfe8ac3a86>@@AEAV<lambda_4e60a939b0d047cfe11ddc22648dfba9>@@V<lambda_332c3edc96d0294ec56c57d38c1cdfd5>@@@?$__crt_seh_guarded_call@H@@QEAAH$$QEAV<lambda_b8c45f8f788dd370798f47cfe8ac3a86>@@AEAV<lambda_4e60a939b0d047cfe11ddc22648dfba9>@@$$QEAV<lambda_332c3edc96d0294ec56c57d38c1cdfd5>@@@Z@4HA 00000001800320c7 f   libucrt:onexit.obj
 0001:000310c7       ?fin$0@?0???$?RV<lambda_72d1df2b273a38828b1ce30cbf4cdab5>@@AEAV<lambda_876a65b173b8412d3a47c70a915b0cf4>@@V<lambda_41932305e351933ebe8f8be3ed8bb5dc>@@@?$__crt_seh_guarded_call@X@@QEAAX$$QEAV<lambda_72d1df2b273a38828b1ce30cbf4cdab5>@@AEAV<lambda_876a65b173b8412d3a47c70a915b0cf4>@@$$QEAV<lambda_41932305e351933ebe8f8be3ed8bb5dc>@@@Z@4HA 00000001800320c7 f   libucrt:per_thread_data.obj
 0001:000310c7       ?fin$0@?0???$?RV<lambda_99476a1ad63dd22509b5d3e65b0ffc95>@@AEAV<lambda_ad1ced32f4ac17aa236e5ef05d6b3b7c>@@V<lambda_f7424dd8d45958661754dc4f2697e9c3>@@@?$__crt_seh_guarded_call@X@@QEAAX$$QEAV<lambda_99476a1ad63dd22509b5d3e65b0ffc95>@@AEAV<lambda_ad1ced32f4ac17aa236e5ef05d6b3b7c>@@$$QEAV<lambda_f7424dd8d45958661754dc4f2697e9c3>@@@Z@4HA 00000001800320c7 f   libucrt:mbctype.obj
 0001:000310e1       common_flush_all$fin$0     00000001800320e1 f   libucrt:fflush.obj
 0001:000310fb       common_flush_all$fin$1     00000001800320fb f   libucrt:fflush.obj
 0001:00031114       fflush$fin$0               0000000180032114 f   libucrt:fflush.obj
 0001:00031114       fclose$fin$0               0000000180032114 f   libucrt:fclose.obj
 0001:0003112c       ?fin$0@?0???$?RV<lambda_7b91131dde12e1c3dfc74ff76b3f2eac>@@AEAV<lambda_dd75445284c072d0bd3768540cc698fa>@@V<lambda_16bc4ecb55b4718497c16bceaea2ceaf>@@@?$__crt_seh_guarded_call@H@@QEAAH$$QEAV<lambda_7b91131dde12e1c3dfc74ff76b3f2eac>@@AEAV<lambda_dd75445284c072d0bd3768540cc698fa>@@$$QEAV<lambda_16bc4ecb55b4718497c16bceaea2ceaf>@@@Z@4HA 000000018003212c f   libucrt:output.obj
 0001:0003112c       ?fin$0@?0???$?RV<lambda_7a5ef57ff966f610505f1d28a3d40618>@@AEAV<lambda_b721fa326cdb32351d23dfa67958c160>@@V<lambda_5e0fb27672408a07956fe59e48ccb2aa>@@@?$__crt_seh_guarded_call@H@@QEAAH$$QEAV<lambda_7a5ef57ff966f610505f1d28a3d40618>@@AEAV<lambda_b721fa326cdb32351d23dfa67958c160>@@$$QEAV<lambda_5e0fb27672408a07956fe59e48ccb2aa>@@@Z@4HA 000000018003212c f   libucrt:setvbuf.obj
 0001:00031147       raise$fin$0                0000000180032147 f   libucrt:signal.obj
 0001:0003116b       __acrt_uninitialize_locale$fin$0 000000018003216b f   libucrt:wsetlocale.obj
 0001:0003116b       __acrt_update_thread_locale_data$fin$0 000000018003216b f   libucrt:locale_refcounting.obj
 0001:00031184       __acrt_update_thread_multibyte_data$fin$0 0000000180032184 f   libucrt:mbctype.obj
 0001:0003119d       __acrt_lowio_ensure_fh_exists$fin$0 000000018003219d f   libucrt:osfinfo.obj
 0001:0003119d       __acrt_initialize_lowio$fin$0 000000018003219d f   libucrt:ioinit.obj
 0001:000311b6       _fcloseall$fin$0           00000001800321b6 f   libucrt:closeall.obj
 0001:000311cf       ?fin$0@?0???$?RV<lambda_bfedae4ebbf01fab1bb6dcc6a9e276e0>@@AEAV<lambda_2fe9b910cf3cbf4a0ab98a02ba45b3ec>@@V<lambda_237c231691f317818eb88cc1d5d642d6>@@@?$__crt_seh_guarded_call@H@@QEAAH$$QEAV<lambda_bfedae4ebbf01fab1bb6dcc6a9e276e0>@@AEAV<lambda_2fe9b910cf3cbf4a0ab98a02ba45b3ec>@@$$QEAV<lambda_237c231691f317818eb88cc1d5d642d6>@@@Z@4HA 00000001800321cf f   libucrt:close.obj
 0001:000311cf       ?fin$0@?0???$?RV<lambda_b521505b218e5242e90febf6bfebc422>@@AEAV<lambda_6978c1fb23f02e42e1d9e99668cc68aa>@@V<lambda_314360699dd331753a4119843814e9a7>@@@?$__crt_seh_guarded_call@H@@QEAAH$$QEAV<lambda_b521505b218e5242e90febf6bfebc422>@@AEAV<lambda_6978c1fb23f02e42e1d9e99668cc68aa>@@$$QEAV<lambda_314360699dd331753a4119843814e9a7>@@@Z@4HA 00000001800321cf f   libucrt:commit.obj
 0001:000311e9       ?fin$0@?0???$common_lseek@_J@@YA_JH_JH@Z@4HA 00000001800321e9 f   libucrt:lseek.obj
 0001:000311e9       _write$fin$0               00000001800321e9 f   libucrt:write.obj
 0001:00031200       common_control87$filt$0    0000000180032200 f   libucrt:ieee.obj
 0001:00031200       _ctrlfp$filt$0             0000000180032200 f   libucrt:fpctrl.obj
 0001:00031230       _IsNonwritableInCurrentImage$filt$0 0000000180032230 f   LIBCMT:pesect.obj
 0002:000002b8       ?__scrt_initialize_tss_var@@3P6AHXZEA 00000001800332b8     LIBCMT:thread_safe_statics.obj
 0002:00000490       GS_ExceptionPointers       0000000180033490     LIBCMT:gs_report.obj
 0002:00000500       ?ExceptionTemplate@?1??_CxxThrowException@@9@4UEHExceptionRecord@@B 0000000180033500     libvcruntime:throw.obj
 0002:00000540       ?module_names@?A0x679b24ab@@3QBQEB_WB 0000000180033540     libvcruntime:winapi_downlevel.obj
 0002:00000610       ?candidate_modules@?1??try_get_FlsAlloc@@YAP6AKP6AXPEAX@Z@ZXZ@4QBW4module_id@?A0x679b24ab@@B 0000000180033610     libvcruntime:winapi_downlevel.obj
 0002:00000628       ?candidate_modules@?1??try_get_FlsFree@@YAP6AHK@ZXZ@4QBW4module_id@?A0x679b24ab@@B 0000000180033628     libvcruntime:winapi_downlevel.obj
 0002:00000638       ?candidate_modules@?1??try_get_FlsGetValue@@YAP6APEAXK@ZXZ@4QBW4module_id@?A0x679b24ab@@B 0000000180033638     libvcruntime:winapi_downlevel.obj
 0002:00000650       ?candidate_modules@?1??try_get_FlsSetValue@@YAP6AHKPEAX@ZXZ@4QBW4module_id@?A0x679b24ab@@B 0000000180033650     libvcruntime:winapi_downlevel.obj
 0002:00000668       ?candidate_modules@?1??try_get_InitializeCriticalSectionEx@@YAP6AHPEAU_RTL_CRITICAL_SECTION@@KK@ZXZ@4QBW4module_id@?A0x679b24ab@@B 0000000180033668     libvcruntime:winapi_downlevel.obj
 0002:00000690       ?ExceptionTemplate@?1??_UnwindNestedFrames@@9@4U_EXCEPTION_RECORD@@B 0000000180033690     libvcruntime:trnsctrl.obj
 0002:00000730       ?tokenTable@@3QBQEBDB      0000000180033730     libvcruntime:undname.obj
 0002:000007a0       ?nameTable@@3QBQEBDB       00000001800337a0     libvcruntime:undname.obj
 0002:00000a28       ?rttiTable@@3QBQEBDB       0000000180033a28     libvcruntime:undname.obj
 0002:00001490       __acrt_initializers        0000000180034490     libucrt:initialization.obj
 0002:00001600       errtable                   0000000180034600     libucrt:errno.obj
 0002:00001df0       module_names               0000000180034df0     libucrt:winapi_thunks.obj
 0002:00002320       ?candidate_modules@?1??try_get_FlsAlloc@@YAP6AKP6AXPEAX@Z@ZXZ@4QBW4module_id@?A0x63058377@@B 0000000180035320     libucrt:winapi_thunks.obj
 0002:00002328       ?candidate_modules@?1??try_get_FlsFree@@YAP6AHK@ZXZ@4QBW4module_id@?A0x63058377@@B 0000000180035328     libucrt:winapi_thunks.obj
 0002:00002330       ?candidate_modules@?1??try_get_FlsGetValue@@YAP6APEAXK@ZXZ@4QBW4module_id@?A0x63058377@@B 0000000180035330     libucrt:winapi_thunks.obj
 0002:00002338       ?candidate_modules@?1??try_get_FlsSetValue@@YAP6AHKPEAX@ZXZ@4QBW4module_id@?A0x63058377@@B 0000000180035338     libucrt:winapi_thunks.obj
 0002:00002340       ?candidate_modules@?1??try_get_GetActiveWindow@@YAP6APEAUHWND__@@XZXZ@4QBW4module_id@?A0x63058377@@B 0000000180035340     libucrt:winapi_thunks.obj
 0002:00002358       ?candidate_modules@?1??try_get_GetCurrentPackageId@@YAP6AJPEAIPEAE@ZXZ@4QBW4module_id@?A0x63058377@@B 0000000180035358     libucrt:winapi_thunks.obj
 0002:00002378       ?candidate_modules@?1??try_get_GetLastActivePopup@@YAP6APEAUHWND__@@PEAU2@@ZXZ@4QBW4module_id@?A0x63058377@@B 0000000180035378     libucrt:winapi_thunks.obj
 0002:00002398       ?candidate_modules@?1??try_get_GetProcessWindowStation@@YAP6APEAUHWINSTA__@@XZXZ@4QBW4module_id@?A0x63058377@@B 0000000180035398     libucrt:winapi_thunks.obj
 0002:000023b8       ?candidate_modules@?1??try_get_GetUserObjectInformationW@@YAP6AHPEAXH0KPEAK@ZXZ@4QBW4module_id@?A0x63058377@@B 00000001800353b8     libucrt:winapi_thunks.obj
 0002:000023e0       ?candidate_modules@?1??try_get_InitializeCriticalSectionEx@@YAP6AHPEAU_RTL_CRITICAL_SECTION@@KK@ZXZ@4QBW4module_id@?A0x63058377@@B 00000001800353e0     libucrt:winapi_thunks.obj
 0002:000023e8       ?candidate_modules@?1??try_get_LCMapStringEx@@YAP6AHPEB_WK0HPEA_WHPEAU_nlsversioninfo@@PEAX_J@ZXZ@4QBW4module_id@?A0x63058377@@B 00000001800353e8     libucrt:winapi_thunks.obj
 0002:00002400       ?candidate_modules@?1??try_get_LocaleNameToLCID@@YAP6AKPEB_WK@ZXZ@4QBW4module_id@?A0x63058377@@B 0000000180035400     libucrt:winapi_thunks.obj
 0002:00002420       ?candidate_modules@?1??try_get_MessageBoxA@@YAP6AHPEAUHWND__@@PEBD1I@ZXZ@4QBW4module_id@?A0x63058377@@B 0000000180035420     libucrt:winapi_thunks.obj
 0002:00002438       ?candidate_modules@?1??try_get_MessageBoxW@@YAP6AHPEAUHWND__@@PEB_W1I@ZXZ@4QBW4module_id@?A0x63058377@@B 0000000180035438     libucrt:winapi_thunks.obj
 0002:00002450       _mb_locale_names           0000000180035450     libucrt:mbctype.obj
 0002:00002d20       LcidToLocaleNameTable      0000000180035d20     libucrt:lcidtoname_downlevel.obj
 0002:00004780       LocaleNameToIndexTable     0000000180037780     libucrt:lcidtoname_downlevel.obj
 0002:00006a10       __real_ninf                0000000180039a10     libucrt:log10.obj
 0002:00006a20       __real_inf                 0000000180039a20     libucrt:log10.obj
 0002:00006a30       __real_neg_qnan            0000000180039a30     libucrt:log10.obj
 0002:00006a40       __real_qnanbit             0000000180039a40     libucrt:log10.obj
 0002:00006a50       __int_1023                 0000000180039a50     libucrt:log10.obj
 0002:00006a60       __mask_001                 0000000180039a60     libucrt:log10.obj
 0002:00006a70       __mask_mant                0000000180039a70     libucrt:log10.obj
 0002:00006a80       __mask_mant_top8           0000000180039a80     libucrt:log10.obj
 0002:00006a90       __mask_mant9               0000000180039a90     libucrt:log10.obj
 0002:00006aa0       __real_log10_e             0000000180039aa0     libucrt:log10.obj
 0002:00006ab0       __real_log10_e_lead        0000000180039ab0     libucrt:log10.obj
 0002:00006ac0       __real_log10_e_tail        0000000180039ac0     libucrt:log10.obj
 0002:00006ad0       __real_log10_2_lead        0000000180039ad0     libucrt:log10.obj
 0002:00006ae0       __real_log10_2_tail        0000000180039ae0     libucrt:log10.obj
 0002:00006af0       __real_two                 0000000180039af0     libucrt:log10.obj
 0002:00006b00       __real_one                 0000000180039b00     libucrt:log10.obj
 0002:00006b10       __real_half                0000000180039b10     libucrt:log10.obj
 0002:00006b20       __mask_100                 0000000180039b20     libucrt:log10.obj
 0002:00006b30       __real_1_over_512          0000000180039b30     libucrt:log10.obj
 0002:00006b40       __real_1_over_2            0000000180039b40     libucrt:log10.obj
 0002:00006b50       __real_1_over_3            0000000180039b50     libucrt:log10.obj
 0002:00006b60       __real_1_over_4            0000000180039b60     libucrt:log10.obj
 0002:00006b70       __real_1_over_5            0000000180039b70     libucrt:log10.obj
 0002:00006b80       __real_1_over_6            0000000180039b80     libucrt:log10.obj
 0002:00006b90       __real_neg_1023            0000000180039b90     libucrt:log10.obj
 0002:00006ba0       __mask_2045                0000000180039ba0     libucrt:log10.obj
 0002:00006bb0       __real_threshold           0000000180039bb0     libucrt:log10.obj
 0002:00006bc0       __real_near_one_lt         0000000180039bc0     libucrt:log10.obj
 0002:00006bd0       __real_near_one_gt         0000000180039bd0     libucrt:log10.obj
 0002:00006be0       __real_min_norm            0000000180039be0     libucrt:log10.obj
 0002:00006bf0       __real_notsign             0000000180039bf0     libucrt:log10.obj
 0002:00006c00       __real_ca1                 0000000180039c00     libucrt:log10.obj
 0002:00006c10       __real_ca2                 0000000180039c10     libucrt:log10.obj
 0002:00006c20       __real_ca3                 0000000180039c20     libucrt:log10.obj
 0002:00006c30       __real_ca4                 0000000180039c30     libucrt:log10.obj
 0002:00006c40       __mask_lower               0000000180039c40     libucrt:log10.obj
 0002:00006c50       __flag_x_zero              0000000180039c50     libucrt:log10.obj
 0002:00006c54       __flag_x_neg               0000000180039c54     libucrt:log10.obj
 0002:00006c58       __flag_x_nan               0000000180039c58     libucrt:log10.obj
 0002:000084b0       __real@433fffffffffffff    000000018003b4b0     libucrt:fpsr.obj
 0002:000084b8       __real@c33fffffffffffff    000000018003b4b8     libucrt:fpsr.obj
 0002:00009aa0       $cppxdata$?InitModule@@YAXV?$Local@VObject@v8@@@v8@@@Z 000000018003caa0     main.obj
 0002:00009bd8       $cppxdata$?_Destroy@?$_Ref_count@V?$ScopedSSL@Uevp_pkey_st@@$1?ScopedEVP_PKEY_free@@YAXPEAX@Z@@@std@@EEAAXXZ 000000018003cbd8     key_exp.obj
 0002:00009c00       $cppxdata$??1?$ScopedSSL@Ubio_st@@$1?ScopedBIO_free@@YAXPEAX@Z@@QEAA@XZ 000000018003cc00     key_exp.obj
 0002:00009c00       $cppxdata$??1?$ScopedSSL@Ubignum_st@@$1?ScopedBIGNUM_free@@YAXPEAX@Z@@QEAA@XZ 000000018003cc00     rsa_gen.obj
 0002:00009c00       $cppxdata$??1?$ScopedSSL@Uec_key_st@@$1?ScopedEC_KEY_free@@YAXPEAX@Z@@QEAA@XZ 000000018003cc00     ec_gen.obj
 0002:00009c00       $cppxdata$??1?$ScopedSSL@UECDSA_SIG_st@@$1?ScopedECDSA_SIG_free@@YAXPEAX@Z@@QEAA@XZ 000000018003cc00     ec_dsa.obj
 0002:00009c00       $cppxdata$??1?$ScopedSSL@Uevp_cipher_ctx_st@@$1?ScopedEVP_CIPHER_CTX_free@@YAXPEAX@Z@@QEAA@XZ 000000018003cc00     aes_ecb.obj
 0002:00009c00       $cppxdata$??1?$ScopedSSL@Uevp_pkey_st@@$1?ScopedEVP_PKEY_free@@YAXPEAX@Z@@QEAA@XZ 000000018003cc00     key_exp.obj
 0002:00009c00       $cppxdata$??1?$ScopedSSL@Ubignum_ctx@@$1?ScopedBN_CTX_free@@YAXPEAX@Z@@QEAA@XZ 000000018003cc00     ec_jwk.obj
 0002:00009c00       $cppxdata$??1?$ScopedSSL@Uec_group_st@@$1?ScopedEC_GROUP_free@@YAXPEAX@Z@@QEAA@XZ 000000018003cc00     ec_jwk.obj
 0002:00009c00       $cppxdata$??1?$ScopedSSL@Uevp_pkey_ctx_st@@$1?ScopedEVP_PKEY_CTX_free@@YAXPEAX@Z@@QEAA@XZ 000000018003cc00     rsa_oaep.obj
 0002:00009c00       $cppxdata$??1?$ScopedSSL@Ursa_st@@$1?ScopedRSA_free@@YAXPEAX@Z@@QEAA@XZ 000000018003cc00     w_key.obj
 0002:00009c00       $cppxdata$??1?$ScopedSSL@Uenv_md_ctx_st@@$1?ScopedEVP_MD_CTX_free@@YAXPEAX@Z@@QEAA@XZ 000000018003cc00     rsa_pkcs1.obj
 0002:00009c28       $cppxdata$?KEY_import_pkcs8@@YA?AV?$shared_ptr@V?$ScopedSSL@Uevp_pkey_st@@$1?ScopedEVP_PKEY_free@@YAXPEAX@Z@@@std@@V?$shared_ptr@V?$basic_string@DU?$char_traits@D@std@@V?$allocator@D@2@@std@@@2@@Z 000000018003cc28     key_exp.obj
 0002:00009c50       $cppxdata$?KEY_import_spki@@YA?AV?$shared_ptr@V?$ScopedSSL@Uevp_pkey_st@@$1?ScopedEVP_PKEY_free@@YAXPEAX@Z@@@std@@V?$shared_ptr@V?$basic_string@DU?$char_traits@D@std@@V?$allocator@D@2@@std@@@2@@Z 000000018003cc50     key_exp.obj
 0002:00009c78       $cppxdata$?KEY_import@@YA?AV?$shared_ptr@V?$ScopedSSL@Uevp_pkey_st@@$1?ScopedEVP_PKEY_free@@YAXPEAX@Z@@@std@@PEAUbio_st@@P6APEAUevp_pkey_st@@0PEAPEAU4@@Z@Z 000000018003cc78     key_exp.obj
 0002:00009ca0       $cppxdata$?KEY_export@@YA?AV?$shared_ptr@V?$basic_string@DU?$char_traits@D@std@@V?$allocator@D@2@@std@@@std@@PEAUevp_pkey_st@@P6AHPEAUbio_st@@0@Z@Z 000000018003cca0     key_exp.obj
 0002:00009cc8       $cppxdata$?OPENSSL_get_errors@@YA?AV?$basic_string@DU?$char_traits@D@std@@V?$allocator@D@2@@std@@XZ 000000018003ccc8     excep.obj
 0002:00009cf0       $cppxdata$?digest@@YA?AV?$shared_ptr@V?$basic_string@DU?$char_traits@D@std@@V?$allocator@D@2@@std@@@std@@PEBUenv_md_st@@V12@@Z 000000018003ccf0     digest.obj
 0002:00009d18       $cppxdata$?RSA_generate@@YA?AV?$shared_ptr@V?$ScopedSSL@Uevp_pkey_st@@$1?ScopedEVP_PKEY_free@@YAXPEAX@Z@@@std@@HH@Z 000000018003cd18     rsa_gen.obj
 0002:00009d40       $cppxdata$??1JwkRsa@@QEAA@XZ 000000018003cd40     rsa_jwk.obj
 0002:00009d68       $cppxdata$?To@JwkRsa@@QEAA?AV?$shared_ptr@V?$ScopedSSL@Uevp_pkey_st@@$1?ScopedEVP_PKEY_free@@YAXPEAX@Z@@@std@@AEAH@Z 000000018003cd68     rsa_jwk.obj
 0002:00009d90       $cppxdata$?From@JwkRsa@@SA?AV?$shared_ptr@VJwkRsa@@@std@@V?$shared_ptr@V?$ScopedSSL@Uevp_pkey_st@@$1?ScopedEVP_PKEY_free@@YAXPEAX@Z@@@3@AEAH@Z 000000018003cd90     rsa_jwk.obj
 0002:00009db8       $cppxdata$?RSA_PKCS1_verify@@YA_NV?$shared_ptr@V?$ScopedSSL@Uevp_pkey_st@@$1?ScopedEVP_PKEY_free@@YAXPEAX@Z@@@std@@PEBUenv_md_st@@V?$shared_ptr@V?$basic_string@DU?$char_traits@D@std@@V?$allocator@D@2@@std@@@2@2@Z 000000018003cdb8     rsa_pkcs1.obj
 0002:00009de0       $cppxdata$?RSA_PKCS1_sign@@YA?AV?$shared_ptr@V?$basic_string@DU?$char_traits@D@std@@V?$allocator@D@2@@std@@@std@@V?$shared_ptr@V?$ScopedSSL@Uevp_pkey_st@@$1?ScopedEVP_PKEY_free@@YAXPEAX@Z@@@2@PEBUenv_md_st@@V12@@Z 000000018003cde0     rsa_pkcs1.obj
 0002:00009e08       $cppxdata$?RSA_OAEP_enc_dec@@YA?AV?$shared_ptr@V?$basic_string@DU?$char_traits@D@std@@V?$allocator@D@2@@std@@@std@@V?$shared_ptr@V?$ScopedSSL@Uevp_pkey_st@@$1?ScopedEVP_PKEY_free@@YAXPEAX@Z@@@2@PEBUenv_md_st@@V12@2_N@Z 000000018003ce08     rsa_oaep.obj
 0002:00009e30       $cppxdata$?RSA_PSS_verify@@YA_NV?$shared_ptr@V?$ScopedSSL@Uevp_pkey_st@@$1?ScopedEVP_PKEY_free@@YAXPEAX@Z@@@std@@PEBUenv_md_st@@HV?$shared_ptr@V?$basic_string@DU?$char_traits@D@std@@V?$allocator@D@2@@std@@@2@2@Z 000000018003ce30     rsa_pss.obj
 0002:00009e58       $cppxdata$?RSA_PSS_sign@@YA?AV?$shared_ptr@V?$basic_string@DU?$char_traits@D@std@@V?$allocator@D@2@@std@@@std@@V?$shared_ptr@V?$ScopedSSL@Uevp_pkey_st@@$1?ScopedEVP_PKEY_free@@YAXPEAX@Z@@@2@PEBUenv_md_st@@HV12@@Z 000000018003ce58     rsa_pss.obj
 0002:00009e80       $cppxdata$?setRsaPssParams@@YAXPEBUenv_md_st@@HPEAUevp_pkey_ctx_st@@@Z 000000018003ce80     rsa_pss.obj
 0002:00009ea8       $cppxdata$?EC_generate@@YA?AV?$shared_ptr@V?$ScopedSSL@Uevp_pkey_st@@$1?ScopedEVP_PKEY_free@@YAXPEAX@Z@@@std@@AEAH@Z 000000018003cea8     ec_gen.obj
 0002:00009ed0       $cppxdata$?EC_DSA_verify@@YA_NV?$shared_ptr@V?$ScopedSSL@Uevp_pkey_st@@$1?ScopedEVP_PKEY_free@@YAXPEAX@Z@@@std@@PEBUenv_md_st@@V?$shared_ptr@V?$basic_string@DU?$char_traits@D@std@@V?$allocator@D@2@@std@@@2@2@Z 000000018003ced0     ec_dsa.obj
 0002:00009ef8       $cppxdata$?EC_DSA_sign@@YA?AV?$shared_ptr@V?$basic_string@DU?$char_traits@D@std@@V?$allocator@D@2@@std@@@std@@V?$shared_ptr@V?$ScopedSSL@Uevp_pkey_st@@$1?ScopedEVP_PKEY_free@@YAXPEAX@Z@@@2@PEBUenv_md_st@@V12@@Z 000000018003cef8     ec_dsa.obj
 0002:00009f20       $cppxdata$?ConvertDerSignatureToWebCryptoSignature@@YA?AV?$shared_ptr@V?$basic_string@DU?$char_traits@D@std@@V?$allocator@D@2@@std@@@std@@PEAUevp_pkey_st@@PEBEAEA_K@Z 000000018003cf20     ec_dsa.obj
 0002:00009f48       $cppxdata$?ConvertWebCryptoSignatureToDerSignature@@YA?AV?$shared_ptr@V?$basic_string@DU?$char_traits@D@std@@V?$allocator@D@2@@std@@@std@@PEAUevp_pkey_st@@PEBEAEB_KPEA_N@Z 000000018003cf48     ec_dsa.obj
 0002:00009f70       $cppxdata$?GetEcGroupOrderSize@@YA_KPEAUevp_pkey_st@@@Z 000000018003cf70     ec_dsa.obj
 0002:00009f98       $cppxdata$?ECDH_derive_bits@@YA?AV?$shared_ptr@V?$basic_string@DU?$char_traits@D@std@@V?$allocator@D@2@@std@@@std@@V?$shared_ptr@V?$ScopedSSL@Uevp_pkey_st@@$1?ScopedEVP_PKEY_free@@YAXPEAX@Z@@@2@0_NI@Z 000000018003cf98     ec_dh.obj
 0002:00009fc0       $cppxdata$?EC_get_named_curve@@YAHPEAUec_key_st@@@Z 000000018003cfc0     ec_dh.obj
 0002:00009fe8       $cppxdata$?ECDH_derive_key@@YA?AV?$shared_ptr@V?$basic_string@DU?$char_traits@D@std@@V?$allocator@D@2@@std@@@std@@V?$shared_ptr@V?$ScopedSSL@Uevp_pkey_st@@$1?ScopedEVP_PKEY_free@@YAXPEAX@Z@@@2@0AEA_K@Z 000000018003cfe8     ec_dh.obj
 0002:0000a010       $cppxdata$?_Destroy@?$_Ref_count@VJwkEc@@@std@@EEAAXXZ 000000018003d010     ec_jwk.obj
 0002:0000a038       $cppxdata$?To@JwkEc@@QEAA?AV?$shared_ptr@V?$ScopedSSL@Uevp_pkey_st@@$1?ScopedEVP_PKEY_free@@YAXPEAX@Z@@@std@@AEAH@Z 000000018003d038     ec_jwk.obj
 0002:0000a060       $cppxdata$?From@JwkEc@@SA?AV?$shared_ptr@VJwkEc@@@std@@V?$shared_ptr@V?$ScopedSSL@Uevp_pkey_st@@$1?ScopedEVP_PKEY_free@@YAXPEAX@Z@@@3@AEAH@Z 000000018003d060     ec_jwk.obj
 0002:0000a088       $cppxdata$??_GScopedHMAC@@QEAAPEAXI@Z 000000018003d088     hmac_gen.obj
 0002:0000a088       $cppxdata$??_GScopedAES@@QEAAPEAXI@Z 000000018003d088     aes_gen.obj
 0002:0000a088       $cppxdata$??_GScopedPbkdf2@@QEAAPEAXI@Z 000000018003d088     async_pbkdf2.obj
 0002:0000a0b0       $cppxdata$?generate@ScopedAES@@SA?AV?$shared_ptr@VScopedAES@@@std@@AEAH@Z 000000018003d0b0     aes_gen.obj
 0002:0000a0d8       $cppxdata$?decryptEcb@ScopedAES@@QEAA?AV?$shared_ptr@V?$basic_string@DU?$char_traits@D@std@@V?$allocator@D@2@@std@@@std@@V23@@Z 000000018003d0d8     aes_ecb.obj
 0002:0000a100       $cppxdata$?encryptEcb@ScopedAES@@QEAA?AV?$shared_ptr@V?$basic_string@DU?$char_traits@D@std@@V?$allocator@D@2@@std@@@std@@V23@@Z 000000018003d100     aes_ecb.obj
 0002:0000a128       $cppxdata$?AES_ECB_encrypt@@YA?AV?$shared_ptr@V?$basic_string@DU?$char_traits@D@std@@V?$allocator@D@2@@std@@@std@@V12@0_N@Z 000000018003d128     aes_ecb.obj
 0002:0000a150       $cppxdata$?unwrap@ScopedAES@@QEAA?AV?$shared_ptr@V?$basic_string@DU?$char_traits@D@std@@V?$allocator@D@2@@std@@@std@@V23@@Z 000000018003d150     aes_cbc.obj
 0002:0000a178       $cppxdata$?wrap@ScopedAES@@QEAA?AV?$shared_ptr@V?$basic_string@DU?$char_traits@D@std@@V?$allocator@D@2@@std@@@std@@V23@@Z 000000018003d178     aes_cbc.obj
 0002:0000a1a0       $cppxdata$?decryptCbc@ScopedAES@@QEAA?AV?$shared_ptr@V?$basic_string@DU?$char_traits@D@std@@V?$allocator@D@2@@std@@@std@@V23@0@Z 000000018003d1a0     aes_cbc.obj
 0002:0000a1c8       $cppxdata$?encryptCbc@ScopedAES@@QEAA?AV?$shared_ptr@V?$basic_string@DU?$char_traits@D@std@@V?$allocator@D@2@@std@@@std@@V23@0@Z 000000018003d1c8     aes_cbc.obj
 0002:0000a1f0       $cppxdata$?AES_CBC_encrypt@@YA?AV?$shared_ptr@V?$basic_string@DU?$char_traits@D@std@@V?$allocator@D@2@@std@@@std@@V12@00_N@Z 000000018003d1f0     aes_cbc.obj
 0002:0000a218       $cppxdata$?decryptGcm@ScopedAES@@QEAA?AV?$shared_ptr@V?$basic_string@DU?$char_traits@D@std@@V?$allocator@D@2@@std@@@std@@V23@00H@Z 000000018003d218     aes_gcm.obj
 0002:0000a240       $cppxdata$?encryptGcm@ScopedAES@@QEAA?AV?$shared_ptr@V?$basic_string@DU?$char_traits@D@std@@V?$allocator@D@2@@std@@@std@@V23@00H@Z 000000018003d240     aes_gcm.obj
 0002:0000a268       $cppxdata$?AES_GCM_decrypt@@YA?AV?$shared_ptr@V?$basic_string@DU?$char_traits@D@std@@V?$allocator@D@2@@std@@@std@@V12@000H@Z 000000018003d268     aes_gcm.obj
 0002:0000a290       $cppxdata$?AES_GCM_encrypt@@YA?AV?$shared_ptr@V?$basic_string@DU?$char_traits@D@std@@V?$allocator@D@2@@std@@@std@@V12@000H@Z 000000018003d290     aes_gcm.obj
 0002:0000a2b8       $cppxdata$?encryptCtr@ScopedAES@@QEAA?AV?$shared_ptr@V?$basic_string@DU?$char_traits@D@std@@V?$allocator@D@2@@std@@@std@@V23@0H@Z 000000018003d2b8     aes_ctr.obj
 0002:0000a2b8       $cppxdata$?decryptCtr@ScopedAES@@QEAA?AV?$shared_ptr@V?$basic_string@DU?$char_traits@D@std@@V?$allocator@D@2@@std@@@std@@V23@0H@Z 000000018003d2b8     aes_ctr.obj
 0002:0000a2e0       $cppxdata$?AES_CTR_encrypt@@YA?AV?$shared_ptr@V?$basic_string@DU?$char_traits@D@std@@V?$allocator@D@2@@std@@@std@@V12@00H_N@Z 000000018003d2e0     aes_ctr.obj
 0002:0000a308       $cppxdata$?generate@ScopedHMAC@@SA?AV?$shared_ptr@VScopedHMAC@@@std@@AEAH@Z 000000018003d308     hmac_gen.obj
 0002:0000a330       $cppxdata$?verify@ScopedHMAC@@QEAA_NV?$shared_ptr@V?$basic_string@DU?$char_traits@D@std@@V?$allocator@D@2@@std@@@std@@PEBUenv_md_st@@0@Z 000000018003d330     hmac_sign.obj
 0002:0000a358       $cppxdata$?sign@ScopedHMAC@@QEAA?AV?$shared_ptr@V?$basic_string@DU?$char_traits@D@std@@V?$allocator@D@2@@std@@@std@@V23@PEBUenv_md_st@@@Z 000000018003d358     hmac_sign.obj
 0002:0000a380       $cppxdata$?deriveBits@ScopedPbkdf2@@QEAA?AV?$shared_ptr@V?$basic_string@DU?$char_traits@D@std@@V?$allocator@D@2@@std@@@std@@V23@_KPEBUenv_md_st@@1@Z 000000018003d380     pbkdf2_derive.obj
 0002:0000a3a8       $cppxdata$?bn2buf@@YA?AV?$Local@VObject@v8@@@v8@@PEAUbignum_st@@@Z 000000018003d3a8     common.obj
 0002:0000a3d0       $cppxdata$?String_to_v8Buffer@@YA?AV?$Local@VObject@v8@@@v8@@V?$shared_ptr@V?$basic_string@DU?$char_traits@D@std@@V?$allocator@D@2@@std@@@std@@@Z 000000018003d3d0     common.obj
 0002:0000a3f8       $cppxdata$?v8Buffer_to_String@@YA?AV?$shared_ptr@V?$basic_string@DU?$char_traits@D@std@@V?$allocator@D@2@@std@@@std@@V?$Local@VObject@v8@@@v8@@@Z 000000018003d3f8     common.obj
 0002:0000a420       $cppxdata$?EcdhDeriveBits@WKey@@SAXAEBV?$FunctionCallbackInfo@VValue@v8@@@Nan@@@Z 000000018003d420     w_key.obj
 0002:0000a448       $cppxdata$?EcdhDeriveKey@WKey@@SAXAEBV?$FunctionCallbackInfo@VValue@v8@@@Nan@@@Z 000000018003d448     w_key.obj
 0002:0000a470       $cppxdata$?RsaPssVerify@WKey@@SAXAEBV?$FunctionCallbackInfo@VValue@v8@@@Nan@@@Z 000000018003d470     w_key.obj
 0002:0000a498       $cppxdata$?RsaPssSign@WKey@@SAXAEBV?$FunctionCallbackInfo@VValue@v8@@@Nan@@@Z 000000018003d498     w_key.obj
 0002:0000a4c0       $cppxdata$?RsaOaepEncDec@WKey@@SAXAEBV?$FunctionCallbackInfo@VValue@v8@@@Nan@@@Z 000000018003d4c0     w_key.obj
 0002:0000a4e8       $cppxdata$?Verify@WKey@@SAXAEBV?$FunctionCallbackInfo@VValue@v8@@@Nan@@@Z 000000018003d4e8     w_key.obj
 0002:0000a510       $cppxdata$?Sign@WKey@@SAXAEBV?$FunctionCallbackInfo@VValue@v8@@@Nan@@@Z 000000018003d510     w_key.obj
 0002:0000a538       $cppxdata$?ImportJwk@WKey@@SAXAEBV?$FunctionCallbackInfo@VValue@v8@@@Nan@@@Z 000000018003d538     w_key.obj
 0002:0000a560       $cppxdata$?ImportSpki@WKey@@SAXAEBV?$FunctionCallbackInfo@VValue@v8@@@Nan@@@Z 000000018003d560     w_key.obj
 0002:0000a588       $cppxdata$?ImportPkcs8@WKey@@SAXAEBV?$FunctionCallbackInfo@VValue@v8@@@Nan@@@Z 000000018003d588     w_key.obj
 0002:0000a5b0       $cppxdata$?ExportPkcs8@WKey@@SAXAEBV?$FunctionCallbackInfo@VValue@v8@@@Nan@@@Z 000000018003d5b0     w_key.obj
 0002:0000a5d8       $cppxdata$?ExportSpki@WKey@@SAXAEBV?$FunctionCallbackInfo@VValue@v8@@@Nan@@@Z 000000018003d5d8     w_key.obj
 0002:0000a600       $cppxdata$?ExportJwk@WKey@@SAXAEBV?$FunctionCallbackInfo@VValue@v8@@@Nan@@@Z 000000018003d600     w_key.obj
 0002:0000a628       $cppxdata$?GenerateEc@WKey@@SAXAEBV?$FunctionCallbackInfo@VValue@v8@@@Nan@@@Z 000000018003d628     w_key.obj
 0002:0000a650       $cppxdata$?GenerateRsa@WKey@@SAXAEBV?$FunctionCallbackInfo@VValue@v8@@@Nan@@@Z 000000018003d650     w_key.obj
 0002:0000a678       $cppxdata$?PublicExponent@WKey@@SAXAEBV?$FunctionCallbackInfo@VValue@v8@@@Nan@@@Z 000000018003d678     w_key.obj
 0002:0000a6a0       $cppxdata$?ModulusLength@WKey@@SAXAEBV?$FunctionCallbackInfo@VValue@v8@@@Nan@@@Z 000000018003d6a0     w_key.obj
 0002:0000a6c8       $cppxdata$??_GWHmac@@UEAAPEAXI@Z 000000018003d6c8     w_hmac.obj
 0002:0000a6c8       $cppxdata$??_GWAes@@UEAAPEAXI@Z 000000018003d6c8     w_aes.obj
 0002:0000a6c8       $cppxdata$??_GWPbkdf2@@UEAAPEAXI@Z 000000018003d6c8     w_pbkdf2.obj
 0002:0000a6c8       $cppxdata$??_GWKey@@UEAAPEAXI@Z 000000018003d6c8     w_key.obj
 0002:0000a6f0       $cppxdata$??1AsyncEcdhDeriveBits@@UEAA@XZ 000000018003d6f0     w_key.obj
 0002:0000a718       $cppxdata$??0AsyncEcdhDeriveBits@@QEAA@PEAVCallback@Nan@@V?$shared_ptr@V?$ScopedSSL@Uevp_pkey_st@@$1?ScopedEVP_PKEY_free@@YAXPEAX@Z@@@std@@1_K@Z 000000018003d718     w_key.obj
 0002:0000a740       $cppxdata$??1AsyncEcdsaVerify@@UEAA@XZ 000000018003d740     w_key.obj
 0002:0000a768       $cppxdata$??0AsyncEcdsaVerify@@QEAA@PEAVCallback@Nan@@PEBUenv_md_st@@V?$shared_ptr@V?$ScopedSSL@Uevp_pkey_st@@$1?ScopedEVP_PKEY_free@@YAXPEAX@Z@@@std@@V?$shared_ptr@V?$basic_string@DU?$char_traits@D@std@@V?$allocator@D@2@@std@@@5@3@Z 000000018003d768     w_key.obj
 0002:0000a790       $cppxdata$??1AsyncEcdsaSign@@UEAA@XZ 000000018003d790     w_key.obj
 0002:0000a7b8       $cppxdata$??0AsyncEcdsaSign@@QEAA@PEAVCallback@Nan@@PEBUenv_md_st@@V?$shared_ptr@V?$ScopedSSL@Uevp_pkey_st@@$1?ScopedEVP_PKEY_free@@YAXPEAX@Z@@@std@@V?$shared_ptr@V?$basic_string@DU?$char_traits@D@std@@V?$allocator@D@2@@std@@@5@@Z 000000018003d7b8     w_key.obj
 0002:0000a7e0       $cppxdata$??1AsyncEcImportJwk@@UEAA@XZ 000000018003d7e0     w_key.obj
 0002:0000a808       $cppxdata$??0AsyncEcImportJwk@@QEAA@PEAVCallback@Nan@@V?$shared_ptr@VJwkEc@@@std@@H@Z 000000018003d808     w_key.obj
 0002:0000a830       $cppxdata$??1AsyncEcExportJwk@@UEAA@XZ 000000018003d830     w_key.obj
 0002:0000a858       $cppxdata$??0AsyncEcExportJwk@@QEAA@PEAVCallback@Nan@@HV?$shared_ptr@V?$ScopedSSL@Uevp_pkey_st@@$1?ScopedEVP_PKEY_free@@YAXPEAX@Z@@@std@@@Z 000000018003d858     w_key.obj
 0002:0000a880       $cppxdata$??1AsyncEcdhDeriveKey@@UEAA@XZ 000000018003d880     w_key.obj
 0002:0000a8a8       $cppxdata$??0AsyncEcdhDeriveKey@@QEAA@PEAVCallback@Nan@@V?$shared_ptr@V?$ScopedSSL@Uevp_pkey_st@@$1?ScopedEVP_PKEY_free@@YAXPEAX@Z@@@std@@1_K@Z 000000018003d8a8     w_key.obj
 0002:0000a8d0       $cppxdata$??1AsyncEcGenerateKey@@UEAA@XZ 000000018003d8d0     w_key.obj
 0002:0000a8f8       $cppxdata$??1AsyncVerifyRsaPSS@@UEAA@XZ 000000018003d8f8     w_key.obj
 0002:0000a920       $cppxdata$??0AsyncVerifyRsaPSS@@QEAA@PEAVCallback@Nan@@PEBUenv_md_st@@V?$shared_ptr@V?$ScopedSSL@Uevp_pkey_st@@$1?ScopedEVP_PKEY_free@@YAXPEAX@Z@@@std@@HV?$shared_ptr@V?$basic_string@DU?$char_traits@D@std@@V?$allocator@D@2@@std@@@5@3@Z 000000018003d920     w_key.obj
 0002:0000a948       $cppxdata$??1AsyncSignRsaPSS@@UEAA@XZ 000000018003d948     w_key.obj
 0002:0000a970       $cppxdata$??0AsyncSignRsaPSS@@QEAA@PEAVCallback@Nan@@PEBUenv_md_st@@V?$shared_ptr@V?$ScopedSSL@Uevp_pkey_st@@$1?ScopedEVP_PKEY_free@@YAXPEAX@Z@@@std@@HV?$shared_ptr@V?$basic_string@DU?$char_traits@D@std@@V?$allocator@D@2@@std@@@5@@Z 000000018003d970     w_key.obj
 0002:0000a998       $cppxdata$??1AsyncVerifyRsa@@UEAA@XZ 000000018003d998     w_key.obj
 0002:0000a9c0       $cppxdata$??0AsyncVerifyRsa@@QEAA@PEAVCallback@Nan@@PEBUenv_md_st@@V?$shared_ptr@V?$ScopedSSL@Uevp_pkey_st@@$1?ScopedEVP_PKEY_free@@YAXPEAX@Z@@@std@@V?$shared_ptr@V?$basic_string@DU?$char_traits@D@std@@V?$allocator@D@2@@std@@@5@3@Z 000000018003d9c0     w_key.obj
 0002:0000a9e8       $cppxdata$??1AsyncSignRsa@@UEAA@XZ 000000018003d9e8     w_key.obj
 0002:0000aa10       $cppxdata$??0AsyncSignRsa@@QEAA@PEAVCallback@Nan@@PEBUenv_md_st@@V?$shared_ptr@V?$ScopedSSL@Uevp_pkey_st@@$1?ScopedEVP_PKEY_free@@YAXPEAX@Z@@@std@@V?$shared_ptr@V?$basic_string@DU?$char_traits@D@std@@V?$allocator@D@2@@std@@@5@@Z 000000018003da10     w_key.obj
 0002:0000aa38       $cppxdata$??1AsyncImportJwkRsa@@UEAA@XZ 000000018003da38     w_key.obj
 0002:0000aa60       $cppxdata$??0AsyncImportJwkRsa@@QEAA@PEAVCallback@Nan@@V?$shared_ptr@VJwkRsa@@@std@@H@Z 000000018003da60     w_key.obj
 0002:0000aa88       $cppxdata$??1AsyncImportSpki@@UEAA@XZ 000000018003da88     w_key.obj
 0002:0000aab0       $cppxdata$??0AsyncImportSpki@@QEAA@PEAVCallback@Nan@@V?$shared_ptr@V?$basic_string@DU?$char_traits@D@std@@V?$allocator@D@2@@std@@@std@@@Z 000000018003dab0     w_key.obj
 0002:0000aad8       $cppxdata$??1AsyncImportPkcs8@@UEAA@XZ 000000018003dad8     w_key.obj
 0002:0000ab00       $cppxdata$??0AsyncImportPkcs8@@QEAA@PEAVCallback@Nan@@V?$shared_ptr@V?$basic_string@DU?$char_traits@D@std@@V?$allocator@D@2@@std@@@std@@@Z 000000018003db00     w_key.obj
 0002:0000ab28       $cppxdata$??1AsyncExportPkcs8@@UEAA@XZ 000000018003db28     w_key.obj
 0002:0000ab50       $cppxdata$??0AsyncExportPkcs8@@QEAA@PEAVCallback@Nan@@V?$shared_ptr@V?$ScopedSSL@Uevp_pkey_st@@$1?ScopedEVP_PKEY_free@@YAXPEAX@Z@@@std@@@Z 000000018003db50     w_key.obj
 0002:0000ab78       $cppxdata$??1AsyncExportSpki@@UEAA@XZ 000000018003db78     w_key.obj
 0002:0000aba0       $cppxdata$??0AsyncExportSpki@@QEAA@PEAVCallback@Nan@@V?$shared_ptr@V?$ScopedSSL@Uevp_pkey_st@@$1?ScopedEVP_PKEY_free@@YAXPEAX@Z@@@std@@@Z 000000018003dba0     w_key.obj
 0002:0000abc8       $cppxdata$??1AsyncExportJwkRsa@@UEAA@XZ 000000018003dbc8     w_key.obj
 0002:0000abf0       $cppxdata$??0AsyncExportJwkRsa@@QEAA@PEAVCallback@Nan@@HV?$shared_ptr@V?$ScopedSSL@Uevp_pkey_st@@$1?ScopedEVP_PKEY_free@@YAXPEAX@Z@@@std@@@Z 000000018003dbf0     w_key.obj
 0002:0000ac18       $cppxdata$??1AsyncEncrypDecryptRsaOAEP@@UEAA@XZ 000000018003dc18     w_key.obj
 0002:0000ac40       $cppxdata$??0AsyncEncrypDecryptRsaOAEP@@QEAA@PEAVCallback@Nan@@V?$shared_ptr@V?$ScopedSSL@Uevp_pkey_st@@$1?ScopedEVP_PKEY_free@@YAXPEAX@Z@@@std@@PEBUenv_md_st@@V?$shared_ptr@V?$basic_string@DU?$char_traits@D@std@@V?$allocator@D@2@@std@@@4@3_N@Z 000000018003dc40     w_key.obj
 0002:0000ac68       $cppxdata$??1AsyncRsaGenerateKey@@UEAA@XZ 000000018003dc68     w_key.obj
 0002:0000ac90       $cppxdata$??__Fmy_constructor@?1??constructor@WKey@@KAAEAV?$Persistent@VFunction@v8@@V?$NonCopyablePersistentTraits@VFunction@v8@@@2@@Nan@@XZ@YAXXZ 000000018003dc90     w_key.obj
 0002:0000acb8       $cppxdata$?SetAccessor@Nan@@YAXV?$Local@VObjectTemplate@v8@@@v8@@V?$Local@VString@v8@@@3@P6AX1AEBV?$PropertyCallbackInfo@VValue@v8@@@1@@ZP6AX1V?$Local@VValue@v8@@@3@AEBV?$PropertyCallbackInfo@X@1@@Z4W4AccessControl@3@W4PropertyAttribute@3@V?$Local@VAccessorSignature@v8@@@3@@Z 000000018003dcb8     w_key.obj
 0002:0000ace0       $cppxdata$?SetPrototypeMethod@Nan@@YAXV?$Local@VFunctionTemplate@v8@@@v8@@PEBDP6AXAEBV?$FunctionCallbackInfo@VValue@v8@@@1@@Z@Z 000000018003dce0     w_key.obj
 0002:0000ad08       $cppxdata$??1?$Persistent@VObject@v8@@V?$NonCopyablePersistentTraits@VObject@v8@@@2@@Nan@@QEAA@XZ 000000018003dd08     w_key.obj
 0002:0000ad30       $cppxdata$?HandleErrorCallback@AsyncWorker@Nan@@MEAAXXZ 000000018003dd30     w_key.obj
 0002:0000ad58       $cppxdata$?HandleOKCallback@AsyncWorker@Nan@@MEAAXXZ 000000018003dd58     w_key.obj
 0002:0000ad80       $cppxdata$?WorkComplete@AsyncWorker@Nan@@UEAAXXZ 000000018003dd80     w_key.obj
 0002:0000ada8       $cppxdata$??1AsyncWorker@Nan@@UEAA@XZ 000000018003dda8     w_key.obj
 0002:0000add0       $cppxdata$??0AsyncWorker@Nan@@QEAA@PEAVCallback@1@PEBD@Z 000000018003ddd0     w_key.obj
 0002:0000adf8       $cppxdata$?Call_@Callback@Nan@@AEBA?AV?$Local@VValue@v8@@@v8@@PEAVIsolate@4@V?$Local@VObject@v8@@@4@HQEAV34@@Z 000000018003ddf8     w_key.obj
 0002:0000ae20       $cppxdata$?Call@Callback@Nan@@QEBA?AV?$MaybeLocal@VValue@v8@@@v8@@HQEAV?$Local@VValue@v8@@@4@PEAVAsyncResource@2@@Z 000000018003de20     w_key.obj
 0002:0000ae48       $cppxdata$?ThrowError@Nan@@YAXV?$Local@VString@v8@@@v8@@@Z 000000018003de48     w_key.obj
 0002:0000ae70       $cppxdata$?ThrowError@Nan@@YAXPEBD@Z 000000018003de70     w_key.obj
 0002:0000ae98       $cppxdata$?New@?$Factory@VFunctionTemplate@v8@@@imp@Nan@@SA?AV?$Local@VFunctionTemplate@v8@@@v8@@P6AXAEBV?$FunctionCallbackInfo@VValue@v8@@@3@@ZV?$Local@VValue@v8@@@5@V?$Local@VSignature@v8@@@5@@Z 000000018003de98     w_key.obj
 0002:0000aec0       $cppxdata$?convert@?$ToFactory@H@imp@Nan@@SA?AV?$Maybe@H@v8@@V?$Local@VValue@v8@@@5@@Z 000000018003dec0     w_key.obj
 0002:0000aee8       $cppxdata$?convert@?$ToFactory@VObject@v8@@@imp@Nan@@SA?AV?$MaybeLocal@VObject@v8@@@v8@@V?$Local@VValue@v8@@@5@@Z 000000018003dee8     w_key.obj
 0002:0000af10       $cppxdata$?CallAsFunction@Nan@@YA?AV?$MaybeLocal@VValue@v8@@@v8@@V?$Local@VObject@v8@@@3@0HQEAV?$Local@VValue@v8@@@3@@Z 000000018003df10     w_key.obj
 0002:0000af38       $cppxdata$?Get@Nan@@YA?AV?$MaybeLocal@VValue@v8@@@v8@@V?$Local@VObject@v8@@@3@V?$Local@VValue@v8@@@3@@Z 000000018003df38     w_key.obj
 0002:0000af60       $cppxdata$?Set@Nan@@YA?AV?$Maybe@_N@v8@@V?$Local@VObject@v8@@@3@V?$Local@VValue@v8@@@3@1@Z 000000018003df60     w_key.obj
 0002:0000af88       $cppxdata$?GetFunction@Nan@@YA?AV?$MaybeLocal@VFunction@v8@@@v8@@V?$Local@VFunctionTemplate@v8@@@3@@Z 000000018003df88     w_key.obj
 0002:0000afb0       $cppxdata$?NewInstance@Nan@@YA?AV?$MaybeLocal@VObject@v8@@@v8@@V?$Local@VObjectTemplate@v8@@@3@@Z 000000018003dfb0     w_key.obj
 0002:0000afd8       $cppxdata$?NewInstance@Nan@@YA?AV?$MaybeLocal@VObject@v8@@@v8@@V?$Local@VFunction@v8@@@3@HQEAV?$Local@VValue@v8@@@3@@Z 000000018003dfd8     w_key.obj
 0002:0000b000       $cppxdata$?NewInstance@Nan@@YA?AV?$MaybeLocal@VObject@v8@@@v8@@V?$Local@VFunction@v8@@@3@@Z 000000018003e000     w_key.obj
 0002:0000b028       $cppxdata$??1ObjectWrap@node@@UEAA@XZ 000000018003e028     w_key.obj
 0002:0000b050       $cppxdata$?Init@WKey@@SAXV?$Local@VObject@v8@@@v8@@@Z 000000018003e050     w_key.obj
 0002:0000b078       $cppxdata$?DecryptCtr@WAes@@SAXAEBV?$FunctionCallbackInfo@VValue@v8@@@Nan@@@Z 000000018003e078     w_aes.obj
 0002:0000b0a0       $cppxdata$?EncryptCtr@WAes@@SAXAEBV?$FunctionCallbackInfo@VValue@v8@@@Nan@@@Z 000000018003e0a0     w_aes.obj
 0002:0000b0c8       $cppxdata$?UnwrapKey@WAes@@SAXAEBV?$FunctionCallbackInfo@VValue@v8@@@Nan@@@Z 000000018003e0c8     w_aes.obj
 0002:0000b0f0       $cppxdata$?WrapKey@WAes@@SAXAEBV?$FunctionCallbackInfo@VValue@v8@@@Nan@@@Z 000000018003e0f0     w_aes.obj
 0002:0000b118       $cppxdata$?DecryptGcm@WAes@@SAXAEBV?$FunctionCallbackInfo@VValue@v8@@@Nan@@@Z 000000018003e118     w_aes.obj
 0002:0000b140       $cppxdata$?EncryptGcm@WAes@@SAXAEBV?$FunctionCallbackInfo@VValue@v8@@@Nan@@@Z 000000018003e140     w_aes.obj
 0002:0000b168       $cppxdata$?Import@WAes@@SAXAEBV?$FunctionCallbackInfo@VValue@v8@@@Nan@@@Z 000000018003e168     w_aes.obj
 0002:0000b190       $cppxdata$?Export@WAes@@SAXAEBV?$FunctionCallbackInfo@VValue@v8@@@Nan@@@Z 000000018003e190     w_aes.obj
 0002:0000b190       $cppxdata$?Export@WHmac@@SAXAEBV?$FunctionCallbackInfo@VValue@v8@@@Nan@@@Z 000000018003e190     w_hmac.obj
 0002:0000b1b8       $cppxdata$?DecryptEcb@WAes@@SAXAEBV?$FunctionCallbackInfo@VValue@v8@@@Nan@@@Z 000000018003e1b8     w_aes.obj
 0002:0000b1e0       $cppxdata$?EncryptEcb@WAes@@SAXAEBV?$FunctionCallbackInfo@VValue@v8@@@Nan@@@Z 000000018003e1e0     w_aes.obj
 0002:0000b208       $cppxdata$?Decrypt@WAes@@SAXAEBV?$FunctionCallbackInfo@VValue@v8@@@Nan@@@Z 000000018003e208     w_aes.obj
 0002:0000b230       $cppxdata$?Encrypt@WAes@@SAXAEBV?$FunctionCallbackInfo@VValue@v8@@@Nan@@@Z 000000018003e230     w_aes.obj
 0002:0000b258       $cppxdata$?Generate@WAes@@SAXAEBV?$FunctionCallbackInfo@VValue@v8@@@Nan@@@Z 000000018003e258     w_aes.obj
 0002:0000b280       $cppxdata$??__Fmy_constructor@?1??constructor@WAes@@KAAEAV?$Persistent@VFunction@v8@@V?$NonCopyablePersistentTraits@VFunction@v8@@@2@@Nan@@XZ@YAXXZ 000000018003e280     w_aes.obj
 0002:0000b2a8       $cppxdata$??1AsyncAesEncryptCTR@@UEAA@XZ 000000018003e2a8     w_aes.obj
 0002:0000b2d0       $cppxdata$??0AsyncAesEncryptCTR@@QEAA@PEAVCallback@Nan@@V?$shared_ptr@VScopedAES@@@std@@V?$shared_ptr@V?$basic_string@DU?$char_traits@D@std@@V?$allocator@D@2@@std@@@4@2H_N@Z 000000018003e2d0     w_aes.obj
 0002:0000b2f8       $cppxdata$??1AsyncAesWrapKey@@UEAA@XZ 000000018003e2f8     w_aes.obj
 0002:0000b320       $cppxdata$??0AsyncAesWrapKey@@QEAA@PEAVCallback@Nan@@V?$shared_ptr@VScopedAES@@@std@@V?$shared_ptr@V?$basic_string@DU?$char_traits@D@std@@V?$allocator@D@2@@std@@@4@_N@Z 000000018003e320     w_aes.obj
 0002:0000b348       $cppxdata$??1AsyncAesEncryptGCM@@UEAA@XZ 000000018003e348     w_aes.obj
 0002:0000b370       $cppxdata$??0AsyncAesEncryptGCM@@QEAA@PEAVCallback@Nan@@V?$shared_ptr@VScopedAES@@@std@@V?$shared_ptr@V?$basic_string@DU?$char_traits@D@std@@V?$allocator@D@2@@std@@@4@22H_N@Z 000000018003e370     w_aes.obj
 0002:0000b398       $cppxdata$??1AsyncAesImport@@UEAA@XZ 000000018003e398     w_aes.obj
 0002:0000b3c0       $cppxdata$??0AsyncAesImport@@QEAA@PEAVCallback@Nan@@V?$shared_ptr@V?$basic_string@DU?$char_traits@D@std@@V?$allocator@D@2@@std@@@std@@@Z 000000018003e3c0     w_aes.obj
 0002:0000b3e8       $cppxdata$??1AsyncHmacExport@@UEAA@XZ 000000018003e3e8     w_hmac.obj
 0002:0000b3e8       $cppxdata$??1AsyncAesExport@@UEAA@XZ 000000018003e3e8     w_aes.obj
 0002:0000b410       $cppxdata$??0AsyncAesExport@@QEAA@PEAVCallback@Nan@@V?$shared_ptr@VScopedAES@@@std@@@Z 000000018003e410     w_aes.obj
 0002:0000b410       $cppxdata$??0AsyncHmacExport@@QEAA@PEAVCallback@Nan@@V?$shared_ptr@VScopedHMAC@@@std@@@Z 000000018003e410     w_hmac.obj
 0002:0000b438       $cppxdata$??1AsyncAesEncryptECB@@UEAA@XZ 000000018003e438     w_aes.obj
 0002:0000b460       $cppxdata$??0AsyncAesEncryptECB@@QEAA@PEAVCallback@Nan@@V?$shared_ptr@VScopedAES@@@std@@V?$shared_ptr@V?$basic_string@DU?$char_traits@D@std@@V?$allocator@D@2@@std@@@4@_N@Z 000000018003e460     w_aes.obj
 0002:0000b488       $cppxdata$??1AsyncAesEncryptCBC@@UEAA@XZ 000000018003e488     w_aes.obj
 0002:0000b4b0       $cppxdata$??0AsyncAesEncryptCBC@@QEAA@PEAVCallback@Nan@@V?$shared_ptr@VScopedAES@@@std@@V?$shared_ptr@V?$basic_string@DU?$char_traits@D@std@@V?$allocator@D@2@@std@@@4@2_N@Z 000000018003e4b0     w_aes.obj
 0002:0000b4d8       $cppxdata$??1AsyncAesGenerateKey@@UEAA@XZ 000000018003e4d8     w_aes.obj
 0002:0000b500       $cppxdata$?Call@Nan@@YA?AV?$MaybeLocal@VValue@v8@@@v8@@V?$Local@VFunction@v8@@@3@V?$Local@VObject@v8@@@3@HQEAV?$Local@VValue@v8@@@3@@Z 000000018003e500     w_aes.obj
 0002:0000b528       $cppxdata$?Init@WAes@@SAXV?$Local@VObject@v8@@@v8@@@Z 000000018003e528     w_aes.obj
 0002:0000b550       $cppxdata$?Verify@WHmac@@SAXAEBV?$FunctionCallbackInfo@VValue@v8@@@Nan@@@Z 000000018003e550     w_hmac.obj
 0002:0000b578       $cppxdata$?Sign@WHmac@@SAXAEBV?$FunctionCallbackInfo@VValue@v8@@@Nan@@@Z 000000018003e578     w_hmac.obj
 0002:0000b5a0       $cppxdata$?Import@WHmac@@SAXAEBV?$FunctionCallbackInfo@VValue@v8@@@Nan@@@Z 000000018003e5a0     w_hmac.obj
 0002:0000b5c8       $cppxdata$?Generate@WHmac@@SAXAEBV?$FunctionCallbackInfo@VValue@v8@@@Nan@@@Z 000000018003e5c8     w_hmac.obj
 0002:0000b5f0       $cppxdata$??__Fmy_constructor@?1??constructor@WHmac@@KAAEAV?$Persistent@VFunction@v8@@V?$NonCopyablePersistentTraits@VFunction@v8@@@2@@Nan@@XZ@YAXXZ 000000018003e5f0     w_hmac.obj
 0002:0000b618       $cppxdata$??1AsyncHmacVerify@@UEAA@XZ 000000018003e618     w_hmac.obj
 0002:0000b640       $cppxdata$??0AsyncHmacVerify@@QEAA@PEAVCallback@Nan@@PEBUenv_md_st@@V?$shared_ptr@VScopedHMAC@@@std@@V?$shared_ptr@V?$basic_string@DU?$char_traits@D@std@@V?$allocator@D@2@@std@@@5@3@Z 000000018003e640     w_hmac.obj
 0002:0000b668       $cppxdata$??1AsyncHmacSign@@UEAA@XZ 000000018003e668     w_hmac.obj
 0002:0000b690       $cppxdata$??0AsyncHmacSign@@QEAA@PEAVCallback@Nan@@PEBUenv_md_st@@V?$shared_ptr@VScopedHMAC@@@std@@V?$shared_ptr@V?$basic_string@DU?$char_traits@D@std@@V?$allocator@D@2@@std@@@5@@Z 000000018003e690     w_hmac.obj
 0002:0000b6b8       $cppxdata$??1AsyncHmacImport@@UEAA@XZ 000000018003e6b8     w_hmac.obj
 0002:0000b6e0       $cppxdata$??0AsyncHmacImport@@QEAA@PEAVCallback@Nan@@V?$shared_ptr@V?$basic_string@DU?$char_traits@D@std@@V?$allocator@D@2@@std@@@std@@@Z 000000018003e6e0     w_hmac.obj
 0002:0000b708       $cppxdata$??1AsyncHmacGenerateKey@@UEAA@XZ 000000018003e708     w_hmac.obj
 0002:0000b730       $cppxdata$?Init@WHmac@@SAXV?$Local@VObject@v8@@@v8@@@Z 000000018003e730     w_hmac.obj
 0002:0000b758       $cppxdata$?DeriveBits@WPbkdf2@@SAXAEBV?$FunctionCallbackInfo@VValue@v8@@@Nan@@@Z 000000018003e758     w_pbkdf2.obj
 0002:0000b780       $cppxdata$?ImportKey@WPbkdf2@@SAXAEBV?$FunctionCallbackInfo@VValue@v8@@@Nan@@@Z 000000018003e780     w_pbkdf2.obj
 0002:0000b7a8       $cppxdata$??__Fmy_constructor@?1??constructor@WPbkdf2@@KAAEAV?$Persistent@VFunction@v8@@V?$NonCopyablePersistentTraits@VFunction@v8@@@2@@Nan@@XZ@YAXXZ 000000018003e7a8     w_pbkdf2.obj
 0002:0000b7d0       $cppxdata$??1AsyncPbkdf2DeriveBits@@UEAA@XZ 000000018003e7d0     w_pbkdf2.obj
 0002:0000b7f8       $cppxdata$??0AsyncPbkdf2DeriveBits@@QEAA@PEAVCallback@Nan@@V?$shared_ptr@VScopedPbkdf2@@@std@@PEBUenv_md_st@@V?$shared_ptr@V?$basic_string@DU?$char_traits@D@std@@V?$allocator@D@2@@std@@@4@HH@Z 000000018003e7f8     w_pbkdf2.obj
 0002:0000b820       $cppxdata$??1AsyncPbkdf2Import@@UEAA@XZ 000000018003e820     w_pbkdf2.obj
 0002:0000b848       $cppxdata$??0AsyncPbkdf2Import@@QEAA@PEAVCallback@Nan@@V?$shared_ptr@V?$basic_string@DU?$char_traits@D@std@@V?$allocator@D@2@@std@@@std@@@Z 000000018003e848     w_pbkdf2.obj
 0002:0000b870       $cppxdata$?convert@?$ToFactory@VNumber@v8@@@imp@Nan@@SA?AV?$MaybeLocal@VNumber@v8@@@v8@@V?$Local@VValue@v8@@@5@@Z 000000018003e870     w_pbkdf2.obj
 0002:0000b898       $cppxdata$?Init@WPbkdf2@@SAXV?$Local@VObject@v8@@@v8@@@Z 000000018003e898     w_pbkdf2.obj
 0002:0000b8c0       $cppxdata$?Digest@WCore@@SAXAEBV?$FunctionCallbackInfo@VValue@v8@@@Nan@@@Z 000000018003e8c0     w_core.obj
 0002:0000b8e8       $cppxdata$??__Fmy_constructor@?1??constructor@WCore@@KAAEAV?$Persistent@VFunction@v8@@V?$NonCopyablePersistentTraits@VFunction@v8@@@2@@Nan@@XZ@YAXXZ 000000018003e8e8     w_core.obj
 0002:0000b910       $cppxdata$??1AsyncDigest@@UEAA@XZ 000000018003e910     w_core.obj
 0002:0000b938       $cppxdata$??0AsyncDigest@@QEAA@PEAVCallback@Nan@@V?$shared_ptr@V?$basic_string@DU?$char_traits@D@std@@V?$allocator@D@2@@std@@@std@@1@Z 000000018003e938     w_core.obj
 0002:0000b960       $cppxdata$?Init@WCore@@SAXV?$Local@VObject@v8@@@v8@@@Z 000000018003e960     w_core.obj
 0002:0000b988       $cppxdata$?HandleOKCallback@AsyncExportJwkRsa@@UEAAXXZ 000000018003e988     async_rsa.obj
 0002:0000b9b0       $cppxdata$?Execute@AsyncExportJwkRsa@@UEAAXXZ 000000018003e9b0     async_rsa.obj
 0002:0000b9d8       $cppxdata$?HandleOKCallback@AsyncSignRsaPSS@@UEAAXXZ 000000018003e9d8     async_rsa.obj
 0002:0000ba00       $cppxdata$?Execute@AsyncSignRsaPSS@@UEAAXXZ 000000018003ea00     async_rsa.obj
 0002:0000ba28       $cppxdata$?Execute@AsyncExportPkcs8@@UEAAXXZ 000000018003ea28     async_rsa.obj
 0002:0000ba50       $cppxdata$?HandleOKCallback@AsyncExportSpki@@UEAAXXZ 000000018003ea50     async_rsa.obj
 0002:0000ba50       $cppxdata$?HandleOKCallback@AsyncExportPkcs8@@UEAAXXZ 000000018003ea50     async_rsa.obj
 0002:0000ba78       $cppxdata$?Execute@AsyncExportSpki@@UEAAXXZ 000000018003ea78     async_rsa.obj
 0002:0000baa0       $cppxdata$?Execute@AsyncImportSpki@@UEAAXXZ 000000018003eaa0     async_rsa.obj
 0002:0000bac8       $cppxdata$?HandleOKCallback@AsyncEcdsaSign@@UEAAXXZ 000000018003eac8     async_ec.obj
 0002:0000bac8       $cppxdata$?HandleOKCallback@AsyncSignRsa@@UEAAXXZ 000000018003eac8     async_rsa.obj
 0002:0000bac8       $cppxdata$?HandleOKCallback@AsyncHmacSign@@UEAAXXZ 000000018003eac8     async_hmac.obj
 0002:0000baf0       $cppxdata$?Execute@AsyncSignRsa@@UEAAXXZ 000000018003eaf0     async_rsa.obj
 0002:0000bb18       $cppxdata$?HandleOKCallback@AsyncHmacVerify@@UEAAXXZ 000000018003eb18     async_hmac.obj
 0002:0000bb18       $cppxdata$?HandleOKCallback@AsyncEcdsaVerify@@UEAAXXZ 000000018003eb18     async_ec.obj
 0002:0000bb18       $cppxdata$?HandleOKCallback@AsyncVerifyRsa@@UEAAXXZ 000000018003eb18     async_rsa.obj
 0002:0000bb40       $cppxdata$?Execute@AsyncVerifyRsa@@UEAAXXZ 000000018003eb40     async_rsa.obj
 0002:0000bb68       $cppxdata$?HandleOKCallback@AsyncVerifyRsaPSS@@UEAAXXZ 000000018003eb68     async_rsa.obj
 0002:0000bb90       $cppxdata$?Execute@AsyncVerifyRsaPSS@@UEAAXXZ 000000018003eb90     async_rsa.obj
 0002:0000bbb8       $cppxdata$?HandleOKCallback@AsyncImportPkcs8@@UEAAXXZ 000000018003ebb8     async_rsa.obj
 0002:0000bbb8       $cppxdata$?HandleOKCallback@AsyncImportSpki@@UEAAXXZ 000000018003ebb8     async_rsa.obj
 0002:0000bbe0       $cppxdata$?Execute@AsyncImportPkcs8@@UEAAXXZ 000000018003ebe0     async_rsa.obj
 0002:0000bc08       $cppxdata$?HandleOKCallback@AsyncImportJwkRsa@@UEAAXXZ 000000018003ec08     async_rsa.obj
 0002:0000bc08       $cppxdata$?HandleOKCallback@AsyncEcImportJwk@@UEAAXXZ 000000018003ec08     async_ec.obj
 0002:0000bc30       $cppxdata$?Execute@AsyncImportJwkRsa@@UEAAXXZ 000000018003ec30     async_rsa.obj
 0002:0000bc58       $cppxdata$?HandleOKCallback@AsyncRsaGenerateKey@@UEAAXXZ 000000018003ec58     async_rsa.obj
 0002:0000bc58       $cppxdata$?HandleOKCallback@AsyncEcGenerateKey@@UEAAXXZ 000000018003ec58     async_ec.obj
 0002:0000bc80       $cppxdata$?Execute@AsyncRsaGenerateKey@@UEAAXXZ 000000018003ec80     async_rsa.obj
 0002:0000bca8       $cppxdata$?HandleOKCallback@AsyncEncrypDecryptRsaOAEP@@UEAAXXZ 000000018003eca8     async_rsa.obj
 0002:0000bcd0       $cppxdata$?Execute@AsyncEncrypDecryptRsaOAEP@@UEAAXXZ 000000018003ecd0     async_rsa.obj
 0002:0000bcf8       $cppxdata$?Execute@AsyncEcdsaSign@@UEAAXXZ 000000018003ecf8     async_ec.obj
 0002:0000bd20       $cppxdata$?HandleOKCallback@AsyncEcdhDeriveBits@@UEAAXXZ 000000018003ed20     async_ec.obj
 0002:0000bd20       $cppxdata$?HandleOKCallback@AsyncAesEncryptECB@@UEAAXXZ 000000018003ed20     async_aes.obj
 0002:0000bd20       $cppxdata$?HandleOKCallback@AsyncAesWrapKey@@UEAAXXZ 000000018003ed20     async_aes.obj
 0002:0000bd20       $cppxdata$?HandleOKCallback@AsyncEcdhDeriveKey@@UEAAXXZ 000000018003ed20     async_ec.obj
 0002:0000bd48       $cppxdata$?Execute@AsyncEcdhDeriveKey@@UEAAXXZ 000000018003ed48     async_ec.obj
 0002:0000bd70       $cppxdata$?Execute@AsyncEcImportJwk@@UEAAXXZ 000000018003ed70     async_ec.obj
 0002:0000bd98       $cppxdata$?HandleOKCallback@AsyncEcExportJwk@@UEAAXXZ 000000018003ed98     async_ec.obj
 0002:0000bdc0       $cppxdata$?Execute@AsyncEcExportJwk@@UEAAXXZ 000000018003edc0     async_ec.obj
 0002:0000bde8       $cppxdata$?Execute@AsyncEcdsaVerify@@UEAAXXZ 000000018003ede8     async_ec.obj
 0002:0000be10       $cppxdata$?Execute@AsyncEcGenerateKey@@UEAAXXZ 000000018003ee10     async_ec.obj
 0002:0000be38       $cppxdata$?Execute@AsyncEcdhDeriveBits@@UEAAXXZ 000000018003ee38     async_ec.obj
 0002:0000be60       $cppxdata$?Execute@AsyncAesEncryptCTR@@UEAAXXZ 000000018003ee60     async_aes.obj
 0002:0000be88       $cppxdata$?HandleOKCallback@AsyncHmacExport@@UEAAXXZ 000000018003ee88     async_hmac.obj
 0002:0000be88       $cppxdata$?HandleOKCallback@AsyncAesExport@@UEAAXXZ 000000018003ee88     async_aes.obj
 0002:0000beb0       $cppxdata$?HandleOKCallback@AsyncAesImport@@UEAAXXZ 000000018003eeb0     async_aes.obj
 0002:0000bed8       $cppxdata$?Execute@AsyncAesImport@@UEAAXXZ 000000018003eed8     async_aes.obj
 0002:0000bf00       $cppxdata$?HandleOKCallback@AsyncAesGenerateKey@@UEAAXXZ 000000018003ef00     async_aes.obj
 0002:0000bf28       $cppxdata$?Execute@AsyncAesGenerateKey@@UEAAXXZ 000000018003ef28     async_aes.obj
 0002:0000bf50       $cppxdata$?Execute@AsyncAesWrapKey@@UEAAXXZ 000000018003ef50     async_aes.obj
 0002:0000bf78       $cppxdata$?HandleOKCallback@AsyncAesEncryptGCM@@UEAAXXZ 000000018003ef78     async_aes.obj
 0002:0000bfa0       $cppxdata$?Execute@AsyncAesEncryptGCM@@UEAAXXZ 000000018003efa0     async_aes.obj
 0002:0000bfc8       $cppxdata$?HandleOKCallback@AsyncAesEncryptCTR@@UEAAXXZ 000000018003efc8     async_aes.obj
 0002:0000bfc8       $cppxdata$?HandleOKCallback@AsyncAesEncryptCBC@@UEAAXXZ 000000018003efc8     async_aes.obj
 0002:0000bff0       $cppxdata$?Execute@AsyncAesEncryptCBC@@UEAAXXZ 000000018003eff0     async_aes.obj
 0002:0000c018       $cppxdata$?Execute@AsyncAesEncryptECB@@UEAAXXZ 000000018003f018     async_aes.obj
 0002:0000c040       $cppxdata$?HandleOKCallback@AsyncHmacImport@@UEAAXXZ 000000018003f040     async_hmac.obj
 0002:0000c068       $cppxdata$?Execute@AsyncHmacImport@@UEAAXXZ 000000018003f068     async_hmac.obj
 0002:0000c090       $cppxdata$?Execute@AsyncHmacSign@@UEAAXXZ 000000018003f090     async_hmac.obj
 0002:0000c0b8       $cppxdata$?HandleOKCallback@AsyncHmacGenerateKey@@UEAAXXZ 000000018003f0b8     async_hmac.obj
 0002:0000c0e0       $cppxdata$?Execute@AsyncHmacGenerateKey@@UEAAXXZ 000000018003f0e0     async_hmac.obj
 0002:0000c108       $cppxdata$?Execute@AsyncHmacVerify@@UEAAXXZ 000000018003f108     async_hmac.obj
 0002:0000c130       $cppxdata$?HandleOKCallback@AsyncPbkdf2DeriveBits@@UEAAXXZ 000000018003f130     async_pbkdf2.obj
 0002:0000c158       $cppxdata$?Execute@AsyncPbkdf2DeriveBits@@UEAAXXZ 000000018003f158     async_pbkdf2.obj
 0002:0000c180       $cppxdata$?HandleOKCallback@AsyncPbkdf2Import@@UEAAXXZ 000000018003f180     async_pbkdf2.obj
 0002:0000c1a8       $cppxdata$?Execute@AsyncPbkdf2Import@@UEAAXXZ 000000018003f1a8     async_pbkdf2.obj
 0002:0000c1d0       $cppxdata$?HandleOKCallback@AsyncDigest@@UEAAXXZ 000000018003f1d0     async_core.obj
 0002:0000c1f8       $cppxdata$?Execute@AsyncDigest@@UEAAXXZ 000000018003f1f8     async_core.obj
 0002:0000cbd0       $unwind$?RsaPublicExponent@@YAXV?$Local@VObject@v8@@@v8@@@Z 000000018003fbd0     main.obj
 0002:0000cbd0       $unwind$?KeyType@@YAXV?$Local@VObject@v8@@@v8@@@Z 000000018003fbd0     main.obj
 0002:0000cbd0       $unwind$?EcNamedCurves@@YAXV?$Local@VObject@v8@@@v8@@@Z 000000018003fbd0     main.obj
 0002:0000cbdc       $unwind$?InitModule@@YAXV?$Local@VObject@v8@@@v8@@@Z 000000018003fbdc     main.obj
 0002:0000cbec       $stateUnwindMap$?ThrowError@Nan@@YAXV?$Local@VString@v8@@@v8@@@Z 000000018003fbec     w_key.obj
 0002:0000cbec       $stateUnwindMap$?InitModule@@YAXV?$Local@VObject@v8@@@v8@@@Z 000000018003fbec     main.obj
 0002:0000cbf8       $ip2state$?InitModule@@YAXV?$Local@VObject@v8@@@v8@@@Z 000000018003fbf8     main.obj
 0002:0000cc10       $unwind$?New@WHmac@@SAXAEBV?$FunctionCallbackInfo@VValue@v8@@@Nan@@@Z 000000018003fc10     w_hmac.obj
 0002:0000cc10       $unwind$?New@WPbkdf2@@SAXAEBV?$FunctionCallbackInfo@VValue@v8@@@Nan@@@Z 000000018003fc10     w_pbkdf2.obj
 0002:0000cc10       $unwind$?New@WKey@@SAXAEBV?$FunctionCallbackInfo@VValue@v8@@@Nan@@@Z 000000018003fc10     w_key.obj
 0002:0000cc10       $unwind$?New@WAes@@SAXAEBV?$FunctionCallbackInfo@VValue@v8@@@Nan@@@Z 000000018003fc10     w_aes.obj
 0002:0000cc10       $unwind$?New@WCore@@SAXAEBV?$FunctionCallbackInfo@VValue@v8@@@Nan@@@Z 000000018003fc10     w_core.obj
 0002:0000cc10       $unwind$?BN_bn2bin_padded@@YAHPEAE_KPEBUbignum_st@@@Z 000000018003fc10     bn.obj
 0002:0000cc18       $chain$0$?BN_bn2bin_padded@@YAHPEAE_KPEBUbignum_st@@@Z 000000018003fc18     bn.obj
 0002:0000cc2c       $chain$3$?BN_bn2bin_padded@@YAHPEAE_KPEBUbignum_st@@@Z 000000018003fc2c     bn.obj
 0002:0000cc44       $chain$5$?BN_bn2bin_padded@@YAHPEAE_KPEBUbignum_st@@@Z 000000018003fc44     bn.obj
 0002:0000cc5c       $unwind$_setfpstatusword   000000018003fc5c     libucrt:_fenvutils.obj
 0002:0000cc5c       $unwind$__acrt_stdio_allocate_buffer_nolock 000000018003fc5c     libucrt:_getbuf.obj
 0002:0000cc5c       $unwind$_IsExceptionObjectToBeDestroyed 000000018003fc5c     libvcruntime:trnsctrl.obj
 0002:0000cc5c       $unwind$??1?$shared_ptr@VScopedHMAC@@@std@@QEAA@XZ 000000018003fc5c     hmac_gen.obj
 0002:0000cc5c       $unwind$?exit_or_terminate_process@@YAXI@Z 000000018003fc5c     libucrt:exit.obj
 0002:0000cc5c       $unwind$_SetImageBase      000000018003fc5c     libvcruntime:trnsctrl.obj
 0002:0000cc5c       $unwind$??1?$shared_ptr@VScopedAES@@@std@@QEAA@XZ 000000018003fc5c     aes_gen.obj
 0002:0000cc5c       $unwind$__acrt_uninitialize_winapi_thunks 000000018003fc5c     libucrt:winapi_thunks.obj
 0002:0000cc5c       $unwind$?type_case_integer@?$output_processor@_WV?$string_output_adapter@_W@__crt_stdio_output@@V?$standard_base@_WV?$string_output_adapter@_W@__crt_stdio_output@@@2@@__crt_stdio_output@@AEAA_NI_N@Z 000000018003fc5c     libucrt:output.obj
 0002:0000cc5c       $unwind$?load_exe_hook@@YAP6A_JXZIPEAUDelayLoadInfo@@@Z 000000018003fc5c     win_delay_load_hook.obj
 0002:0000cc5c       $unwind$?__GetUnwindTryBlock@@YAHPEA_KPEAU_xDISPATCHER_CONTEXT@@PEBU_s_FuncInfo@@@Z 000000018003fc5c     libvcruntime:ehstate.obj
 0002:0000cc5c       $unwind$??0bad_exception@std@@QEAA@AEBV01@@Z 000000018003fc5c     libvcruntime:frame.obj
 0002:0000cc5c       $unwind$__acrt_freeptd     000000018003fc5c     libucrt:per_thread_data.obj
 0002:0000cc5c       $unwind$__acrt_can_show_message_box 000000018003fc5c     libucrt:winapi_thunks.obj
 0002:0000cc5c       $unwind$??1?$shared_ptr@VJwkEc@@@std@@QEAA@XZ 000000018003fc5c     ec_jwk.obj
 0002:0000cc5c       $unwind$_purecall          000000018003fc5c     libvcruntime:purevirt.obj
 0002:0000cc5c       $unwind$??_G?$_Ref_count@VScopedPbkdf2@@@std@@UEAAPEAXI@Z 000000018003fc5c     async_pbkdf2.obj
 0002:0000cc5c       $unwind$strcpy_s           000000018003fc5c     libucrt:strcpy_s.obj
 0002:0000cc5c       $unwind$??_G?$_Ref_count@VJwkEc@@@std@@UEAAPEAXI@Z 000000018003fc5c     ec_jwk.obj
 0002:0000cc5c       $unwind$__raise_securityfailure 000000018003fc5c     LIBCMT:gs_report.obj
 0002:0000cc5c       $unwind$??$message_box_wait_thread@_W@@YAKQEAX@Z 000000018003fc5c     libucrt:crtmbox.obj
 0002:0000cc5c       $unwind$__acrt_allocate_buffer_for_argv 000000018003fc5c     libucrt:argv_parsing.obj
 0002:0000cc5c       $unwind$wcscat_s           000000018003fc5c     libucrt:wcscat_s.obj
 0002:0000cc5c       $unwind$wcscpy_s           000000018003fc5c     libucrt:wcscpy_s.obj
 0002:0000cc5c       $unwind$fegetenv           000000018003fc5c     libucrt:fegetenv.obj
 0002:0000cc5c       $unwind$__acrt_initialize_locks 000000018003fc5c     libucrt:locks.obj
 0002:0000cc5c       $unwind$__acrt_uninitialize_locks 000000018003fc5c     libucrt:locks.obj
 0002:0000cc5c       $unwind$??1?$shared_ptr@VJwkRsa@@@std@@QEAA@XZ 000000018003fc5c     rsa_jwk.obj
 0002:0000cc5c       $unwind$_Init_thread_notify 000000018003fc5c     LIBCMT:thread_safe_statics.obj
 0002:0000cc5c       $unwind$__vcrt_freeptd     000000018003fc5c     libvcruntime:per_thread_data.obj
 0002:0000cc5c       $unwind$?_Destroy@?$_Ref_count@VJwkRsa@@@std@@EEAAXXZ 000000018003fc5c     rsa_jwk.obj
 0002:0000cc5c       $unwind$??_G?$_Ref_count@VScopedAES@@@std@@UEAAPEAXI@Z 000000018003fc5c     aes_gen.obj
 0002:0000cc5c       $unwind$_CreateFrameInfo   000000018003fc5c     libvcruntime:trnsctrl.obj
 0002:0000cc5c       $unwind$fesetenv           000000018003fc5c     libucrt:fesetenv.obj
 0002:0000cc5c       $unwind$??1?$shared_ptr@VScopedPbkdf2@@@std@@QEAA@XZ 000000018003fc5c     w_pbkdf2.obj
 0002:0000cc5c       $unwind$_SetThrowImageBase 000000018003fc5c     libvcruntime:trnsctrl.obj
 0002:0000cc5c       $unwind$?AsyncExecuteComplete@Nan@@YAXPEAUuv_work_s@@@Z 000000018003fc5c     w_key.obj
 0002:0000cc5c       $unwind$initialize_pointers 000000018003fc5c     libucrt:initialization.obj
 0002:0000cc5c       $unwind$uninitialize_allocated_memory 000000018003fc5c     libucrt:initialization.obj
 0002:0000cc5c       $unwind$_Init_thread_header 000000018003fc5c     LIBCMT:thread_safe_statics.obj
 0002:0000cc5c       $unwind$??_Gtype_info@@UEAAPEAXI@Z 000000018003fc5c     LIBCMT:std_type_info_static.obj
 0002:0000cc5c       $unwind$?DloadReleaseSectionWriteAccess@@YAXXZ 000000018003fc5c     DelayImp:delayhlp.obj
 0002:0000cc5c       $unwind$??_Gexception@stdext@@UEAAPEAXI@Z 000000018003fc5c     key_exp.obj
 0002:0000cc5c       $unwind$??_G_Ref_count_base@std@@UEAAPEAXI@Z 000000018003fc5c     key_exp.obj
 0002:0000cc5c       $unwind$??2@YAPEAX_K@Z     000000018003fc5c     LIBCMT:new_scalar.obj
 0002:0000cc5c       $unwind$??_Gruntime_error@std@@UEAAPEAXI@Z 000000018003fc5c     key_exp.obj
 0002:0000cc5c       $unwind$__vcrt_uninitialize_locks 000000018003fc5c     libvcruntime:locks.obj
 0002:0000cc5c       $unwind$__scrt_release_startup_lock 000000018003fc5c     LIBCMT:utility.obj
 0002:0000cc5c       $unwind$_malloc_base       000000018003fc5c     libucrt:malloc_base.obj
 0002:0000cc5c       $unwind$__acrt_stdio_free_buffer_nolock 000000018003fc5c     libucrt:_freebuf.obj
 0002:0000cc5c       $unwind$_set_statfp        000000018003fc5c     libucrt:fpctrl.obj
 0002:0000cc5c       $unwind$_calloc_base       000000018003fc5c     libucrt:calloc_base.obj
 0002:0000cc5c       $unwind$_fflush_nolock     000000018003fc5c     libucrt:fflush.obj
 0002:0000cc5c       $unwind$??0?$output_processor@_WV?$string_output_adapter@_W@__crt_stdio_output@@V?$standard_base@_WV?$string_output_adapter@_W@__crt_stdio_output@@@2@@__crt_stdio_output@@QEAA@AEBV?$string_output_adapter@_W@1@_KQEB_WQEAU__crt_locale_pointers@@QEAD@Z 000000018003fc5c     libucrt:output.obj
 0002:0000cc5c       $unwind$_clrfp             000000018003fc5c     libucrt:fpctrl.obj
 0002:0000cc5c       $unwind$__acrt_fp_strflt_to_string 000000018003fc5c     libucrt:_fptostr.obj
 0002:0000cc5c       $unwind$??1?$shared_ptr@V?$ScopedSSL@Uevp_pkey_st@@$1?ScopedEVP_PKEY_free@@YAXPEAX@Z@@@std@@QEAA@XZ 000000018003fc5c     key_exp.obj
 0002:0000cc5c       $unwind$??1?$shared_ptr@V?$basic_string@DU?$char_traits@D@std@@V?$allocator@D@2@@std@@@std@@QEAA@XZ 000000018003fc5c     key_exp.obj
 0002:0000cc5c       $unwind$_clearfp           000000018003fc5c     libucrt:ieee.obj
 0002:0000cc5c       $unwind$__acrt_update_locale_info 000000018003fc5c     libucrt:locale_update.obj
 0002:0000cc5c       $unwind$__vcrt_initialize_locks 000000018003fc5c     libvcruntime:locks.obj
 0002:0000cc5c       $unwind$??1?$basic_string@DU?$char_traits@D@std@@V?$allocator@D@2@@std@@QEAA@XZ 000000018003fc5c     key_exp.obj
 0002:0000cc5c       $unwind$__scrt_initialize_crt 000000018003fc5c     LIBCMT:utility.obj
 0002:0000cc5c       $unwind$?_Destroy@?$_Ref_count@V?$basic_string@DU?$char_traits@D@std@@V?$allocator@D@2@@std@@@std@@EEAAXXZ 000000018003fc5c     key_exp.obj
 0002:0000cc5c       $unwind$??_G?$_Ref_count@V?$ScopedSSL@Uevp_pkey_st@@$1?ScopedEVP_PKEY_free@@YAXPEAX@Z@@@std@@UEAAPEAXI@Z 000000018003fc5c     key_exp.obj
 0002:0000cc5c       $unwind$??_G?$_Ref_count@V?$basic_string@DU?$char_traits@D@std@@V?$allocator@D@2@@std@@@std@@UEAAPEAXI@Z 000000018003fc5c     key_exp.obj
 0002:0000cc5c       $unwind$feholdexcept       000000018003fc5c     libucrt:feholdexcept.obj
 0002:0000cc5c       $unwind$??0length_error@std@@QEAA@AEBV01@@Z 000000018003fc5c     libcpmt:xthrow.obj
 0002:0000cc5c       $unwind$?WeakCallback@ObjectWrap@node@@CAXAEBV?$WeakCallbackInfo@VObjectWrap@node@@@v8@@@Z 000000018003fc5c     w_key.obj
 0002:0000cc5c       $unwind$?type_case_integer@?$output_processor@_WV?$stream_output_adapter@_W@__crt_stdio_output@@V?$standard_base@_WV?$stream_output_adapter@_W@__crt_stdio_output@@@2@@__crt_stdio_output@@AEAA_NI_N@Z 000000018003fc5c     libucrt:output.obj
 0002:0000cc5c       $unwind$?Unref@ObjectWrap@node@@MEAAXXZ 000000018003fc5c     w_key.obj
 0002:0000cc5c       $unwind$??_G?$_Ref_count@VJwkRsa@@@std@@UEAAPEAXI@Z 000000018003fc5c     rsa_jwk.obj
 0002:0000cc5c       $unwind$?Ref@ObjectWrap@node@@MEAAXXZ 000000018003fc5c     w_key.obj
 0002:0000cc5c       $unwind$??0exception@std@@QEAA@AEBV01@@Z 000000018003fc5c     libcpmt:xthrow.obj
 0002:0000cc5c       $unwind$?__StateFromIp@@YAHPEBU_s_FuncInfo@@PEAU_xDISPATCHER_CONTEXT@@_J@Z 000000018003fc5c     libvcruntime:ehstate.obj
 0002:0000cc5c       $unwind$__std_exception_destroy 000000018003fc5c     libvcruntime:std_exception.obj
 0002:0000cc5c       $unwind$??0bad_alloc@std@@QEAA@AEBV01@@Z 000000018003fc5c     libcpmt:xthrow.obj
 0002:0000cc5c       $unwind$__scrt_uninitialize_crt 000000018003fc5c     LIBCMT:utility.obj
 0002:0000cc5c       $unwind$??0bad_array_new_length@std@@QEAA@AEBV01@@Z 000000018003fc5c     LIBCMT:throw_bad_alloc.obj
 0002:0000cc5c       $unwind$??0logic_error@std@@QEAA@AEBV01@@Z 000000018003fc5c     libcpmt:xthrow.obj
 0002:0000cc5c       $unwind$__std_type_info_destroy_list 000000018003fc5c     libvcruntime:std_type_info.obj
 0002:0000cc5c       $unwind$_onexit            000000018003fc5c     LIBCMT:utility.obj
 0002:0000cc5c       $unwind$__acrt_uninitialize_stdio 000000018003fc5c     libucrt:_file.obj
 0002:0000cc5c       $unwind$_Init_thread_footer 000000018003fc5c     LIBCMT:thread_safe_statics.obj
 0002:0000cc5c       $unwind$__acrt_update_multibyte_info 000000018003fc5c     libucrt:locale_update.obj
 0002:0000cc5c       $unwind$??0out_of_range@std@@QEAA@AEBV01@@Z 000000018003fc5c     libcpmt:xthrow.obj
 0002:0000cc5c       $unwind$??_G?$_Ref_count@VScopedHMAC@@@std@@UEAAPEAXI@Z 000000018003fc5c     hmac_gen.obj
 0002:0000cc5c       $unwind$??0?$output_processor@_WV?$stream_output_adapter@_W@__crt_stdio_output@@V?$standard_base@_WV?$stream_output_adapter@_W@__crt_stdio_output@@@2@@__crt_stdio_output@@QEAA@AEBV?$stream_output_adapter@_W@1@_KQEB_WQEAU__crt_locale_pointers@@QEAD@Z 000000018003fc5c     libucrt:output.obj
 0002:0000cc64       $unwind$?KEY_export@@YA?AV?$shared_ptr@V?$basic_string@DU?$char_traits@D@std@@V?$allocator@D@2@@std@@@std@@PEAUevp_pkey_st@@P6AHPEAUbio_st@@0@Z@Z 000000018003fc64     key_exp.obj
 0002:0000cc80       $stateUnwindMap$?KEY_export@@YA?AV?$shared_ptr@V?$basic_string@DU?$char_traits@D@std@@V?$allocator@D@2@@std@@@std@@PEAUevp_pkey_st@@P6AHPEAUbio_st@@0@Z@Z 000000018003fc80     key_exp.obj
 0002:0000cca0       $ip2state$?KEY_export@@YA?AV?$shared_ptr@V?$basic_string@DU?$char_traits@D@std@@V?$allocator@D@2@@std@@@std@@PEAUevp_pkey_st@@P6AHPEAUbio_st@@0@Z@Z 000000018003fca0     key_exp.obj
 0002:0000cce0       $unwind$_IsNonwritableInCurrentImage$filt$0 000000018003fce0     LIBCMT:pesect.obj
 0002:0000cce0       $unwind$?dtor$2@?0??EcdhDeriveBits@WKey@@SAXAEBV?$FunctionCallbackInfo@VValue@v8@@@Nan@@@Z@4HA 000000018003fce0     w_key.obj
 0002:0000cce0       $unwind$_ctrlfp$filt$0     000000018003fce0     libucrt:fpctrl.obj
 0002:0000cce0       $unwind$_write$fin$0       000000018003fce0     libucrt:write.obj
 0002:0000cce0       $unwind$?dtor$3@?0??EcdhDeriveBits@WKey@@SAXAEBV?$FunctionCallbackInfo@VValue@v8@@@Nan@@@Z@4HA 000000018003fce0     w_key.obj
 0002:0000cce0       $unwind$__FrameUnwindToState$filt$0 000000018003fce0     libvcruntime:frame.obj
 0002:0000cce0       $unwind$?dtor$2@?0??ImportKey@WPbkdf2@@SAXAEBV?$FunctionCallbackInfo@VValue@v8@@@Nan@@@Z@4HA 000000018003fce0     w_pbkdf2.obj
 0002:0000cce0       $unwind$__acrt_initialize_lowio$fin$0 000000018003fce0     libucrt:ioinit.obj
 0002:0000cce0       $unwind$?dtor$1@?0??Digest@WCore@@SAXAEBV?$FunctionCallbackInfo@VValue@v8@@@Nan@@@Z@4HA 000000018003fce0     w_core.obj
 0002:0000cce0       $unwind$_query_new_handler$fin$0 000000018003fce0     libucrt:new_handler.obj
 0002:0000cce0       $unwind$?dtor$3@?0??DeriveBits@WPbkdf2@@SAXAEBV?$FunctionCallbackInfo@VValue@v8@@@Nan@@@Z@4HA 000000018003fce0     w_pbkdf2.obj
 0002:0000cce0       $unwind$?dtor$2@?0??KEY_export@@YA?AV?$shared_ptr@V?$basic_string@DU?$char_traits@D@std@@V?$allocator@D@2@@std@@@std@@PEAUevp_pkey_st@@P6AHPEAUbio_st@@0@Z@Z@4HA 000000018003fce0     key_exp.obj
 0002:0000cce0       $unwind$?dtor$2@?0??DeriveBits@WPbkdf2@@SAXAEBV?$FunctionCallbackInfo@VValue@v8@@@Nan@@@Z@4HA 000000018003fce0     w_pbkdf2.obj
 0002:0000cce0       $unwind$?dtor$6@?0??AES_CBC_encrypt@@YA?AV?$shared_ptr@V?$basic_string@DU?$char_traits@D@std@@V?$allocator@D@2@@std@@@std@@V12@00_N@Z@4HA 000000018003fce0     aes_cbc.obj
 0002:0000cce0       $unwind$?dtor$3@?0??RsaPssSign@WKey@@SAXAEBV?$FunctionCallbackInfo@VValue@v8@@@Nan@@@Z@4HA 000000018003fce0     w_key.obj
 0002:0000cce0       $unwind$?dtor$4@?0??Digest@WCore@@SAXAEBV?$FunctionCallbackInfo@VValue@v8@@@Nan@@@Z@4HA 000000018003fce0     w_core.obj
 0002:0000cce0       $unwind$?dtor$4@?0??RsaPssSign@WKey@@SAXAEBV?$FunctionCallbackInfo@VValue@v8@@@Nan@@@Z@4HA 000000018003fce0     w_key.obj
 0002:0000cce0       $unwind$?dtor$1@?0??ImportKey@WPbkdf2@@SAXAEBV?$FunctionCallbackInfo@VValue@v8@@@Nan@@@Z@4HA 000000018003fce0     w_pbkdf2.obj
 0002:0000cce0       $unwind$?dtor$5@?0??Digest@WCore@@SAXAEBV?$FunctionCallbackInfo@VValue@v8@@@Nan@@@Z@4HA 000000018003fce0     w_core.obj
 0002:0000cce0       $unwind$fflush$fin$0       000000018003fce0     libucrt:fflush.obj
 0002:0000cce0       $unwind$?dtor$5@?0??RsaPssVerify@WKey@@SAXAEBV?$FunctionCallbackInfo@VValue@v8@@@Nan@@@Z@4HA 000000018003fce0     w_key.obj
 0002:0000cce0       $unwind$__acrt_update_thread_locale_data$fin$0 000000018003fce0     libucrt:locale_refcounting.obj
 0002:0000cce0       $unwind$?dtor$6@?0??RsaOaepEncDec@WKey@@SAXAEBV?$FunctionCallbackInfo@VValue@v8@@@Nan@@@Z@4HA 000000018003fce0     w_key.obj
 0002:0000cce0       $unwind$__acrt_update_thread_multibyte_data$fin$0 000000018003fce0     libucrt:mbctype.obj
 0002:0000cce0       $unwind$?dtor$2@?0??digest@@YA?AV?$shared_ptr@V?$basic_string@DU?$char_traits@D@std@@V?$allocator@D@2@@std@@@std@@PEBUenv_md_st@@V12@@Z@4HA 000000018003fce0     digest.obj
 0002:0000cce0       $unwind$?dtor$7@?0??RsaOaepEncDec@WKey@@SAXAEBV?$FunctionCallbackInfo@VValue@v8@@@Nan@@@Z@4HA 000000018003fce0     w_key.obj
 0002:0000cce0       $unwind$__FrameUnwindToState$fin$1 000000018003fce0     libvcruntime:frame.obj
 0002:0000cce0       $unwind$?fin$1@?0??common_exit@@YAXHW4_crt_exit_cleanup_mode@@W4_crt_exit_return_mode@@@Z@4HA 000000018003fce0     libucrt:exit.obj
 0002:0000cce0       $unwind$?dtor$3@?0??wrap@ScopedAES@@QEAA?AV?$shared_ptr@V?$basic_string@DU?$char_traits@D@std@@V?$allocator@D@2@@std@@@std@@V23@@Z@4HA 000000018003fce0     aes_cbc.obj
 0002:0000cce0       $unwind$?filt$0@?0??common_exit@@YAXHW4_crt_exit_cleanup_mode@@W4_crt_exit_return_mode@@@Z@4HA 000000018003fce0     libucrt:exit.obj
 0002:0000cce0       $unwind$?dtor$3@?0??unwrap@ScopedAES@@QEAA?AV?$shared_ptr@V?$basic_string@DU?$char_traits@D@std@@V?$allocator@D@2@@std@@@std@@V23@@Z@4HA 000000018003fce0     aes_cbc.obj
 0002:0000cce0       $unwind$?dtor$4@?0??Verify@WKey@@SAXAEBV?$FunctionCallbackInfo@VValue@v8@@@Nan@@@Z@4HA 000000018003fce0     w_key.obj
 0002:0000cce0       $unwind$?dtor$5@?0??AES_ECB_encrypt@@YA?AV?$shared_ptr@V?$basic_string@DU?$char_traits@D@std@@V?$allocator@D@2@@std@@@std@@V12@0_N@Z@4HA 000000018003fce0     aes_ecb.obj
 0002:0000cce0       $unwind$?dtor$1@?0??GenerateRsa@WKey@@SAXAEBV?$FunctionCallbackInfo@VValue@v8@@@Nan@@@Z@4HA 000000018003fce0     w_key.obj
 0002:0000cce0       $unwind$?dtor$4@?0??RsaPssVerify@WKey@@SAXAEBV?$FunctionCallbackInfo@VValue@v8@@@Nan@@@Z@4HA 000000018003fce0     w_key.obj
 0002:0000cce0       $unwind$?dtor$0@?0??GenerateRsa@WKey@@SAXAEBV?$FunctionCallbackInfo@VValue@v8@@@Nan@@@Z@4HA 000000018003fce0     w_key.obj
 0002:0000cce0       $unwind$?dtor$2@?0??EcdhDeriveKey@WKey@@SAXAEBV?$FunctionCallbackInfo@VValue@v8@@@Nan@@@Z@4HA 000000018003fce0     w_key.obj
 0002:0000cce0       $unwind$__CxxCallCatchBlock$filt$0 000000018003fce0     libvcruntime:frame.obj
 0002:0000cce0       $unwind$?dtor$5@?0??Verify@WKey@@SAXAEBV?$FunctionCallbackInfo@VValue@v8@@@Nan@@@Z@4HA 000000018003fce0     w_key.obj
 0002:0000cce0       $unwind$?dtor$1@?0??GenerateEc@WKey@@SAXAEBV?$FunctionCallbackInfo@VValue@v8@@@Nan@@@Z@4HA 000000018003fce0     w_key.obj
 0002:0000cce0       $unwind$?dtor$0@?0??GenerateEc@WKey@@SAXAEBV?$FunctionCallbackInfo@VValue@v8@@@Nan@@@Z@4HA 000000018003fce0     w_key.obj
 0002:0000cce0       $unwind$raise$fin$0        000000018003fce0     libucrt:signal.obj
 0002:0000cce0       $unwind$?fin$0@?0???$?RV<lambda_99476a1ad63dd22509b5d3e65b0ffc95>@@AEAV<lambda_ad1ced32f4ac17aa236e5ef05d6b3b7c>@@V<lambda_f7424dd8d45958661754dc4f2697e9c3>@@@?$__crt_seh_guarded_call@X@@QEAAX$$QEAV<lambda_99476a1ad63dd22509b5d3e65b0ffc95>@@AEAV<lambda_ad1ced32f4ac17aa236e5ef05d6b3b7c>@@$$QEAV<lambda_f7424dd8d45958661754dc4f2697e9c3>@@@Z@4HA 000000018003fce0     libucrt:mbctype.obj
 0002:0000cce0       $unwind$?dtor$9@?0??Verify@WKey@@SAXAEBV?$FunctionCallbackInfo@VValue@v8@@@Nan@@@Z@4HA 000000018003fce0     w_key.obj
 0002:0000cce0       $unwind$?dtor$5@?0??ExportJwk@WKey@@SAXAEBV?$FunctionCallbackInfo@VValue@v8@@@Nan@@@Z@4HA 000000018003fce0     w_key.obj
 0002:0000cce0       $unwind$?fin$0@?0???$?RV<lambda_c36588078e9f5dfd39652860aa6b3aaf>@@AEAV<lambda_ec61778202f4f5fc7e7711acc23c3bca>@@V<lambda_dc9d2797ccde5d239b4a0efae8ebd7db>@@@?$__crt_seh_guarded_call@P6AXH@Z@@QEAAP6AXH@Z$$QEAV<lambda_c36588078e9f5dfd39652860aa6b3aaf>@@AEAV<lambda_ec61778202f4f5fc7e7711acc23c3bca>@@$$QEAV<lambda_dc9d2797ccde5d239b4a0efae8ebd7db>@@@Z@4HA 000000018003fce0     libucrt:signal.obj
 0002:0000cce0       $unwind$?dtor$1@?0??ExportJwk@WKey@@SAXAEBV?$FunctionCallbackInfo@VValue@v8@@@Nan@@@Z@4HA 000000018003fce0     w_key.obj
 0002:0000cce0       $unwind$?dtor$2@?0??From@JwkEc@@SA?AV?$shared_ptr@VJwkEc@@@std@@V?$shared_ptr@V?$ScopedSSL@Uevp_pkey_st@@$1?ScopedEVP_PKEY_free@@YAXPEAX@Z@@@3@AEAH@Z@4HA 000000018003fce0     ec_jwk.obj
 0002:0000cce0       $unwind$?dtor$0@?0??ExportJwk@WKey@@SAXAEBV?$FunctionCallbackInfo@VValue@v8@@@Nan@@@Z@4HA 000000018003fce0     w_key.obj
 0002:0000cce0       $unwind$?dtor$1@?0??ExportSpki@WKey@@SAXAEBV?$FunctionCallbackInfo@VValue@v8@@@Nan@@@Z@4HA 000000018003fce0     w_key.obj
 0002:0000cce0       $unwind$?dtor$0@?0??ExportSpki@WKey@@SAXAEBV?$FunctionCallbackInfo@VValue@v8@@@Nan@@@Z@4HA 000000018003fce0     w_key.obj
 0002:0000cce0       $unwind$__acrt_lowio_ensure_fh_exists$fin$0 000000018003fce0     libucrt:osfinfo.obj
 0002:0000cce0       $unwind$?dtor$0@?0??v8Buffer_to_String@@YA?AV?$shared_ptr@V?$basic_string@DU?$char_traits@D@std@@V?$allocator@D@2@@std@@@std@@V?$Local@VObject@v8@@@v8@@@Z@4HA 000000018003fce0     common.obj
 0002:0000cce0       $unwind$?dtor$1@?0??Generate@WHmac@@SAXAEBV?$FunctionCallbackInfo@VValue@v8@@@Nan@@@Z@4HA 000000018003fce0     w_hmac.obj
 0002:0000cce0       $unwind$?dtor$0@?0??Generate@WHmac@@SAXAEBV?$FunctionCallbackInfo@VValue@v8@@@Nan@@@Z@4HA 000000018003fce0     w_hmac.obj
 0002:0000cce0       $unwind$?fin$0@?0???$?RV<lambda_e24bbb7b643b32fcea6fa61b31d4c984>@@AEAV<lambda_275893d493268fdec8709772e3fcec0e>@@V<lambda_9d71df4d7cf3f480f8d633942495c3b0>@@@?$__crt_seh_guarded_call@H@@QEAAH$$QEAV<lambda_e24bbb7b643b32fcea6fa61b31d4c984>@@AEAV<lambda_275893d493268fdec8709772e3fcec0e>@@$$QEAV<lambda_9d71df4d7cf3f480f8d633942495c3b0>@@@Z@4HA 000000018003fce0     libucrt:onexit.obj
 0002:0000cce0       $unwind$?dtor$1@?0??Export@WHmac@@SAXAEBV?$FunctionCallbackInfo@VValue@v8@@@Nan@@@Z@4HA 000000018003fce0     w_hmac.obj
 0002:0000cce0       $unwind$?dtor$0@?0??Export@WHmac@@SAXAEBV?$FunctionCallbackInfo@VValue@v8@@@Nan@@@Z@4HA 000000018003fce0     w_hmac.obj
 0002:0000cce0       $unwind$?dtor$2@?0??Import@WHmac@@SAXAEBV?$FunctionCallbackInfo@VValue@v8@@@Nan@@@Z@4HA 000000018003fce0     w_hmac.obj
 0002:0000cce0       $unwind$?fin$0@?0???$?RV<lambda_b8c45f8f788dd370798f47cfe8ac3a86>@@AEAV<lambda_4e60a939b0d047cfe11ddc22648dfba9>@@V<lambda_332c3edc96d0294ec56c57d38c1cdfd5>@@@?$__crt_seh_guarded_call@H@@QEAAH$$QEAV<lambda_b8c45f8f788dd370798f47cfe8ac3a86>@@AEAV<lambda_4e60a939b0d047cfe11ddc22648dfba9>@@$$QEAV<lambda_332c3edc96d0294ec56c57d38c1cdfd5>@@@Z@4HA 000000018003fce0     libucrt:onexit.obj
 0002:0000cce0       $unwind$?dtor$4@?0??ECDH_derive_key@@YA?AV?$shared_ptr@V?$basic_string@DU?$char_traits@D@std@@V?$allocator@D@2@@std@@@std@@V?$shared_ptr@V?$ScopedSSL@Uevp_pkey_st@@$1?ScopedEVP_PKEY_free@@YAXPEAX@Z@@@2@0AEA_K@Z@4HA 000000018003fce0     ec_dh.obj
 0002:0000cce0       $unwind$?dtor$1@?0??Import@WHmac@@SAXAEBV?$FunctionCallbackInfo@VValue@v8@@@Nan@@@Z@4HA 000000018003fce0     w_hmac.obj
 0002:0000cce0       $unwind$?dtor$3@?0??Sign@WKey@@SAXAEBV?$FunctionCallbackInfo@VValue@v8@@@Nan@@@Z@4HA 000000018003fce0     w_key.obj
 0002:0000cce0       $unwind$?dtor$3@?0??Sign@WHmac@@SAXAEBV?$FunctionCallbackInfo@VValue@v8@@@Nan@@@Z@4HA 000000018003fce0     w_hmac.obj
 0002:0000cce0       $unwind$?dtor$2@?0??Sign@WHmac@@SAXAEBV?$FunctionCallbackInfo@VValue@v8@@@Nan@@@Z@4HA 000000018003fce0     w_hmac.obj
 0002:0000cce0       $unwind$?dtor$5@?0??Verify@WHmac@@SAXAEBV?$FunctionCallbackInfo@VValue@v8@@@Nan@@@Z@4HA 000000018003fce0     w_hmac.obj
 0002:0000cce0       $unwind$?dtor$4@?0??Verify@WHmac@@SAXAEBV?$FunctionCallbackInfo@VValue@v8@@@Nan@@@Z@4HA 000000018003fce0     w_hmac.obj
 0002:0000cce0       $unwind$?dtor$1@?0??ExportPkcs8@WKey@@SAXAEBV?$FunctionCallbackInfo@VValue@v8@@@Nan@@@Z@4HA 000000018003fce0     w_key.obj
 0002:0000cce0       $unwind$?dtor$2@?0??DecryptCtr@WAes@@SAXAEBV?$FunctionCallbackInfo@VValue@v8@@@Nan@@@Z@4HA 000000018003fce0     w_aes.obj
 0002:0000cce0       $unwind$?fin$0@?0???$?RV<lambda_fb3a7dec4e47f37f22dae91bb15c9095>@@AEAV<lambda_698284760c8add0bfb0756c19673e34b>@@V<lambda_dfb8eca1e75fef3034a8fb18dd509707>@@@?$__crt_seh_guarded_call@X@@QEAAX$$QEAV<lambda_fb3a7dec4e47f37f22dae91bb15c9095>@@AEAV<lambda_698284760c8add0bfb0756c19673e34b>@@$$QEAV<lambda_dfb8eca1e75fef3034a8fb18dd509707>@@@Z@4HA 000000018003fce0     libucrt:per_thread_data.obj
 0002:0000cce0       $unwind$?dtor$3@?0??DecryptCtr@WAes@@SAXAEBV?$FunctionCallbackInfo@VValue@v8@@@Nan@@@Z@4HA 000000018003fce0     w_aes.obj
 0002:0000cce0       $unwind$?dtor$2@?0??From@JwkRsa@@SA?AV?$shared_ptr@VJwkRsa@@@std@@V?$shared_ptr@V?$ScopedSSL@Uevp_pkey_st@@$1?ScopedEVP_PKEY_free@@YAXPEAX@Z@@@3@AEAH@Z@4HA 000000018003fce0     rsa_jwk.obj
 0002:0000cce0       $unwind$?dtor$0@?0??ExportPkcs8@WKey@@SAXAEBV?$FunctionCallbackInfo@VValue@v8@@@Nan@@@Z@4HA 000000018003fce0     w_key.obj
 0002:0000cce0       $unwind$?dtor$3@?0??EcdhDeriveKey@WKey@@SAXAEBV?$FunctionCallbackInfo@VValue@v8@@@Nan@@@Z@4HA 000000018003fce0     w_key.obj
 0002:0000cce0       $unwind$_fcloseall$fin$0   000000018003fce0     libucrt:closeall.obj
 0002:0000cce0       $unwind$?fin$0@?0???$?RV<lambda_46352004c1216016012b18bd6f87e700>@@AEAV<lambda_3bd07e1a1191394380780325891bf33f>@@V<lambda_334532d3f185bcaa59b5be82d7d22bff>@@@?$__crt_seh_guarded_call@X@@QEAAX$$QEAV<lambda_46352004c1216016012b18bd6f87e700>@@AEAV<lambda_3bd07e1a1191394380780325891bf33f>@@$$QEAV<lambda_334532d3f185bcaa59b5be82d7d22bff>@@@Z@4HA 000000018003fce0     libucrt:per_thread_data.obj
 0002:0000cce0       $unwind$fclose$fin$0       000000018003fce0     libucrt:fclose.obj
 0002:0000cce0       $unwind$?dtor$2@?0??EncryptCtr@WAes@@SAXAEBV?$FunctionCallbackInfo@VValue@v8@@@Nan@@@Z@4HA 000000018003fce0     w_aes.obj
 0002:0000cce0       $unwind$?fin$0@?0???$?RV<lambda_5e887d1dcbef67a5eb4283622ba103bf>@@AEAV<lambda_4466841279450cc726390878d4a41900>@@V<lambda_341c25c0346d94847f1f3c463c57e077>@@@?$__crt_seh_guarded_call@X@@QEAAX$$QEAV<lambda_5e887d1dcbef67a5eb4283622ba103bf>@@AEAV<lambda_4466841279450cc726390878d4a41900>@@$$QEAV<lambda_341c25c0346d94847f1f3c463c57e077>@@@Z@4HA 000000018003fce0     libucrt:per_thread_data.obj
 0002:0000cce0       $unwind$?dtor$3@?0??EncryptCtr@WAes@@SAXAEBV?$FunctionCallbackInfo@VValue@v8@@@Nan@@@Z@4HA 000000018003fce0     w_aes.obj
 0002:0000cce0       $unwind$?dtor$7@?0??RSA_PKCS1_sign@@YA?AV?$shared_ptr@V?$basic_string@DU?$char_traits@D@std@@V?$allocator@D@2@@std@@@std@@V?$shared_ptr@V?$ScopedSSL@Uevp_pkey_st@@$1?ScopedEVP_PKEY_free@@YAXPEAX@Z@@@2@PEBUenv_md_st@@V12@@Z@4HA 000000018003fce0     rsa_pkcs1.obj
 0002:0000cce0       $unwind$common_flush_all$fin$1 000000018003fce0     libucrt:fflush.obj
 0002:0000cce0       $unwind$?fin$0@?0???$?RV<lambda_72d1df2b273a38828b1ce30cbf4cdab5>@@AEAV<lambda_876a65b173b8412d3a47c70a915b0cf4>@@V<lambda_41932305e351933ebe8f8be3ed8bb5dc>@@@?$__crt_seh_guarded_call@X@@QEAAX$$QEAV<lambda_72d1df2b273a38828b1ce30cbf4cdab5>@@AEAV<lambda_876a65b173b8412d3a47c70a915b0cf4>@@$$QEAV<lambda_41932305e351933ebe8f8be3ed8bb5dc>@@@Z@4HA 000000018003fce0     libucrt:per_thread_data.obj
 0002:0000cce0       $unwind$?dtor$2@?0??ImportPkcs8@WKey@@SAXAEBV?$FunctionCallbackInfo@VValue@v8@@@Nan@@@Z@4HA 000000018003fce0     w_key.obj
 0002:0000cce0       $unwind$common_flush_all$fin$0 000000018003fce0     libucrt:fflush.obj
 0002:0000cce0       $unwind$?dtor$1@?0??ImportPkcs8@WKey@@SAXAEBV?$FunctionCallbackInfo@VValue@v8@@@Nan@@@Z@4HA 000000018003fce0     w_key.obj
 0002:0000cce0       $unwind$?dtor$1@?0??UnwrapKey@WAes@@SAXAEBV?$FunctionCallbackInfo@VValue@v8@@@Nan@@@Z@4HA 000000018003fce0     w_aes.obj
 0002:0000cce0       $unwind$?dtor$4@?0??Sign@WKey@@SAXAEBV?$FunctionCallbackInfo@VValue@v8@@@Nan@@@Z@4HA 000000018003fce0     w_key.obj
 0002:0000cce0       $unwind$?dtor$2@?0??UnwrapKey@WAes@@SAXAEBV?$FunctionCallbackInfo@VValue@v8@@@Nan@@@Z@4HA 000000018003fce0     w_aes.obj
 0002:0000cce0       $unwind$?dtor$13@?0??RSA_OAEP_enc_dec@@YA?AV?$shared_ptr@V?$basic_string@DU?$char_traits@D@std@@V?$allocator@D@2@@std@@@std@@V?$shared_ptr@V?$ScopedSSL@Uevp_pkey_st@@$1?ScopedEVP_PKEY_free@@YAXPEAX@Z@@@2@PEBUenv_md_st@@V12@2_N@Z@4HA 000000018003fce0     rsa_oaep.obj
 0002:0000cce0       $unwind$__DestructExceptionObject$filt$0 000000018003fce0     libvcruntime:frame.obj
 0002:0000cce0       $unwind$?fin$0@?0???$?RV<lambda_7a5ef57ff966f610505f1d28a3d40618>@@AEAV<lambda_b721fa326cdb32351d23dfa67958c160>@@V<lambda_5e0fb27672408a07956fe59e48ccb2aa>@@@?$__crt_seh_guarded_call@H@@QEAAH$$QEAV<lambda_7a5ef57ff966f610505f1d28a3d40618>@@AEAV<lambda_b721fa326cdb32351d23dfa67958c160>@@$$QEAV<lambda_5e0fb27672408a07956fe59e48ccb2aa>@@@Z@4HA 000000018003fce0     libucrt:setvbuf.obj
 0002:0000cce0       $unwind$?dtor$5@?0??AES_GCM_decrypt@@YA?AV?$shared_ptr@V?$basic_string@DU?$char_traits@D@std@@V?$allocator@D@2@@std@@@std@@V12@000H@Z@4HA 000000018003fce0     aes_gcm.obj
 0002:0000cce0       $unwind$__acrt_uninitialize_locale$fin$0 000000018003fce0     libucrt:wsetlocale.obj
 0002:0000cce0       $unwind$common_control87$filt$0 000000018003fce0     libucrt:ieee.obj
 0002:0000cce0       $unwind$?dtor$1@?0??WrapKey@WAes@@SAXAEBV?$FunctionCallbackInfo@VValue@v8@@@Nan@@@Z@4HA 000000018003fce0     w_aes.obj
 0002:0000cce0       $unwind$?dtor$7@?0??RSA_PSS_sign@@YA?AV?$shared_ptr@V?$basic_string@DU?$char_traits@D@std@@V?$allocator@D@2@@std@@@std@@V?$shared_ptr@V?$ScopedSSL@Uevp_pkey_st@@$1?ScopedEVP_PKEY_free@@YAXPEAX@Z@@@2@PEBUenv_md_st@@HV12@@Z@4HA 000000018003fce0     rsa_pss.obj
 0002:0000cce0       $unwind$?dtor$2@?0??WrapKey@WAes@@SAXAEBV?$FunctionCallbackInfo@VValue@v8@@@Nan@@@Z@4HA 000000018003fce0     w_aes.obj
 0002:0000cce0       $unwind$?dtor$2@?0??ImportSpki@WKey@@SAXAEBV?$FunctionCallbackInfo@VValue@v8@@@Nan@@@Z@4HA 000000018003fce0     w_key.obj
 0002:0000cce0       $unwind$?dtor$2@?0??deriveBits@ScopedPbkdf2@@QEAA?AV?$shared_ptr@V?$basic_string@DU?$char_traits@D@std@@V?$allocator@D@2@@std@@@std@@V23@_KPEBUenv_md_st@@1@Z@4HA 000000018003fce0     pbkdf2_derive.obj
 0002:0000cce0       $unwind$?dtor$5@?0??AES_GCM_encrypt@@YA?AV?$shared_ptr@V?$basic_string@DU?$char_traits@D@std@@V?$allocator@D@2@@std@@@std@@V12@000H@Z@4HA 000000018003fce0     aes_gcm.obj
 0002:0000cce0       $unwind$?dtor$7@?0??Sign@WKey@@SAXAEBV?$FunctionCallbackInfo@VValue@v8@@@Nan@@@Z@4HA 000000018003fce0     w_key.obj
 0002:0000cce0       $unwind$?dtor$1@?0??ImportSpki@WKey@@SAXAEBV?$FunctionCallbackInfo@VValue@v8@@@Nan@@@Z@4HA 000000018003fce0     w_key.obj
 0002:0000cce0       $unwind$?fin$0@?0???$?RV<lambda_bfedae4ebbf01fab1bb6dcc6a9e276e0>@@AEAV<lambda_2fe9b910cf3cbf4a0ab98a02ba45b3ec>@@V<lambda_237c231691f317818eb88cc1d5d642d6>@@@?$__crt_seh_guarded_call@H@@QEAAH$$QEAV<lambda_bfedae4ebbf01fab1bb6dcc6a9e276e0>@@AEAV<lambda_2fe9b910cf3cbf4a0ab98a02ba45b3ec>@@$$QEAV<lambda_237c231691f317818eb88cc1d5d642d6>@@@Z@4HA 000000018003fce0     libucrt:close.obj
 0002:0000cce0       $unwind$?dtor$3@?0??DecryptGcm@WAes@@SAXAEBV?$FunctionCallbackInfo@VValue@v8@@@Nan@@@Z@4HA 000000018003fce0     w_aes.obj
 0002:0000cce0       $unwind$?fin$0@?0???$common_lseek@_J@@YA_JH_JH@Z@4HA 000000018003fce0     libucrt:lseek.obj
 0002:0000cce0       $unwind$?dtor$4@?0??DecryptGcm@WAes@@SAXAEBV?$FunctionCallbackInfo@VValue@v8@@@Nan@@@Z@4HA 000000018003fce0     w_aes.obj
 0002:0000cce0       $unwind$?dtor$0@?0??EC_generate@@YA?AV?$shared_ptr@V?$ScopedSSL@Uevp_pkey_st@@$1?ScopedEVP_PKEY_free@@YAXPEAX@Z@@@std@@AEAH@Z@4HA 000000018003fce0     ec_gen.obj
 0002:0000cce0       $unwind$?dtor$9@?0??ImportJwk@WKey@@SAXAEBV?$FunctionCallbackInfo@VValue@v8@@@Nan@@@Z@4HA 000000018003fce0     w_key.obj
 0002:0000cce0       $unwind$?dtor$2@?0??sign@ScopedHMAC@@QEAA?AV?$shared_ptr@V?$basic_string@DU?$char_traits@D@std@@V?$allocator@D@2@@std@@@std@@V23@PEBUenv_md_st@@@Z@4HA 000000018003fce0     hmac_sign.obj
 0002:0000cce0       $unwind$?fin$0@?0???$?RV<lambda_7b91131dde12e1c3dfc74ff76b3f2eac>@@AEAV<lambda_dd75445284c072d0bd3768540cc698fa>@@V<lambda_16bc4ecb55b4718497c16bceaea2ceaf>@@@?$__crt_seh_guarded_call@H@@QEAAH$$QEAV<lambda_7b91131dde12e1c3dfc74ff76b3f2eac>@@AEAV<lambda_dd75445284c072d0bd3768540cc698fa>@@$$QEAV<lambda_16bc4ecb55b4718497c16bceaea2ceaf>@@@Z@4HA 000000018003fce0     libucrt:output.obj
 0002:0000cce0       $unwind$?dtor$4@?0??AES_CTR_encrypt@@YA?AV?$shared_ptr@V?$basic_string@DU?$char_traits@D@std@@V?$allocator@D@2@@std@@@std@@V12@00H_N@Z@4HA 000000018003fce0     aes_ctr.obj
 0002:0000cce0       $unwind$?dtor$5@?0??AES_CTR_encrypt@@YA?AV?$shared_ptr@V?$basic_string@DU?$char_traits@D@std@@V?$allocator@D@2@@std@@@std@@V12@00H_N@Z@4HA 000000018003fce0     aes_ctr.obj
 0002:0000cce0       $unwind$?dtor$3@?0??EncryptGcm@WAes@@SAXAEBV?$FunctionCallbackInfo@VValue@v8@@@Nan@@@Z@4HA 000000018003fce0     w_aes.obj
 0002:0000cce0       $unwind$?fin$0@?0??dllmain_crt_process_attach@@YAHQEAUHINSTANCE__@@QEAX@Z@4HA 000000018003fce0     LIBCMT:dll_dllmain.obj
 0002:0000cce0       $unwind$?dtor$4@?0??EncryptGcm@WAes@@SAXAEBV?$FunctionCallbackInfo@VValue@v8@@@Nan@@@Z@4HA 000000018003fce0     w_aes.obj
 0002:0000cce0       $unwind$?dtor$1@?0??Generate@WAes@@SAXAEBV?$FunctionCallbackInfo@VValue@v8@@@Nan@@@Z@4HA 000000018003fce0     w_aes.obj
 0002:0000cce0       $unwind$?dtor$0@?0??Generate@WAes@@SAXAEBV?$FunctionCallbackInfo@VValue@v8@@@Nan@@@Z@4HA 000000018003fce0     w_aes.obj
 0002:0000cce0       $unwind$?fin$0@?0??dllmain_crt_process_detach@@YAH_N@Z@4HA 000000018003fce0     LIBCMT:dll_dllmain.obj
 0002:0000cce0       $unwind$?fin$0@?0???$?RV<lambda_b521505b218e5242e90febf6bfebc422>@@AEAV<lambda_6978c1fb23f02e42e1d9e99668cc68aa>@@V<lambda_314360699dd331753a4119843814e9a7>@@@?$__crt_seh_guarded_call@H@@QEAAH$$QEAV<lambda_b521505b218e5242e90febf6bfebc422>@@AEAV<lambda_6978c1fb23f02e42e1d9e99668cc68aa>@@$$QEAV<lambda_314360699dd331753a4119843814e9a7>@@@Z@4HA 000000018003fce0     libucrt:commit.obj
 0002:0000cce0       $unwind$?dtor$4@?0??ImportJwk@WKey@@SAXAEBV?$FunctionCallbackInfo@VValue@v8@@@Nan@@@Z@4HA 000000018003fce0     w_key.obj
 0002:0000cce0       $unwind$?dtor$4@?0??Encrypt@WAes@@SAXAEBV?$FunctionCallbackInfo@VValue@v8@@@Nan@@@Z@4HA 000000018003fce0     w_aes.obj
 0002:0000cce0       $unwind$?dtor$1@?0??Import@WAes@@SAXAEBV?$FunctionCallbackInfo@VValue@v8@@@Nan@@@Z@4HA 000000018003fce0     w_aes.obj
 0002:0000cce0       $unwind$?dtor$3@?0??Encrypt@WAes@@SAXAEBV?$FunctionCallbackInfo@VValue@v8@@@Nan@@@Z@4HA 000000018003fce0     w_aes.obj
 0002:0000cce0       $unwind$?dtor$2@?0??Import@WAes@@SAXAEBV?$FunctionCallbackInfo@VValue@v8@@@Nan@@@Z@4HA 000000018003fce0     w_aes.obj
 0002:0000cce0       $unwind$?dtor$4@?0??Decrypt@WAes@@SAXAEBV?$FunctionCallbackInfo@VValue@v8@@@Nan@@@Z@4HA 000000018003fce0     w_aes.obj
 0002:0000cce0       $unwind$?dtor$3@?0??Decrypt@WAes@@SAXAEBV?$FunctionCallbackInfo@VValue@v8@@@Nan@@@Z@4HA 000000018003fce0     w_aes.obj
 0002:0000cce0       $unwind$?dtor$3@?0??ConvertDerSignatureToWebCryptoSignature@@YA?AV?$shared_ptr@V?$basic_string@DU?$char_traits@D@std@@V?$allocator@D@2@@std@@@std@@PEAUevp_pkey_st@@PEBEAEA_K@Z@4HA 000000018003fce0     ec_dsa.obj
 0002:0000cce0       $unwind$?dtor$2@?0??EncryptEcb@WAes@@SAXAEBV?$FunctionCallbackInfo@VValue@v8@@@Nan@@@Z@4HA 000000018003fce0     w_aes.obj
 0002:0000cce0       $unwind$?dtor$1@?0??EncryptEcb@WAes@@SAXAEBV?$FunctionCallbackInfo@VValue@v8@@@Nan@@@Z@4HA 000000018003fce0     w_aes.obj
 0002:0000cce0       $unwind$?dtor$5@?0??ConvertWebCryptoSignatureToDerSignature@@YA?AV?$shared_ptr@V?$basic_string@DU?$char_traits@D@std@@V?$allocator@D@2@@std@@@std@@PEAUevp_pkey_st@@PEBEAEB_KPEA_N@Z@4HA 000000018003fce0     ec_dsa.obj
 0002:0000cce0       $unwind$?dtor$0@?0??Export@WAes@@SAXAEBV?$FunctionCallbackInfo@VValue@v8@@@Nan@@@Z@4HA 000000018003fce0     w_aes.obj
 0002:0000cce0       $unwind$?dtor$2@?0??DecryptEcb@WAes@@SAXAEBV?$FunctionCallbackInfo@VValue@v8@@@Nan@@@Z@4HA 000000018003fce0     w_aes.obj
 0002:0000cce0       $unwind$?dtor$1@?0??Export@WAes@@SAXAEBV?$FunctionCallbackInfo@VValue@v8@@@Nan@@@Z@4HA 000000018003fce0     w_aes.obj
 0002:0000cce0       $unwind$?dtor$1@?0??DecryptEcb@WAes@@SAXAEBV?$FunctionCallbackInfo@VValue@v8@@@Nan@@@Z@4HA 000000018003fce0     w_aes.obj
 0002:0000cce0       $unwind$?dtor$1@?0??ImportJwk@WKey@@SAXAEBV?$FunctionCallbackInfo@VValue@v8@@@Nan@@@Z@4HA 000000018003fce0     w_key.obj
 0002:0000cce8       $unwind$?KEY_import@@YA?AV?$shared_ptr@V?$ScopedSSL@Uevp_pkey_st@@$1?ScopedEVP_PKEY_free@@YAXPEAX@Z@@@std@@PEAUbio_st@@P6APEAUevp_pkey_st@@0PEAPEAU4@@Z@Z 000000018003fce8     key_exp.obj
 0002:0000cd04       $stateUnwindMap$?KEY_import@@YA?AV?$shared_ptr@V?$ScopedSSL@Uevp_pkey_st@@$1?ScopedEVP_PKEY_free@@YAXPEAX@Z@@@std@@PEAUbio_st@@P6APEAUevp_pkey_st@@0PEAPEAU4@@Z@Z 000000018003fd04     key_exp.obj
 0002:0000cd30       $ip2state$?KEY_import@@YA?AV?$shared_ptr@V?$ScopedSSL@Uevp_pkey_st@@$1?ScopedEVP_PKEY_free@@YAXPEAX@Z@@@std@@PEAUbio_st@@P6APEAUevp_pkey_st@@0PEAPEAU4@@Z@Z 000000018003fd30     key_exp.obj
 0002:0000cd70       $unwind$??$common_xtox_s@K_W@@YAHKQEA_W_KI_N@Z 000000018003fd70     libucrt:xtoa.obj
 0002:0000cd70       $unwind$?KEY_export_pkcs8@@YA?AV?$shared_ptr@V?$basic_string@DU?$char_traits@D@std@@V?$allocator@D@2@@std@@@std@@PEAUevp_pkey_st@@@Z 000000018003fd70     key_exp.obj
 0002:0000cd70       $unwind$?KEY_export_spki@@YA?AV?$shared_ptr@V?$basic_string@DU?$char_traits@D@std@@V?$allocator@D@2@@std@@@std@@PEAUevp_pkey_st@@@Z 000000018003fd70     key_exp.obj
 0002:0000cd70       $unwind$?substr@?$basic_string@DU?$char_traits@D@std@@V?$allocator@D@2@@std@@QEBA?AV12@_K0@Z 000000018003fd70     aes_gcm.obj
 0002:0000cd70       $unwind$??0out_of_range@std@@QEAA@PEBD@Z 000000018003fd70     libcpmt:xthrow.obj
 0002:0000cd70       $unwind$??0length_error@std@@QEAA@PEBD@Z 000000018003fd70     libcpmt:xthrow.obj
 0002:0000cd70       $unwind$wcstol             000000018003fd70     libucrt:strtox.obj
 0002:0000cd78       $unwind$?KEY_import_spki@@YA?AV?$shared_ptr@V?$ScopedSSL@Uevp_pkey_st@@$1?ScopedEVP_PKEY_free@@YAXPEAX@Z@@@std@@V?$shared_ptr@V?$basic_string@DU?$char_traits@D@std@@V?$allocator@D@2@@std@@@2@@Z 000000018003fd78     key_exp.obj
 0002:0000cd90       $stateUnwindMap$?KEY_import_spki@@YA?AV?$shared_ptr@V?$ScopedSSL@Uevp_pkey_st@@$1?ScopedEVP_PKEY_free@@YAXPEAX@Z@@@std@@V?$shared_ptr@V?$basic_string@DU?$char_traits@D@std@@V?$allocator@D@2@@std@@@2@@Z 000000018003fd90     key_exp.obj
 0002:0000cd90       $stateUnwindMap$?KEY_import_pkcs8@@YA?AV?$shared_ptr@V?$ScopedSSL@Uevp_pkey_st@@$1?ScopedEVP_PKEY_free@@YAXPEAX@Z@@@std@@V?$shared_ptr@V?$basic_string@DU?$char_traits@D@std@@V?$allocator@D@2@@std@@@2@@Z 000000018003fd90     key_exp.obj
 0002:0000cda8       $ip2state$?KEY_import_spki@@YA?AV?$shared_ptr@V?$ScopedSSL@Uevp_pkey_st@@$1?ScopedEVP_PKEY_free@@YAXPEAX@Z@@@std@@V?$shared_ptr@V?$basic_string@DU?$char_traits@D@std@@V?$allocator@D@2@@std@@@2@@Z 000000018003fda8     key_exp.obj
 0002:0000cdd0       $unwind$?KEY_import_pkcs8@@YA?AV?$shared_ptr@V?$ScopedSSL@Uevp_pkey_st@@$1?ScopedEVP_PKEY_free@@YAXPEAX@Z@@@std@@V?$shared_ptr@V?$basic_string@DU?$char_traits@D@std@@V?$allocator@D@2@@std@@@2@@Z 000000018003fdd0     key_exp.obj
 0002:0000cde8       $ip2state$?KEY_import_pkcs8@@YA?AV?$shared_ptr@V?$ScopedSSL@Uevp_pkey_st@@$1?ScopedEVP_PKEY_free@@YAXPEAX@Z@@@std@@V?$shared_ptr@V?$basic_string@DU?$char_traits@D@std@@V?$allocator@D@2@@std@@@2@@Z 000000018003fde8     key_exp.obj
 0002:0000ce10       $chain$0$??1?$shared_ptr@V?$ScopedSSL@Uevp_pkey_st@@$1?ScopedEVP_PKEY_free@@YAXPEAX@Z@@@std@@QEAA@XZ 000000018003fe10     key_exp.obj
 0002:0000ce10       $chain$0$??1?$shared_ptr@VScopedPbkdf2@@@std@@QEAA@XZ 000000018003fe10     w_pbkdf2.obj
 0002:0000ce10       $chain$0$??1?$shared_ptr@VJwkEc@@@std@@QEAA@XZ 000000018003fe10     ec_jwk.obj
 0002:0000ce10       $chain$0$??1?$shared_ptr@V?$basic_string@DU?$char_traits@D@std@@V?$allocator@D@2@@std@@@std@@QEAA@XZ 000000018003fe10     key_exp.obj
 0002:0000ce10       $chain$0$??1?$shared_ptr@VScopedHMAC@@@std@@QEAA@XZ 000000018003fe10     hmac_gen.obj
 0002:0000ce10       $chain$0$??1?$shared_ptr@VScopedAES@@@std@@QEAA@XZ 000000018003fe10     aes_gen.obj
 0002:0000ce10       $chain$0$??1?$shared_ptr@VJwkRsa@@@std@@QEAA@XZ 000000018003fe10     rsa_jwk.obj
 0002:0000ce24       $chain$1$??1?$shared_ptr@VScopedAES@@@std@@QEAA@XZ 000000018003fe24     aes_gen.obj
 0002:0000ce24       $chain$1$??1?$shared_ptr@VScopedHMAC@@@std@@QEAA@XZ 000000018003fe24     hmac_gen.obj
 0002:0000ce24       $chain$1$??1?$shared_ptr@VJwkEc@@@std@@QEAA@XZ 000000018003fe24     ec_jwk.obj
 0002:0000ce24       $chain$1$??1?$shared_ptr@VScopedPbkdf2@@@std@@QEAA@XZ 000000018003fe24     w_pbkdf2.obj
 0002:0000ce24       $chain$1$??1?$shared_ptr@V?$basic_string@DU?$char_traits@D@std@@V?$allocator@D@2@@std@@@std@@QEAA@XZ 000000018003fe24     key_exp.obj
 0002:0000ce24       $chain$1$??1?$shared_ptr@VJwkRsa@@@std@@QEAA@XZ 000000018003fe24     rsa_jwk.obj
 0002:0000ce24       $chain$1$??1?$shared_ptr@V?$ScopedSSL@Uevp_pkey_st@@$1?ScopedEVP_PKEY_free@@YAXPEAX@Z@@@std@@QEAA@XZ 000000018003fe24     key_exp.obj
 0002:0000ce34       $unwind$??1?$ScopedSSL@Uevp_pkey_ctx_st@@$1?ScopedEVP_PKEY_CTX_free@@YAXPEAX@Z@@QEAA@XZ 000000018003fe34     rsa_oaep.obj
 0002:0000ce34       $unwind$??1?$ScopedSSL@UECDSA_SIG_st@@$1?ScopedECDSA_SIG_free@@YAXPEAX@Z@@QEAA@XZ 000000018003fe34     ec_dsa.obj
 0002:0000ce34       $unwind$??1?$ScopedSSL@Uenv_md_ctx_st@@$1?ScopedEVP_MD_CTX_free@@YAXPEAX@Z@@QEAA@XZ 000000018003fe34     rsa_pkcs1.obj
 0002:0000ce34       $unwind$??1?$ScopedSSL@Ubignum_ctx@@$1?ScopedBN_CTX_free@@YAXPEAX@Z@@QEAA@XZ 000000018003fe34     ec_jwk.obj
 0002:0000ce34       $unwind$??1?$ScopedSSL@Ubignum_st@@$1?ScopedBIGNUM_free@@YAXPEAX@Z@@QEAA@XZ 000000018003fe34     rsa_gen.obj
 0002:0000ce34       $unwind$??1?$ScopedSSL@Uec_group_st@@$1?ScopedEC_GROUP_free@@YAXPEAX@Z@@QEAA@XZ 000000018003fe34     ec_jwk.obj
 0002:0000ce34       $unwind$??1?$ScopedSSL@Uevp_pkey_st@@$1?ScopedEVP_PKEY_free@@YAXPEAX@Z@@QEAA@XZ 000000018003fe34     key_exp.obj
 0002:0000ce34       $unwind$??1?$ScopedSSL@Uevp_cipher_ctx_st@@$1?ScopedEVP_CIPHER_CTX_free@@YAXPEAX@Z@@QEAA@XZ 000000018003fe34     aes_ecb.obj
 0002:0000ce34       $unwind$??1?$ScopedSSL@Uec_key_st@@$1?ScopedEC_KEY_free@@YAXPEAX@Z@@QEAA@XZ 000000018003fe34     ec_gen.obj
 0002:0000ce34       $unwind$??1?$ScopedSSL@Ubio_st@@$1?ScopedBIO_free@@YAXPEAX@Z@@QEAA@XZ 000000018003fe34     key_exp.obj
 0002:0000ce34       $unwind$??1?$ScopedSSL@Ursa_st@@$1?ScopedRSA_free@@YAXPEAX@Z@@QEAA@XZ 000000018003fe34     w_key.obj
 0002:0000ce48       $ip2state$??1?$ScopedSSL@Ubignum_st@@$1?ScopedBIGNUM_free@@YAXPEAX@Z@@QEAA@XZ 000000018003fe48     rsa_gen.obj
 0002:0000ce48       $ip2state$??1?$ScopedSSL@Uenv_md_ctx_st@@$1?ScopedEVP_MD_CTX_free@@YAXPEAX@Z@@QEAA@XZ 000000018003fe48     rsa_pkcs1.obj
 0002:0000ce48       $ip2state$??1?$ScopedSSL@Uec_key_st@@$1?ScopedEC_KEY_free@@YAXPEAX@Z@@QEAA@XZ 000000018003fe48     ec_gen.obj
 0002:0000ce48       $ip2state$??1?$ScopedSSL@UECDSA_SIG_st@@$1?ScopedECDSA_SIG_free@@YAXPEAX@Z@@QEAA@XZ 000000018003fe48     ec_dsa.obj
 0002:0000ce48       $ip2state$??1?$ScopedSSL@Ubignum_ctx@@$1?ScopedBN_CTX_free@@YAXPEAX@Z@@QEAA@XZ 000000018003fe48     ec_jwk.obj
 0002:0000ce48       $ip2state$??1?$ScopedSSL@Uevp_pkey_st@@$1?ScopedEVP_PKEY_free@@YAXPEAX@Z@@QEAA@XZ 000000018003fe48     key_exp.obj
 0002:0000ce48       $ip2state$??1?$ScopedSSL@Ubio_st@@$1?ScopedBIO_free@@YAXPEAX@Z@@QEAA@XZ 000000018003fe48     key_exp.obj
 0002:0000ce48       $ip2state$??1?$ScopedSSL@Uevp_cipher_ctx_st@@$1?ScopedEVP_CIPHER_CTX_free@@YAXPEAX@Z@@QEAA@XZ 000000018003fe48     aes_ecb.obj
 0002:0000ce48       $ip2state$??1?$ScopedSSL@Ursa_st@@$1?ScopedRSA_free@@YAXPEAX@Z@@QEAA@XZ 000000018003fe48     w_key.obj
 0002:0000ce48       $ip2state$??1?$ScopedSSL@Uec_group_st@@$1?ScopedEC_GROUP_free@@YAXPEAX@Z@@QEAA@XZ 000000018003fe48     ec_jwk.obj
 0002:0000ce48       $ip2state$??1?$ScopedSSL@Uevp_pkey_ctx_st@@$1?ScopedEVP_PKEY_CTX_free@@YAXPEAX@Z@@QEAA@XZ 000000018003fe48     rsa_oaep.obj
 0002:0000ce50       $unwind$?type_case_s@?$output_processor@_WV?$stream_output_adapter@_W@__crt_stdio_output@@V?$standard_base@_WV?$stream_output_adapter@_W@__crt_stdio_output@@@2@@__crt_stdio_output@@AEAA_NXZ 000000018003fe50     libucrt:output.obj
 0002:0000ce50       $unwind$??0ScopedAES@@QEAA@V?$shared_ptr@V?$basic_string@DU?$char_traits@D@std@@V?$allocator@D@2@@std@@@std@@@Z 000000018003fe50     async_aes.obj
 0002:0000ce50       $unwind$memcpy_s           000000018003fe50     libucrt:cfout.obj
 0002:0000ce50       $unwind$_RTC_Initialize    000000018003fe50     LIBCMT:_initsect_.obj
 0002:0000ce50       $unwind$_initterm_e        000000018003fe50     libucrt:initterm.obj
 0002:0000ce50       $unwind$?SetErrorMessage@AsyncWorker@Nan@@IEAAXPEBD@Z 000000018003fe50     async_rsa.obj
 0002:0000ce50       $unwind$?free_crt_array_internal@@YAXQEAPEBX_K@Z 000000018003fe50     libucrt:inittime.obj
 0002:0000ce50       $unwind$?type_case_s@?$output_processor@_WV?$string_output_adapter@_W@__crt_stdio_output@@V?$standard_base@_WV?$string_output_adapter@_W@__crt_stdio_output@@@2@@__crt_stdio_output@@AEAA_NXZ 000000018003fe50     libucrt:output.obj
 0002:0000ce50       $unwind$_exception_enabled 000000018003fe50     libucrt:libm_error.obj
 0002:0000ce50       $unwind$?type_case_Z@?$output_processor@_WV?$string_output_adapter@_W@__crt_stdio_output@@V?$standard_base@_WV?$string_output_adapter@_W@__crt_stdio_output@@@2@@__crt_stdio_output@@AEAA_NXZ 000000018003fe50     libucrt:output.obj
 0002:0000ce50       $unwind$__acrt_execute_uninitializers 000000018003fe50     libucrt:shared_initialization.obj
 0002:0000ce50       $unwind$__acrt_LocaleNameToLCID 000000018003fe50     libucrt:winapi_thunks.obj
 0002:0000ce50       $unwind$?type_case_n@?$output_processor@_WV?$stream_output_adapter@_W@__crt_stdio_output@@V?$standard_base@_WV?$stream_output_adapter@_W@__crt_stdio_output@@@2@@__crt_stdio_output@@AEAA_NXZ 000000018003fe50     libucrt:output.obj
 0002:0000ce50       $unwind$?type_case_n@?$output_processor@_WV?$string_output_adapter@_W@__crt_stdio_output@@V?$standard_base@_WV?$string_output_adapter@_W@__crt_stdio_output@@@2@@__crt_stdio_output@@AEAA_NXZ 000000018003fe50     libucrt:output.obj
 0002:0000ce50       $unwind$_RTC_Terminate     000000018003fe50     LIBCMT:_initsect_.obj
 0002:0000ce50       $unwind$?__scrt_initialize_thread_safe_statics@@YAHXZ 000000018003fe50     LIBCMT:thread_safe_statics.obj
 0002:0000ce50       $unwind$?type_case_Z@?$output_processor@_WV?$stream_output_adapter@_W@__crt_stdio_output@@V?$standard_base@_WV?$stream_output_adapter@_W@__crt_stdio_output@@@2@@__crt_stdio_output@@AEAA_NXZ 000000018003fe50     libucrt:output.obj
 0002:0000ce50       $unwind$__vcrt_FlsSetValue 000000018003fe50     libvcruntime:winapi_downlevel.obj
 0002:0000ce50       $unwind$_Init_thread_wait  000000018003fe50     LIBCMT:thread_safe_statics.obj
 0002:0000ce50       $unwind$_DllMainCRTStartup 000000018003fe50     LIBCMT:dll_dllmain.obj
 0002:0000ce50       $unwind$__acrt_getptd_noexit 000000018003fe50     libucrt:per_thread_data.obj
 0002:0000ce50       $unwind$__acrt_stdio_flush_and_write_wide_nolock 000000018003fe50     libucrt:_flsbuf.obj
 0002:0000ce50       $unwind$__vcrt_getptd_noexit 000000018003fe50     libvcruntime:per_thread_data.obj
 0002:0000ce50       $unwind$??R<lambda_ad1ced32f4ac17aa236e5ef05d6b3b7c>@@QEBAXXZ 000000018003fe50     libucrt:mbctype.obj
 0002:0000ce50       $unwind$__acrt_FlsSetValue 000000018003fe50     libucrt:winapi_thunks.obj
 0002:0000ce50       $unwind$??$common_lseek_nolock@_J@@YA_JH_JH@Z 000000018003fe50     libucrt:lseek.obj
 0002:0000ce50       $unwind$__acrt_stdio_flush_nolock 000000018003fe50     libucrt:fflush.obj
 0002:0000ce50       $unwind$__acrt_stdio_flush_and_write_narrow_nolock 000000018003fe50     libucrt:_flsbuf.obj
 0002:0000ce50       $unwind$?assign@?$basic_string@DU?$char_traits@D@std@@V?$allocator@D@2@@std@@QEAAAEAV12@PEBD_K@Z 000000018003fe50     key_exp.obj
 0002:0000ce60       $unwind$?initialize_stdio_handles_nolock@@YAXXZ 000000018003fe60     libucrt:ioinit.obj
 0002:0000ce60       $unwind$__std_exception_copy 000000018003fe60     libvcruntime:std_exception.obj
 0002:0000ce60       $unwind$?assign@?$basic_string@DU?$char_traits@D@std@@V?$allocator@D@2@@std@@QEAAAEAV12@AEBV12@_K1@Z 000000018003fe60     key_exp.obj
 0002:0000ce60       $unwind$_free_osfhnd       000000018003fe60     libucrt:osfinfo.obj
 0002:0000ce74       $unwind$__acrt_FlsFree     000000018003fe74     libucrt:winapi_thunks.obj
 0002:0000ce74       $unwind$??$common_initialize_environment_nolock@D@@YAHXZ 000000018003fe74     libucrt:environment_initialization.obj
 0002:0000ce74       $unwind$_updatetlocinfoEx_nolock 000000018003fe74     libucrt:locale_refcounting.obj
 0002:0000ce74       $unwind$__acrt_getptd      000000018003fe74     libucrt:per_thread_data.obj
 0002:0000ce74       $unwind$??_GAsyncVerifyRsaPSS@@UEAAPEAXI@Z 000000018003fe74     w_key.obj
 0002:0000ce74       $unwind$_FindAndUnlinkFrame 000000018003fe74     libvcruntime:trnsctrl.obj
 0002:0000ce74       $unwind$?__SetUnwindTryBlock@@YAXPEA_KPEAU_xDISPATCHER_CONTEXT@@PEBU_s_FuncInfo@@H@Z 000000018003fe74     libvcruntime:ehstate.obj
 0002:0000ce74       $unwind$__acrt_FlsAlloc    000000018003fe74     libucrt:winapi_thunks.obj
 0002:0000ce74       $unwind$??4?$ScopedSSL@Ubignum_st@@$1?ScopedBIGNUM_free@@YAXPEAX@Z@@QEAAAEAV0@PEAUbignum_st@@@Z 000000018003fe74     rsa_gen.obj
 0002:0000ce74       $unwind$??_GAsyncAesImport@@UEAAPEAXI@Z 000000018003fe74     w_aes.obj
 0002:0000ce74       $unwind$??_GAsyncDigest@@UEAAPEAXI@Z 000000018003fe74     w_core.obj
 0002:0000ce74       $unwind$??_GAsyncEcdhDeriveKey@@UEAAPEAXI@Z 000000018003fe74     w_key.obj
 0002:0000ce74       $unwind$??_GAsyncAesWrapKey@@UEAAPEAXI@Z 000000018003fe74     w_aes.obj
 0002:0000ce74       $unwind$_close_nolock      000000018003fe74     libucrt:close.obj
 0002:0000ce74       $unwind$??_GAsyncHmacGenerateKey@@UEAAPEAXI@Z 000000018003fe74     w_hmac.obj
 0002:0000ce74       $unwind$__acrt_get_parent_window 000000018003fe74     libucrt:winapi_thunks.obj
 0002:0000ce74       $unwind$__vcrt_FlsFree     000000018003fe74     libvcruntime:winapi_downlevel.obj
 0002:0000ce74       $unwind$??_GAsyncAesEncryptGCM@@UEAAPEAXI@Z 000000018003fe74     w_aes.obj
 0002:0000ce74       $unwind$??_GAsyncEcdhDeriveBits@@UEAAPEAXI@Z 000000018003fe74     w_key.obj
 0002:0000ce74       $unwind$??_Gbad_alloc@std@@UEAAPEAXI@Z 000000018003fe74     libcpmt:xthrow.obj
 0002:0000ce74       $unwind$??_GAsyncAesExport@@UEAAPEAXI@Z 000000018003fe74     w_aes.obj
 0002:0000ce74       $unwind$__acrt_FlsGetValue 000000018003fe74     libucrt:winapi_thunks.obj
 0002:0000ce74       $unwind$__acrt_errno_map_os_error 000000018003fe74     libucrt:errno.obj
 0002:0000ce74       $unwind$_realloc_base      000000018003fe74     libucrt:realloc_base.obj
 0002:0000ce74       $unwind$??_GAsyncRsaGenerateKey@@UEAAPEAXI@Z 000000018003fe74     w_key.obj
 0002:0000ce74       $unwind$?try_cor_exit_process@@YAXI@Z 000000018003fe74     libucrt:exit.obj
 0002:0000ce74       $unwind$??_GAsyncEcImportJwk@@UEAAPEAXI@Z 000000018003fe74     w_key.obj
 0002:0000ce74       $unwind$??_GAsyncHmacExport@@UEAAPEAXI@Z 000000018003fe74     w_hmac.obj
 0002:0000ce74       $unwind$??_GAsyncEcGenerateKey@@UEAAPEAXI@Z 000000018003fe74     w_key.obj
 0002:0000ce74       $unwind$??_Gexception@std@@UEAAPEAXI@Z 000000018003fe74     libcpmt:xthrow.obj
 0002:0000ce74       $unwind$??_GAsyncEcExportJwk@@UEAAPEAXI@Z 000000018003fe74     w_key.obj
 0002:0000ce74       $unwind$??_GAsyncAesEncryptECB@@UEAAPEAXI@Z 000000018003fe74     w_aes.obj
 0002:0000ce74       $unwind$??_GAsyncEcdsaVerify@@UEAAPEAXI@Z 000000018003fe74     w_key.obj
 0002:0000ce74       $unwind$?internal_isupper_l@@YA_NHQEAU__crt_locale_pointers@@@Z 000000018003fe74     libucrt:tolower_toupper.obj
 0002:0000ce74       $unwind$??_GAsyncHmacImport@@UEAAPEAXI@Z 000000018003fe74     w_hmac.obj
 0002:0000ce74       $unwind$?replace_current_thread_locale_nolock@@YAXQEAU__acrt_ptd@@QEAU__crt_locale_data@@@Z 000000018003fe74     libucrt:per_thread_data.obj
 0002:0000ce74       $unwind$??_Gbad_array_new_length@std@@UEAAPEAXI@Z 000000018003fe74     LIBCMT:throw_bad_alloc.obj
 0002:0000ce74       $unwind$??_GAsyncEcdsaSign@@UEAAPEAXI@Z 000000018003fe74     w_key.obj
 0002:0000ce74       $unwind$??_GAsyncEncrypDecryptRsaOAEP@@UEAAPEAXI@Z 000000018003fe74     w_key.obj
 0002:0000ce74       $unwind$??_GAsyncAesEncryptCTR@@UEAAPEAXI@Z 000000018003fe74     w_aes.obj
 0002:0000ce74       $unwind$??_GAsyncSignRsaPSS@@UEAAPEAXI@Z 000000018003fe74     w_key.obj
 0002:0000ce74       $unwind$??_GAsyncHmacSign@@UEAAPEAXI@Z 000000018003fe74     w_hmac.obj
 0002:0000ce74       $unwind$??_GAsyncAesEncryptCBC@@UEAAPEAXI@Z 000000018003fe74     w_aes.obj
 0002:0000ce74       $unwind$??$common_xtox@K_W@@YAHKQEA_W_KI_N@Z 000000018003fe74     libucrt:xtoa.obj
 0002:0000ce74       $unwind$??_GWCore@@UEAAPEAXI@Z 000000018003fe74     w_core.obj
 0002:0000ce74       $unwind$??0_LocaleUpdate@@QEAA@QEAU__crt_locale_pointers@@@Z 000000018003fe74     libucrt:stricmp.obj
 0002:0000ce74       $unwind$__acrt_invoke_user_matherr 000000018003fe74     libucrt:matherr.obj
 0002:0000ce74       $unwind$?ExFilterRethrow@@YAHPEAU_EXCEPTION_POINTERS@@PEAUEHExceptionRecord@@PEAH@Z 000000018003fe74     libvcruntime:frame.obj
 0002:0000ce74       $unwind$??_GAsyncHmacVerify@@UEAAPEAXI@Z 000000018003fe74     w_hmac.obj
 0002:0000ce74       $unwind$??_GAsyncVerifyRsa@@UEAAPEAXI@Z 000000018003fe74     w_key.obj
 0002:0000ce74       $unwind$?DloadAcquireSectionWriteAccess@@YAXXZ 000000018003fe74     DelayImp:delayhlp.obj
 0002:0000ce74       $unwind$_fclose_nolock     000000018003fe74     libucrt:fclose.obj
 0002:0000ce74       $unwind$_callnewh          000000018003fe74     libucrt:new_handler.obj
 0002:0000ce74       $unwind$??_GAsyncAesGenerateKey@@UEAAPEAXI@Z 000000018003fe74     w_aes.obj
 0002:0000ce74       $unwind$?DloadGetSRWLockFunctionPointers@@YAEXZ 000000018003fe74     DelayImp:delayhlp.obj
 0002:0000ce74       $unwind$??_GAsyncSignRsa@@UEAAPEAXI@Z 000000018003fe74     w_key.obj
 0002:0000ce74       $unwind$wcsncat_s          000000018003fe74     libucrt:wcsncat_s.obj
 0002:0000ce74       $unwind$??_GAsyncWorker@Nan@@UEAAPEAXI@Z 000000018003fe74     w_key.obj
 0002:0000ce74       $unwind$??_GAsyncPbkdf2DeriveBits@@UEAAPEAXI@Z 000000018003fe74     w_pbkdf2.obj
 0002:0000ce74       $unwind$?erase@?$basic_string@DU?$char_traits@D@std@@V?$allocator@D@2@@std@@QEAAAEAV12@_K0@Z 000000018003fe74     key_exp.obj
 0002:0000ce74       $unwind$??_Gout_of_range@std@@UEAAPEAXI@Z 000000018003fe74     libcpmt:xthrow.obj
 0002:0000ce74       $unwind$??_Gbad_exception@std@@UEAAPEAXI@Z 000000018003fe74     libvcruntime:frame.obj
 0002:0000ce74       $unwind$__vcrt_FlsGetValue 000000018003fe74     libvcruntime:winapi_downlevel.obj
 0002:0000ce74       $unwind$??_GAsyncImportJwkRsa@@UEAAPEAXI@Z 000000018003fe74     w_key.obj
 0002:0000ce74       $unwind$??_Glogic_error@std@@UEAAPEAXI@Z 000000018003fe74     libcpmt:xthrow.obj
 0002:0000ce74       $unwind$??_GAsyncExportJwkRsa@@UEAAPEAXI@Z 000000018003fe74     w_key.obj
 0002:0000ce74       $unwind$__acrt_uninitialize_lowio 000000018003fe74     libucrt:ioinit.obj
 0002:0000ce74       $unwind$??_GObjectWrap@node@@UEAAPEAXI@Z 000000018003fe74     w_key.obj
 0002:0000ce74       $unwind$__acrt_stdio_begin_temporary_buffering_nolock 000000018003fe74     libucrt:_sftbuf.obj
 0002:0000ce74       $unwind$strncpy_s          000000018003fe74     libucrt:strncpy_s.obj
 0002:0000ce74       $unwind$??_GAsyncExportPkcs8@@UEAAPEAXI@Z 000000018003fe74     w_key.obj
 0002:0000ce74       $unwind$?force_decimal_point@__crt_stdio_output@@YAXPEADQEAU__crt_locale_pointers@@@Z 000000018003fe74     libucrt:output.obj
 0002:0000ce74       $unwind$??_Glength_error@std@@UEAAPEAXI@Z 000000018003fe74     libcpmt:xthrow.obj
 0002:0000ce74       $unwind$??_GAsyncPbkdf2Import@@UEAAPEAXI@Z 000000018003fe74     w_pbkdf2.obj
 0002:0000ce74       $unwind$__vcrt_FlsAlloc    000000018003fe74     libvcruntime:winapi_downlevel.obj
 0002:0000ce74       $unwind$??_GAsyncExportSpki@@UEAAPEAXI@Z 000000018003fe74     w_key.obj
 0002:0000ce74       $unwind$??_GAsyncImportSpki@@UEAAPEAXI@Z 000000018003fe74     w_key.obj
 0002:0000ce74       $unwind$??_GAsyncImportPkcs8@@UEAAPEAXI@Z 000000018003fe74     w_key.obj
 0002:0000ce80       $unwind$?_Copy@?$basic_string@DU?$char_traits@D@std@@V?$allocator@D@2@@std@@QEAAX_K0@Z 000000018003fe80     key_exp.obj
 0002:0000ce94       $unwind$??$?0VJwkEc@@@?$shared_ptr@VJwkEc@@@std@@QEAA@PEAVJwkEc@@@Z 000000018003fe94     ec_jwk.obj
 0002:0000ce94       $unwind$?NewInstance@WKey@@SA?AV?$Local@VObject@v8@@@v8@@XZ 000000018003fe94     w_key.obj
 0002:0000ce94       $unwind$__acrt_is_packaged_app 000000018003fe94     libucrt:winapi_thunks.obj
 0002:0000ce94       $unwind$?NewInstance@WPbkdf2@@SA?AV?$Local@VObject@v8@@@v8@@XZ 000000018003fe94     async_pbkdf2.obj
 0002:0000ce94       $unwind$?NewInstance@WAes@@SA?AV?$Local@VObject@v8@@@v8@@XZ 000000018003fe94     async_aes.obj
 0002:0000ce94       $unwind$??0ScopedPbkdf2@@QEAA@V?$shared_ptr@V?$basic_string@DU?$char_traits@D@std@@V?$allocator@D@2@@std@@@std@@@Z 000000018003fe94     async_pbkdf2.obj
 0002:0000ce94       $unwind$??$?0V?$basic_string@DU?$char_traits@D@std@@V?$allocator@D@2@@std@@@?$shared_ptr@V?$basic_string@DU?$char_traits@D@std@@V?$allocator@D@2@@std@@@std@@QEAA@PEAV?$basic_string@DU?$char_traits@D@std@@V?$allocator@D@2@@1@@Z 000000018003fe94     key_exp.obj
 0002:0000ce94       $unwind$??0ScopedHMAC@@QEAA@V?$shared_ptr@V?$basic_string@DU?$char_traits@D@std@@V?$allocator@D@2@@std@@@std@@@Z 000000018003fe94     async_hmac.obj
 0002:0000ce94       $unwind$?NewInstance@WHmac@@SA?AV?$Local@VObject@v8@@@v8@@XZ 000000018003fe94     async_hmac.obj
 0002:0000ce94       $unwind$iswctype           000000018003fe94     libucrt:iswctype.obj
 0002:0000ce94       $unwind$??$?0VJwkRsa@@@?$shared_ptr@VJwkRsa@@@std@@QEAA@PEAVJwkRsa@@@Z 000000018003fe94     rsa_jwk.obj
 0002:0000cea0       $unwind$??$?0V?$ScopedSSL@Uevp_pkey_st@@$1?ScopedEVP_PKEY_free@@YAXPEAX@Z@@@?$shared_ptr@V?$ScopedSSL@Uevp_pkey_st@@$1?ScopedEVP_PKEY_free@@YAXPEAX@Z@@@std@@QEAA@PEAV?$ScopedSSL@Uevp_pkey_st@@$1?ScopedEVP_PKEY_free@@YAXPEAX@Z@@@Z 000000018003fea0     key_exp.obj
 0002:0000ceac       $unwind$?_Destroy@?$_Ref_count@V?$ScopedSSL@Uevp_pkey_st@@$1?ScopedEVP_PKEY_free@@YAXPEAX@Z@@@std@@EEAAXXZ 000000018003feac     key_exp.obj
 0002:0000cebc       $stateUnwindMap$?_Destroy@?$_Ref_count@V?$ScopedSSL@Uevp_pkey_st@@$1?ScopedEVP_PKEY_free@@YAXPEAX@Z@@@std@@EEAAXXZ 000000018003febc     key_exp.obj
 0002:0000cebc       $stateUnwindMap$??1JwkRsa@@QEAA@XZ 000000018003febc     rsa_jwk.obj
 0002:0000cebc       $stateUnwindMap$??__Fmy_constructor@?1??constructor@WHmac@@KAAEAV?$Persistent@VFunction@v8@@V?$NonCopyablePersistentTraits@VFunction@v8@@@2@@Nan@@XZ@YAXXZ 000000018003febc     w_hmac.obj
 0002:0000cebc       $stateUnwindMap$??__Fmy_constructor@?1??constructor@WPbkdf2@@KAAEAV?$Persistent@VFunction@v8@@V?$NonCopyablePersistentTraits@VFunction@v8@@@2@@Nan@@XZ@YAXXZ 000000018003febc     w_pbkdf2.obj
 0002:0000cebc       $stateUnwindMap$??__Fmy_constructor@?1??constructor@WCore@@KAAEAV?$Persistent@VFunction@v8@@V?$NonCopyablePersistentTraits@VFunction@v8@@@2@@Nan@@XZ@YAXXZ 000000018003febc     w_core.obj
 0002:0000cebc       $stateUnwindMap$?_Destroy@?$_Ref_count@VJwkEc@@@std@@EEAAXXZ 000000018003febc     ec_jwk.obj
 0002:0000cebc       $stateUnwindMap$??__Fmy_constructor@?1??constructor@WKey@@KAAEAV?$Persistent@VFunction@v8@@V?$NonCopyablePersistentTraits@VFunction@v8@@@2@@Nan@@XZ@YAXXZ 000000018003febc     w_key.obj
 0002:0000cebc       $stateUnwindMap$??1?$Persistent@VObject@v8@@V?$NonCopyablePersistentTraits@VObject@v8@@@2@@Nan@@QEAA@XZ 000000018003febc     w_key.obj
 0002:0000cebc       $stateUnwindMap$??1ObjectWrap@node@@UEAA@XZ 000000018003febc     w_key.obj
 0002:0000cebc       $stateUnwindMap$??__Fmy_constructor@?1??constructor@WAes@@KAAEAV?$Persistent@VFunction@v8@@V?$NonCopyablePersistentTraits@VFunction@v8@@@2@@Nan@@XZ@YAXXZ 000000018003febc     w_aes.obj
 0002:0000cec8       $ip2state$?_Destroy@?$_Ref_count@V?$ScopedSSL@Uevp_pkey_st@@$1?ScopedEVP_PKEY_free@@YAXPEAX@Z@@@std@@EEAAXXZ 000000018003fec8     key_exp.obj
 0002:0000cee0       $unwind$?_Reset0@?$_Ptr_base@VScopedPbkdf2@@@std@@QEAAXPEAVScopedPbkdf2@@PEAV_Ref_count_base@2@@Z 000000018003fee0     w_pbkdf2.obj
 0002:0000cee0       $unwind$?_Reset0@?$_Ptr_base@VJwkRsa@@@std@@QEAAXPEAVJwkRsa@@PEAV_Ref_count_base@2@@Z 000000018003fee0     rsa_jwk.obj
 0002:0000cee0       $unwind$?_Reset0@?$_Ptr_base@VScopedHMAC@@@std@@QEAAXPEAVScopedHMAC@@PEAV_Ref_count_base@2@@Z 000000018003fee0     hmac_gen.obj
 0002:0000cee0       $unwind$?_Reset0@?$_Ptr_base@V?$ScopedSSL@Uevp_pkey_st@@$1?ScopedEVP_PKEY_free@@YAXPEAX@Z@@@std@@QEAAXPEAV?$ScopedSSL@Uevp_pkey_st@@$1?ScopedEVP_PKEY_free@@YAXPEAX@Z@@PEAV_Ref_count_base@2@@Z 000000018003fee0     key_exp.obj
 0002:0000cee0       $unwind$?parse_int_from_format_string@?$output_processor@_WV?$string_output_adapter@_W@__crt_stdio_output@@V?$standard_base@_WV?$string_output_adapter@_W@__crt_stdio_output@@@2@@__crt_stdio_output@@AEAA_NQEAH@Z 000000018003fee0     libucrt:output.obj
 0002:0000cee0       $unwind$?_Reset0@?$_Ptr_base@VScopedAES@@@std@@QEAAXPEAVScopedAES@@PEAV_Ref_count_base@2@@Z 000000018003fee0     aes_gen.obj
 0002:0000cee0       $unwind$?_Reset0@?$_Ptr_base@V?$basic_string@DU?$char_traits@D@std@@V?$allocator@D@2@@std@@@std@@QEAAXPEAV?$basic_string@DU?$char_traits@D@std@@V?$allocator@D@2@@2@PEAV_Ref_count_base@2@@Z 000000018003fee0     key_exp.obj
 0002:0000cee0       $unwind$?_Reset0@?$_Ptr_base@VJwkEc@@@std@@QEAAXPEAVJwkEc@@PEAV_Ref_count_base@2@@Z 000000018003fee0     ec_jwk.obj
 0002:0000cee0       $unwind$?parse_int_from_format_string@?$output_processor@_WV?$stream_output_adapter@_W@__crt_stdio_output@@V?$standard_base@_WV?$stream_output_adapter@_W@__crt_stdio_output@@@2@@__crt_stdio_output@@AEAA_NQEAH@Z 000000018003fee0     libucrt:output.obj
 0002:0000cef4       $chain$0$?_Reset0@?$_Ptr_base@VJwkEc@@@std@@QEAAXPEAVJwkEc@@PEAV_Ref_count_base@2@@Z 000000018003fef4     ec_jwk.obj
 0002:0000cef4       $chain$0$?_Reset0@?$_Ptr_base@VJwkRsa@@@std@@QEAAXPEAVJwkRsa@@PEAV_Ref_count_base@2@@Z 000000018003fef4     rsa_jwk.obj
 0002:0000cef4       $chain$0$?_Reset0@?$_Ptr_base@V?$ScopedSSL@Uevp_pkey_st@@$1?ScopedEVP_PKEY_free@@YAXPEAX@Z@@@std@@QEAAXPEAV?$ScopedSSL@Uevp_pkey_st@@$1?ScopedEVP_PKEY_free@@YAXPEAX@Z@@PEAV_Ref_count_base@2@@Z 000000018003fef4     key_exp.obj
 0002:0000cef4       $chain$0$?_Reset0@?$_Ptr_base@VScopedAES@@@std@@QEAAXPEAVScopedAES@@PEAV_Ref_count_base@2@@Z 000000018003fef4     aes_gen.obj
 0002:0000cef4       $chain$0$?_Reset0@?$_Ptr_base@V?$basic_string@DU?$char_traits@D@std@@V?$allocator@D@2@@std@@@std@@QEAAXPEAV?$basic_string@DU?$char_traits@D@std@@V?$allocator@D@2@@2@PEAV_Ref_count_base@2@@Z 000000018003fef4     key_exp.obj
 0002:0000cef4       $chain$0$?_Reset0@?$_Ptr_base@VScopedPbkdf2@@@std@@QEAAXPEAVScopedPbkdf2@@PEAV_Ref_count_base@2@@Z 000000018003fef4     w_pbkdf2.obj
 0002:0000cef4       $chain$0$?_Reset0@?$_Ptr_base@VScopedHMAC@@@std@@QEAAXPEAVScopedHMAC@@PEAV_Ref_count_base@2@@Z 000000018003fef4     hmac_gen.obj
 0002:0000cf08       $chain$1$?_Reset0@?$_Ptr_base@V?$ScopedSSL@Uevp_pkey_st@@$1?ScopedEVP_PKEY_free@@YAXPEAX@Z@@@std@@QEAAXPEAV?$ScopedSSL@Uevp_pkey_st@@$1?ScopedEVP_PKEY_free@@YAXPEAX@Z@@PEAV_Ref_count_base@2@@Z 000000018003ff08     key_exp.obj
 0002:0000cf08       $chain$1$?_Reset0@?$_Ptr_base@VScopedPbkdf2@@@std@@QEAAXPEAVScopedPbkdf2@@PEAV_Ref_count_base@2@@Z 000000018003ff08     w_pbkdf2.obj
 0002:0000cf08       $chain$3$?_Reset0@?$_Ptr_base@VScopedAES@@@std@@QEAAXPEAVScopedAES@@PEAV_Ref_count_base@2@@Z 000000018003ff08     aes_gen.obj
 0002:0000cf08       $chain$1$?_Reset0@?$_Ptr_base@VScopedHMAC@@@std@@QEAAXPEAVScopedHMAC@@PEAV_Ref_count_base@2@@Z 000000018003ff08     hmac_gen.obj
 0002:0000cf08       $chain$1$?_Reset0@?$_Ptr_base@VJwkRsa@@@std@@QEAAXPEAVJwkRsa@@PEAV_Ref_count_base@2@@Z 000000018003ff08     rsa_jwk.obj
 0002:0000cf08       $chain$1$?_Reset0@?$_Ptr_base@V?$basic_string@DU?$char_traits@D@std@@V?$allocator@D@2@@std@@@std@@QEAAXPEAV?$basic_string@DU?$char_traits@D@std@@V?$allocator@D@2@@2@PEAV_Ref_count_base@2@@Z 000000018003ff08     key_exp.obj
 0002:0000cf08       $chain$1$?_Reset0@?$_Ptr_base@VScopedAES@@@std@@QEAAXPEAVScopedAES@@PEAV_Ref_count_base@2@@Z 000000018003ff08     aes_gen.obj
 0002:0000cf08       $chain$3$?_Reset0@?$_Ptr_base@V?$ScopedSSL@Uevp_pkey_st@@$1?ScopedEVP_PKEY_free@@YAXPEAX@Z@@@std@@QEAAXPEAV?$ScopedSSL@Uevp_pkey_st@@$1?ScopedEVP_PKEY_free@@YAXPEAX@Z@@PEAV_Ref_count_base@2@@Z 000000018003ff08     key_exp.obj
 0002:0000cf08       $chain$3$?_Reset0@?$_Ptr_base@VJwkRsa@@@std@@QEAAXPEAVJwkRsa@@PEAV_Ref_count_base@2@@Z 000000018003ff08     rsa_jwk.obj
 0002:0000cf08       $chain$3$?_Reset0@?$_Ptr_base@VScopedPbkdf2@@@std@@QEAAXPEAVScopedPbkdf2@@PEAV_Ref_count_base@2@@Z 000000018003ff08     w_pbkdf2.obj
 0002:0000cf08       $chain$3$?_Reset0@?$_Ptr_base@VJwkEc@@@std@@QEAAXPEAVJwkEc@@PEAV_Ref_count_base@2@@Z 000000018003ff08     ec_jwk.obj
 0002:0000cf08       $chain$3$?_Reset0@?$_Ptr_base@VScopedHMAC@@@std@@QEAAXPEAVScopedHMAC@@PEAV_Ref_count_base@2@@Z 000000018003ff08     hmac_gen.obj
 0002:0000cf08       $chain$1$?_Reset0@?$_Ptr_base@VJwkEc@@@std@@QEAAXPEAVJwkEc@@PEAV_Ref_count_base@2@@Z 000000018003ff08     ec_jwk.obj
 0002:0000cf08       $chain$3$?_Reset0@?$_Ptr_base@V?$basic_string@DU?$char_traits@D@std@@V?$allocator@D@2@@std@@@std@@QEAAXPEAV?$basic_string@DU?$char_traits@D@std@@V?$allocator@D@2@@2@PEAV_Ref_count_base@2@@Z 000000018003ff08     key_exp.obj
 0002:0000cf18       $chain$2$?_Reset0@?$_Ptr_base@VJwkRsa@@@std@@QEAAXPEAVJwkRsa@@PEAV_Ref_count_base@2@@Z 000000018003ff18     rsa_jwk.obj
 0002:0000cf18       $chain$2$?_Reset0@?$_Ptr_base@V?$basic_string@DU?$char_traits@D@std@@V?$allocator@D@2@@std@@@std@@QEAAXPEAV?$basic_string@DU?$char_traits@D@std@@V?$allocator@D@2@@2@PEAV_Ref_count_base@2@@Z 000000018003ff18     key_exp.obj
 0002:0000cf18       $chain$2$?_Reset0@?$_Ptr_base@VScopedAES@@@std@@QEAAXPEAVScopedAES@@PEAV_Ref_count_base@2@@Z 000000018003ff18     aes_gen.obj
 0002:0000cf18       $chain$2$?_Reset0@?$_Ptr_base@VScopedPbkdf2@@@std@@QEAAXPEAVScopedPbkdf2@@PEAV_Ref_count_base@2@@Z 000000018003ff18     w_pbkdf2.obj
 0002:0000cf18       $chain$2$?_Reset0@?$_Ptr_base@V?$ScopedSSL@Uevp_pkey_st@@$1?ScopedEVP_PKEY_free@@YAXPEAX@Z@@@std@@QEAAXPEAV?$ScopedSSL@Uevp_pkey_st@@$1?ScopedEVP_PKEY_free@@YAXPEAX@Z@@PEAV_Ref_count_base@2@@Z 000000018003ff18     key_exp.obj
 0002:0000cf18       $chain$2$?_Reset0@?$_Ptr_base@VJwkEc@@@std@@QEAAXPEAVJwkEc@@PEAV_Ref_count_base@2@@Z 000000018003ff18     ec_jwk.obj
 0002:0000cf18       $chain$2$?_Reset0@?$_Ptr_base@VScopedHMAC@@@std@@QEAAXPEAVScopedHMAC@@PEAV_Ref_count_base@2@@Z 000000018003ff18     hmac_gen.obj
 0002:0000cf2c       $unwind$?OPENSSL_get_errors@@YA?AV?$basic_string@DU?$char_traits@D@std@@V?$allocator@D@2@@std@@XZ 000000018003ff2c     excep.obj
 0002:0000cf40       $stateUnwindMap$?OPENSSL_get_errors@@YA?AV?$basic_string@DU?$char_traits@D@std@@V?$allocator@D@2@@std@@XZ 000000018003ff40     excep.obj
 0002:0000cf40       $stateUnwindMap$?To@JwkRsa@@QEAA?AV?$shared_ptr@V?$ScopedSSL@Uevp_pkey_st@@$1?ScopedEVP_PKEY_free@@YAXPEAX@Z@@@std@@AEAH@Z 000000018003ff40     rsa_jwk.obj
 0002:0000cf50       $ip2state$?OPENSSL_get_errors@@YA?AV?$basic_string@DU?$char_traits@D@std@@V?$allocator@D@2@@std@@XZ 000000018003ff50     excep.obj
 0002:0000cf70       $unwind$?digest@@YA?AV?$shared_ptr@V?$basic_string@DU?$char_traits@D@std@@V?$allocator@D@2@@std@@@std@@PEBUenv_md_st@@V12@@Z 000000018003ff70     digest.obj
 0002:0000cf94       $stateUnwindMap$?digest@@YA?AV?$shared_ptr@V?$basic_string@DU?$char_traits@D@std@@V?$allocator@D@2@@std@@@std@@PEBUenv_md_st@@V12@@Z 000000018003ff94     digest.obj
 0002:0000cfb0       $ip2state$?digest@@YA?AV?$shared_ptr@V?$basic_string@DU?$char_traits@D@std@@V?$allocator@D@2@@std@@@std@@PEBUenv_md_st@@V12@@Z 000000018003ffb0     digest.obj
 0002:0000cfd8       $unwind$?append@?$basic_string@DU?$char_traits@D@std@@V?$allocator@D@2@@std@@QEAAAEAV12@_KD@Z 000000018003ffd8     digest.obj
 0002:0000cfe4       $chain$0$?append@?$basic_string@DU?$char_traits@D@std@@V?$allocator@D@2@@std@@QEAAAEAV12@_KD@Z 000000018003ffe4     digest.obj
 0002:0000cff8       $chain$6$?append@?$basic_string@DU?$char_traits@D@std@@V?$allocator@D@2@@std@@QEAAAEAV12@_KD@Z 000000018003fff8     digest.obj
 0002:0000cff8       $chain$4$?append@?$basic_string@DU?$char_traits@D@std@@V?$allocator@D@2@@std@@QEAAAEAV12@_KD@Z 000000018003fff8     digest.obj
 0002:0000cff8       $chain$2$?append@?$basic_string@DU?$char_traits@D@std@@V?$allocator@D@2@@std@@QEAAAEAV12@_KD@Z 000000018003fff8     digest.obj
 0002:0000d00c       $chain$5$?append@?$basic_string@DU?$char_traits@D@std@@V?$allocator@D@2@@std@@QEAAAEAV12@_KD@Z 000000018004000c     digest.obj
 0002:0000d01c       $unwind$?RSA_generate@@YA?AV?$shared_ptr@V?$ScopedSSL@Uevp_pkey_st@@$1?ScopedEVP_PKEY_free@@YAXPEAX@Z@@@std@@HH@Z 000000018004001c     rsa_gen.obj
 0002:0000d040       $stateUnwindMap$?RSA_generate@@YA?AV?$shared_ptr@V?$ScopedSSL@Uevp_pkey_st@@$1?ScopedEVP_PKEY_free@@YAXPEAX@Z@@@std@@HH@Z 0000000180040040     rsa_gen.obj
 0002:0000d080       $ip2state$?RSA_generate@@YA?AV?$shared_ptr@V?$ScopedSSL@Uevp_pkey_st@@$1?ScopedEVP_PKEY_free@@YAXPEAX@Z@@@std@@HH@Z 0000000180040080     rsa_gen.obj
 0002:0000d0d8       $unwind$?From@JwkRsa@@SA?AV?$shared_ptr@VJwkRsa@@@std@@V?$shared_ptr@V?$ScopedSSL@Uevp_pkey_st@@$1?ScopedEVP_PKEY_free@@YAXPEAX@Z@@@3@AEAH@Z 00000001800400d8     rsa_jwk.obj
 0002:0000d0f4       $stateUnwindMap$?From@JwkRsa@@SA?AV?$shared_ptr@VJwkRsa@@@std@@V?$shared_ptr@V?$ScopedSSL@Uevp_pkey_st@@$1?ScopedEVP_PKEY_free@@YAXPEAX@Z@@@3@AEAH@Z 00000001800400f4     rsa_jwk.obj
 0002:0000d108       $ip2state$?From@JwkRsa@@SA?AV?$shared_ptr@VJwkRsa@@@std@@V?$shared_ptr@V?$ScopedSSL@Uevp_pkey_st@@$1?ScopedEVP_PKEY_free@@YAXPEAX@Z@@@3@AEAH@Z 0000000180040108     rsa_jwk.obj
 0002:0000d128       $unwind$?To@JwkRsa@@QEAA?AV?$shared_ptr@V?$ScopedSSL@Uevp_pkey_st@@$1?ScopedEVP_PKEY_free@@YAXPEAX@Z@@@std@@AEAH@Z 0000000180040128     rsa_jwk.obj
 0002:0000d148       $ip2state$?To@JwkRsa@@QEAA?AV?$shared_ptr@V?$ScopedSSL@Uevp_pkey_st@@$1?ScopedEVP_PKEY_free@@YAXPEAX@Z@@@std@@AEAH@Z 0000000180040148     rsa_jwk.obj
 0002:0000d160       $unwind$??1JwkRsa@@QEAA@XZ 0000000180040160     rsa_jwk.obj
 0002:0000d170       $ip2state$??1JwkRsa@@QEAA@XZ 0000000180040170     rsa_jwk.obj
 0002:0000d188       $unwind$?RSA_PKCS1_sign@@YA?AV?$shared_ptr@V?$basic_string@DU?$char_traits@D@std@@V?$allocator@D@2@@std@@@std@@V?$shared_ptr@V?$ScopedSSL@Uevp_pkey_st@@$1?ScopedEVP_PKEY_free@@YAXPEAX@Z@@@2@PEBUenv_md_st@@V12@@Z 0000000180040188     rsa_pkcs1.obj
 0002:0000d1ac       $stateUnwindMap$?RSA_PKCS1_sign@@YA?AV?$shared_ptr@V?$basic_string@DU?$char_traits@D@std@@V?$allocator@D@2@@std@@@std@@V?$shared_ptr@V?$ScopedSSL@Uevp_pkey_st@@$1?ScopedEVP_PKEY_free@@YAXPEAX@Z@@@2@PEBUenv_md_st@@V12@@Z 00000001800401ac     rsa_pkcs1.obj
 0002:0000d1ac       $stateUnwindMap$?RSA_PSS_sign@@YA?AV?$shared_ptr@V?$basic_string@DU?$char_traits@D@std@@V?$allocator@D@2@@std@@@std@@V?$shared_ptr@V?$ScopedSSL@Uevp_pkey_st@@$1?ScopedEVP_PKEY_free@@YAXPEAX@Z@@@2@PEBUenv_md_st@@HV12@@Z 00000001800401ac     rsa_pss.obj
 0002:0000d200       $ip2state$?RSA_PKCS1_sign@@YA?AV?$shared_ptr@V?$basic_string@DU?$char_traits@D@std@@V?$allocator@D@2@@std@@@std@@V?$shared_ptr@V?$ScopedSSL@Uevp_pkey_st@@$1?ScopedEVP_PKEY_free@@YAXPEAX@Z@@@2@PEBUenv_md_st@@V12@@Z 0000000180040200     rsa_pkcs1.obj
 0002:0000d278       $unwind$?RSA_PKCS1_verify@@YA_NV?$shared_ptr@V?$ScopedSSL@Uevp_pkey_st@@$1?ScopedEVP_PKEY_free@@YAXPEAX@Z@@@std@@PEBUenv_md_st@@V?$shared_ptr@V?$basic_string@DU?$char_traits@D@std@@V?$allocator@D@2@@std@@@2@2@Z 0000000180040278     rsa_pkcs1.obj
 0002:0000d298       $stateUnwindMap$?RSA_PSS_verify@@YA_NV?$shared_ptr@V?$ScopedSSL@Uevp_pkey_st@@$1?ScopedEVP_PKEY_free@@YAXPEAX@Z@@@std@@PEBUenv_md_st@@HV?$shared_ptr@V?$basic_string@DU?$char_traits@D@std@@V?$allocator@D@2@@std@@@2@2@Z 0000000180040298     rsa_pss.obj
 0002:0000d298       $stateUnwindMap$?RSA_PKCS1_verify@@YA_NV?$shared_ptr@V?$ScopedSSL@Uevp_pkey_st@@$1?ScopedEVP_PKEY_free@@YAXPEAX@Z@@@std@@PEBUenv_md_st@@V?$shared_ptr@V?$basic_string@DU?$char_traits@D@std@@V?$allocator@D@2@@std@@@2@2@Z 0000000180040298     rsa_pkcs1.obj
 0002:0000d2d0       $ip2state$?RSA_PKCS1_verify@@YA_NV?$shared_ptr@V?$ScopedSSL@Uevp_pkey_st@@$1?ScopedEVP_PKEY_free@@YAXPEAX@Z@@@std@@PEBUenv_md_st@@V?$shared_ptr@V?$basic_string@DU?$char_traits@D@std@@V?$allocator@D@2@@std@@@2@2@Z 00000001800402d0     rsa_pkcs1.obj
 0002:0000d330       $unwind$?RSA_OAEP_enc_dec@@YA?AV?$shared_ptr@V?$basic_string@DU?$char_traits@D@std@@V?$allocator@D@2@@std@@@std@@V?$shared_ptr@V?$ScopedSSL@Uevp_pkey_st@@$1?ScopedEVP_PKEY_free@@YAXPEAX@Z@@@2@PEBUenv_md_st@@V12@2_N@Z 0000000180040330     rsa_oaep.obj
 0002:0000d354       $stateUnwindMap$?RSA_OAEP_enc_dec@@YA?AV?$shared_ptr@V?$basic_string@DU?$char_traits@D@std@@V?$allocator@D@2@@std@@@std@@V?$shared_ptr@V?$ScopedSSL@Uevp_pkey_st@@$1?ScopedEVP_PKEY_free@@YAXPEAX@Z@@@2@PEBUenv_md_st@@V12@2_N@Z 0000000180040354     rsa_oaep.obj
 0002:0000d3d0       $ip2state$?RSA_OAEP_enc_dec@@YA?AV?$shared_ptr@V?$basic_string@DU?$char_traits@D@std@@V?$allocator@D@2@@std@@@std@@V?$shared_ptr@V?$ScopedSSL@Uevp_pkey_st@@$1?ScopedEVP_PKEY_free@@YAXPEAX@Z@@@2@PEBUenv_md_st@@V12@2_N@Z 00000001800403d0     rsa_oaep.obj
 0002:0000d4a0       $unwind$?setRsaPssParams@@YAXPEBUenv_md_st@@HPEAUevp_pkey_ctx_st@@@Z 00000001800404a0     rsa_pss.obj
 0002:0000d4b8       $stateUnwindMap$?setRsaPssParams@@YAXPEBUenv_md_st@@HPEAUevp_pkey_ctx_st@@@Z 00000001800404b8     rsa_pss.obj
 0002:0000d4c0       $ip2state$?setRsaPssParams@@YAXPEBUenv_md_st@@HPEAUevp_pkey_ctx_st@@@Z 00000001800404c0     rsa_pss.obj
 0002:0000d4d8       $unwind$?RSA_PSS_sign@@YA?AV?$shared_ptr@V?$basic_string@DU?$char_traits@D@std@@V?$allocator@D@2@@std@@@std@@V?$shared_ptr@V?$ScopedSSL@Uevp_pkey_st@@$1?ScopedEVP_PKEY_free@@YAXPEAX@Z@@@2@PEBUenv_md_st@@HV12@@Z 00000001800404d8     rsa_pss.obj
 0002:0000d500       $ip2state$?RSA_PSS_sign@@YA?AV?$shared_ptr@V?$basic_string@DU?$char_traits@D@std@@V?$allocator@D@2@@std@@@std@@V?$shared_ptr@V?$ScopedSSL@Uevp_pkey_st@@$1?ScopedEVP_PKEY_free@@YAXPEAX@Z@@@2@PEBUenv_md_st@@HV12@@Z 0000000180040500     rsa_pss.obj
 0002:0000d578       $unwind$?RSA_PSS_verify@@YA_NV?$shared_ptr@V?$ScopedSSL@Uevp_pkey_st@@$1?ScopedEVP_PKEY_free@@YAXPEAX@Z@@@std@@PEBUenv_md_st@@HV?$shared_ptr@V?$basic_string@DU?$char_traits@D@std@@V?$allocator@D@2@@std@@@2@2@Z 0000000180040578     rsa_pss.obj
 0002:0000d5a0       $ip2state$?RSA_PSS_verify@@YA_NV?$shared_ptr@V?$ScopedSSL@Uevp_pkey_st@@$1?ScopedEVP_PKEY_free@@YAXPEAX@Z@@@std@@PEBUenv_md_st@@HV?$shared_ptr@V?$basic_string@DU?$char_traits@D@std@@V?$allocator@D@2@@std@@@2@2@Z 00000001800405a0     rsa_pss.obj
 0002:0000d600       $unwind$?EC_generate@@YA?AV?$shared_ptr@V?$ScopedSSL@Uevp_pkey_st@@$1?ScopedEVP_PKEY_free@@YAXPEAX@Z@@@std@@AEAH@Z 0000000180040600     ec_gen.obj
 0002:0000d620       $stateUnwindMap$?EC_generate@@YA?AV?$shared_ptr@V?$ScopedSSL@Uevp_pkey_st@@$1?ScopedEVP_PKEY_free@@YAXPEAX@Z@@@std@@AEAH@Z 0000000180040620     ec_gen.obj
 0002:0000d660       $ip2state$?EC_generate@@YA?AV?$shared_ptr@V?$ScopedSSL@Uevp_pkey_st@@$1?ScopedEVP_PKEY_free@@YAXPEAX@Z@@@std@@AEAH@Z 0000000180040660     ec_gen.obj
 0002:0000d6a8       $unwind$??4?$shared_ptr@VJwkEc@@@std@@QEAAAEAV01@$$QEAV01@@Z 00000001800406a8     async_ec.obj
 0002:0000d6a8       $unwind$??4?$shared_ptr@VScopedPbkdf2@@@std@@QEAAAEAV01@AEBV01@@Z 00000001800406a8     async_pbkdf2.obj
 0002:0000d6a8       $unwind$??4?$shared_ptr@V?$basic_string@DU?$char_traits@D@std@@V?$allocator@D@2@@std@@@std@@QEAAAEAV01@$$QEAV01@@Z 00000001800406a8     w_key.obj
 0002:0000d6a8       $unwind$??4?$shared_ptr@VScopedAES@@@std@@QEAAAEAV01@$$QEAV01@@Z 00000001800406a8     async_aes.obj
 0002:0000d6a8       $unwind$??4?$shared_ptr@V?$ScopedSSL@Uevp_pkey_st@@$1?ScopedEVP_PKEY_free@@YAXPEAX@Z@@@std@@QEAAAEAV01@AEBV01@@Z 00000001800406a8     w_key.obj
 0002:0000d6a8       $unwind$??4?$shared_ptr@VJwkRsa@@@std@@QEAAAEAV01@$$QEAV01@@Z 00000001800406a8     async_rsa.obj
 0002:0000d6a8       $unwind$??4?$shared_ptr@VScopedHMAC@@@std@@QEAAAEAV01@AEBV01@@Z 00000001800406a8     async_hmac.obj
 0002:0000d6a8       $unwind$??4?$shared_ptr@VScopedAES@@@std@@QEAAAEAV01@AEBV01@@Z 00000001800406a8     async_aes.obj
 0002:0000d6a8       $unwind$??4?$shared_ptr@VScopedPbkdf2@@@std@@QEAAAEAV01@$$QEAV01@@Z 00000001800406a8     async_pbkdf2.obj
 0002:0000d6a8       $unwind$??4?$shared_ptr@V?$basic_string@DU?$char_traits@D@std@@V?$allocator@D@2@@std@@@std@@QEAAAEAV01@AEBV01@@Z 00000001800406a8     aes_gen.obj
 0002:0000d6a8       $unwind$??4?$shared_ptr@VScopedHMAC@@@std@@QEAAAEAV01@$$QEAV01@@Z 00000001800406a8     async_hmac.obj
 0002:0000d6a8       $unwind$??4?$shared_ptr@V?$ScopedSSL@Uevp_pkey_st@@$1?ScopedEVP_PKEY_free@@YAXPEAX@Z@@@std@@QEAAAEAV01@$$QEAV01@@Z 00000001800406a8     ec_gen.obj
 0002:0000d6b0       $chain$0$??4?$shared_ptr@V?$ScopedSSL@Uevp_pkey_st@@$1?ScopedEVP_PKEY_free@@YAXPEAX@Z@@@std@@QEAAAEAV01@$$QEAV01@@Z 00000001800406b0     ec_gen.obj
 0002:0000d6b0       $chain$0$??4?$shared_ptr@VJwkRsa@@@std@@QEAAAEAV01@$$QEAV01@@Z 00000001800406b0     async_rsa.obj
 0002:0000d6b0       $chain$0$??4?$shared_ptr@VJwkEc@@@std@@QEAAAEAV01@$$QEAV01@@Z 00000001800406b0     async_ec.obj
 0002:0000d6b0       $chain$0$??4?$shared_ptr@V?$basic_string@DU?$char_traits@D@std@@V?$allocator@D@2@@std@@@std@@QEAAAEAV01@$$QEAV01@@Z 00000001800406b0     w_key.obj
 0002:0000d6b0       $chain$0$??4?$shared_ptr@VScopedPbkdf2@@@std@@QEAAAEAV01@$$QEAV01@@Z 00000001800406b0     async_pbkdf2.obj
 0002:0000d6b0       $chain$0$??4?$shared_ptr@VScopedHMAC@@@std@@QEAAAEAV01@$$QEAV01@@Z 00000001800406b0     async_hmac.obj
 0002:0000d6b0       $chain$0$??4?$shared_ptr@VScopedAES@@@std@@QEAAAEAV01@$$QEAV01@@Z 00000001800406b0     async_aes.obj
 0002:0000d6c4       $chain$1$??4?$shared_ptr@VJwkEc@@@std@@QEAAAEAV01@$$QEAV01@@Z 00000001800406c4     async_ec.obj
 0002:0000d6c4       $chain$1$??4?$shared_ptr@V?$basic_string@DU?$char_traits@D@std@@V?$allocator@D@2@@std@@@std@@QEAAAEAV01@$$QEAV01@@Z 00000001800406c4     w_key.obj
 0002:0000d6c4       $chain$1$??4?$shared_ptr@V?$ScopedSSL@Uevp_pkey_st@@$1?ScopedEVP_PKEY_free@@YAXPEAX@Z@@@std@@QEAAAEAV01@$$QEAV01@@Z 00000001800406c4     ec_gen.obj
 0002:0000d6c4       $chain$1$??4?$shared_ptr@VScopedAES@@@std@@QEAAAEAV01@$$QEAV01@@Z 00000001800406c4     async_aes.obj
 0002:0000d6c4       $chain$1$??4?$shared_ptr@VJwkRsa@@@std@@QEAAAEAV01@$$QEAV01@@Z 00000001800406c4     async_rsa.obj
 0002:0000d6c4       $chain$1$??4?$shared_ptr@VScopedHMAC@@@std@@QEAAAEAV01@$$QEAV01@@Z 00000001800406c4     async_hmac.obj
 0002:0000d6c4       $chain$1$??4?$shared_ptr@VScopedPbkdf2@@@std@@QEAAAEAV01@$$QEAV01@@Z 00000001800406c4     async_pbkdf2.obj
 0002:0000d6d8       $chain$2$??4?$shared_ptr@VJwkEc@@@std@@QEAAAEAV01@$$QEAV01@@Z 00000001800406d8     async_ec.obj
 0002:0000d6d8       $chain$2$??4?$shared_ptr@VScopedHMAC@@@std@@QEAAAEAV01@$$QEAV01@@Z 00000001800406d8     async_hmac.obj
 0002:0000d6d8       $chain$2$??4?$shared_ptr@VScopedPbkdf2@@@std@@QEAAAEAV01@$$QEAV01@@Z 00000001800406d8     async_pbkdf2.obj
 0002:0000d6d8       $chain$2$??4?$shared_ptr@V?$basic_string@DU?$char_traits@D@std@@V?$allocator@D@2@@std@@@std@@QEAAAEAV01@$$QEAV01@@Z 00000001800406d8     w_key.obj
 0002:0000d6d8       $chain$2$??4?$shared_ptr@V?$ScopedSSL@Uevp_pkey_st@@$1?ScopedEVP_PKEY_free@@YAXPEAX@Z@@@std@@QEAAAEAV01@$$QEAV01@@Z 00000001800406d8     ec_gen.obj
 0002:0000d6d8       $chain$2$??4?$shared_ptr@VScopedAES@@@std@@QEAAAEAV01@$$QEAV01@@Z 00000001800406d8     async_aes.obj
 0002:0000d6d8       $chain$2$??4?$shared_ptr@VJwkRsa@@@std@@QEAAAEAV01@$$QEAV01@@Z 00000001800406d8     async_rsa.obj
 0002:0000d6e8       $chain$3$??4?$shared_ptr@VScopedPbkdf2@@@std@@QEAAAEAV01@$$QEAV01@@Z 00000001800406e8     async_pbkdf2.obj
 0002:0000d6e8       $chain$3$??4?$shared_ptr@VJwkRsa@@@std@@QEAAAEAV01@$$QEAV01@@Z 00000001800406e8     async_rsa.obj
 0002:0000d6e8       $chain$3$??4?$shared_ptr@V?$ScopedSSL@Uevp_pkey_st@@$1?ScopedEVP_PKEY_free@@YAXPEAX@Z@@@std@@QEAAAEAV01@$$QEAV01@@Z 00000001800406e8     ec_gen.obj
 0002:0000d6e8       $chain$3$??4?$shared_ptr@VScopedHMAC@@@std@@QEAAAEAV01@$$QEAV01@@Z 00000001800406e8     async_hmac.obj
 0002:0000d6e8       $chain$3$??4?$shared_ptr@V?$basic_string@DU?$char_traits@D@std@@V?$allocator@D@2@@std@@@std@@QEAAAEAV01@$$QEAV01@@Z 00000001800406e8     w_key.obj
 0002:0000d6e8       $chain$3$??4?$shared_ptr@VScopedAES@@@std@@QEAAAEAV01@$$QEAV01@@Z 00000001800406e8     async_aes.obj
 0002:0000d6e8       $chain$3$??4?$shared_ptr@VJwkEc@@@std@@QEAAAEAV01@$$QEAV01@@Z 00000001800406e8     async_ec.obj
 0002:0000d6f8       $unwind$?GetEcGroupOrderSize@@YA_KPEAUevp_pkey_st@@@Z 00000001800406f8     ec_dsa.obj
 0002:0000d710       $stateUnwindMap$?GetEcGroupOrderSize@@YA_KPEAUevp_pkey_st@@@Z 0000000180040710     ec_dsa.obj
 0002:0000d728       $ip2state$?GetEcGroupOrderSize@@YA_KPEAUevp_pkey_st@@@Z 0000000180040728     ec_dsa.obj
 0002:0000d758       $unwind$?ConvertWebCryptoSignatureToDerSignature@@YA?AV?$shared_ptr@V?$basic_string@DU?$char_traits@D@std@@V?$allocator@D@2@@std@@@std@@PEAUevp_pkey_st@@PEBEAEB_KPEA_N@Z 0000000180040758     ec_dsa.obj
 0002:0000d77c       $stateUnwindMap$?ConvertWebCryptoSignatureToDerSignature@@YA?AV?$shared_ptr@V?$basic_string@DU?$char_traits@D@std@@V?$allocator@D@2@@std@@@std@@PEAUevp_pkey_st@@PEBEAEB_KPEA_N@Z 000000018004077c     ec_dsa.obj
 0002:0000d7b0       $ip2state$?ConvertWebCryptoSignatureToDerSignature@@YA?AV?$shared_ptr@V?$basic_string@DU?$char_traits@D@std@@V?$allocator@D@2@@std@@@std@@PEAUevp_pkey_st@@PEBEAEB_KPEA_N@Z 00000001800407b0     ec_dsa.obj
 0002:0000d818       $unwind$?ConvertDerSignatureToWebCryptoSignature@@YA?AV?$shared_ptr@V?$basic_string@DU?$char_traits@D@std@@V?$allocator@D@2@@std@@@std@@PEAUevp_pkey_st@@PEBEAEA_K@Z 0000000180040818     ec_dsa.obj
 0002:0000d838       $stateUnwindMap$?ConvertDerSignatureToWebCryptoSignature@@YA?AV?$shared_ptr@V?$basic_string@DU?$char_traits@D@std@@V?$allocator@D@2@@std@@@std@@PEAUevp_pkey_st@@PEBEAEA_K@Z 0000000180040838     ec_dsa.obj
 0002:0000d870       $ip2state$?ConvertDerSignatureToWebCryptoSignature@@YA?AV?$shared_ptr@V?$basic_string@DU?$char_traits@D@std@@V?$allocator@D@2@@std@@@std@@PEAUevp_pkey_st@@PEBEAEA_K@Z 0000000180040870     ec_dsa.obj
 0002:0000d8c0       $unwind$?EC_DSA_sign@@YA?AV?$shared_ptr@V?$basic_string@DU?$char_traits@D@std@@V?$allocator@D@2@@std@@@std@@V?$shared_ptr@V?$ScopedSSL@Uevp_pkey_st@@$1?ScopedEVP_PKEY_free@@YAXPEAX@Z@@@2@PEBUenv_md_st@@V12@@Z 00000001800408c0     ec_dsa.obj
 0002:0000d8e4       $stateUnwindMap$?EC_DSA_sign@@YA?AV?$shared_ptr@V?$basic_string@DU?$char_traits@D@std@@V?$allocator@D@2@@std@@@std@@V?$shared_ptr@V?$ScopedSSL@Uevp_pkey_st@@$1?ScopedEVP_PKEY_free@@YAXPEAX@Z@@@2@PEBUenv_md_st@@V12@@Z 00000001800408e4     ec_dsa.obj
 0002:0000d930       $ip2state$?EC_DSA_sign@@YA?AV?$shared_ptr@V?$basic_string@DU?$char_traits@D@std@@V?$allocator@D@2@@std@@@std@@V?$shared_ptr@V?$ScopedSSL@Uevp_pkey_st@@$1?ScopedEVP_PKEY_free@@YAXPEAX@Z@@@2@PEBUenv_md_st@@V12@@Z 0000000180040930     ec_dsa.obj
 0002:0000d9b8       $unwind$?EC_DSA_verify@@YA_NV?$shared_ptr@V?$ScopedSSL@Uevp_pkey_st@@$1?ScopedEVP_PKEY_free@@YAXPEAX@Z@@@std@@PEBUenv_md_st@@V?$shared_ptr@V?$basic_string@DU?$char_traits@D@std@@V?$allocator@D@2@@std@@@2@2@Z 00000001800409b8     ec_dsa.obj
 0002:0000d9dc       $stateUnwindMap$?EC_DSA_verify@@YA_NV?$shared_ptr@V?$ScopedSSL@Uevp_pkey_st@@$1?ScopedEVP_PKEY_free@@YAXPEAX@Z@@@std@@PEBUenv_md_st@@V?$shared_ptr@V?$basic_string@DU?$char_traits@D@std@@V?$allocator@D@2@@std@@@2@2@Z 00000001800409dc     ec_dsa.obj
 0002:0000da20       $ip2state$?EC_DSA_verify@@YA_NV?$shared_ptr@V?$ScopedSSL@Uevp_pkey_st@@$1?ScopedEVP_PKEY_free@@YAXPEAX@Z@@@std@@PEBUenv_md_st@@V?$shared_ptr@V?$basic_string@DU?$char_traits@D@std@@V?$allocator@D@2@@std@@@2@2@Z 0000000180040a20     ec_dsa.obj
 0002:0000dab8       $unwind$?ECDH_derive_key@@YA?AV?$shared_ptr@V?$basic_string@DU?$char_traits@D@std@@V?$allocator@D@2@@std@@@std@@V?$shared_ptr@V?$ScopedSSL@Uevp_pkey_st@@$1?ScopedEVP_PKEY_free@@YAXPEAX@Z@@@2@0AEA_K@Z 0000000180040ab8     ec_dh.obj
 0002:0000dadc       $stateUnwindMap$?ECDH_derive_key@@YA?AV?$shared_ptr@V?$basic_string@DU?$char_traits@D@std@@V?$allocator@D@2@@std@@@std@@V?$shared_ptr@V?$ScopedSSL@Uevp_pkey_st@@$1?ScopedEVP_PKEY_free@@YAXPEAX@Z@@@2@0AEA_K@Z 0000000180040adc     ec_dh.obj
 0002:0000db30       $ip2state$?ECDH_derive_key@@YA?AV?$shared_ptr@V?$basic_string@DU?$char_traits@D@std@@V?$allocator@D@2@@std@@@std@@V?$shared_ptr@V?$ScopedSSL@Uevp_pkey_st@@$1?ScopedEVP_PKEY_free@@YAXPEAX@Z@@@2@0AEA_K@Z 0000000180040b30     ec_dh.obj
 0002:0000dbc0       $unwind$?TruncateToBitLength@@YAX_KPEAV?$basic_string@DU?$char_traits@D@std@@V?$allocator@D@2@@std@@@Z 0000000180040bc0     ec_dh.obj
 0002:0000dbc0       $unwind$_log10_special     0000000180040bc0     libucrt:log_special.obj
 0002:0000dbc0       $unwind$_invalid_parameter_noinfo 0000000180040bc0     libucrt:invalid_parameter.obj
 0002:0000dbc0       $unwind$_invalid_parameter_noinfo_noreturn 0000000180040bc0     libucrt:invalid_parameter.obj
 0002:0000dbc0       $unwind$_itow_s            0000000180040bc0     libucrt:xtoa.obj
 0002:0000dbc0       $unwind$wctomb_s           0000000180040bc0     libucrt:wctomb.obj
 0002:0000dbc8       $unwind$?EC_get_named_curve@@YAHPEAUec_key_st@@@Z 0000000180040bc8     ec_dh.obj
 0002:0000dbdc       $stateUnwindMap$?EC_get_named_curve@@YAHPEAUec_key_st@@@Z 0000000180040bdc     ec_dh.obj
 0002:0000dbdc       $stateUnwindMap$?bn2buf@@YA?AV?$Local@VObject@v8@@@v8@@PEAUbignum_st@@@Z 0000000180040bdc     common.obj
 0002:0000dbe8       $ip2state$?EC_get_named_curve@@YAHPEAUec_key_st@@@Z 0000000180040be8     ec_dh.obj
 0002:0000dc00       $unwind$?ECDH_derive_bits@@YA?AV?$shared_ptr@V?$basic_string@DU?$char_traits@D@std@@V?$allocator@D@2@@std@@@std@@V?$shared_ptr@V?$ScopedSSL@Uevp_pkey_st@@$1?ScopedEVP_PKEY_free@@YAXPEAX@Z@@@2@0_NI@Z 0000000180040c00     ec_dh.obj
 0002:0000dc28       $stateUnwindMap$?ECDH_derive_bits@@YA?AV?$shared_ptr@V?$basic_string@DU?$char_traits@D@std@@V?$allocator@D@2@@std@@@std@@V?$shared_ptr@V?$ScopedSSL@Uevp_pkey_st@@$1?ScopedEVP_PKEY_free@@YAXPEAX@Z@@@2@0_NI@Z 0000000180040c28     ec_dh.obj
 0002:0000dc80       $ip2state$?ECDH_derive_bits@@YA?AV?$shared_ptr@V?$basic_string@DU?$char_traits@D@std@@V?$allocator@D@2@@std@@@std@@V?$shared_ptr@V?$ScopedSSL@Uevp_pkey_st@@$1?ScopedEVP_PKEY_free@@YAXPEAX@Z@@@2@0_NI@Z 0000000180040c80     ec_dh.obj
 0002:0000dd18       $unwind$?From@JwkEc@@SA?AV?$shared_ptr@VJwkEc@@@std@@V?$shared_ptr@V?$ScopedSSL@Uevp_pkey_st@@$1?ScopedEVP_PKEY_free@@YAXPEAX@Z@@@3@AEAH@Z 0000000180040d18     ec_jwk.obj
 0002:0000dd40       $stateUnwindMap$?From@JwkEc@@SA?AV?$shared_ptr@VJwkEc@@@std@@V?$shared_ptr@V?$ScopedSSL@Uevp_pkey_st@@$1?ScopedEVP_PKEY_free@@YAXPEAX@Z@@@3@AEAH@Z 0000000180040d40     ec_jwk.obj
 0002:0000dd90       $ip2state$?From@JwkEc@@SA?AV?$shared_ptr@VJwkEc@@@std@@V?$shared_ptr@V?$ScopedSSL@Uevp_pkey_st@@$1?ScopedEVP_PKEY_free@@YAXPEAX@Z@@@3@AEAH@Z 0000000180040d90     ec_jwk.obj
 0002:0000ddf8       $unwind$?To@JwkEc@@QEAA?AV?$shared_ptr@V?$ScopedSSL@Uevp_pkey_st@@$1?ScopedEVP_PKEY_free@@YAXPEAX@Z@@@std@@AEAH@Z 0000000180040df8     ec_jwk.obj
 0002:0000de20       $stateUnwindMap$?To@JwkEc@@QEAA?AV?$shared_ptr@V?$ScopedSSL@Uevp_pkey_st@@$1?ScopedEVP_PKEY_free@@YAXPEAX@Z@@@std@@AEAH@Z 0000000180040e20     ec_jwk.obj
 0002:0000de90       $ip2state$?To@JwkEc@@QEAA?AV?$shared_ptr@V?$ScopedSSL@Uevp_pkey_st@@$1?ScopedEVP_PKEY_free@@YAXPEAX@Z@@@std@@AEAH@Z 0000000180040e90     ec_jwk.obj
 0002:0000df00       $unwind$?_Destroy@?$_Ref_count@VJwkEc@@@std@@EEAAXXZ 0000000180040f00     ec_jwk.obj
 0002:0000df10       $ip2state$?_Destroy@?$_Ref_count@VJwkEc@@@std@@EEAAXXZ 0000000180040f10     ec_jwk.obj
 0002:0000df28       $unwind$?generate@ScopedAES@@SA?AV?$shared_ptr@VScopedAES@@@std@@AEAH@Z 0000000180040f28     aes_gen.obj
 0002:0000df44       $stateUnwindMap$?generate@ScopedAES@@SA?AV?$shared_ptr@VScopedAES@@@std@@AEAH@Z 0000000180040f44     aes_gen.obj
 0002:0000df50       $ip2state$?generate@ScopedAES@@SA?AV?$shared_ptr@VScopedAES@@@std@@AEAH@Z 0000000180040f50     aes_gen.obj
 0002:0000df68       $chain$0$??4?$shared_ptr@VScopedHMAC@@@std@@QEAAAEAV01@AEBV01@@Z 0000000180040f68     async_hmac.obj
 0002:0000df68       $chain$0$??4?$shared_ptr@V?$ScopedSSL@Uevp_pkey_st@@$1?ScopedEVP_PKEY_free@@YAXPEAX@Z@@@std@@QEAAAEAV01@AEBV01@@Z 0000000180040f68     w_key.obj
 0002:0000df68       $chain$0$??4?$shared_ptr@V?$basic_string@DU?$char_traits@D@std@@V?$allocator@D@2@@std@@@std@@QEAAAEAV01@AEBV01@@Z 0000000180040f68     aes_gen.obj
 0002:0000df68       $chain$0$??4?$shared_ptr@VScopedAES@@@std@@QEAAAEAV01@AEBV01@@Z 0000000180040f68     async_aes.obj
 0002:0000df68       $chain$0$??4?$shared_ptr@VScopedPbkdf2@@@std@@QEAAAEAV01@AEBV01@@Z 0000000180040f68     async_pbkdf2.obj
 0002:0000df7c       $chain$1$??4?$shared_ptr@V?$ScopedSSL@Uevp_pkey_st@@$1?ScopedEVP_PKEY_free@@YAXPEAX@Z@@@std@@QEAAAEAV01@AEBV01@@Z 0000000180040f7c     w_key.obj
 0002:0000df7c       $chain$1$??4?$shared_ptr@V?$basic_string@DU?$char_traits@D@std@@V?$allocator@D@2@@std@@@std@@QEAAAEAV01@AEBV01@@Z 0000000180040f7c     aes_gen.obj
 0002:0000df7c       $chain$1$??4?$shared_ptr@VScopedHMAC@@@std@@QEAAAEAV01@AEBV01@@Z 0000000180040f7c     async_hmac.obj
 0002:0000df7c       $chain$1$??4?$shared_ptr@VScopedAES@@@std@@QEAAAEAV01@AEBV01@@Z 0000000180040f7c     async_aes.obj
 0002:0000df7c       $chain$1$??4?$shared_ptr@VScopedPbkdf2@@@std@@QEAAAEAV01@AEBV01@@Z 0000000180040f7c     async_pbkdf2.obj
 0002:0000df90       $chain$2$??4?$shared_ptr@V?$basic_string@DU?$char_traits@D@std@@V?$allocator@D@2@@std@@@std@@QEAAAEAV01@AEBV01@@Z 0000000180040f90     aes_gen.obj
 0002:0000df90       $chain$2$??4?$shared_ptr@VScopedHMAC@@@std@@QEAAAEAV01@AEBV01@@Z 0000000180040f90     async_hmac.obj
 0002:0000df90       $chain$2$??4?$shared_ptr@VScopedPbkdf2@@@std@@QEAAAEAV01@AEBV01@@Z 0000000180040f90     async_pbkdf2.obj
 0002:0000df90       $chain$2$??4?$shared_ptr@VScopedAES@@@std@@QEAAAEAV01@AEBV01@@Z 0000000180040f90     async_aes.obj
 0002:0000df90       $chain$2$??4?$shared_ptr@V?$ScopedSSL@Uevp_pkey_st@@$1?ScopedEVP_PKEY_free@@YAXPEAX@Z@@@std@@QEAAAEAV01@AEBV01@@Z 0000000180040f90     w_key.obj
 0002:0000dfa0       $chain$3$??4?$shared_ptr@V?$basic_string@DU?$char_traits@D@std@@V?$allocator@D@2@@std@@@std@@QEAAAEAV01@AEBV01@@Z 0000000180040fa0     aes_gen.obj
 0002:0000dfa0       $chain$3$??4?$shared_ptr@VScopedHMAC@@@std@@QEAAAEAV01@AEBV01@@Z 0000000180040fa0     async_hmac.obj
 0002:0000dfa0       $chain$3$??4?$shared_ptr@VScopedAES@@@std@@QEAAAEAV01@AEBV01@@Z 0000000180040fa0     async_aes.obj
 0002:0000dfa0       $chain$3$??4?$shared_ptr@V?$ScopedSSL@Uevp_pkey_st@@$1?ScopedEVP_PKEY_free@@YAXPEAX@Z@@@std@@QEAAAEAV01@AEBV01@@Z 0000000180040fa0     w_key.obj
 0002:0000dfa0       $chain$3$??4?$shared_ptr@VScopedPbkdf2@@@std@@QEAAAEAV01@AEBV01@@Z 0000000180040fa0     async_pbkdf2.obj
 0002:0000dfb0       $unwind$??_GScopedHMAC@@QEAAPEAXI@Z 0000000180040fb0     hmac_gen.obj
 0002:0000dfb0       $unwind$??_GScopedAES@@QEAAPEAXI@Z 0000000180040fb0     aes_gen.obj
 0002:0000dfb0       $unwind$??_GScopedPbkdf2@@QEAAPEAXI@Z 0000000180040fb0     async_pbkdf2.obj
 0002:0000dfc8       $ip2state$??_GScopedPbkdf2@@QEAAPEAXI@Z 0000000180040fc8     async_pbkdf2.obj
 0002:0000dfc8       $ip2state$??_GScopedAES@@QEAAPEAXI@Z 0000000180040fc8     aes_gen.obj
 0002:0000dfc8       $ip2state$??_GScopedHMAC@@QEAAPEAXI@Z 0000000180040fc8     hmac_gen.obj
 0002:0000dfd0       $unwind$?AES_ECB_encrypt@@YA?AV?$shared_ptr@V?$basic_string@DU?$char_traits@D@std@@V?$allocator@D@2@@std@@@std@@V12@0_N@Z 0000000180040fd0     aes_ecb.obj
 0002:0000dff4       $stateUnwindMap$?AES_ECB_encrypt@@YA?AV?$shared_ptr@V?$basic_string@DU?$char_traits@D@std@@V?$allocator@D@2@@std@@@std@@V12@0_N@Z 0000000180040ff4     aes_ecb.obj
 0002:0000e040       $ip2state$?AES_ECB_encrypt@@YA?AV?$shared_ptr@V?$basic_string@DU?$char_traits@D@std@@V?$allocator@D@2@@std@@@std@@V12@0_N@Z 0000000180041040     aes_ecb.obj
 0002:0000e0b8       $unwind$?encryptEcb@ScopedAES@@QEAA?AV?$shared_ptr@V?$basic_string@DU?$char_traits@D@std@@V?$allocator@D@2@@std@@@std@@V23@@Z 00000001800410b8     aes_ecb.obj
 0002:0000e0d0       $stateUnwindMap$?encryptEcb@ScopedAES@@QEAA?AV?$shared_ptr@V?$basic_string@DU?$char_traits@D@std@@V?$allocator@D@2@@std@@@std@@V23@@Z 00000001800410d0     aes_ecb.obj
 0002:0000e0d0       $stateUnwindMap$?decryptEcb@ScopedAES@@QEAA?AV?$shared_ptr@V?$basic_string@DU?$char_traits@D@std@@V?$allocator@D@2@@std@@@std@@V23@@Z 00000001800410d0     aes_ecb.obj
 0002:0000e0d8       $ip2state$?encryptEcb@ScopedAES@@QEAA?AV?$shared_ptr@V?$basic_string@DU?$char_traits@D@std@@V?$allocator@D@2@@std@@@std@@V23@@Z 00000001800410d8     aes_ecb.obj
 0002:0000e0f0       $unwind$?decryptEcb@ScopedAES@@QEAA?AV?$shared_ptr@V?$basic_string@DU?$char_traits@D@std@@V?$allocator@D@2@@std@@@std@@V23@@Z 00000001800410f0     aes_ecb.obj
 0002:0000e108       $ip2state$?decryptEcb@ScopedAES@@QEAA?AV?$shared_ptr@V?$basic_string@DU?$char_traits@D@std@@V?$allocator@D@2@@std@@@std@@V23@@Z 0000000180041108     aes_ecb.obj
 0002:0000e120       $unwind$?AES_CBC_encrypt@@YA?AV?$shared_ptr@V?$basic_string@DU?$char_traits@D@std@@V?$allocator@D@2@@std@@@std@@V12@00_N@Z 0000000180041120     aes_cbc.obj
 0002:0000e144       $stateUnwindMap$?AES_CBC_encrypt@@YA?AV?$shared_ptr@V?$basic_string@DU?$char_traits@D@std@@V?$allocator@D@2@@std@@@std@@V12@00_N@Z 0000000180041144     aes_cbc.obj
 0002:0000e1a0       $ip2state$?AES_CBC_encrypt@@YA?AV?$shared_ptr@V?$basic_string@DU?$char_traits@D@std@@V?$allocator@D@2@@std@@@std@@V12@00_N@Z 00000001800411a0     aes_cbc.obj
 0002:0000e220       $unwind$?encryptCbc@ScopedAES@@QEAA?AV?$shared_ptr@V?$basic_string@DU?$char_traits@D@std@@V?$allocator@D@2@@std@@@std@@V23@0@Z 0000000180041220     aes_cbc.obj
 0002:0000e238       $stateUnwindMap$?encryptCbc@ScopedAES@@QEAA?AV?$shared_ptr@V?$basic_string@DU?$char_traits@D@std@@V?$allocator@D@2@@std@@@std@@V23@0@Z 0000000180041238     aes_cbc.obj
 0002:0000e238       $stateUnwindMap$?encryptCtr@ScopedAES@@QEAA?AV?$shared_ptr@V?$basic_string@DU?$char_traits@D@std@@V?$allocator@D@2@@std@@@std@@V23@0H@Z 0000000180041238     aes_ctr.obj
 0002:0000e238       $stateUnwindMap$?decryptCbc@ScopedAES@@QEAA?AV?$shared_ptr@V?$basic_string@DU?$char_traits@D@std@@V?$allocator@D@2@@std@@@std@@V23@0@Z 0000000180041238     aes_cbc.obj
 0002:0000e238       $stateUnwindMap$?decryptCtr@ScopedAES@@QEAA?AV?$shared_ptr@V?$basic_string@DU?$char_traits@D@std@@V?$allocator@D@2@@std@@@std@@V23@0H@Z 0000000180041238     aes_ctr.obj
 0002:0000e248       $ip2state$?encryptCbc@ScopedAES@@QEAA?AV?$shared_ptr@V?$basic_string@DU?$char_traits@D@std@@V?$allocator@D@2@@std@@@std@@V23@0@Z 0000000180041248     aes_cbc.obj
 0002:0000e268       $unwind$?decryptCbc@ScopedAES@@QEAA?AV?$shared_ptr@V?$basic_string@DU?$char_traits@D@std@@V?$allocator@D@2@@std@@@std@@V23@0@Z 0000000180041268     aes_cbc.obj
 0002:0000e280       $ip2state$?decryptCbc@ScopedAES@@QEAA?AV?$shared_ptr@V?$basic_string@DU?$char_traits@D@std@@V?$allocator@D@2@@std@@@std@@V23@0@Z 0000000180041280     aes_cbc.obj
 0002:0000e2a0       $unwind$?wrap@ScopedAES@@QEAA?AV?$shared_ptr@V?$basic_string@DU?$char_traits@D@std@@V?$allocator@D@2@@std@@@std@@V23@@Z 00000001800412a0     aes_cbc.obj
 0002:0000e2c0       $stateUnwindMap$?wrap@ScopedAES@@QEAA?AV?$shared_ptr@V?$basic_string@DU?$char_traits@D@std@@V?$allocator@D@2@@std@@@std@@V23@@Z 00000001800412c0     aes_cbc.obj
 0002:0000e2c0       $stateUnwindMap$?unwrap@ScopedAES@@QEAA?AV?$shared_ptr@V?$basic_string@DU?$char_traits@D@std@@V?$allocator@D@2@@std@@@std@@V23@@Z 00000001800412c0     aes_cbc.obj
 0002:0000e2e0       $ip2state$?wrap@ScopedAES@@QEAA?AV?$shared_ptr@V?$basic_string@DU?$char_traits@D@std@@V?$allocator@D@2@@std@@@std@@V23@@Z 00000001800412e0     aes_cbc.obj
 0002:0000e318       $unwind$?unwrap@ScopedAES@@QEAA?AV?$shared_ptr@V?$basic_string@DU?$char_traits@D@std@@V?$allocator@D@2@@std@@@std@@V23@@Z 0000000180041318     aes_cbc.obj
 0002:0000e338       $ip2state$?unwrap@ScopedAES@@QEAA?AV?$shared_ptr@V?$basic_string@DU?$char_traits@D@std@@V?$allocator@D@2@@std@@@std@@V23@@Z 0000000180041338     aes_cbc.obj
 0002:0000e370       $unwind$?AES_GCM_encrypt@@YA?AV?$shared_ptr@V?$basic_string@DU?$char_traits@D@std@@V?$allocator@D@2@@std@@@std@@V12@000H@Z 0000000180041370     aes_gcm.obj
 0002:0000e394       $stateUnwindMap$?AES_GCM_encrypt@@YA?AV?$shared_ptr@V?$basic_string@DU?$char_traits@D@std@@V?$allocator@D@2@@std@@@std@@V12@000H@Z 0000000180041394     aes_gcm.obj
 0002:0000e410       $ip2state$?AES_GCM_encrypt@@YA?AV?$shared_ptr@V?$basic_string@DU?$char_traits@D@std@@V?$allocator@D@2@@std@@@std@@V12@000H@Z 0000000180041410     aes_gcm.obj
 0002:0000e4d8       $unwind$?AES_GCM_decrypt@@YA?AV?$shared_ptr@V?$basic_string@DU?$char_traits@D@std@@V?$allocator@D@2@@std@@@std@@V12@000H@Z 00000001800414d8     aes_gcm.obj
 0002:0000e4fc       $stateUnwindMap$?AES_GCM_decrypt@@YA?AV?$shared_ptr@V?$basic_string@DU?$char_traits@D@std@@V?$allocator@D@2@@std@@@std@@V12@000H@Z 00000001800414fc     aes_gcm.obj
 0002:0000e580       $ip2state$?AES_GCM_decrypt@@YA?AV?$shared_ptr@V?$basic_string@DU?$char_traits@D@std@@V?$allocator@D@2@@std@@@std@@V12@000H@Z 0000000180041580     aes_gcm.obj
 0002:0000e658       $unwind$?encryptGcm@ScopedAES@@QEAA?AV?$shared_ptr@V?$basic_string@DU?$char_traits@D@std@@V?$allocator@D@2@@std@@@std@@V23@00H@Z 0000000180041658     aes_gcm.obj
 0002:0000e670       $stateUnwindMap$?encryptGcm@ScopedAES@@QEAA?AV?$shared_ptr@V?$basic_string@DU?$char_traits@D@std@@V?$allocator@D@2@@std@@@std@@V23@00H@Z 0000000180041670     aes_gcm.obj
 0002:0000e670       $stateUnwindMap$?decryptGcm@ScopedAES@@QEAA?AV?$shared_ptr@V?$basic_string@DU?$char_traits@D@std@@V?$allocator@D@2@@std@@@std@@V23@00H@Z 0000000180041670     aes_gcm.obj
 0002:0000e688       $ip2state$?encryptGcm@ScopedAES@@QEAA?AV?$shared_ptr@V?$basic_string@DU?$char_traits@D@std@@V?$allocator@D@2@@std@@@std@@V23@00H@Z 0000000180041688     aes_gcm.obj
 0002:0000e6b0       $unwind$?decryptGcm@ScopedAES@@QEAA?AV?$shared_ptr@V?$basic_string@DU?$char_traits@D@std@@V?$allocator@D@2@@std@@@std@@V23@00H@Z 00000001800416b0     aes_gcm.obj
 0002:0000e6c8       $ip2state$?decryptGcm@ScopedAES@@QEAA?AV?$shared_ptr@V?$basic_string@DU?$char_traits@D@std@@V?$allocator@D@2@@std@@@std@@V23@00H@Z 00000001800416c8     aes_gcm.obj
 0002:0000e6f0       $unwind$?AES_CTR_encrypt@@YA?AV?$shared_ptr@V?$basic_string@DU?$char_traits@D@std@@V?$allocator@D@2@@std@@@std@@V12@00H_N@Z 00000001800416f0     aes_ctr.obj
 0002:0000e714       $stateUnwindMap$?AES_CTR_encrypt@@YA?AV?$shared_ptr@V?$basic_string@DU?$char_traits@D@std@@V?$allocator@D@2@@std@@@std@@V12@00H_N@Z 0000000180041714     aes_ctr.obj
 0002:0000e750       $ip2state$?AES_CTR_encrypt@@YA?AV?$shared_ptr@V?$basic_string@DU?$char_traits@D@std@@V?$allocator@D@2@@std@@@std@@V12@00H_N@Z 0000000180041750     aes_ctr.obj
 0002:0000e7b0       $unwind$?encryptCtr@ScopedAES@@QEAA?AV?$shared_ptr@V?$basic_string@DU?$char_traits@D@std@@V?$allocator@D@2@@std@@@std@@V23@0H@Z 00000001800417b0     aes_ctr.obj
 0002:0000e7b0       $unwind$?decryptCtr@ScopedAES@@QEAA?AV?$shared_ptr@V?$basic_string@DU?$char_traits@D@std@@V?$allocator@D@2@@std@@@std@@V23@0H@Z 00000001800417b0     aes_ctr.obj
 0002:0000e7c8       $ip2state$?encryptCtr@ScopedAES@@QEAA?AV?$shared_ptr@V?$basic_string@DU?$char_traits@D@std@@V?$allocator@D@2@@std@@@std@@V23@0H@Z 00000001800417c8     aes_ctr.obj
 0002:0000e7c8       $ip2state$?decryptCtr@ScopedAES@@QEAA?AV?$shared_ptr@V?$basic_string@DU?$char_traits@D@std@@V?$allocator@D@2@@std@@@std@@V23@0H@Z 00000001800417c8     aes_ctr.obj
 0002:0000e7e8       $unwind$?generate@ScopedHMAC@@SA?AV?$shared_ptr@VScopedHMAC@@@std@@AEAH@Z 00000001800417e8     hmac_gen.obj
 0002:0000e804       $stateUnwindMap$?generate@ScopedHMAC@@SA?AV?$shared_ptr@VScopedHMAC@@@std@@AEAH@Z 0000000180041804     hmac_gen.obj
 0002:0000e810       $ip2state$?generate@ScopedHMAC@@SA?AV?$shared_ptr@VScopedHMAC@@@std@@AEAH@Z 0000000180041810     hmac_gen.obj
 0002:0000e828       $unwind$?sign@ScopedHMAC@@QEAA?AV?$shared_ptr@V?$basic_string@DU?$char_traits@D@std@@V?$allocator@D@2@@std@@@std@@V23@PEBUenv_md_st@@@Z 0000000180041828     hmac_sign.obj
 0002:0000e84c       $stateUnwindMap$?sign@ScopedHMAC@@QEAA?AV?$shared_ptr@V?$basic_string@DU?$char_traits@D@std@@V?$allocator@D@2@@std@@@std@@V23@PEBUenv_md_st@@@Z 000000018004184c     hmac_sign.obj
 0002:0000e84c       $stateUnwindMap$?deriveBits@ScopedPbkdf2@@QEAA?AV?$shared_ptr@V?$basic_string@DU?$char_traits@D@std@@V?$allocator@D@2@@std@@@std@@V23@_KPEBUenv_md_st@@1@Z 000000018004184c     pbkdf2_derive.obj
 0002:0000e868       $ip2state$?sign@ScopedHMAC@@QEAA?AV?$shared_ptr@V?$basic_string@DU?$char_traits@D@std@@V?$allocator@D@2@@std@@@std@@V23@PEBUenv_md_st@@@Z 0000000180041868     hmac_sign.obj
 0002:0000e898       $unwind$?verify@ScopedHMAC@@QEAA_NV?$shared_ptr@V?$basic_string@DU?$char_traits@D@std@@V?$allocator@D@2@@std@@@std@@PEBUenv_md_st@@0@Z 0000000180041898     hmac_sign.obj
 0002:0000e8b4       $stateUnwindMap$?verify@ScopedHMAC@@QEAA_NV?$shared_ptr@V?$basic_string@DU?$char_traits@D@std@@V?$allocator@D@2@@std@@@std@@PEBUenv_md_st@@0@Z 00000001800418b4     hmac_sign.obj
 0002:0000e8c8       $ip2state$?verify@ScopedHMAC@@QEAA_NV?$shared_ptr@V?$basic_string@DU?$char_traits@D@std@@V?$allocator@D@2@@std@@@std@@PEBUenv_md_st@@0@Z 00000001800418c8     hmac_sign.obj
 0002:0000e8e8       $unwind$?deriveBits@ScopedPbkdf2@@QEAA?AV?$shared_ptr@V?$basic_string@DU?$char_traits@D@std@@V?$allocator@D@2@@std@@@std@@V23@_KPEBUenv_md_st@@1@Z 00000001800418e8     pbkdf2_derive.obj
 0002:0000e908       $ip2state$?deriveBits@ScopedPbkdf2@@QEAA?AV?$shared_ptr@V?$basic_string@DU?$char_traits@D@std@@V?$allocator@D@2@@std@@@std@@V23@_KPEBUenv_md_st@@1@Z 0000000180041908     pbkdf2_derive.obj
 0002:0000e930       $unwind$?v8Buffer_to_String@@YA?AV?$shared_ptr@V?$basic_string@DU?$char_traits@D@std@@V?$allocator@D@2@@std@@@std@@V?$Local@VValue@v8@@@v8@@@Z 0000000180041930     common.obj
 0002:0000e938       $unwind$?v8Buffer_to_String@@YA?AV?$shared_ptr@V?$basic_string@DU?$char_traits@D@std@@V?$allocator@D@2@@std@@@std@@V?$Local@VObject@v8@@@v8@@@Z 0000000180041938     common.obj
 0002:0000e954       $stateUnwindMap$?v8Buffer_to_String@@YA?AV?$shared_ptr@V?$basic_string@DU?$char_traits@D@std@@V?$allocator@D@2@@std@@@std@@V?$Local@VObject@v8@@@v8@@@Z 0000000180041954     common.obj
 0002:0000e960       $ip2state$?v8Buffer_to_String@@YA?AV?$shared_ptr@V?$basic_string@DU?$char_traits@D@std@@V?$allocator@D@2@@std@@@std@@V?$Local@VObject@v8@@@v8@@@Z 0000000180041960     common.obj
 0002:0000e978       $unwind$?String_to_v8Buffer@@YA?AV?$Local@VObject@v8@@@v8@@V?$shared_ptr@V?$basic_string@DU?$char_traits@D@std@@V?$allocator@D@2@@std@@@std@@@Z 0000000180041978     common.obj
 0002:0000e994       $stateUnwindMap$?String_to_v8Buffer@@YA?AV?$Local@VObject@v8@@@v8@@V?$shared_ptr@V?$basic_string@DU?$char_traits@D@std@@V?$allocator@D@2@@std@@@std@@@Z 0000000180041994     common.obj
 0002:0000e994       $stateUnwindMap$??0AsyncEcExportJwk@@QEAA@PEAVCallback@Nan@@HV?$shared_ptr@V?$ScopedSSL@Uevp_pkey_st@@$1?ScopedEVP_PKEY_free@@YAXPEAX@Z@@@std@@@Z 0000000180041994     w_key.obj
 0002:0000e994       $stateUnwindMap$??0AsyncExportJwkRsa@@QEAA@PEAVCallback@Nan@@HV?$shared_ptr@V?$ScopedSSL@Uevp_pkey_st@@$1?ScopedEVP_PKEY_free@@YAXPEAX@Z@@@std@@@Z 0000000180041994     w_key.obj
 0002:0000e9a0       $ip2state$?String_to_v8Buffer@@YA?AV?$Local@VObject@v8@@@v8@@V?$shared_ptr@V?$basic_string@DU?$char_traits@D@std@@V?$allocator@D@2@@std@@@std@@@Z 00000001800419a0     common.obj
 0002:0000e9b8       $unwind$?bn2buf@@YA?AV?$Local@VObject@v8@@@v8@@PEAUbignum_st@@@Z 00000001800419b8     common.obj
 0002:0000e9d8       $ip2state$?bn2buf@@YA?AV?$Local@VObject@v8@@@v8@@PEAUbignum_st@@@Z 00000001800419d8     common.obj
 0002:0000e9f0       $unwind$??1ObjectWrap@node@@UEAA@XZ 00000001800419f0     w_key.obj
 0002:0000ea00       $ip2state$??1ObjectWrap@node@@UEAA@XZ 0000000180041a00     w_key.obj
 0002:0000ea08       $unwind$?Wrap@ObjectWrap@node@@IEAAXV?$Local@VObject@v8@@@v8@@@Z 0000000180041a08     w_key.obj
 0002:0000ea08       $unwind$??$free_environment@_W@@YAXQEAPEA_W@Z 0000000180041a08     libucrt:environment_initialization.obj
 0002:0000ea08       $unwind$??$free_environment@D@@YAXQEAPEAD@Z 0000000180041a08     libucrt:environment_initialization.obj
 0002:0000ea14       $unwind$?FunctionCallbackWrapper@imp@Nan@@YAXAEBV?$FunctionCallbackInfo@VValue@v8@@@v8@@@Z 0000000180041a14     w_key.obj
 0002:0000ea24       $unwind$?GetterCallbackWrapper@imp@Nan@@YAXV?$Local@VName@v8@@@v8@@AEBV?$PropertyCallbackInfo@VValue@v8@@@4@@Z 0000000180041a24     w_key.obj
 0002:0000ea30       $unwind$?NewInstance@Nan@@YA?AV?$MaybeLocal@VObject@v8@@@v8@@V?$Local@VFunction@v8@@@3@@Z 0000000180041a30     w_key.obj
 0002:0000ea44       $stateUnwindMap$?NewInstance@Nan@@YA?AV?$MaybeLocal@VObject@v8@@@v8@@V?$Local@VFunction@v8@@@3@HQEAV?$Local@VValue@v8@@@3@@Z 0000000180041a44     w_key.obj
 0002:0000ea44       $stateUnwindMap$?NewInstance@Nan@@YA?AV?$MaybeLocal@VObject@v8@@@v8@@V?$Local@VFunction@v8@@@3@@Z 0000000180041a44     w_key.obj
 0002:0000ea50       $ip2state$?NewInstance@Nan@@YA?AV?$MaybeLocal@VObject@v8@@@v8@@V?$Local@VFunction@v8@@@3@@Z 0000000180041a50     w_key.obj
 0002:0000ea68       $unwind$?NewInstance@Nan@@YA?AV?$MaybeLocal@VObject@v8@@@v8@@V?$Local@VFunction@v8@@@3@HQEAV?$Local@VValue@v8@@@3@@Z 0000000180041a68     w_key.obj
 0002:0000ea80       $ip2state$?NewInstance@Nan@@YA?AV?$MaybeLocal@VObject@v8@@@v8@@V?$Local@VFunction@v8@@@3@HQEAV?$Local@VValue@v8@@@3@@Z 0000000180041a80     w_key.obj
 0002:0000ea98       $unwind$?NewInstance@Nan@@YA?AV?$MaybeLocal@VObject@v8@@@v8@@V?$Local@VObjectTemplate@v8@@@3@@Z 0000000180041a98     w_key.obj
 0002:0000eaac       $stateUnwindMap$?NewInstance@Nan@@YA?AV?$MaybeLocal@VObject@v8@@@v8@@V?$Local@VObjectTemplate@v8@@@3@@Z 0000000180041aac     w_key.obj
 0002:0000eaac       $stateUnwindMap$?convert@?$ToFactory@VNumber@v8@@@imp@Nan@@SA?AV?$MaybeLocal@VNumber@v8@@@v8@@V?$Local@VValue@v8@@@5@@Z 0000000180041aac     w_pbkdf2.obj
 0002:0000eaac       $stateUnwindMap$?Get@Nan@@YA?AV?$MaybeLocal@VValue@v8@@@v8@@V?$Local@VObject@v8@@@3@V?$Local@VValue@v8@@@3@@Z 0000000180041aac     w_key.obj
 0002:0000eaac       $stateUnwindMap$?GetFunction@Nan@@YA?AV?$MaybeLocal@VFunction@v8@@@v8@@V?$Local@VFunctionTemplate@v8@@@3@@Z 0000000180041aac     w_key.obj
 0002:0000eaac       $stateUnwindMap$?convert@?$ToFactory@VObject@v8@@@imp@Nan@@SA?AV?$MaybeLocal@VObject@v8@@@v8@@V?$Local@VValue@v8@@@5@@Z 0000000180041aac     w_key.obj
 0002:0000eab8       $ip2state$?NewInstance@Nan@@YA?AV?$MaybeLocal@VObject@v8@@@v8@@V?$Local@VObjectTemplate@v8@@@3@@Z 0000000180041ab8     w_key.obj
 0002:0000ead0       $unwind$?GetFunction@Nan@@YA?AV?$MaybeLocal@VFunction@v8@@@v8@@V?$Local@VFunctionTemplate@v8@@@3@@Z 0000000180041ad0     w_key.obj
 0002:0000eae8       $ip2state$?GetFunction@Nan@@YA?AV?$MaybeLocal@VFunction@v8@@@v8@@V?$Local@VFunctionTemplate@v8@@@3@@Z 0000000180041ae8     w_key.obj
 0002:0000eb00       $unwind$?Set@Nan@@YA?AV?$Maybe@_N@v8@@V?$Local@VObject@v8@@@3@V?$Local@VValue@v8@@@3@1@Z 0000000180041b00     w_key.obj
 0002:0000eb14       $stateUnwindMap$?Set@Nan@@YA?AV?$Maybe@_N@v8@@V?$Local@VObject@v8@@@3@V?$Local@VValue@v8@@@3@1@Z 0000000180041b14     w_key.obj
 0002:0000eb20       $ip2state$?Set@Nan@@YA?AV?$Maybe@_N@v8@@V?$Local@VObject@v8@@@3@V?$Local@VValue@v8@@@3@1@Z 0000000180041b20     w_key.obj
 0002:0000eb38       $unwind$?Get@Nan@@YA?AV?$MaybeLocal@VValue@v8@@@v8@@V?$Local@VObject@v8@@@3@V?$Local@VValue@v8@@@3@@Z 0000000180041b38     w_key.obj
 0002:0000eb50       $ip2state$?Get@Nan@@YA?AV?$MaybeLocal@VValue@v8@@@v8@@V?$Local@VObject@v8@@@3@V?$Local@VValue@v8@@@3@@Z 0000000180041b50     w_key.obj
 0002:0000eb68       $unwind$?CallAsFunction@Nan@@YA?AV?$MaybeLocal@VValue@v8@@@v8@@V?$Local@VObject@v8@@@3@0HQEAV?$Local@VValue@v8@@@3@@Z 0000000180041b68     w_key.obj
 0002:0000eb80       $stateUnwindMap$?Call@Callback@Nan@@QEBA?AV?$MaybeLocal@VValue@v8@@@v8@@HQEAV?$Local@VValue@v8@@@4@PEAVAsyncResource@2@@Z 0000000180041b80     w_key.obj
 0002:0000eb80       $stateUnwindMap$?CallAsFunction@Nan@@YA?AV?$MaybeLocal@VValue@v8@@@v8@@V?$Local@VObject@v8@@@3@0HQEAV?$Local@VValue@v8@@@3@@Z 0000000180041b80     w_key.obj
 0002:0000eb80       $stateUnwindMap$?Call@Nan@@YA?AV?$MaybeLocal@VValue@v8@@@v8@@V?$Local@VFunction@v8@@@3@V?$Local@VObject@v8@@@3@HQEAV?$Local@VValue@v8@@@3@@Z 0000000180041b80     w_aes.obj
 0002:0000eb88       $ip2state$?CallAsFunction@Nan@@YA?AV?$MaybeLocal@VValue@v8@@@v8@@V?$Local@VObject@v8@@@3@0HQEAV?$Local@VValue@v8@@@3@@Z 0000000180041b88     w_key.obj
 0002:0000eba0       $unwind$?convert@?$ToFactory@VObject@v8@@@imp@Nan@@SA?AV?$MaybeLocal@VObject@v8@@@v8@@V?$Local@VValue@v8@@@5@@Z 0000000180041ba0     w_key.obj
 0002:0000ebb8       $ip2state$?convert@?$ToFactory@VObject@v8@@@imp@Nan@@SA?AV?$MaybeLocal@VObject@v8@@@v8@@V?$Local@VValue@v8@@@5@@Z 0000000180041bb8     w_key.obj
 0002:0000ebd0       $unwind$?convert@?$ToFactory@H@imp@Nan@@SA?AV?$Maybe@H@v8@@V?$Local@VValue@v8@@@5@@Z 0000000180041bd0     w_key.obj
 0002:0000ebe8       $stateUnwindMap$?convert@?$ToFactory@H@imp@Nan@@SA?AV?$Maybe@H@v8@@V?$Local@VValue@v8@@@5@@Z 0000000180041be8     w_key.obj
 0002:0000ebf0       $ip2state$?convert@?$ToFactory@H@imp@Nan@@SA?AV?$Maybe@H@v8@@V?$Local@VValue@v8@@@5@@Z 0000000180041bf0     w_key.obj
 0002:0000ec08       $unwind$?New@?$Factory@VFunctionTemplate@v8@@@imp@Nan@@SA?AV?$Local@VFunctionTemplate@v8@@@v8@@P6AXAEBV?$FunctionCallbackInfo@VValue@v8@@@3@@ZV?$Local@VValue@v8@@@5@V?$Local@VSignature@v8@@@5@@Z 0000000180041c08     w_key.obj
 0002:0000ec20       $stateUnwindMap$?New@?$Factory@VFunctionTemplate@v8@@@imp@Nan@@SA?AV?$Local@VFunctionTemplate@v8@@@v8@@P6AXAEBV?$FunctionCallbackInfo@VValue@v8@@@3@@ZV?$Local@VValue@v8@@@5@V?$Local@VSignature@v8@@@5@@Z 0000000180041c20     w_key.obj
 0002:0000ec28       $ip2state$?New@?$Factory@VFunctionTemplate@v8@@@imp@Nan@@SA?AV?$Local@VFunctionTemplate@v8@@@v8@@P6AXAEBV?$FunctionCallbackInfo@VValue@v8@@@3@@ZV?$Local@VValue@v8@@@5@V?$Local@VSignature@v8@@@5@@Z 0000000180041c28     w_key.obj
 0002:0000ec40       $unwind$?ThrowError@Nan@@YAXPEBD@Z 0000000180041c40     w_key.obj
 0002:0000ec50       $stateUnwindMap$?ThrowError@Nan@@YAXPEBD@Z 0000000180041c50     w_key.obj
 0002:0000ec50       $stateUnwindMap$?Call_@Callback@Nan@@AEBA?AV?$Local@VValue@v8@@@v8@@PEAVIsolate@4@V?$Local@VObject@v8@@@4@HQEAV34@@Z 0000000180041c50     w_key.obj
 0002:0000ec50       $stateUnwindMap$?HandleErrorCallback@AsyncWorker@Nan@@MEAAXXZ 0000000180041c50     w_key.obj
 0002:0000ec50       $stateUnwindMap$?HandleOKCallback@AsyncWorker@Nan@@MEAAXXZ 0000000180041c50     w_key.obj
 0002:0000ec58       $ip2state$?ThrowError@Nan@@YAXPEBD@Z 0000000180041c58     w_key.obj
 0002:0000ec70       $unwind$?ThrowError@Nan@@YAXV?$Local@VString@v8@@@v8@@@Z 0000000180041c70     w_key.obj
 0002:0000ec80       $ip2state$?ThrowError@Nan@@YAXV?$Local@VString@v8@@@v8@@@Z 0000000180041c80     w_key.obj
 0002:0000ec98       $unwind$?Call@Callback@Nan@@QEBA?AV?$MaybeLocal@VValue@v8@@@v8@@HQEAV?$Local@VValue@v8@@@4@PEAVAsyncResource@2@@Z 0000000180041c98     w_key.obj
 0002:0000ecb8       $ip2state$?Call@Callback@Nan@@QEBA?AV?$MaybeLocal@VValue@v8@@@v8@@HQEAV?$Local@VValue@v8@@@4@PEAVAsyncResource@2@@Z 0000000180041cb8     w_key.obj
 0002:0000ecd0       $unwind$?Call_@Callback@Nan@@AEBA?AV?$Local@VValue@v8@@@v8@@PEAVIsolate@4@V?$Local@VObject@v8@@@4@HQEAV34@@Z 0000000180041cd0     w_key.obj
 0002:0000ece8       $ip2state$?Call_@Callback@Nan@@AEBA?AV?$Local@VValue@v8@@@v8@@PEAVIsolate@4@V?$Local@VObject@v8@@@4@HQEAV34@@Z 0000000180041ce8     w_key.obj
 0002:0000ed00       $unwind$??0AsyncWorker@Nan@@QEAA@PEAVCallback@1@PEBD@Z 0000000180041d00     w_key.obj
 0002:0000ed14       $stateUnwindMap$??0AsyncWorker@Nan@@QEAA@PEAVCallback@1@PEBD@Z 0000000180041d14     w_key.obj
 0002:0000ed28       $ip2state$??0AsyncWorker@Nan@@QEAA@PEAVCallback@1@PEBD@Z 0000000180041d28     w_key.obj
 0002:0000ed50       $unwind$??1AsyncWorker@Nan@@UEAA@XZ 0000000180041d50     w_key.obj
 0002:0000ed64       $stateUnwindMap$??1AsyncWorker@Nan@@UEAA@XZ 0000000180041d64     w_key.obj
 0002:0000ed78       $ip2state$??1AsyncWorker@Nan@@UEAA@XZ 0000000180041d78     w_key.obj
 0002:0000ed90       $unwind$?WorkComplete@AsyncWorker@Nan@@UEAAXXZ 0000000180041d90     w_key.obj
 0002:0000eda4       $stateUnwindMap$?WorkComplete@AsyncWorker@Nan@@UEAAXXZ 0000000180041da4     w_key.obj
 0002:0000edc0       $ip2state$?WorkComplete@AsyncWorker@Nan@@UEAAXXZ 0000000180041dc0     w_key.obj
 0002:0000ede8       $unwind$?HandleOKCallback@AsyncWorker@Nan@@MEAAXXZ 0000000180041de8     w_key.obj
 0002:0000edf8       $ip2state$?HandleOKCallback@AsyncWorker@Nan@@MEAAXXZ 0000000180041df8     w_key.obj
 0002:0000ee10       $unwind$?HandleErrorCallback@AsyncWorker@Nan@@MEAAXXZ 0000000180041e10     w_key.obj
 0002:0000ee28       $ip2state$?HandleErrorCallback@AsyncWorker@Nan@@MEAAXXZ 0000000180041e28     w_key.obj
 0002:0000ee40       $unwind$??1?$Persistent@VObject@v8@@V?$NonCopyablePersistentTraits@VObject@v8@@@2@@Nan@@QEAA@XZ 0000000180041e40     w_key.obj
 0002:0000ee50       $ip2state$??1?$Persistent@VObject@v8@@V?$NonCopyablePersistentTraits@VObject@v8@@@2@@Nan@@QEAA@XZ 0000000180041e50     w_key.obj
 0002:0000ee58       $unwind$?SetPrototypeMethod@Nan@@YAXV?$Local@VFunctionTemplate@v8@@@v8@@PEBDP6AXAEBV?$FunctionCallbackInfo@VValue@v8@@@1@@Z@Z 0000000180041e58     w_key.obj
 0002:0000ee70       $stateUnwindMap$?Init@WCore@@SAXV?$Local@VObject@v8@@@v8@@@Z 0000000180041e70     w_core.obj
 0002:0000ee70       $stateUnwindMap$?SetPrototypeMethod@Nan@@YAXV?$Local@VFunctionTemplate@v8@@@v8@@PEBDP6AXAEBV?$FunctionCallbackInfo@VValue@v8@@@1@@Z@Z 0000000180041e70     w_key.obj
 0002:0000ee70       $stateUnwindMap$?Init@WPbkdf2@@SAXV?$Local@VObject@v8@@@v8@@@Z 0000000180041e70     w_pbkdf2.obj
 0002:0000ee78       $ip2state$?SetPrototypeMethod@Nan@@YAXV?$Local@VFunctionTemplate@v8@@@v8@@PEBDP6AXAEBV?$FunctionCallbackInfo@VValue@v8@@@1@@Z@Z 0000000180041e78     w_key.obj
 0002:0000ee90       $unwind$?SetAccessor@Nan@@YAXV?$Local@VObjectTemplate@v8@@@v8@@V?$Local@VString@v8@@@3@P6AX1AEBV?$PropertyCallbackInfo@VValue@v8@@@1@@ZP6AX1V?$Local@VValue@v8@@@3@AEBV?$PropertyCallbackInfo@X@1@@Z4W4AccessControl@3@W4PropertyAttribute@3@V?$Local@VAccessorSignature@v8@@@3@@Z 0000000180041e90     w_key.obj
 0002:0000eea0       $stateUnwindMap$?SetAccessor@Nan@@YAXV?$Local@VObjectTemplate@v8@@@v8@@V?$Local@VString@v8@@@3@P6AX1AEBV?$PropertyCallbackInfo@VValue@v8@@@1@@ZP6AX1V?$Local@VValue@v8@@@3@AEBV?$PropertyCallbackInfo@X@1@@Z4W4AccessControl@3@W4PropertyAttribute@3@V?$Local@VAccessorSignature@v8@@@3@@Z 0000000180041ea0     w_key.obj
 0002:0000eea8       $ip2state$?SetAccessor@Nan@@YAXV?$Local@VObjectTemplate@v8@@@v8@@V?$Local@VString@v8@@@3@P6AX1AEBV?$PropertyCallbackInfo@VValue@v8@@@1@@ZP6AX1V?$Local@VValue@v8@@@3@AEBV?$PropertyCallbackInfo@X@1@@Z4W4AccessControl@3@W4PropertyAttribute@3@V?$Local@VAccessorSignature@v8@@@3@@Z 0000000180041ea8     w_key.obj
 0002:0000eec0       $unwind$__acrt_DownlevelLocaleNameToLCID 0000000180041ec0     libucrt:lcidtoname_downlevel.obj
 0002:0000eec0       $unwind$__vcrt_thread_detach 0000000180041ec0     libvcruntime:initialization.obj
 0002:0000eec0       $unwind$__std_terminate    0000000180041ec0     libvcruntime:frame.obj
 0002:0000eec0       $unwind$__scrt_dllmain_after_initialize_c 0000000180041ec0     LIBCMT:utility.obj
 0002:0000eec0       $unwind$?__GetCurrentState@@YAHPEA_KPEAU_xDISPATCHER_CONTEXT@@PEBU_s_FuncInfo@@@Z 0000000180041ec0     libvcruntime:ehstate.obj
 0002:0000eec0       $unwind$__vcrt_getptd      0000000180041ec0     libvcruntime:per_thread_data.obj
 0002:0000eec0       $unwind$__acrt_uninitialize_critical 0000000180041ec0     libucrt:initialization.obj
 0002:0000eec0       $unwind$__GSHandlerCheck   0000000180041ec0     LIBCMT:_gshandler_.obj
 0002:0000eec0       $unwind$__scrt_dllmain_uninitialize_c 0000000180041ec0     LIBCMT:utility.obj
 0002:0000eec0       $unwind$__acrt_initialize_heap 0000000180041ec0     libucrt:heap_handle.obj
 0002:0000eec0       $unwind$atexit             0000000180041ec0     LIBCMT:utility.obj
 0002:0000eec0       $unwind$abort              0000000180041ec0     libucrt:abort.obj
 0002:0000eec0       $unwind$__vcrt_uninitialize_critical 0000000180041ec0     libvcruntime:initialization.obj
 0002:0000eec0       $unwind$?Execute@AsyncAesExport@@UEAAXXZ 0000000180041ec0     async_aes.obj
 0002:0000eec0       $unwind$__acrt_initialize_command_line 0000000180041ec0     libucrt:argv_data.obj
 0002:0000eec0       $unwind$__dcrt_terminate_console_output 0000000180041ec0     libucrt:initcon.obj
 0002:0000eec0       $unwind$_getfpcontrolword  0000000180041ec0     libucrt:_fenvutils.obj
 0002:0000eec0       $unwind$__scrt_dllmain_crt_thread_attach 0000000180041ec0     LIBCMT:utility.obj
 0002:0000eec0       $unwind$__scrt_dllmain_crt_thread_detach 0000000180041ec0     LIBCMT:utility.obj
 0002:0000eec0       $unwind$??$uninitialize_environment_internal@_W@@YAXAEAPEAPEA_W@Z 0000000180041ec0     libucrt:environment_initialization.obj
 0002:0000eec0       $unwind$??$uninitialize_environment_internal@D@@YAXAEAPEAPEAD@Z 0000000180041ec0     libucrt:environment_initialization.obj
 0002:0000eec0       $unwind$__acrt_thread_attach 0000000180041ec0     libucrt:initialization.obj
 0002:0000eec0       $unwind$_get_osfhandle     0000000180041ec0     libucrt:osfinfo.obj
 0002:0000eec0       $unwind$_getfpstatusword   0000000180041ec0     libucrt:_fenvutils.obj
 0002:0000eec0       $unwind$tolower            0000000180041ec0     libucrt:tolower_toupper.obj
 0002:0000eec0       $unwind$__scrt_dllmain_uninitialize_critical 0000000180041ec0     LIBCMT:utility.obj
 0002:0000eec0       $unwind$?__scrt_uninitialize_thread_safe_statics@@YAXXZ 0000000180041ec0     LIBCMT:thread_safe_statics.obj
 0002:0000eec0       $unwind$__FrameUnwindFilter 0000000180041ec0     libvcruntime:frame.obj
 0002:0000eec0       $unwind$_isatty            0000000180041ec0     libucrt:isatty.obj
 0002:0000eec0       $unwind$__acrt_thread_detach 0000000180041ec0     libucrt:initialization.obj
 0002:0000eec0       $unwind$_errno             0000000180041ec0     libucrt:errno.obj
 0002:0000eec0       $unwind$_invoke_watson     0000000180041ec0     libucrt:invalid_parameter.obj
 0002:0000eec0       $unwind$?constructor@WCore@@KAAEAV?$Persistent@VFunction@v8@@V?$NonCopyablePersistentTraits@VFunction@v8@@@2@@Nan@@XZ 0000000180041ec0     w_core.obj
 0002:0000eec0       $unwind$__doserrno         0000000180041ec0     libucrt:errno.obj
 0002:0000eec0       $unwind$?state_case_size@?$output_processor@_WV?$string_output_adapter@_W@__crt_stdio_output@@V?$standard_base@_WV?$string_output_adapter@_W@__crt_stdio_output@@@2@@__crt_stdio_output@@AEAA_NXZ 0000000180041ec0     libucrt:output.obj
 0002:0000eec0       $unwind$?dllmain_crt_dispatch@@YAHQEAUHINSTANCE__@@KQEAX@Z 0000000180041ec0     LIBCMT:dll_dllmain.obj
 0002:0000eec0       $unwind$__vcrt_uninitialize 0000000180041ec0     libvcruntime:initialization.obj
 0002:0000eec0       $unwind$_stricmp           0000000180041ec0     libucrt:stricmp.obj
 0002:0000eec0       $unwind$__vcrt_thread_attach 0000000180041ec0     libvcruntime:initialization.obj
 0002:0000eec0       $unwind$__scrt_initialize_default_local_stdio_options 0000000180041ec0     LIBCMT:default_local_stdio_options.obj
 0002:0000eec0       $unwind$__dcrt_uninitialize_environments_nolock 0000000180041ec0     libucrt:environment_initialization.obj
 0002:0000eec0       $unwind$__vcrt_freefls     0000000180041ec0     libvcruntime:per_thread_data.obj
 0002:0000eec0       $unwind$?constructor@WPbkdf2@@KAAEAV?$Persistent@VFunction@v8@@V?$NonCopyablePersistentTraits@VFunction@v8@@@2@@Nan@@XZ 0000000180041ec0     w_pbkdf2.obj
 0002:0000eec0       $unwind$?constructor@WHmac@@KAAEAV?$Persistent@VFunction@v8@@V?$NonCopyablePersistentTraits@VFunction@v8@@@2@@Nan@@XZ 0000000180041ec0     w_hmac.obj
 0002:0000eec0       $unwind$initialize_c       0000000180041ec0     libucrt:initialization.obj
 0002:0000eec0       $unwind$?constructor@WAes@@KAAEAV?$Persistent@VFunction@v8@@V?$NonCopyablePersistentTraits@VFunction@v8@@@2@@Nan@@XZ 0000000180041ec0     w_aes.obj
 0002:0000eec0       $unwind$?constructor@WKey@@KAAEAV?$Persistent@VFunction@v8@@V?$NonCopyablePersistentTraits@VFunction@v8@@@2@@Nan@@XZ 0000000180041ec0     w_key.obj
 0002:0000eec0       $unwind$_msize             0000000180041ec0     libucrt:msize.obj
 0002:0000eec0       $unwind$__scrt_dllmain_before_initialize_c 0000000180041ec0     LIBCMT:utility.obj
 0002:0000eec0       $unwind$?state_case_size@?$output_processor@_WV?$stream_output_adapter@_W@__crt_stdio_output@@V?$standard_base@_WV?$stream_output_adapter@_W@__crt_stdio_output@@@2@@__crt_stdio_output@@AEAA_NXZ 0000000180041ec0     libucrt:output.obj
 0002:0000eec0       $unwind$uninitialize_environment 0000000180041ec0     libucrt:initialization.obj
 0002:0000eec0       $unwind$_fileno            0000000180041ec0     libucrt:fileno.obj
 0002:0000eec0       $unwind$_set_error_mode    0000000180041ec0     libucrt:set_error_mode.obj
 0002:0000eec0       $unwind$__acrt_release_locale_ref 0000000180041ec0     libucrt:locale_refcounting.obj
 0002:0000eec0       $unwind$__acrt_uninitialize_ptd 0000000180041ec0     libucrt:per_thread_data.obj
 0002:0000eec0       $unwind$?initialize_multibyte@@YAHXZ 0000000180041ec0     libucrt:multibyte_initializer.obj
 0002:0000eec0       $unwind$__acrt_initialize_ptd 0000000180041ec0     libucrt:per_thread_data.obj
 0002:0000eec0       $unwind$__report_rangecheckfailure 0000000180041ec0     LIBCMT:gs_report.obj
 0002:0000eec0       $unwind$__scrt_acquire_startup_lock 0000000180041ec0     LIBCMT:utility.obj
 0002:0000eec0       $unwind$_GetThrowImageBase 0000000180041ec0     libvcruntime:trnsctrl.obj
 0002:0000eec0       $unwind$__acrt_initialize_multibyte 0000000180041ec0     libucrt:mbctype.obj
 0002:0000eec0       $unwind$__vcrt_initialize_ptd 0000000180041ec0     libvcruntime:per_thread_data.obj
 0002:0000eec0       $unwind$_statfp            0000000180041ec0     libucrt:fpctrl.obj
 0002:0000eec0       $unwind$_set_errno_from_matherr 0000000180041ec0     libucrt:fpexcept.obj
 0002:0000eec0       $unwind$?Execute@AsyncHmacExport@@UEAAXXZ 0000000180041ec0     async_hmac.obj
 0002:0000eec0       $unwind$__pctype_func      0000000180041ec0     libucrt:ctype.obj
 0002:0000eec0       $unwind$__vcrt_uninitialize_ptd 0000000180041ec0     libvcruntime:per_thread_data.obj
 0002:0000eec0       $unwind$__vcrt_initialize  0000000180041ec0     libvcruntime:initialization.obj
 0002:0000eec0       $unwind$_GetImageBase      0000000180041ec0     libvcruntime:trnsctrl.obj
 0002:0000eec8       $unwind$??__Fmy_constructor@?1??constructor@WKey@@KAAEAV?$Persistent@VFunction@v8@@V?$NonCopyablePersistentTraits@VFunction@v8@@@2@@Nan@@XZ@YAXXZ 0000000180041ec8     w_key.obj
 0002:0000eed8       $ip2state$??__Fmy_constructor@?1??constructor@WKey@@KAAEAV?$Persistent@VFunction@v8@@V?$NonCopyablePersistentTraits@VFunction@v8@@@2@@Nan@@XZ@YAXXZ 0000000180041ed8     w_key.obj
 0002:0000eee0       $unwind$??1AsyncRsaGenerateKey@@UEAA@XZ 0000000180041ee0     w_key.obj
 0002:0000eef8       $ip2state$??1AsyncRsaGenerateKey@@UEAA@XZ 0000000180041ef8     w_key.obj
 0002:0000ef00       $unwind$??0AsyncEncrypDecryptRsaOAEP@@QEAA@PEAVCallback@Nan@@V?$shared_ptr@V?$ScopedSSL@Uevp_pkey_st@@$1?ScopedEVP_PKEY_free@@YAXPEAX@Z@@@std@@PEBUenv_md_st@@V?$shared_ptr@V?$basic_string@DU?$char_traits@D@std@@V?$allocator@D@2@@std@@@4@3_N@Z 0000000180041f00     w_key.obj
 0002:0000ef20       $stateUnwindMap$??0AsyncEncrypDecryptRsaOAEP@@QEAA@PEAVCallback@Nan@@V?$shared_ptr@V?$ScopedSSL@Uevp_pkey_st@@$1?ScopedEVP_PKEY_free@@YAXPEAX@Z@@@std@@PEBUenv_md_st@@V?$shared_ptr@V?$basic_string@DU?$char_traits@D@std@@V?$allocator@D@2@@std@@@4@3_N@Z 0000000180041f20     w_key.obj
 0002:0000ef38       $ip2state$??0AsyncEncrypDecryptRsaOAEP@@QEAA@PEAVCallback@Nan@@V?$shared_ptr@V?$ScopedSSL@Uevp_pkey_st@@$1?ScopedEVP_PKEY_free@@YAXPEAX@Z@@@std@@PEBUenv_md_st@@V?$shared_ptr@V?$basic_string@DU?$char_traits@D@std@@V?$allocator@D@2@@std@@@4@3_N@Z 0000000180041f38     w_key.obj
 0002:0000ef60       $unwind$??1AsyncEncrypDecryptRsaOAEP@@UEAA@XZ 0000000180041f60     w_key.obj
 0002:0000ef78       $ip2state$??1AsyncEncrypDecryptRsaOAEP@@UEAA@XZ 0000000180041f78     w_key.obj
 0002:0000ef80       $unwind$??0AsyncExportJwkRsa@@QEAA@PEAVCallback@Nan@@HV?$shared_ptr@V?$ScopedSSL@Uevp_pkey_st@@$1?ScopedEVP_PKEY_free@@YAXPEAX@Z@@@std@@@Z 0000000180041f80     w_key.obj
 0002:0000ef98       $ip2state$??0AsyncExportJwkRsa@@QEAA@PEAVCallback@Nan@@HV?$shared_ptr@V?$ScopedSSL@Uevp_pkey_st@@$1?ScopedEVP_PKEY_free@@YAXPEAX@Z@@@std@@@Z 0000000180041f98     w_key.obj
 0002:0000efb0       $unwind$??1AsyncExportJwkRsa@@UEAA@XZ 0000000180041fb0     w_key.obj
 0002:0000efc8       $ip2state$??1AsyncExportJwkRsa@@UEAA@XZ 0000000180041fc8     w_key.obj
 0002:0000efd0       $unwind$??0AsyncExportSpki@@QEAA@PEAVCallback@Nan@@V?$shared_ptr@V?$ScopedSSL@Uevp_pkey_st@@$1?ScopedEVP_PKEY_free@@YAXPEAX@Z@@@std@@@Z 0000000180041fd0     w_key.obj
 0002:0000efe8       $stateUnwindMap$??0AsyncAesImport@@QEAA@PEAVCallback@Nan@@V?$shared_ptr@V?$basic_string@DU?$char_traits@D@std@@V?$allocator@D@2@@std@@@std@@@Z 0000000180041fe8     w_aes.obj
 0002:0000efe8       $stateUnwindMap$??0AsyncImportJwkRsa@@QEAA@PEAVCallback@Nan@@V?$shared_ptr@VJwkRsa@@@std@@H@Z 0000000180041fe8     w_key.obj
 0002:0000efe8       $stateUnwindMap$??0AsyncExportSpki@@QEAA@PEAVCallback@Nan@@V?$shared_ptr@V?$ScopedSSL@Uevp_pkey_st@@$1?ScopedEVP_PKEY_free@@YAXPEAX@Z@@@std@@@Z 0000000180041fe8     w_key.obj
 0002:0000efe8       $stateUnwindMap$??0AsyncAesExport@@QEAA@PEAVCallback@Nan@@V?$shared_ptr@VScopedAES@@@std@@@Z 0000000180041fe8     w_aes.obj
 0002:0000efe8       $stateUnwindMap$??0AsyncPbkdf2Import@@QEAA@PEAVCallback@Nan@@V?$shared_ptr@V?$basic_string@DU?$char_traits@D@std@@V?$allocator@D@2@@std@@@std@@@Z 0000000180041fe8     w_pbkdf2.obj
 0002:0000efe8       $stateUnwindMap$??0AsyncExportPkcs8@@QEAA@PEAVCallback@Nan@@V?$shared_ptr@V?$ScopedSSL@Uevp_pkey_st@@$1?ScopedEVP_PKEY_free@@YAXPEAX@Z@@@std@@@Z 0000000180041fe8     w_key.obj
 0002:0000efe8       $stateUnwindMap$??0AsyncHmacExport@@QEAA@PEAVCallback@Nan@@V?$shared_ptr@VScopedHMAC@@@std@@@Z 0000000180041fe8     w_hmac.obj
 0002:0000efe8       $stateUnwindMap$??0AsyncImportPkcs8@@QEAA@PEAVCallback@Nan@@V?$shared_ptr@V?$basic_string@DU?$char_traits@D@std@@V?$allocator@D@2@@std@@@std@@@Z 0000000180041fe8     w_key.obj
 0002:0000efe8       $stateUnwindMap$??0AsyncHmacImport@@QEAA@PEAVCallback@Nan@@V?$shared_ptr@V?$basic_string@DU?$char_traits@D@std@@V?$allocator@D@2@@std@@@std@@@Z 0000000180041fe8     w_hmac.obj
 0002:0000efe8       $stateUnwindMap$??0AsyncImportSpki@@QEAA@PEAVCallback@Nan@@V?$shared_ptr@V?$basic_string@DU?$char_traits@D@std@@V?$allocator@D@2@@std@@@std@@@Z 0000000180041fe8     w_key.obj
 0002:0000efe8       $stateUnwindMap$??0AsyncEcImportJwk@@QEAA@PEAVCallback@Nan@@V?$shared_ptr@VJwkEc@@@std@@H@Z 0000000180041fe8     w_key.obj
 0002:0000eff0       $ip2state$??0AsyncExportSpki@@QEAA@PEAVCallback@Nan@@V?$shared_ptr@V?$ScopedSSL@Uevp_pkey_st@@$1?ScopedEVP_PKEY_free@@YAXPEAX@Z@@@std@@@Z 0000000180041ff0     w_key.obj
 0002:0000f008       $unwind$??1AsyncExportSpki@@UEAA@XZ 0000000180042008     w_key.obj
 0002:0000f020       $ip2state$??1AsyncExportSpki@@UEAA@XZ 0000000180042020     w_key.obj
 0002:0000f028       $unwind$??0AsyncExportPkcs8@@QEAA@PEAVCallback@Nan@@V?$shared_ptr@V?$ScopedSSL@Uevp_pkey_st@@$1?ScopedEVP_PKEY_free@@YAXPEAX@Z@@@std@@@Z 0000000180042028     w_key.obj
 0002:0000f040       $ip2state$??0AsyncExportPkcs8@@QEAA@PEAVCallback@Nan@@V?$shared_ptr@V?$ScopedSSL@Uevp_pkey_st@@$1?ScopedEVP_PKEY_free@@YAXPEAX@Z@@@std@@@Z 0000000180042040     w_key.obj
 0002:0000f058       $unwind$??1AsyncExportPkcs8@@UEAA@XZ 0000000180042058     w_key.obj
 0002:0000f070       $ip2state$??1AsyncExportPkcs8@@UEAA@XZ 0000000180042070     w_key.obj
 0002:0000f078       $unwind$??0AsyncImportPkcs8@@QEAA@PEAVCallback@Nan@@V?$shared_ptr@V?$basic_string@DU?$char_traits@D@std@@V?$allocator@D@2@@std@@@std@@@Z 0000000180042078     w_key.obj
 0002:0000f090       $ip2state$??0AsyncImportPkcs8@@QEAA@PEAVCallback@Nan@@V?$shared_ptr@V?$basic_string@DU?$char_traits@D@std@@V?$allocator@D@2@@std@@@std@@@Z 0000000180042090     w_key.obj
 0002:0000f0a8       $unwind$??1AsyncImportPkcs8@@UEAA@XZ 00000001800420a8     w_key.obj
 0002:0000f0c0       $ip2state$??1AsyncImportPkcs8@@UEAA@XZ 00000001800420c0     w_key.obj
 0002:0000f0c8       $unwind$??0AsyncImportSpki@@QEAA@PEAVCallback@Nan@@V?$shared_ptr@V?$basic_string@DU?$char_traits@D@std@@V?$allocator@D@2@@std@@@std@@@Z 00000001800420c8     w_key.obj
 0002:0000f0e0       $ip2state$??0AsyncImportSpki@@QEAA@PEAVCallback@Nan@@V?$shared_ptr@V?$basic_string@DU?$char_traits@D@std@@V?$allocator@D@2@@std@@@std@@@Z 00000001800420e0     w_key.obj
 0002:0000f0f8       $unwind$??1AsyncImportSpki@@UEAA@XZ 00000001800420f8     w_key.obj
 0002:0000f110       $ip2state$??1AsyncImportSpki@@UEAA@XZ 0000000180042110     w_key.obj
 0002:0000f118       $unwind$??0AsyncImportJwkRsa@@QEAA@PEAVCallback@Nan@@V?$shared_ptr@VJwkRsa@@@std@@H@Z 0000000180042118     w_key.obj
 0002:0000f138       $ip2state$??0AsyncImportJwkRsa@@QEAA@PEAVCallback@Nan@@V?$shared_ptr@VJwkRsa@@@std@@H@Z 0000000180042138     w_key.obj
 0002:0000f150       $unwind$??1AsyncImportJwkRsa@@UEAA@XZ 0000000180042150     w_key.obj
 0002:0000f168       $ip2state$??1AsyncImportJwkRsa@@UEAA@XZ 0000000180042168     w_key.obj
 0002:0000f170       $unwind$??0AsyncSignRsa@@QEAA@PEAVCallback@Nan@@PEBUenv_md_st@@V?$shared_ptr@V?$ScopedSSL@Uevp_pkey_st@@$1?ScopedEVP_PKEY_free@@YAXPEAX@Z@@@std@@V?$shared_ptr@V?$basic_string@DU?$char_traits@D@std@@V?$allocator@D@2@@std@@@5@@Z 0000000180042170     w_key.obj
 0002:0000f18c       $stateUnwindMap$??0AsyncHmacSign@@QEAA@PEAVCallback@Nan@@PEBUenv_md_st@@V?$shared_ptr@VScopedHMAC@@@std@@V?$shared_ptr@V?$basic_string@DU?$char_traits@D@std@@V?$allocator@D@2@@std@@@5@@Z 000000018004218c     w_hmac.obj
 0002:0000f18c       $stateUnwindMap$??0AsyncEcdsaSign@@QEAA@PEAVCallback@Nan@@PEBUenv_md_st@@V?$shared_ptr@V?$ScopedSSL@Uevp_pkey_st@@$1?ScopedEVP_PKEY_free@@YAXPEAX@Z@@@std@@V?$shared_ptr@V?$basic_string@DU?$char_traits@D@std@@V?$allocator@D@2@@std@@@5@@Z 000000018004218c     w_key.obj
 0002:0000f18c       $stateUnwindMap$??0AsyncSignRsa@@QEAA@PEAVCallback@Nan@@PEBUenv_md_st@@V?$shared_ptr@V?$ScopedSSL@Uevp_pkey_st@@$1?ScopedEVP_PKEY_free@@YAXPEAX@Z@@@std@@V?$shared_ptr@V?$basic_string@DU?$char_traits@D@std@@V?$allocator@D@2@@std@@@5@@Z 000000018004218c     w_key.obj
 0002:0000f1a0       $ip2state$??0AsyncSignRsa@@QEAA@PEAVCallback@Nan@@PEBUenv_md_st@@V?$shared_ptr@V?$ScopedSSL@Uevp_pkey_st@@$1?ScopedEVP_PKEY_free@@YAXPEAX@Z@@@std@@V?$shared_ptr@V?$basic_string@DU?$char_traits@D@std@@V?$allocator@D@2@@std@@@5@@Z 00000001800421a0     w_key.obj
 0002:0000f1c0       $unwind$??1AsyncSignRsa@@UEAA@XZ 00000001800421c0     w_key.obj
 0002:0000f1d8       $ip2state$??1AsyncSignRsa@@UEAA@XZ 00000001800421d8     w_key.obj
 0002:0000f1e0       $unwind$??0AsyncVerifyRsa@@QEAA@PEAVCallback@Nan@@PEBUenv_md_st@@V?$shared_ptr@V?$ScopedSSL@Uevp_pkey_st@@$1?ScopedEVP_PKEY_free@@YAXPEAX@Z@@@std@@V?$shared_ptr@V?$basic_string@DU?$char_traits@D@std@@V?$allocator@D@2@@std@@@5@3@Z 00000001800421e0     w_key.obj
 0002:0000f1fc       $stateUnwindMap$??0AsyncVerifyRsa@@QEAA@PEAVCallback@Nan@@PEBUenv_md_st@@V?$shared_ptr@V?$ScopedSSL@Uevp_pkey_st@@$1?ScopedEVP_PKEY_free@@YAXPEAX@Z@@@std@@V?$shared_ptr@V?$basic_string@DU?$char_traits@D@std@@V?$allocator@D@2@@std@@@5@3@Z 00000001800421fc     w_key.obj
 0002:0000f1fc       $stateUnwindMap$??0AsyncEcdsaVerify@@QEAA@PEAVCallback@Nan@@PEBUenv_md_st@@V?$shared_ptr@V?$ScopedSSL@Uevp_pkey_st@@$1?ScopedEVP_PKEY_free@@YAXPEAX@Z@@@std@@V?$shared_ptr@V?$basic_string@DU?$char_traits@D@std@@V?$allocator@D@2@@std@@@5@3@Z 00000001800421fc     w_key.obj
 0002:0000f1fc       $stateUnwindMap$??0AsyncHmacVerify@@QEAA@PEAVCallback@Nan@@PEBUenv_md_st@@V?$shared_ptr@VScopedHMAC@@@std@@V?$shared_ptr@V?$basic_string@DU?$char_traits@D@std@@V?$allocator@D@2@@std@@@5@3@Z 00000001800421fc     w_hmac.obj
 0002:0000f218       $ip2state$??0AsyncVerifyRsa@@QEAA@PEAVCallback@Nan@@PEBUenv_md_st@@V?$shared_ptr@V?$ScopedSSL@Uevp_pkey_st@@$1?ScopedEVP_PKEY_free@@YAXPEAX@Z@@@std@@V?$shared_ptr@V?$basic_string@DU?$char_traits@D@std@@V?$allocator@D@2@@std@@@5@3@Z 0000000180042218     w_key.obj
 0002:0000f240       $unwind$??1AsyncVerifyRsa@@UEAA@XZ 0000000180042240     w_key.obj
 0002:0000f258       $ip2state$??1AsyncVerifyRsa@@UEAA@XZ 0000000180042258     w_key.obj
 0002:0000f260       $unwind$??0AsyncSignRsaPSS@@QEAA@PEAVCallback@Nan@@PEBUenv_md_st@@V?$shared_ptr@V?$ScopedSSL@Uevp_pkey_st@@$1?ScopedEVP_PKEY_free@@YAXPEAX@Z@@@std@@HV?$shared_ptr@V?$basic_string@DU?$char_traits@D@std@@V?$allocator@D@2@@std@@@5@@Z 0000000180042260     w_key.obj
 0002:0000f27c       $stateUnwindMap$??0AsyncSignRsaPSS@@QEAA@PEAVCallback@Nan@@PEBUenv_md_st@@V?$shared_ptr@V?$ScopedSSL@Uevp_pkey_st@@$1?ScopedEVP_PKEY_free@@YAXPEAX@Z@@@std@@HV?$shared_ptr@V?$basic_string@DU?$char_traits@D@std@@V?$allocator@D@2@@std@@@5@@Z 000000018004227c     w_key.obj
 0002:0000f290       $ip2state$??0AsyncSignRsaPSS@@QEAA@PEAVCallback@Nan@@PEBUenv_md_st@@V?$shared_ptr@V?$ScopedSSL@Uevp_pkey_st@@$1?ScopedEVP_PKEY_free@@YAXPEAX@Z@@@std@@HV?$shared_ptr@V?$basic_string@DU?$char_traits@D@std@@V?$allocator@D@2@@std@@@5@@Z 0000000180042290     w_key.obj
 0002:0000f2b0       $unwind$??1AsyncSignRsaPSS@@UEAA@XZ 00000001800422b0     w_key.obj
 0002:0000f2c8       $ip2state$??1AsyncSignRsaPSS@@UEAA@XZ 00000001800422c8     w_key.obj
 0002:0000f2d0       $unwind$??0AsyncVerifyRsaPSS@@QEAA@PEAVCallback@Nan@@PEBUenv_md_st@@V?$shared_ptr@V?$ScopedSSL@Uevp_pkey_st@@$1?ScopedEVP_PKEY_free@@YAXPEAX@Z@@@std@@HV?$shared_ptr@V?$basic_string@DU?$char_traits@D@std@@V?$allocator@D@2@@std@@@5@3@Z 00000001800422d0     w_key.obj
 0002:0000f2ec       $stateUnwindMap$??0AsyncVerifyRsaPSS@@QEAA@PEAVCallback@Nan@@PEBUenv_md_st@@V?$shared_ptr@V?$ScopedSSL@Uevp_pkey_st@@$1?ScopedEVP_PKEY_free@@YAXPEAX@Z@@@std@@HV?$shared_ptr@V?$basic_string@DU?$char_traits@D@std@@V?$allocator@D@2@@std@@@5@3@Z 00000001800422ec     w_key.obj
 0002:0000f308       $ip2state$??0AsyncVerifyRsaPSS@@QEAA@PEAVCallback@Nan@@PEBUenv_md_st@@V?$shared_ptr@V?$ScopedSSL@Uevp_pkey_st@@$1?ScopedEVP_PKEY_free@@YAXPEAX@Z@@@std@@HV?$shared_ptr@V?$basic_string@DU?$char_traits@D@std@@V?$allocator@D@2@@std@@@5@3@Z 0000000180042308     w_key.obj
 0002:0000f330       $unwind$??1AsyncVerifyRsaPSS@@UEAA@XZ 0000000180042330     w_key.obj
 0002:0000f348       $ip2state$??1AsyncVerifyRsaPSS@@UEAA@XZ 0000000180042348     w_key.obj
 0002:0000f350       $unwind$??1AsyncEcGenerateKey@@UEAA@XZ 0000000180042350     w_key.obj
 0002:0000f368       $ip2state$??1AsyncEcGenerateKey@@UEAA@XZ 0000000180042368     w_key.obj
 0002:0000f370       $unwind$??0AsyncEcdhDeriveKey@@QEAA@PEAVCallback@Nan@@V?$shared_ptr@V?$ScopedSSL@Uevp_pkey_st@@$1?ScopedEVP_PKEY_free@@YAXPEAX@Z@@@std@@1_K@Z 0000000180042370     w_key.obj
 0002:0000f388       $stateUnwindMap$??0AsyncEcdhDeriveKey@@QEAA@PEAVCallback@Nan@@V?$shared_ptr@V?$ScopedSSL@Uevp_pkey_st@@$1?ScopedEVP_PKEY_free@@YAXPEAX@Z@@@std@@1_K@Z 0000000180042388     w_key.obj
 0002:0000f388       $stateUnwindMap$??0AsyncAesEncryptECB@@QEAA@PEAVCallback@Nan@@V?$shared_ptr@VScopedAES@@@std@@V?$shared_ptr@V?$basic_string@DU?$char_traits@D@std@@V?$allocator@D@2@@std@@@4@_N@Z 0000000180042388     w_aes.obj
 0002:0000f388       $stateUnwindMap$??0AsyncDigest@@QEAA@PEAVCallback@Nan@@V?$shared_ptr@V?$basic_string@DU?$char_traits@D@std@@V?$allocator@D@2@@std@@@std@@1@Z 0000000180042388     w_core.obj
 0002:0000f388       $stateUnwindMap$??0AsyncEcdhDeriveBits@@QEAA@PEAVCallback@Nan@@V?$shared_ptr@V?$ScopedSSL@Uevp_pkey_st@@$1?ScopedEVP_PKEY_free@@YAXPEAX@Z@@@std@@1_K@Z 0000000180042388     w_key.obj
 0002:0000f388       $stateUnwindMap$??0AsyncAesWrapKey@@QEAA@PEAVCallback@Nan@@V?$shared_ptr@VScopedAES@@@std@@V?$shared_ptr@V?$basic_string@DU?$char_traits@D@std@@V?$allocator@D@2@@std@@@4@_N@Z 0000000180042388     w_aes.obj
 0002:0000f398       $ip2state$??0AsyncEcdhDeriveKey@@QEAA@PEAVCallback@Nan@@V?$shared_ptr@V?$ScopedSSL@Uevp_pkey_st@@$1?ScopedEVP_PKEY_free@@YAXPEAX@Z@@@std@@1_K@Z 0000000180042398     w_key.obj
 0002:0000f3b8       $unwind$??1AsyncEcdhDeriveKey@@UEAA@XZ 00000001800423b8     w_key.obj
 0002:0000f3d0       $ip2state$??1AsyncEcdhDeriveKey@@UEAA@XZ 00000001800423d0     w_key.obj
 0002:0000f3d8       $unwind$??0AsyncEcExportJwk@@QEAA@PEAVCallback@Nan@@HV?$shared_ptr@V?$ScopedSSL@Uevp_pkey_st@@$1?ScopedEVP_PKEY_free@@YAXPEAX@Z@@@std@@@Z 00000001800423d8     w_key.obj
 0002:0000f3f0       $ip2state$??0AsyncEcExportJwk@@QEAA@PEAVCallback@Nan@@HV?$shared_ptr@V?$ScopedSSL@Uevp_pkey_st@@$1?ScopedEVP_PKEY_free@@YAXPEAX@Z@@@std@@@Z 00000001800423f0     w_key.obj
 0002:0000f408       $unwind$??1AsyncEcExportJwk@@UEAA@XZ 0000000180042408     w_key.obj
 0002:0000f420       $ip2state$??1AsyncEcExportJwk@@UEAA@XZ 0000000180042420     w_key.obj
 0002:0000f428       $unwind$??0AsyncEcImportJwk@@QEAA@PEAVCallback@Nan@@V?$shared_ptr@VJwkEc@@@std@@H@Z 0000000180042428     w_key.obj
 0002:0000f448       $ip2state$??0AsyncEcImportJwk@@QEAA@PEAVCallback@Nan@@V?$shared_ptr@VJwkEc@@@std@@H@Z 0000000180042448     w_key.obj
 0002:0000f460       $unwind$??1AsyncEcImportJwk@@UEAA@XZ 0000000180042460     w_key.obj
 0002:0000f478       $ip2state$??1AsyncEcImportJwk@@UEAA@XZ 0000000180042478     w_key.obj
 0002:0000f480       $unwind$??0AsyncEcdsaSign@@QEAA@PEAVCallback@Nan@@PEBUenv_md_st@@V?$shared_ptr@V?$ScopedSSL@Uevp_pkey_st@@$1?ScopedEVP_PKEY_free@@YAXPEAX@Z@@@std@@V?$shared_ptr@V?$basic_string@DU?$char_traits@D@std@@V?$allocator@D@2@@std@@@5@@Z 0000000180042480     w_key.obj
 0002:0000f4a0       $ip2state$??0AsyncEcdsaSign@@QEAA@PEAVCallback@Nan@@PEBUenv_md_st@@V?$shared_ptr@V?$ScopedSSL@Uevp_pkey_st@@$1?ScopedEVP_PKEY_free@@YAXPEAX@Z@@@std@@V?$shared_ptr@V?$basic_string@DU?$char_traits@D@std@@V?$allocator@D@2@@std@@@5@@Z 00000001800424a0     w_key.obj
 0002:0000f4c0       $unwind$??1AsyncEcdsaSign@@UEAA@XZ 00000001800424c0     w_key.obj
 0002:0000f4d8       $ip2state$??1AsyncEcdsaSign@@UEAA@XZ 00000001800424d8     w_key.obj
 0002:0000f4e0       $unwind$??0AsyncEcdsaVerify@@QEAA@PEAVCallback@Nan@@PEBUenv_md_st@@V?$shared_ptr@V?$ScopedSSL@Uevp_pkey_st@@$1?ScopedEVP_PKEY_free@@YAXPEAX@Z@@@std@@V?$shared_ptr@V?$basic_string@DU?$char_traits@D@std@@V?$allocator@D@2@@std@@@5@3@Z 00000001800424e0     w_key.obj
 0002:0000f500       $ip2state$??0AsyncEcdsaVerify@@QEAA@PEAVCallback@Nan@@PEBUenv_md_st@@V?$shared_ptr@V?$ScopedSSL@Uevp_pkey_st@@$1?ScopedEVP_PKEY_free@@YAXPEAX@Z@@@std@@V?$shared_ptr@V?$basic_string@DU?$char_traits@D@std@@V?$allocator@D@2@@std@@@5@3@Z 0000000180042500     w_key.obj
 0002:0000f528       $unwind$??1AsyncEcdsaVerify@@UEAA@XZ 0000000180042528     w_key.obj
 0002:0000f540       $ip2state$??1AsyncEcdsaVerify@@UEAA@XZ 0000000180042540     w_key.obj
 0002:0000f548       $unwind$??0AsyncEcdhDeriveBits@@QEAA@PEAVCallback@Nan@@V?$shared_ptr@V?$ScopedSSL@Uevp_pkey_st@@$1?ScopedEVP_PKEY_free@@YAXPEAX@Z@@@std@@1_K@Z 0000000180042548     w_key.obj
 0002:0000f560       $ip2state$??0AsyncEcdhDeriveBits@@QEAA@PEAVCallback@Nan@@V?$shared_ptr@V?$ScopedSSL@Uevp_pkey_st@@$1?ScopedEVP_PKEY_free@@YAXPEAX@Z@@@std@@1_K@Z 0000000180042560     w_key.obj
 0002:0000f580       $unwind$??1AsyncEcdhDeriveBits@@UEAA@XZ 0000000180042580     w_key.obj
 0002:0000f598       $ip2state$??1AsyncEcdhDeriveBits@@UEAA@XZ 0000000180042598     w_key.obj
 0002:0000f5a0       $unwind$?Init@WKey@@SAXV?$Local@VObject@v8@@@v8@@@Z 00000001800425a0     w_key.obj
 0002:0000f5b8       $stateUnwindMap$?Init@WKey@@SAXV?$Local@VObject@v8@@@v8@@@Z 00000001800425b8     w_key.obj
 0002:0000f5e0       $ip2state$?Init@WKey@@SAXV?$Local@VObject@v8@@@v8@@@Z 00000001800425e0     w_key.obj
 0002:0000f638       $chain$0$?New@WKey@@SAXAEBV?$FunctionCallbackInfo@VValue@v8@@@Nan@@@Z 0000000180042638     w_key.obj
 0002:0000f64c       $chain$1$?New@WKey@@SAXAEBV?$FunctionCallbackInfo@VValue@v8@@@Nan@@@Z 000000018004264c     w_key.obj
 0002:0000f65c       $unwind$??_GWAes@@UEAAPEAXI@Z 000000018004265c     w_aes.obj
 0002:0000f65c       $unwind$??_GWHmac@@UEAAPEAXI@Z 000000018004265c     w_hmac.obj
 0002:0000f65c       $unwind$??_GWPbkdf2@@UEAAPEAXI@Z 000000018004265c     w_pbkdf2.obj
 0002:0000f65c       $unwind$??_GWKey@@UEAAPEAXI@Z 000000018004265c     w_key.obj
 0002:0000f678       $ip2state$??_GWKey@@UEAAPEAXI@Z 0000000180042678     w_key.obj
 0002:0000f678       $ip2state$??_GWHmac@@UEAAPEAXI@Z 0000000180042678     w_hmac.obj
 0002:0000f678       $ip2state$??_GWAes@@UEAAPEAXI@Z 0000000180042678     w_aes.obj
 0002:0000f678       $ip2state$??_GWPbkdf2@@UEAAPEAXI@Z 0000000180042678     w_pbkdf2.obj
 0002:0000f680       $unwind$?Type@WKey@@SAXV?$Local@VString@v8@@@v8@@AEBV?$PropertyCallbackInfo@VValue@v8@@@Nan@@@Z 0000000180042680     w_key.obj
 0002:0000f68c       $unwind$?ModulusLength@WKey@@SAXAEBV?$FunctionCallbackInfo@VValue@v8@@@Nan@@@Z 000000018004268c     w_key.obj
 0002:0000f6a4       $stateUnwindMap$?ModulusLength@WKey@@SAXAEBV?$FunctionCallbackInfo@VValue@v8@@@Nan@@@Z 00000001800426a4     w_key.obj
 0002:0000f6a4       $stateUnwindMap$?PublicExponent@WKey@@SAXAEBV?$FunctionCallbackInfo@VValue@v8@@@Nan@@@Z 00000001800426a4     w_key.obj
 0002:0000f6b8       $ip2state$?ModulusLength@WKey@@SAXAEBV?$FunctionCallbackInfo@VValue@v8@@@Nan@@@Z 00000001800426b8     w_key.obj
 0002:0000f6d8       $unwind$?PublicExponent@WKey@@SAXAEBV?$FunctionCallbackInfo@VValue@v8@@@Nan@@@Z 00000001800426d8     w_key.obj
 0002:0000f6f0       $ip2state$?PublicExponent@WKey@@SAXAEBV?$FunctionCallbackInfo@VValue@v8@@@Nan@@@Z 00000001800426f0     w_key.obj
 0002:0000f710       $unwind$?GenerateRsa@WKey@@SAXAEBV?$FunctionCallbackInfo@VValue@v8@@@Nan@@@Z 0000000180042710     w_key.obj
 0002:0000f724       $stateUnwindMap$?GenerateRsa@WKey@@SAXAEBV?$FunctionCallbackInfo@VValue@v8@@@Nan@@@Z 0000000180042724     w_key.obj
 0002:0000f738       $ip2state$?GenerateRsa@WKey@@SAXAEBV?$FunctionCallbackInfo@VValue@v8@@@Nan@@@Z 0000000180042738     w_key.obj
 0002:0000f760       $unwind$?GenerateEc@WKey@@SAXAEBV?$FunctionCallbackInfo@VValue@v8@@@Nan@@@Z 0000000180042760     w_key.obj
 0002:0000f774       $stateUnwindMap$?Generate@WHmac@@SAXAEBV?$FunctionCallbackInfo@VValue@v8@@@Nan@@@Z 0000000180042774     w_hmac.obj
 0002:0000f774       $stateUnwindMap$?GenerateEc@WKey@@SAXAEBV?$FunctionCallbackInfo@VValue@v8@@@Nan@@@Z 0000000180042774     w_key.obj
 0002:0000f774       $stateUnwindMap$?Generate@WAes@@SAXAEBV?$FunctionCallbackInfo@VValue@v8@@@Nan@@@Z 0000000180042774     w_aes.obj
 0002:0000f788       $ip2state$?GenerateEc@WKey@@SAXAEBV?$FunctionCallbackInfo@VValue@v8@@@Nan@@@Z 0000000180042788     w_key.obj
 0002:0000f7b0       $unwind$?ExportJwk@WKey@@SAXAEBV?$FunctionCallbackInfo@VValue@v8@@@Nan@@@Z 00000001800427b0     w_key.obj
 0002:0000f7d0       $stateUnwindMap$?ExportJwk@WKey@@SAXAEBV?$FunctionCallbackInfo@VValue@v8@@@Nan@@@Z 00000001800427d0     w_key.obj
 0002:0000f800       $ip2state$?ExportJwk@WKey@@SAXAEBV?$FunctionCallbackInfo@VValue@v8@@@Nan@@@Z 0000000180042800     w_key.obj
 0002:0000f858       $unwind$?ExportSpki@WKey@@SAXAEBV?$FunctionCallbackInfo@VValue@v8@@@Nan@@@Z 0000000180042858     w_key.obj
 0002:0000f870       $stateUnwindMap$?ExportSpki@WKey@@SAXAEBV?$FunctionCallbackInfo@VValue@v8@@@Nan@@@Z 0000000180042870     w_key.obj
 0002:0000f870       $stateUnwindMap$?Export@WAes@@SAXAEBV?$FunctionCallbackInfo@VValue@v8@@@Nan@@@Z 0000000180042870     w_aes.obj
 0002:0000f870       $stateUnwindMap$?ExportPkcs8@WKey@@SAXAEBV?$FunctionCallbackInfo@VValue@v8@@@Nan@@@Z 0000000180042870     w_key.obj
 0002:0000f870       $stateUnwindMap$?Export@WHmac@@SAXAEBV?$FunctionCallbackInfo@VValue@v8@@@Nan@@@Z 0000000180042870     w_hmac.obj
 0002:0000f880       $ip2state$?ExportSpki@WKey@@SAXAEBV?$FunctionCallbackInfo@VValue@v8@@@Nan@@@Z 0000000180042880     w_key.obj
 0002:0000f8a8       $unwind$?ExportPkcs8@WKey@@SAXAEBV?$FunctionCallbackInfo@VValue@v8@@@Nan@@@Z 00000001800428a8     w_key.obj
 0002:0000f8c0       $ip2state$?ExportPkcs8@WKey@@SAXAEBV?$FunctionCallbackInfo@VValue@v8@@@Nan@@@Z 00000001800428c0     w_key.obj
 0002:0000f8e8       $unwind$?ImportPkcs8@WKey@@SAXAEBV?$FunctionCallbackInfo@VValue@v8@@@Nan@@@Z 00000001800428e8     w_key.obj
 0002:0000f900       $stateUnwindMap$?ImportPkcs8@WKey@@SAXAEBV?$FunctionCallbackInfo@VValue@v8@@@Nan@@@Z 0000000180042900     w_key.obj
 0002:0000f900       $stateUnwindMap$?ImportKey@WPbkdf2@@SAXAEBV?$FunctionCallbackInfo@VValue@v8@@@Nan@@@Z 0000000180042900     w_pbkdf2.obj
 0002:0000f900       $stateUnwindMap$?ImportSpki@WKey@@SAXAEBV?$FunctionCallbackInfo@VValue@v8@@@Nan@@@Z 0000000180042900     w_key.obj
 0002:0000f900       $stateUnwindMap$?Import@WHmac@@SAXAEBV?$FunctionCallbackInfo@VValue@v8@@@Nan@@@Z 0000000180042900     w_hmac.obj
 0002:0000f900       $stateUnwindMap$?Import@WAes@@SAXAEBV?$FunctionCallbackInfo@VValue@v8@@@Nan@@@Z 0000000180042900     w_aes.obj
 0002:0000f918       $ip2state$?ImportPkcs8@WKey@@SAXAEBV?$FunctionCallbackInfo@VValue@v8@@@Nan@@@Z 0000000180042918     w_key.obj
 0002:0000f950       $unwind$?ImportSpki@WKey@@SAXAEBV?$FunctionCallbackInfo@VValue@v8@@@Nan@@@Z 0000000180042950     w_key.obj
 0002:0000f968       $ip2state$?ImportSpki@WKey@@SAXAEBV?$FunctionCallbackInfo@VValue@v8@@@Nan@@@Z 0000000180042968     w_key.obj
 0002:0000f9a0       $unwind$?ImportJwk@WKey@@SAXAEBV?$FunctionCallbackInfo@VValue@v8@@@Nan@@@Z 00000001800429a0     w_key.obj
 0002:0000f9c0       $stateUnwindMap$?ImportJwk@WKey@@SAXAEBV?$FunctionCallbackInfo@VValue@v8@@@Nan@@@Z 00000001800429c0     w_key.obj
 0002:0000fa00       $ip2state$?ImportJwk@WKey@@SAXAEBV?$FunctionCallbackInfo@VValue@v8@@@Nan@@@Z 0000000180042a00     w_key.obj
 0002:0000faa8       $unwind$?Sign@WKey@@SAXAEBV?$FunctionCallbackInfo@VValue@v8@@@Nan@@@Z 0000000180042aa8     w_key.obj
 0002:0000fac8       $stateUnwindMap$?Sign@WKey@@SAXAEBV?$FunctionCallbackInfo@VValue@v8@@@Nan@@@Z 0000000180042ac8     w_key.obj
 0002:0000fb00       $ip2state$?Sign@WKey@@SAXAEBV?$FunctionCallbackInfo@VValue@v8@@@Nan@@@Z 0000000180042b00     w_key.obj
 0002:0000fb68       $unwind$?Verify@WKey@@SAXAEBV?$FunctionCallbackInfo@VValue@v8@@@Nan@@@Z 0000000180042b68     w_key.obj
 0002:0000fb88       $stateUnwindMap$?Verify@WKey@@SAXAEBV?$FunctionCallbackInfo@VValue@v8@@@Nan@@@Z 0000000180042b88     w_key.obj
 0002:0000fbc0       $ip2state$?Verify@WKey@@SAXAEBV?$FunctionCallbackInfo@VValue@v8@@@Nan@@@Z 0000000180042bc0     w_key.obj
 0002:0000fc38       $unwind$?RsaOaepEncDec@WKey@@SAXAEBV?$FunctionCallbackInfo@VValue@v8@@@Nan@@@Z 0000000180042c38     w_key.obj
 0002:0000fc58       $stateUnwindMap$?RsaOaepEncDec@WKey@@SAXAEBV?$FunctionCallbackInfo@VValue@v8@@@Nan@@@Z 0000000180042c58     w_key.obj
 0002:0000fc90       $ip2state$?RsaOaepEncDec@WKey@@SAXAEBV?$FunctionCallbackInfo@VValue@v8@@@Nan@@@Z 0000000180042c90     w_key.obj
 0002:0000fcf8       $unwind$?RsaPssSign@WKey@@SAXAEBV?$FunctionCallbackInfo@VValue@v8@@@Nan@@@Z 0000000180042cf8     w_key.obj
 0002:0000fd18       $stateUnwindMap$?RsaPssSign@WKey@@SAXAEBV?$FunctionCallbackInfo@VValue@v8@@@Nan@@@Z 0000000180042d18     w_key.obj
 0002:0000fd40       $ip2state$?RsaPssSign@WKey@@SAXAEBV?$FunctionCallbackInfo@VValue@v8@@@Nan@@@Z 0000000180042d40     w_key.obj
 0002:0000fd98       $unwind$?RsaPssVerify@WKey@@SAXAEBV?$FunctionCallbackInfo@VValue@v8@@@Nan@@@Z 0000000180042d98     w_key.obj
 0002:0000fdb4       $stateUnwindMap$?RsaPssVerify@WKey@@SAXAEBV?$FunctionCallbackInfo@VValue@v8@@@Nan@@@Z 0000000180042db4     w_key.obj
 0002:0000fdf0       $ip2state$?RsaPssVerify@WKey@@SAXAEBV?$FunctionCallbackInfo@VValue@v8@@@Nan@@@Z 0000000180042df0     w_key.obj
 0002:0000fe58       $unwind$?EcdhDeriveKey@WKey@@SAXAEBV?$FunctionCallbackInfo@VValue@v8@@@Nan@@@Z 0000000180042e58     w_key.obj
 0002:0000fe74       $stateUnwindMap$?EcdhDeriveKey@WKey@@SAXAEBV?$FunctionCallbackInfo@VValue@v8@@@Nan@@@Z 0000000180042e74     w_key.obj
 0002:0000fe74       $stateUnwindMap$?EcdhDeriveBits@WKey@@SAXAEBV?$FunctionCallbackInfo@VValue@v8@@@Nan@@@Z 0000000180042e74     w_key.obj
 0002:0000fea0       $ip2state$?EcdhDeriveKey@WKey@@SAXAEBV?$FunctionCallbackInfo@VValue@v8@@@Nan@@@Z 0000000180042ea0     w_key.obj
 0002:0000fee8       $unwind$?EcdhDeriveBits@WKey@@SAXAEBV?$FunctionCallbackInfo@VValue@v8@@@Nan@@@Z 0000000180042ee8     w_key.obj
 0002:0000ff10       $ip2state$?EcdhDeriveBits@WKey@@SAXAEBV?$FunctionCallbackInfo@VValue@v8@@@Nan@@@Z 0000000180042f10     w_key.obj
 0002:0000ff58       $unwind$??$Unwrap@VWKey@@@ObjectWrap@node@@SAPEAVWKey@@V?$Local@VObject@v8@@@v8@@@Z 0000000180042f58     w_key.obj
 0002:0000ff58       $unwind$??$Unwrap@VWHmac@@@ObjectWrap@node@@SAPEAVWHmac@@V?$Local@VObject@v8@@@v8@@@Z 0000000180042f58     w_hmac.obj
 0002:0000ff58       $unwind$??$Unwrap@VWAes@@@ObjectWrap@node@@SAPEAVWAes@@V?$Local@VObject@v8@@@v8@@@Z 0000000180042f58     w_aes.obj
 0002:0000ff58       $unwind$??$Unwrap@VWPbkdf2@@@ObjectWrap@node@@SAPEAVWPbkdf2@@V?$Local@VObject@v8@@@v8@@@Z 0000000180042f58     w_pbkdf2.obj
 0002:0000ff60       $unwind$??$SetMethodAux@V?$Local@VFunction@v8@@@v8@@@imp@Nan@@YAXV?$Local@VFunction@v8@@@v8@@V?$Local@VString@v8@@@3@V?$Local@VFunctionTemplate@v8@@@3@ZZ 0000000180042f60     w_key.obj
 0002:0000ff68       $unwind$?Call@Nan@@YA?AV?$MaybeLocal@VValue@v8@@@v8@@V?$Local@VFunction@v8@@@3@V?$Local@VObject@v8@@@3@HQEAV?$Local@VValue@v8@@@3@@Z 0000000180042f68     w_aes.obj
 0002:0000ff80       $ip2state$?Call@Nan@@YA?AV?$MaybeLocal@VValue@v8@@@v8@@V?$Local@VFunction@v8@@@3@V?$Local@VObject@v8@@@3@HQEAV?$Local@VValue@v8@@@3@@Z 0000000180042f80     w_aes.obj
 0002:0000ff98       $unwind$??1AsyncAesGenerateKey@@UEAA@XZ 0000000180042f98     w_aes.obj
 0002:0000ffb0       $ip2state$??1AsyncAesGenerateKey@@UEAA@XZ 0000000180042fb0     w_aes.obj
 0002:0000ffb8       $unwind$??0AsyncAesEncryptCBC@@QEAA@PEAVCallback@Nan@@V?$shared_ptr@VScopedAES@@@std@@V?$shared_ptr@V?$basic_string@DU?$char_traits@D@std@@V?$allocator@D@2@@std@@@4@2_N@Z 0000000180042fb8     w_aes.obj
 0002:0000ffd4       $stateUnwindMap$??0AsyncAesEncryptCBC@@QEAA@PEAVCallback@Nan@@V?$shared_ptr@VScopedAES@@@std@@V?$shared_ptr@V?$basic_string@DU?$char_traits@D@std@@V?$allocator@D@2@@std@@@4@2_N@Z 0000000180042fd4     w_aes.obj
 0002:0000ffd4       $stateUnwindMap$??0AsyncAesEncryptCTR@@QEAA@PEAVCallback@Nan@@V?$shared_ptr@VScopedAES@@@std@@V?$shared_ptr@V?$basic_string@DU?$char_traits@D@std@@V?$allocator@D@2@@std@@@4@2H_N@Z 0000000180042fd4     w_aes.obj
 0002:0000fff0       $ip2state$??0AsyncAesEncryptCBC@@QEAA@PEAVCallback@Nan@@V?$shared_ptr@VScopedAES@@@std@@V?$shared_ptr@V?$basic_string@DU?$char_traits@D@std@@V?$allocator@D@2@@std@@@4@2_N@Z 0000000180042ff0     w_aes.obj
 0002:00010018       $unwind$??1AsyncAesEncryptCBC@@UEAA@XZ 0000000180043018     w_aes.obj
 0002:00010030       $ip2state$??1AsyncAesEncryptCBC@@UEAA@XZ 0000000180043030     w_aes.obj
 0002:00010038       $unwind$??0AsyncAesEncryptECB@@QEAA@PEAVCallback@Nan@@V?$shared_ptr@VScopedAES@@@std@@V?$shared_ptr@V?$basic_string@DU?$char_traits@D@std@@V?$allocator@D@2@@std@@@4@_N@Z 0000000180043038     w_aes.obj
 0002:00010050       $ip2state$??0AsyncAesEncryptECB@@QEAA@PEAVCallback@Nan@@V?$shared_ptr@VScopedAES@@@std@@V?$shared_ptr@V?$basic_string@DU?$char_traits@D@std@@V?$allocator@D@2@@std@@@4@_N@Z 0000000180043050     w_aes.obj
 0002:00010070       $unwind$??1AsyncAesEncryptECB@@UEAA@XZ 0000000180043070     w_aes.obj
 0002:00010088       $ip2state$??1AsyncAesEncryptECB@@UEAA@XZ 0000000180043088     w_aes.obj
 0002:00010090       $unwind$??0AsyncAesExport@@QEAA@PEAVCallback@Nan@@V?$shared_ptr@VScopedAES@@@std@@@Z 0000000180043090     w_aes.obj
 0002:00010090       $unwind$??0AsyncHmacExport@@QEAA@PEAVCallback@Nan@@V?$shared_ptr@VScopedHMAC@@@std@@@Z 0000000180043090     w_hmac.obj
 0002:000100a8       $ip2state$??0AsyncHmacExport@@QEAA@PEAVCallback@Nan@@V?$shared_ptr@VScopedHMAC@@@std@@@Z 00000001800430a8     w_hmac.obj
 0002:000100a8       $ip2state$??0AsyncAesExport@@QEAA@PEAVCallback@Nan@@V?$shared_ptr@VScopedAES@@@std@@@Z 00000001800430a8     w_aes.obj
 0002:000100c0       $unwind$??1AsyncHmacExport@@UEAA@XZ 00000001800430c0     w_hmac.obj
 0002:000100c0       $unwind$??1AsyncAesExport@@UEAA@XZ 00000001800430c0     w_aes.obj
 0002:000100d8       $ip2state$??1AsyncAesExport@@UEAA@XZ 00000001800430d8     w_aes.obj
 0002:000100d8       $ip2state$??1AsyncHmacExport@@UEAA@XZ 00000001800430d8     w_hmac.obj
 0002:000100e0       $unwind$??0AsyncAesImport@@QEAA@PEAVCallback@Nan@@V?$shared_ptr@V?$basic_string@DU?$char_traits@D@std@@V?$allocator@D@2@@std@@@std@@@Z 00000001800430e0     w_aes.obj
 0002:000100f8       $ip2state$??0AsyncAesImport@@QEAA@PEAVCallback@Nan@@V?$shared_ptr@V?$basic_string@DU?$char_traits@D@std@@V?$allocator@D@2@@std@@@std@@@Z 00000001800430f8     w_aes.obj
 0002:00010110       $unwind$??1AsyncAesImport@@UEAA@XZ 0000000180043110     w_aes.obj
 0002:00010128       $ip2state$??1AsyncAesImport@@UEAA@XZ 0000000180043128     w_aes.obj
 0002:00010130       $unwind$??0AsyncAesEncryptGCM@@QEAA@PEAVCallback@Nan@@V?$shared_ptr@VScopedAES@@@std@@V?$shared_ptr@V?$basic_string@DU?$char_traits@D@std@@V?$allocator@D@2@@std@@@4@22H_N@Z 0000000180043130     w_aes.obj
 0002:0001014c       $stateUnwindMap$??0AsyncAesEncryptGCM@@QEAA@PEAVCallback@Nan@@V?$shared_ptr@VScopedAES@@@std@@V?$shared_ptr@V?$basic_string@DU?$char_traits@D@std@@V?$allocator@D@2@@std@@@4@22H_N@Z 000000018004314c     w_aes.obj
 0002:00010170       $ip2state$??0AsyncAesEncryptGCM@@QEAA@PEAVCallback@Nan@@V?$shared_ptr@VScopedAES@@@std@@V?$shared_ptr@V?$basic_string@DU?$char_traits@D@std@@V?$allocator@D@2@@std@@@4@22H_N@Z 0000000180043170     w_aes.obj
 0002:000101a0       $unwind$??1AsyncAesEncryptGCM@@UEAA@XZ 00000001800431a0     w_aes.obj
 0002:000101b8       $ip2state$??1AsyncAesEncryptGCM@@UEAA@XZ 00000001800431b8     w_aes.obj
 0002:000101c0       $unwind$??0AsyncAesWrapKey@@QEAA@PEAVCallback@Nan@@V?$shared_ptr@VScopedAES@@@std@@V?$shared_ptr@V?$basic_string@DU?$char_traits@D@std@@V?$allocator@D@2@@std@@@4@_N@Z 00000001800431c0     w_aes.obj
 0002:000101d8       $ip2state$??0AsyncAesWrapKey@@QEAA@PEAVCallback@Nan@@V?$shared_ptr@VScopedAES@@@std@@V?$shared_ptr@V?$basic_string@DU?$char_traits@D@std@@V?$allocator@D@2@@std@@@4@_N@Z 00000001800431d8     w_aes.obj
 0002:000101f8       $unwind$??1AsyncAesWrapKey@@UEAA@XZ 00000001800431f8     w_aes.obj
 0002:00010210       $ip2state$??1AsyncAesWrapKey@@UEAA@XZ 0000000180043210     w_aes.obj
 0002:00010218       $unwind$??0AsyncAesEncryptCTR@@QEAA@PEAVCallback@Nan@@V?$shared_ptr@VScopedAES@@@std@@V?$shared_ptr@V?$basic_string@DU?$char_traits@D@std@@V?$allocator@D@2@@std@@@4@2H_N@Z 0000000180043218     w_aes.obj
 0002:00010238       $ip2state$??0AsyncAesEncryptCTR@@QEAA@PEAVCallback@Nan@@V?$shared_ptr@VScopedAES@@@std@@V?$shared_ptr@V?$basic_string@DU?$char_traits@D@std@@V?$allocator@D@2@@std@@@4@2H_N@Z 0000000180043238     w_aes.obj
 0002:00010260       $unwind$??1AsyncAesEncryptCTR@@UEAA@XZ 0000000180043260     w_aes.obj
 0002:00010278       $ip2state$??1AsyncAesEncryptCTR@@UEAA@XZ 0000000180043278     w_aes.obj
 0002:00010280       $unwind$??__Fmy_constructor@?1??constructor@WAes@@KAAEAV?$Persistent@VFunction@v8@@V?$NonCopyablePersistentTraits@VFunction@v8@@@2@@Nan@@XZ@YAXXZ 0000000180043280     w_aes.obj
 0002:00010290       $ip2state$??__Fmy_constructor@?1??constructor@WAes@@KAAEAV?$Persistent@VFunction@v8@@V?$NonCopyablePersistentTraits@VFunction@v8@@@2@@Nan@@XZ@YAXXZ 0000000180043290     w_aes.obj
 0002:00010298       $unwind$?Init@WAes@@SAXV?$Local@VObject@v8@@@v8@@@Z 0000000180043298     w_aes.obj
 0002:000102b0       $stateUnwindMap$?Init@WHmac@@SAXV?$Local@VObject@v8@@@v8@@@Z 00000001800432b0     w_hmac.obj
 0002:000102b0       $stateUnwindMap$?Init@WAes@@SAXV?$Local@VObject@v8@@@v8@@@Z 00000001800432b0     w_aes.obj
 0002:000102c0       $ip2state$?Init@WAes@@SAXV?$Local@VObject@v8@@@v8@@@Z 00000001800432c0     w_aes.obj
 0002:000102e8       $chain$0$?New@WAes@@SAXAEBV?$FunctionCallbackInfo@VValue@v8@@@Nan@@@Z 00000001800432e8     w_aes.obj
 0002:000102fc       $chain$1$?New@WAes@@SAXAEBV?$FunctionCallbackInfo@VValue@v8@@@Nan@@@Z 00000001800432fc     w_aes.obj
 0002:0001030c       $unwind$?Generate@WAes@@SAXAEBV?$FunctionCallbackInfo@VValue@v8@@@Nan@@@Z 000000018004330c     w_aes.obj
 0002:00010320       $ip2state$?Generate@WAes@@SAXAEBV?$FunctionCallbackInfo@VValue@v8@@@Nan@@@Z 0000000180043320     w_aes.obj
 0002:00010348       $unwind$?Encrypt@WAes@@SAXAEBV?$FunctionCallbackInfo@VValue@v8@@@Nan@@@Z 0000000180043348     w_aes.obj
 0002:00010364       $stateUnwindMap$?Encrypt@WAes@@SAXAEBV?$FunctionCallbackInfo@VValue@v8@@@Nan@@@Z 0000000180043364     w_aes.obj
 0002:00010364       $stateUnwindMap$?Decrypt@WAes@@SAXAEBV?$FunctionCallbackInfo@VValue@v8@@@Nan@@@Z 0000000180043364     w_aes.obj
 0002:00010390       $ip2state$?Encrypt@WAes@@SAXAEBV?$FunctionCallbackInfo@VValue@v8@@@Nan@@@Z 0000000180043390     w_aes.obj
 0002:000103e8       $unwind$?Decrypt@WAes@@SAXAEBV?$FunctionCallbackInfo@VValue@v8@@@Nan@@@Z 00000001800433e8     w_aes.obj
 0002:00010410       $ip2state$?Decrypt@WAes@@SAXAEBV?$FunctionCallbackInfo@VValue@v8@@@Nan@@@Z 0000000180043410     w_aes.obj
 0002:00010468       $unwind$?EncryptEcb@WAes@@SAXAEBV?$FunctionCallbackInfo@VValue@v8@@@Nan@@@Z 0000000180043468     w_aes.obj
 0002:00010480       $stateUnwindMap$?DecryptEcb@WAes@@SAXAEBV?$FunctionCallbackInfo@VValue@v8@@@Nan@@@Z 0000000180043480     w_aes.obj
 0002:00010480       $stateUnwindMap$?UnwrapKey@WAes@@SAXAEBV?$FunctionCallbackInfo@VValue@v8@@@Nan@@@Z 0000000180043480     w_aes.obj
 0002:00010480       $stateUnwindMap$?WrapKey@WAes@@SAXAEBV?$FunctionCallbackInfo@VValue@v8@@@Nan@@@Z 0000000180043480     w_aes.obj
 0002:00010480       $stateUnwindMap$?EncryptEcb@WAes@@SAXAEBV?$FunctionCallbackInfo@VValue@v8@@@Nan@@@Z 0000000180043480     w_aes.obj
 0002:00010498       $ip2state$?EncryptEcb@WAes@@SAXAEBV?$FunctionCallbackInfo@VValue@v8@@@Nan@@@Z 0000000180043498     w_aes.obj
 0002:000104d0       $unwind$?DecryptEcb@WAes@@SAXAEBV?$FunctionCallbackInfo@VValue@v8@@@Nan@@@Z 00000001800434d0     w_aes.obj
 0002:000104e8       $ip2state$?DecryptEcb@WAes@@SAXAEBV?$FunctionCallbackInfo@VValue@v8@@@Nan@@@Z 00000001800434e8     w_aes.obj
 0002:00010520       $unwind$?Export@WHmac@@SAXAEBV?$FunctionCallbackInfo@VValue@v8@@@Nan@@@Z 0000000180043520     w_hmac.obj
 0002:00010520       $unwind$?Export@WAes@@SAXAEBV?$FunctionCallbackInfo@VValue@v8@@@Nan@@@Z 0000000180043520     w_aes.obj
 0002:00010538       $ip2state$?Export@WHmac@@SAXAEBV?$FunctionCallbackInfo@VValue@v8@@@Nan@@@Z 0000000180043538     w_hmac.obj
 0002:00010538       $ip2state$?Export@WAes@@SAXAEBV?$FunctionCallbackInfo@VValue@v8@@@Nan@@@Z 0000000180043538     w_aes.obj
 0002:00010560       $unwind$?Import@WAes@@SAXAEBV?$FunctionCallbackInfo@VValue@v8@@@Nan@@@Z 0000000180043560     w_aes.obj
 0002:00010578       $ip2state$?Import@WAes@@SAXAEBV?$FunctionCallbackInfo@VValue@v8@@@Nan@@@Z 0000000180043578     w_aes.obj
 0002:000105b0       $unwind$?EncryptGcm@WAes@@SAXAEBV?$FunctionCallbackInfo@VValue@v8@@@Nan@@@Z 00000001800435b0     w_aes.obj
 0002:000105d0       $stateUnwindMap$?DecryptGcm@WAes@@SAXAEBV?$FunctionCallbackInfo@VValue@v8@@@Nan@@@Z 00000001800435d0     w_aes.obj
 0002:000105d0       $stateUnwindMap$?EncryptGcm@WAes@@SAXAEBV?$FunctionCallbackInfo@VValue@v8@@@Nan@@@Z 00000001800435d0     w_aes.obj
 0002:00010600       $ip2state$?EncryptGcm@WAes@@SAXAEBV?$FunctionCallbackInfo@VValue@v8@@@Nan@@@Z 0000000180043600     w_aes.obj
 0002:00010658       $unwind$?DecryptGcm@WAes@@SAXAEBV?$FunctionCallbackInfo@VValue@v8@@@Nan@@@Z 0000000180043658     w_aes.obj
 0002:00010680       $ip2state$?DecryptGcm@WAes@@SAXAEBV?$FunctionCallbackInfo@VValue@v8@@@Nan@@@Z 0000000180043680     w_aes.obj
 0002:000106d8       $unwind$?WrapKey@WAes@@SAXAEBV?$FunctionCallbackInfo@VValue@v8@@@Nan@@@Z 00000001800436d8     w_aes.obj
 0002:000106f0       $ip2state$?WrapKey@WAes@@SAXAEBV?$FunctionCallbackInfo@VValue@v8@@@Nan@@@Z 00000001800436f0     w_aes.obj
 0002:00010728       $unwind$?UnwrapKey@WAes@@SAXAEBV?$FunctionCallbackInfo@VValue@v8@@@Nan@@@Z 0000000180043728     w_aes.obj
 0002:00010740       $ip2state$?UnwrapKey@WAes@@SAXAEBV?$FunctionCallbackInfo@VValue@v8@@@Nan@@@Z 0000000180043740     w_aes.obj
 0002:00010778       $unwind$?EncryptCtr@WAes@@SAXAEBV?$FunctionCallbackInfo@VValue@v8@@@Nan@@@Z 0000000180043778     w_aes.obj
 0002:00010798       $stateUnwindMap$?DecryptCtr@WAes@@SAXAEBV?$FunctionCallbackInfo@VValue@v8@@@Nan@@@Z 0000000180043798     w_aes.obj
 0002:00010798       $stateUnwindMap$?EncryptCtr@WAes@@SAXAEBV?$FunctionCallbackInfo@VValue@v8@@@Nan@@@Z 0000000180043798     w_aes.obj
 0002:000107c0       $ip2state$?EncryptCtr@WAes@@SAXAEBV?$FunctionCallbackInfo@VValue@v8@@@Nan@@@Z 00000001800437c0     w_aes.obj
 0002:00010808       $unwind$?DecryptCtr@WAes@@SAXAEBV?$FunctionCallbackInfo@VValue@v8@@@Nan@@@Z 0000000180043808     w_aes.obj
 0002:00010830       $ip2state$?DecryptCtr@WAes@@SAXAEBV?$FunctionCallbackInfo@VValue@v8@@@Nan@@@Z 0000000180043830     w_aes.obj
 0002:00010878       $unwind$??1AsyncHmacGenerateKey@@UEAA@XZ 0000000180043878     w_hmac.obj
 0002:00010890       $ip2state$??1AsyncHmacGenerateKey@@UEAA@XZ 0000000180043890     w_hmac.obj
 0002:00010898       $unwind$??0AsyncHmacImport@@QEAA@PEAVCallback@Nan@@V?$shared_ptr@V?$basic_string@DU?$char_traits@D@std@@V?$allocator@D@2@@std@@@std@@@Z 0000000180043898     w_hmac.obj
 0002:000108b0       $ip2state$??0AsyncHmacImport@@QEAA@PEAVCallback@Nan@@V?$shared_ptr@V?$basic_string@DU?$char_traits@D@std@@V?$allocator@D@2@@std@@@std@@@Z 00000001800438b0     w_hmac.obj
 0002:000108c8       $unwind$??1AsyncHmacImport@@UEAA@XZ 00000001800438c8     w_hmac.obj
 0002:000108e0       $ip2state$??1AsyncHmacImport@@UEAA@XZ 00000001800438e0     w_hmac.obj
 0002:000108e8       $unwind$??0AsyncHmacSign@@QEAA@PEAVCallback@Nan@@PEBUenv_md_st@@V?$shared_ptr@VScopedHMAC@@@std@@V?$shared_ptr@V?$basic_string@DU?$char_traits@D@std@@V?$allocator@D@2@@std@@@5@@Z 00000001800438e8     w_hmac.obj
 0002:00010908       $ip2state$??0AsyncHmacSign@@QEAA@PEAVCallback@Nan@@PEBUenv_md_st@@V?$shared_ptr@VScopedHMAC@@@std@@V?$shared_ptr@V?$basic_string@DU?$char_traits@D@std@@V?$allocator@D@2@@std@@@5@@Z 0000000180043908     w_hmac.obj
 0002:00010928       $unwind$??1AsyncHmacSign@@UEAA@XZ 0000000180043928     w_hmac.obj
 0002:00010940       $ip2state$??1AsyncHmacSign@@UEAA@XZ 0000000180043940     w_hmac.obj
 0002:00010948       $unwind$??0AsyncHmacVerify@@QEAA@PEAVCallback@Nan@@PEBUenv_md_st@@V?$shared_ptr@VScopedHMAC@@@std@@V?$shared_ptr@V?$basic_string@DU?$char_traits@D@std@@V?$allocator@D@2@@std@@@5@3@Z 0000000180043948     w_hmac.obj
 0002:00010968       $ip2state$??0AsyncHmacVerify@@QEAA@PEAVCallback@Nan@@PEBUenv_md_st@@V?$shared_ptr@VScopedHMAC@@@std@@V?$shared_ptr@V?$basic_string@DU?$char_traits@D@std@@V?$allocator@D@2@@std@@@5@3@Z 0000000180043968     w_hmac.obj
 0002:00010990       $unwind$??1AsyncHmacVerify@@UEAA@XZ 0000000180043990     w_hmac.obj
 0002:000109a8       $ip2state$??1AsyncHmacVerify@@UEAA@XZ 00000001800439a8     w_hmac.obj
 0002:000109b0       $unwind$??__Fmy_constructor@?1??constructor@WHmac@@KAAEAV?$Persistent@VFunction@v8@@V?$NonCopyablePersistentTraits@VFunction@v8@@@2@@Nan@@XZ@YAXXZ 00000001800439b0     w_hmac.obj
 0002:000109c0       $ip2state$??__Fmy_constructor@?1??constructor@WHmac@@KAAEAV?$Persistent@VFunction@v8@@V?$NonCopyablePersistentTraits@VFunction@v8@@@2@@Nan@@XZ@YAXXZ 00000001800439c0     w_hmac.obj
 0002:000109c8       $unwind$?Init@WHmac@@SAXV?$Local@VObject@v8@@@v8@@@Z 00000001800439c8     w_hmac.obj
 0002:000109e0       $ip2state$?Init@WHmac@@SAXV?$Local@VObject@v8@@@v8@@@Z 00000001800439e0     w_hmac.obj
 0002:00010a08       $chain$0$?New@WHmac@@SAXAEBV?$FunctionCallbackInfo@VValue@v8@@@Nan@@@Z 0000000180043a08     w_hmac.obj
 0002:00010a1c       $chain$1$?New@WHmac@@SAXAEBV?$FunctionCallbackInfo@VValue@v8@@@Nan@@@Z 0000000180043a1c     w_hmac.obj
 0002:00010a2c       $unwind$?Generate@WHmac@@SAXAEBV?$FunctionCallbackInfo@VValue@v8@@@Nan@@@Z 0000000180043a2c     w_hmac.obj
 0002:00010a40       $ip2state$?Generate@WHmac@@SAXAEBV?$FunctionCallbackInfo@VValue@v8@@@Nan@@@Z 0000000180043a40     w_hmac.obj
 0002:00010a68       $unwind$?Import@WHmac@@SAXAEBV?$FunctionCallbackInfo@VValue@v8@@@Nan@@@Z 0000000180043a68     w_hmac.obj
 0002:00010a80       $ip2state$?Import@WHmac@@SAXAEBV?$FunctionCallbackInfo@VValue@v8@@@Nan@@@Z 0000000180043a80     w_hmac.obj
 0002:00010ab8       $unwind$?Sign@WHmac@@SAXAEBV?$FunctionCallbackInfo@VValue@v8@@@Nan@@@Z 0000000180043ab8     w_hmac.obj
 0002:00010ad8       $stateUnwindMap$?Sign@WHmac@@SAXAEBV?$FunctionCallbackInfo@VValue@v8@@@Nan@@@Z 0000000180043ad8     w_hmac.obj
 0002:00010b00       $ip2state$?Sign@WHmac@@SAXAEBV?$FunctionCallbackInfo@VValue@v8@@@Nan@@@Z 0000000180043b00     w_hmac.obj
 0002:00010b48       $unwind$?Verify@WHmac@@SAXAEBV?$FunctionCallbackInfo@VValue@v8@@@Nan@@@Z 0000000180043b48     w_hmac.obj
 0002:00010b68       $stateUnwindMap$?Verify@WHmac@@SAXAEBV?$FunctionCallbackInfo@VValue@v8@@@Nan@@@Z 0000000180043b68     w_hmac.obj
 0002:00010ba0       $ip2state$?Verify@WHmac@@SAXAEBV?$FunctionCallbackInfo@VValue@v8@@@Nan@@@Z 0000000180043ba0     w_hmac.obj
 0002:00010c08       $unwind$?convert@?$ToFactory@VNumber@v8@@@imp@Nan@@SA?AV?$MaybeLocal@VNumber@v8@@@v8@@V?$Local@VValue@v8@@@5@@Z 0000000180043c08     w_pbkdf2.obj
 0002:00010c20       $ip2state$?convert@?$ToFactory@VNumber@v8@@@imp@Nan@@SA?AV?$MaybeLocal@VNumber@v8@@@v8@@V?$Local@VValue@v8@@@5@@Z 0000000180043c20     w_pbkdf2.obj
 0002:00010c38       $unwind$??0AsyncPbkdf2Import@@QEAA@PEAVCallback@Nan@@V?$shared_ptr@V?$basic_string@DU?$char_traits@D@std@@V?$allocator@D@2@@std@@@std@@@Z 0000000180043c38     w_pbkdf2.obj
 0002:00010c50       $ip2state$??0AsyncPbkdf2Import@@QEAA@PEAVCallback@Nan@@V?$shared_ptr@V?$basic_string@DU?$char_traits@D@std@@V?$allocator@D@2@@std@@@std@@@Z 0000000180043c50     w_pbkdf2.obj
 0002:00010c68       $unwind$??1AsyncPbkdf2Import@@UEAA@XZ 0000000180043c68     w_pbkdf2.obj
 0002:00010c80       $ip2state$??1AsyncPbkdf2Import@@UEAA@XZ 0000000180043c80     w_pbkdf2.obj
 0002:00010c88       $unwind$??0AsyncPbkdf2DeriveBits@@QEAA@PEAVCallback@Nan@@V?$shared_ptr@VScopedPbkdf2@@@std@@PEBUenv_md_st@@V?$shared_ptr@V?$basic_string@DU?$char_traits@D@std@@V?$allocator@D@2@@std@@@4@HH@Z 0000000180043c88     w_pbkdf2.obj
 0002:00010ca4       $stateUnwindMap$??0AsyncPbkdf2DeriveBits@@QEAA@PEAVCallback@Nan@@V?$shared_ptr@VScopedPbkdf2@@@std@@PEBUenv_md_st@@V?$shared_ptr@V?$basic_string@DU?$char_traits@D@std@@V?$allocator@D@2@@std@@@4@HH@Z 0000000180043ca4     w_pbkdf2.obj
 0002:00010cb8       $ip2state$??0AsyncPbkdf2DeriveBits@@QEAA@PEAVCallback@Nan@@V?$shared_ptr@VScopedPbkdf2@@@std@@PEBUenv_md_st@@V?$shared_ptr@V?$basic_string@DU?$char_traits@D@std@@V?$allocator@D@2@@std@@@4@HH@Z 0000000180043cb8     w_pbkdf2.obj
 0002:00010cd8       $unwind$??1AsyncPbkdf2DeriveBits@@UEAA@XZ 0000000180043cd8     w_pbkdf2.obj
 0002:00010cf0       $ip2state$??1AsyncPbkdf2DeriveBits@@UEAA@XZ 0000000180043cf0     w_pbkdf2.obj
 0002:00010cf8       $unwind$??__Fmy_constructor@?1??constructor@WPbkdf2@@KAAEAV?$Persistent@VFunction@v8@@V?$NonCopyablePersistentTraits@VFunction@v8@@@2@@Nan@@XZ@YAXXZ 0000000180043cf8     w_pbkdf2.obj
 0002:00010d08       $ip2state$??__Fmy_constructor@?1??constructor@WPbkdf2@@KAAEAV?$Persistent@VFunction@v8@@V?$NonCopyablePersistentTraits@VFunction@v8@@@2@@Nan@@XZ@YAXXZ 0000000180043d08     w_pbkdf2.obj
 0002:00010d10       $unwind$?Init@WPbkdf2@@SAXV?$Local@VObject@v8@@@v8@@@Z 0000000180043d10     w_pbkdf2.obj
 0002:00010d28       $ip2state$?Init@WPbkdf2@@SAXV?$Local@VObject@v8@@@v8@@@Z 0000000180043d28     w_pbkdf2.obj
 0002:00010d40       $chain$0$?New@WPbkdf2@@SAXAEBV?$FunctionCallbackInfo@VValue@v8@@@Nan@@@Z 0000000180043d40     w_pbkdf2.obj
 0002:00010d54       $chain$1$?New@WPbkdf2@@SAXAEBV?$FunctionCallbackInfo@VValue@v8@@@Nan@@@Z 0000000180043d54     w_pbkdf2.obj
 0002:00010d64       $unwind$?ImportKey@WPbkdf2@@SAXAEBV?$FunctionCallbackInfo@VValue@v8@@@Nan@@@Z 0000000180043d64     w_pbkdf2.obj
 0002:00010d80       $ip2state$?ImportKey@WPbkdf2@@SAXAEBV?$FunctionCallbackInfo@VValue@v8@@@Nan@@@Z 0000000180043d80     w_pbkdf2.obj
 0002:00010db8       $unwind$?DeriveBits@WPbkdf2@@SAXAEBV?$FunctionCallbackInfo@VValue@v8@@@Nan@@@Z 0000000180043db8     w_pbkdf2.obj
 0002:00010dd8       $stateUnwindMap$?DeriveBits@WPbkdf2@@SAXAEBV?$FunctionCallbackInfo@VValue@v8@@@Nan@@@Z 0000000180043dd8     w_pbkdf2.obj
 0002:00010e00       $ip2state$?DeriveBits@WPbkdf2@@SAXAEBV?$FunctionCallbackInfo@VValue@v8@@@Nan@@@Z 0000000180043e00     w_pbkdf2.obj
 0002:00010e48       $unwind$??0AsyncDigest@@QEAA@PEAVCallback@Nan@@V?$shared_ptr@V?$basic_string@DU?$char_traits@D@std@@V?$allocator@D@2@@std@@@std@@1@Z 0000000180043e48     w_core.obj
 0002:00010e60       $ip2state$??0AsyncDigest@@QEAA@PEAVCallback@Nan@@V?$shared_ptr@V?$basic_string@DU?$char_traits@D@std@@V?$allocator@D@2@@std@@@std@@1@Z 0000000180043e60     w_core.obj
 0002:00010e80       $unwind$??1AsyncDigest@@UEAA@XZ 0000000180043e80     w_core.obj
 0002:00010e98       $ip2state$??1AsyncDigest@@UEAA@XZ 0000000180043e98     w_core.obj
 0002:00010ea0       $unwind$??__Fmy_constructor@?1??constructor@WCore@@KAAEAV?$Persistent@VFunction@v8@@V?$NonCopyablePersistentTraits@VFunction@v8@@@2@@Nan@@XZ@YAXXZ 0000000180043ea0     w_core.obj
 0002:00010eb0       $ip2state$??__Fmy_constructor@?1??constructor@WCore@@KAAEAV?$Persistent@VFunction@v8@@V?$NonCopyablePersistentTraits@VFunction@v8@@@2@@Nan@@XZ@YAXXZ 0000000180043eb0     w_core.obj
 0002:00010eb8       $unwind$?Init@WCore@@SAXV?$Local@VObject@v8@@@v8@@@Z 0000000180043eb8     w_core.obj
 0002:00010ed0       $ip2state$?Init@WCore@@SAXV?$Local@VObject@v8@@@v8@@@Z 0000000180043ed0     w_core.obj
 0002:00010ee8       $chain$0$?New@WCore@@SAXAEBV?$FunctionCallbackInfo@VValue@v8@@@Nan@@@Z 0000000180043ee8     w_core.obj
 0002:00010efc       $chain$1$?New@WCore@@SAXAEBV?$FunctionCallbackInfo@VValue@v8@@@Nan@@@Z 0000000180043efc     w_core.obj
 0002:00010f0c       $unwind$?Digest@WCore@@SAXAEBV?$FunctionCallbackInfo@VValue@v8@@@Nan@@@Z 0000000180043f0c     w_core.obj
 0002:00010f28       $stateUnwindMap$?Digest@WCore@@SAXAEBV?$FunctionCallbackInfo@VValue@v8@@@Nan@@@Z 0000000180043f28     w_core.obj
 0002:00010f60       $ip2state$?Digest@WCore@@SAXAEBV?$FunctionCallbackInfo@VValue@v8@@@Nan@@@Z 0000000180043f60     w_core.obj
 0002:00010fc8       $unwind$?Execute@AsyncEncrypDecryptRsaOAEP@@UEAAXXZ 0000000180043fc8     async_rsa.obj
 0002:00010fdc       $stateUnwindMap$?Execute@AsyncHmacImport@@UEAAXXZ 0000000180043fdc     async_hmac.obj
 0002:00010fdc       $stateUnwindMap$?Execute@AsyncEcdsaSign@@UEAAXXZ 0000000180043fdc     async_ec.obj
 0002:00010fdc       $stateUnwindMap$?Execute@AsyncAesEncryptCTR@@UEAAXXZ 0000000180043fdc     async_aes.obj
 0002:00010fdc       $stateUnwindMap$?Execute@AsyncAesImport@@UEAAXXZ 0000000180043fdc     async_aes.obj
 0002:00010fdc       $stateUnwindMap$?Execute@AsyncAesGenerateKey@@UEAAXXZ 0000000180043fdc     async_aes.obj
 0002:00010fdc       $stateUnwindMap$?Execute@AsyncPbkdf2DeriveBits@@UEAAXXZ 0000000180043fdc     async_pbkdf2.obj
 0002:00010fdc       $stateUnwindMap$?Execute@AsyncHmacVerify@@UEAAXXZ 0000000180043fdc     async_hmac.obj
 0002:00010fdc       $stateUnwindMap$?Execute@AsyncAesEncryptCBC@@UEAAXXZ 0000000180043fdc     async_aes.obj
 0002:00010fdc       $stateUnwindMap$?Execute@AsyncSignRsa@@UEAAXXZ 0000000180043fdc     async_rsa.obj
 0002:00010fdc       $stateUnwindMap$?Execute@AsyncDigest@@UEAAXXZ 0000000180043fdc     async_core.obj
 0002:00010fdc       $stateUnwindMap$?Execute@AsyncEncrypDecryptRsaOAEP@@UEAAXXZ 0000000180043fdc     async_rsa.obj
 0002:00010fdc       $stateUnwindMap$?Execute@AsyncEcdhDeriveKey@@UEAAXXZ 0000000180043fdc     async_ec.obj
 0002:00010fdc       $stateUnwindMap$?Execute@AsyncEcdhDeriveBits@@UEAAXXZ 0000000180043fdc     async_ec.obj
 0002:00010fdc       $stateUnwindMap$?Execute@AsyncEcGenerateKey@@UEAAXXZ 0000000180043fdc     async_ec.obj
 0002:00010fdc       $stateUnwindMap$?Execute@AsyncHmacGenerateKey@@UEAAXXZ 0000000180043fdc     async_hmac.obj
 0002:00010fdc       $stateUnwindMap$?Execute@AsyncExportJwkRsa@@UEAAXXZ 0000000180043fdc     async_rsa.obj
 0002:00010fdc       $stateUnwindMap$?Execute@AsyncImportSpki@@UEAAXXZ 0000000180043fdc     async_rsa.obj
 0002:00010fdc       $stateUnwindMap$?Execute@AsyncHmacSign@@UEAAXXZ 0000000180043fdc     async_hmac.obj
 0002:00010fdc       $stateUnwindMap$?Execute@AsyncAesEncryptGCM@@UEAAXXZ 0000000180043fdc     async_aes.obj
 0002:00010fdc       $stateUnwindMap$?Execute@AsyncAesWrapKey@@UEAAXXZ 0000000180043fdc     async_aes.obj
 0002:00010fdc       $stateUnwindMap$?Execute@AsyncExportSpki@@UEAAXXZ 0000000180043fdc     async_rsa.obj
 0002:00010fdc       $stateUnwindMap$?Execute@AsyncAesEncryptECB@@UEAAXXZ 0000000180043fdc     async_aes.obj
 0002:00010fdc       $stateUnwindMap$?Execute@AsyncVerifyRsa@@UEAAXXZ 0000000180043fdc     async_rsa.obj
 0002:00010fdc       $stateUnwindMap$?Execute@AsyncExportPkcs8@@UEAAXXZ 0000000180043fdc     async_rsa.obj
 0002:00010fdc       $stateUnwindMap$?Execute@AsyncVerifyRsaPSS@@UEAAXXZ 0000000180043fdc     async_rsa.obj
 0002:00010fdc       $stateUnwindMap$?Execute@AsyncSignRsaPSS@@UEAAXXZ 0000000180043fdc     async_rsa.obj
 0002:00010fdc       $stateUnwindMap$?Execute@AsyncImportPkcs8@@UEAAXXZ 0000000180043fdc     async_rsa.obj
 0002:00010fdc       $stateUnwindMap$?Execute@AsyncEcdsaVerify@@UEAAXXZ 0000000180043fdc     async_ec.obj
 0002:00010fdc       $stateUnwindMap$?Execute@AsyncImportJwkRsa@@UEAAXXZ 0000000180043fdc     async_rsa.obj
 0002:00010fdc       $stateUnwindMap$?Execute@AsyncPbkdf2Import@@UEAAXXZ 0000000180043fdc     async_pbkdf2.obj
 0002:00010fdc       $stateUnwindMap$?Execute@AsyncRsaGenerateKey@@UEAAXXZ 0000000180043fdc     async_rsa.obj
 0002:00010fdc       $stateUnwindMap$?Execute@AsyncEcImportJwk@@UEAAXXZ 0000000180043fdc     async_ec.obj
 0002:00010fdc       $stateUnwindMap$?Execute@AsyncEcExportJwk@@UEAAXXZ 0000000180043fdc     async_ec.obj
 0002:00010fec       $tryMap$?Execute@AsyncEncrypDecryptRsaOAEP@@UEAAXXZ 0000000180043fec     async_rsa.obj
 0002:00011000       $handlerMap$0$?Execute@AsyncEncrypDecryptRsaOAEP@@UEAAXXZ 0000000180044000     async_rsa.obj
 0002:00011018       $ip2state$?Execute@AsyncEncrypDecryptRsaOAEP@@UEAAXXZ 0000000180044018     async_rsa.obj
 0002:00011048       $unwind$?catch$4@?0??Execute@AsyncEncrypDecryptRsaOAEP@@UEAAXXZ@4HA 0000000180044048     async_rsa.obj
 0002:00011058       $unwind$?HandleOKCallback@AsyncEncrypDecryptRsaOAEP@@UEAAXXZ 0000000180044058     async_rsa.obj
 0002:00011068       $stateUnwindMap$?HandleOKCallback@AsyncEncrypDecryptRsaOAEP@@UEAAXXZ 0000000180044068     async_rsa.obj
 0002:00011068       $stateUnwindMap$?HandleOKCallback@AsyncEcdhDeriveKey@@UEAAXXZ 0000000180044068     async_ec.obj
 0002:00011068       $stateUnwindMap$?HandleOKCallback@AsyncAesEncryptCTR@@UEAAXXZ 0000000180044068     async_aes.obj
 0002:00011068       $stateUnwindMap$?HandleOKCallback@AsyncAesWrapKey@@UEAAXXZ 0000000180044068     async_aes.obj
 0002:00011068       $stateUnwindMap$?HandleOKCallback@AsyncHmacExport@@UEAAXXZ 0000000180044068     async_hmac.obj
 0002:00011068       $stateUnwindMap$?HandleOKCallback@AsyncAesExport@@UEAAXXZ 0000000180044068     async_aes.obj
 0002:00011068       $stateUnwindMap$?HandleOKCallback@AsyncSignRsaPSS@@UEAAXXZ 0000000180044068     async_rsa.obj
 0002:00011068       $stateUnwindMap$?HandleOKCallback@AsyncPbkdf2DeriveBits@@UEAAXXZ 0000000180044068     async_pbkdf2.obj
 0002:00011068       $stateUnwindMap$?HandleOKCallback@AsyncAesEncryptECB@@UEAAXXZ 0000000180044068     async_aes.obj
 0002:00011068       $stateUnwindMap$?HandleOKCallback@AsyncHmacSign@@UEAAXXZ 0000000180044068     async_hmac.obj
 0002:00011068       $stateUnwindMap$?HandleOKCallback@AsyncEcdhDeriveBits@@UEAAXXZ 0000000180044068     async_ec.obj
 0002:00011068       $stateUnwindMap$?HandleOKCallback@AsyncDigest@@UEAAXXZ 0000000180044068     async_core.obj
 0002:00011068       $stateUnwindMap$?HandleOKCallback@AsyncSignRsa@@UEAAXXZ 0000000180044068     async_rsa.obj
 0002:00011068       $stateUnwindMap$?HandleOKCallback@AsyncExportPkcs8@@UEAAXXZ 0000000180044068     async_rsa.obj
 0002:00011068       $stateUnwindMap$?HandleOKCallback@AsyncAesEncryptGCM@@UEAAXXZ 0000000180044068     async_aes.obj
 0002:00011068       $stateUnwindMap$?HandleOKCallback@AsyncExportSpki@@UEAAXXZ 0000000180044068     async_rsa.obj
 0002:00011068       $stateUnwindMap$?HandleOKCallback@AsyncAesEncryptCBC@@UEAAXXZ 0000000180044068     async_aes.obj
 0002:00011068       $stateUnwindMap$?HandleOKCallback@AsyncEcdsaSign@@UEAAXXZ 0000000180044068     async_ec.obj
 0002:00011070       $ip2state$?HandleOKCallback@AsyncEncrypDecryptRsaOAEP@@UEAAXXZ 0000000180044070     async_rsa.obj
 0002:00011088       $unwind$?Execute@AsyncRsaGenerateKey@@UEAAXXZ 0000000180044088     async_rsa.obj
 0002:0001109c       $tryMap$?Execute@AsyncRsaGenerateKey@@UEAAXXZ 000000018004409c     async_rsa.obj
 0002:000110b0       $handlerMap$0$?Execute@AsyncRsaGenerateKey@@UEAAXXZ 00000001800440b0     async_rsa.obj
 0002:000110c8       $ip2state$?Execute@AsyncRsaGenerateKey@@UEAAXXZ 00000001800440c8     async_rsa.obj
 0002:000110f8       $unwind$?catch$1@?0??Execute@AsyncRsaGenerateKey@@UEAAXXZ@4HA 00000001800440f8     async_rsa.obj
 0002:00011108       $unwind$?HandleOKCallback@AsyncRsaGenerateKey@@UEAAXXZ 0000000180044108     async_rsa.obj
 0002:00011108       $unwind$?HandleOKCallback@AsyncEcGenerateKey@@UEAAXXZ 0000000180044108     async_ec.obj
 0002:0001111c       $stateUnwindMap$?HandleOKCallback@AsyncEcdsaVerify@@UEAAXXZ 000000018004411c     async_ec.obj
 0002:0001111c       $stateUnwindMap$?HandleOKCallback@AsyncVerifyRsa@@UEAAXXZ 000000018004411c     async_rsa.obj
 0002:0001111c       $stateUnwindMap$?HandleOKCallback@AsyncAesImport@@UEAAXXZ 000000018004411c     async_aes.obj
 0002:0001111c       $stateUnwindMap$?HandleOKCallback@AsyncEcImportJwk@@UEAAXXZ 000000018004411c     async_ec.obj
 0002:0001111c       $stateUnwindMap$?HandleOKCallback@AsyncEcExportJwk@@UEAAXXZ 000000018004411c     async_ec.obj
 0002:0001111c       $stateUnwindMap$?HandleOKCallback@AsyncAesGenerateKey@@UEAAXXZ 000000018004411c     async_aes.obj
 0002:0001111c       $stateUnwindMap$?HandleOKCallback@AsyncHmacGenerateKey@@UEAAXXZ 000000018004411c     async_hmac.obj
 0002:0001111c       $stateUnwindMap$?HandleOKCallback@AsyncHmacImport@@UEAAXXZ 000000018004411c     async_hmac.obj
 0002:0001111c       $stateUnwindMap$?HandleOKCallback@AsyncRsaGenerateKey@@UEAAXXZ 000000018004411c     async_rsa.obj
 0002:0001111c       $stateUnwindMap$?HandleOKCallback@AsyncHmacVerify@@UEAAXXZ 000000018004411c     async_hmac.obj
 0002:0001111c       $stateUnwindMap$?HandleOKCallback@AsyncVerifyRsaPSS@@UEAAXXZ 000000018004411c     async_rsa.obj
 0002:0001111c       $stateUnwindMap$?HandleOKCallback@AsyncEcGenerateKey@@UEAAXXZ 000000018004411c     async_ec.obj
 0002:0001111c       $stateUnwindMap$?HandleOKCallback@AsyncExportJwkRsa@@UEAAXXZ 000000018004411c     async_rsa.obj
 0002:0001111c       $stateUnwindMap$?HandleOKCallback@AsyncImportJwkRsa@@UEAAXXZ 000000018004411c     async_rsa.obj
 0002:0001111c       $stateUnwindMap$?HandleOKCallback@AsyncImportSpki@@UEAAXXZ 000000018004411c     async_rsa.obj
 0002:0001111c       $stateUnwindMap$?HandleOKCallback@AsyncImportPkcs8@@UEAAXXZ 000000018004411c     async_rsa.obj
 0002:0001111c       $stateUnwindMap$?HandleOKCallback@AsyncPbkdf2Import@@UEAAXXZ 000000018004411c     async_pbkdf2.obj
 0002:00011128       $ip2state$?HandleOKCallback@AsyncRsaGenerateKey@@UEAAXXZ 0000000180044128     async_rsa.obj
 0002:00011128       $ip2state$?HandleOKCallback@AsyncEcGenerateKey@@UEAAXXZ 0000000180044128     async_ec.obj
 0002:00011140       $unwind$?Execute@AsyncExportJwkRsa@@UEAAXXZ 0000000180044140     async_rsa.obj
 0002:00011154       $tryMap$?Execute@AsyncExportJwkRsa@@UEAAXXZ 0000000180044154     async_rsa.obj
 0002:00011168       $handlerMap$0$?Execute@AsyncExportJwkRsa@@UEAAXXZ 0000000180044168     async_rsa.obj
 0002:00011180       $ip2state$?Execute@AsyncExportJwkRsa@@UEAAXXZ 0000000180044180     async_rsa.obj
 0002:000111b0       $unwind$?catch$2@?0??Execute@AsyncExportJwkRsa@@UEAAXXZ@4HA 00000001800441b0     async_rsa.obj
 0002:000111c0       $unwind$?HandleOKCallback@AsyncExportJwkRsa@@UEAAXXZ 00000001800441c0     async_rsa.obj
 0002:000111d8       $ip2state$?HandleOKCallback@AsyncExportJwkRsa@@UEAAXXZ 00000001800441d8     async_rsa.obj
 0002:000111f0       $unwind$?Execute@AsyncExportSpki@@UEAAXXZ 00000001800441f0     async_rsa.obj
 0002:00011204       $tryMap$?Execute@AsyncExportSpki@@UEAAXXZ 0000000180044204     async_rsa.obj
 0002:00011218       $handlerMap$0$?Execute@AsyncExportSpki@@UEAAXXZ 0000000180044218     async_rsa.obj
 0002:00011230       $ip2state$?Execute@AsyncExportSpki@@UEAAXXZ 0000000180044230     async_rsa.obj
 0002:00011260       $unwind$?catch$1@?0??Execute@AsyncExportSpki@@UEAAXXZ@4HA 0000000180044260     async_rsa.obj
 0002:00011270       $unwind$?HandleOKCallback@AsyncExportPkcs8@@UEAAXXZ 0000000180044270     async_rsa.obj
 0002:00011270       $unwind$?HandleOKCallback@AsyncExportSpki@@UEAAXXZ 0000000180044270     async_rsa.obj
 0002:00011280       $ip2state$?HandleOKCallback@AsyncExportSpki@@UEAAXXZ 0000000180044280     async_rsa.obj
 0002:00011280       $ip2state$?HandleOKCallback@AsyncExportPkcs8@@UEAAXXZ 0000000180044280     async_rsa.obj
 0002:00011298       $unwind$?Execute@AsyncExportPkcs8@@UEAAXXZ 0000000180044298     async_rsa.obj
 0002:000112ac       $tryMap$?Execute@AsyncExportPkcs8@@UEAAXXZ 00000001800442ac     async_rsa.obj
 0002:000112c0       $handlerMap$0$?Execute@AsyncExportPkcs8@@UEAAXXZ 00000001800442c0     async_rsa.obj
 0002:000112d8       $ip2state$?Execute@AsyncExportPkcs8@@UEAAXXZ 00000001800442d8     async_rsa.obj
 0002:00011308       $unwind$?catch$1@?0??Execute@AsyncExportPkcs8@@UEAAXXZ@4HA 0000000180044308     async_rsa.obj
 0002:00011318       $unwind$?Execute@AsyncImportPkcs8@@UEAAXXZ 0000000180044318     async_rsa.obj
 0002:0001132c       $tryMap$?Execute@AsyncImportPkcs8@@UEAAXXZ 000000018004432c     async_rsa.obj
 0002:00011340       $handlerMap$0$?Execute@AsyncImportPkcs8@@UEAAXXZ 0000000180044340     async_rsa.obj
 0002:00011358       $ip2state$?Execute@AsyncImportPkcs8@@UEAAXXZ 0000000180044358     async_rsa.obj
 0002:00011388       $unwind$?catch$2@?0??Execute@AsyncImportPkcs8@@UEAAXXZ@4HA 0000000180044388     async_rsa.obj
 0002:00011398       $unwind$?HandleOKCallback@AsyncImportSpki@@UEAAXXZ 0000000180044398     async_rsa.obj
 0002:00011398       $unwind$?HandleOKCallback@AsyncImportPkcs8@@UEAAXXZ 0000000180044398     async_rsa.obj
 0002:000113b0       $ip2state$?HandleOKCallback@AsyncImportPkcs8@@UEAAXXZ 00000001800443b0     async_rsa.obj
 0002:000113b0       $ip2state$?HandleOKCallback@AsyncImportSpki@@UEAAXXZ 00000001800443b0     async_rsa.obj
 0002:000113c8       $unwind$?Execute@AsyncImportSpki@@UEAAXXZ 00000001800443c8     async_rsa.obj
 0002:000113dc       $tryMap$?Execute@AsyncImportSpki@@UEAAXXZ 00000001800443dc     async_rsa.obj
 0002:000113f0       $handlerMap$0$?Execute@AsyncImportSpki@@UEAAXXZ 00000001800443f0     async_rsa.obj
 0002:00011408       $ip2state$?Execute@AsyncImportSpki@@UEAAXXZ 0000000180044408     async_rsa.obj
 0002:00011438       $unwind$?catch$2@?0??Execute@AsyncImportSpki@@UEAAXXZ@4HA 0000000180044438     async_rsa.obj
 0002:00011448       $unwind$?Execute@AsyncImportJwkRsa@@UEAAXXZ 0000000180044448     async_rsa.obj
 0002:0001145c       $tryMap$?Execute@AsyncImportJwkRsa@@UEAAXXZ 000000018004445c     async_rsa.obj
 0002:00011470       $handlerMap$0$?Execute@AsyncImportJwkRsa@@UEAAXXZ 0000000180044470     async_rsa.obj
 0002:00011488       $ip2state$?Execute@AsyncImportJwkRsa@@UEAAXXZ 0000000180044488     async_rsa.obj
 0002:000114b8       $unwind$?catch$1@?0??Execute@AsyncImportJwkRsa@@UEAAXXZ@4HA 00000001800444b8     async_rsa.obj
 0002:000114c8       $unwind$?HandleOKCallback@AsyncImportJwkRsa@@UEAAXXZ 00000001800444c8     async_rsa.obj
 0002:000114c8       $unwind$?HandleOKCallback@AsyncEcImportJwk@@UEAAXXZ 00000001800444c8     async_ec.obj
 0002:000114e0       $ip2state$?HandleOKCallback@AsyncEcImportJwk@@UEAAXXZ 00000001800444e0     async_ec.obj
 0002:000114e0       $ip2state$?HandleOKCallback@AsyncImportJwkRsa@@UEAAXXZ 00000001800444e0     async_rsa.obj
 0002:000114f8       $unwind$?Execute@AsyncSignRsa@@UEAAXXZ 00000001800444f8     async_rsa.obj
 0002:0001150c       $tryMap$?Execute@AsyncSignRsa@@UEAAXXZ 000000018004450c     async_rsa.obj
 0002:00011520       $handlerMap$0$?Execute@AsyncSignRsa@@UEAAXXZ 0000000180044520     async_rsa.obj
 0002:00011538       $ip2state$?Execute@AsyncSignRsa@@UEAAXXZ 0000000180044538     async_rsa.obj
 0002:00011568       $unwind$?catch$3@?0??Execute@AsyncSignRsa@@UEAAXXZ@4HA 0000000180044568     async_rsa.obj
 0002:00011578       $unwind$?HandleOKCallback@AsyncEcdsaSign@@UEAAXXZ 0000000180044578     async_ec.obj
 0002:00011578       $unwind$?HandleOKCallback@AsyncHmacSign@@UEAAXXZ 0000000180044578     async_hmac.obj
 0002:00011578       $unwind$?HandleOKCallback@AsyncSignRsa@@UEAAXXZ 0000000180044578     async_rsa.obj
 0002:00011588       $ip2state$?HandleOKCallback@AsyncSignRsa@@UEAAXXZ 0000000180044588     async_rsa.obj
 0002:00011588       $ip2state$?HandleOKCallback@AsyncHmacSign@@UEAAXXZ 0000000180044588     async_hmac.obj
 0002:00011588       $ip2state$?HandleOKCallback@AsyncEcdsaSign@@UEAAXXZ 0000000180044588     async_ec.obj
 0002:000115a0       $unwind$?Execute@AsyncVerifyRsa@@UEAAXXZ 00000001800445a0     async_rsa.obj
 0002:000115b0       $tryMap$?Execute@AsyncVerifyRsa@@UEAAXXZ 00000001800445b0     async_rsa.obj
 0002:000115c4       $handlerMap$0$?Execute@AsyncVerifyRsa@@UEAAXXZ 00000001800445c4     async_rsa.obj
 0002:000115d8       $ip2state$?Execute@AsyncVerifyRsa@@UEAAXXZ 00000001800445d8     async_rsa.obj
 0002:00011608       $unwind$?catch$3@?0??Execute@AsyncVerifyRsa@@UEAAXXZ@4HA 0000000180044608     async_rsa.obj
 0002:00011618       $unwind$?HandleOKCallback@AsyncHmacVerify@@UEAAXXZ 0000000180044618     async_hmac.obj
 0002:00011618       $unwind$?HandleOKCallback@AsyncVerifyRsa@@UEAAXXZ 0000000180044618     async_rsa.obj
 0002:00011618       $unwind$?HandleOKCallback@AsyncEcdsaVerify@@UEAAXXZ 0000000180044618     async_ec.obj
 0002:00011630       $ip2state$?HandleOKCallback@AsyncEcdsaVerify@@UEAAXXZ 0000000180044630     async_ec.obj
 0002:00011630       $ip2state$?HandleOKCallback@AsyncHmacVerify@@UEAAXXZ 0000000180044630     async_hmac.obj
 0002:00011630       $ip2state$?HandleOKCallback@AsyncVerifyRsa@@UEAAXXZ 0000000180044630     async_rsa.obj
 0002:00011648       $unwind$?Execute@AsyncSignRsaPSS@@UEAAXXZ 0000000180044648     async_rsa.obj
 0002:0001165c       $tryMap$?Execute@AsyncSignRsaPSS@@UEAAXXZ 000000018004465c     async_rsa.obj
 0002:00011670       $handlerMap$0$?Execute@AsyncSignRsaPSS@@UEAAXXZ 0000000180044670     async_rsa.obj
 0002:00011688       $ip2state$?Execute@AsyncSignRsaPSS@@UEAAXXZ 0000000180044688     async_rsa.obj
 0002:000116b8       $unwind$?catch$3@?0??Execute@AsyncSignRsaPSS@@UEAAXXZ@4HA 00000001800446b8     async_rsa.obj
 0002:000116c8       $unwind$?HandleOKCallback@AsyncSignRsaPSS@@UEAAXXZ 00000001800446c8     async_rsa.obj
 0002:000116d8       $ip2state$?HandleOKCallback@AsyncSignRsaPSS@@UEAAXXZ 00000001800446d8     async_rsa.obj
 0002:000116f0       $unwind$?Execute@AsyncVerifyRsaPSS@@UEAAXXZ 00000001800446f0     async_rsa.obj
 0002:00011700       $tryMap$?Execute@AsyncVerifyRsaPSS@@UEAAXXZ 0000000180044700     async_rsa.obj
 0002:00011714       $handlerMap$0$?Execute@AsyncVerifyRsaPSS@@UEAAXXZ 0000000180044714     async_rsa.obj
 0002:00011728       $ip2state$?Execute@AsyncVerifyRsaPSS@@UEAAXXZ 0000000180044728     async_rsa.obj
 0002:00011758       $unwind$?catch$3@?0??Execute@AsyncVerifyRsaPSS@@UEAAXXZ@4HA 0000000180044758     async_rsa.obj
 0002:00011768       $unwind$?HandleOKCallback@AsyncVerifyRsaPSS@@UEAAXXZ 0000000180044768     async_rsa.obj
 0002:00011780       $ip2state$?HandleOKCallback@AsyncVerifyRsaPSS@@UEAAXXZ 0000000180044780     async_rsa.obj
 0002:00011798       $unwind$?Execute@AsyncEcGenerateKey@@UEAAXXZ 0000000180044798     async_ec.obj
 0002:000117ac       $tryMap$?Execute@AsyncEcGenerateKey@@UEAAXXZ 00000001800447ac     async_ec.obj
 0002:000117c0       $handlerMap$0$?Execute@AsyncEcGenerateKey@@UEAAXXZ 00000001800447c0     async_ec.obj
 0002:000117d8       $ip2state$?Execute@AsyncEcGenerateKey@@UEAAXXZ 00000001800447d8     async_ec.obj
 0002:00011808       $unwind$?catch$1@?0??Execute@AsyncEcGenerateKey@@UEAAXXZ@4HA 0000000180044808     async_ec.obj
 0002:00011818       $unwind$?Execute@AsyncEcdhDeriveKey@@UEAAXXZ 0000000180044818     async_ec.obj
 0002:0001182c       $tryMap$?Execute@AsyncEcdhDeriveKey@@UEAAXXZ 000000018004482c     async_ec.obj
 0002:00011840       $handlerMap$0$?Execute@AsyncEcdhDeriveKey@@UEAAXXZ 0000000180044840     async_ec.obj
 0002:00011858       $ip2state$?Execute@AsyncEcdhDeriveKey@@UEAAXXZ 0000000180044858     async_ec.obj
 0002:00011888       $unwind$?catch$3@?0??Execute@AsyncEcdhDeriveKey@@UEAAXXZ@4HA 0000000180044888     async_ec.obj
 0002:00011898       $unwind$?HandleOKCallback@AsyncAesWrapKey@@UEAAXXZ 0000000180044898     async_aes.obj
 0002:00011898       $unwind$?HandleOKCallback@AsyncAesEncryptECB@@UEAAXXZ 0000000180044898     async_aes.obj
 0002:00011898       $unwind$?HandleOKCallback@AsyncEcdhDeriveKey@@UEAAXXZ 0000000180044898     async_ec.obj
 0002:00011898       $unwind$?HandleOKCallback@AsyncEcdhDeriveBits@@UEAAXXZ 0000000180044898     async_ec.obj
 0002:000118a8       $ip2state$?HandleOKCallback@AsyncEcdhDeriveKey@@UEAAXXZ 00000001800448a8     async_ec.obj
 0002:000118a8       $ip2state$?HandleOKCallback@AsyncAesEncryptECB@@UEAAXXZ 00000001800448a8     async_aes.obj
 0002:000118a8       $ip2state$?HandleOKCallback@AsyncEcdhDeriveBits@@UEAAXXZ 00000001800448a8     async_ec.obj
 0002:000118a8       $ip2state$?HandleOKCallback@AsyncAesWrapKey@@UEAAXXZ 00000001800448a8     async_aes.obj
 0002:000118c0       $unwind$?Execute@AsyncEcExportJwk@@UEAAXXZ 00000001800448c0     async_ec.obj
 0002:000118d4       $tryMap$?Execute@AsyncEcExportJwk@@UEAAXXZ 00000001800448d4     async_ec.obj
 0002:000118e8       $handlerMap$0$?Execute@AsyncEcExportJwk@@UEAAXXZ 00000001800448e8     async_ec.obj
 0002:00011900       $ip2state$?Execute@AsyncEcExportJwk@@UEAAXXZ 0000000180044900     async_ec.obj
 0002:00011930       $unwind$?catch$2@?0??Execute@AsyncEcExportJwk@@UEAAXXZ@4HA 0000000180044930     async_ec.obj
 0002:00011940       $unwind$?HandleOKCallback@AsyncEcExportJwk@@UEAAXXZ 0000000180044940     async_ec.obj
 0002:00011958       $ip2state$?HandleOKCallback@AsyncEcExportJwk@@UEAAXXZ 0000000180044958     async_ec.obj
 0002:00011970       $unwind$?Execute@AsyncEcImportJwk@@UEAAXXZ 0000000180044970     async_ec.obj
 0002:00011984       $tryMap$?Execute@AsyncEcImportJwk@@UEAAXXZ 0000000180044984     async_ec.obj
 0002:00011998       $handlerMap$0$?Execute@AsyncEcImportJwk@@UEAAXXZ 0000000180044998     async_ec.obj
 0002:000119b0       $ip2state$?Execute@AsyncEcImportJwk@@UEAAXXZ 00000001800449b0     async_ec.obj
 0002:000119e0       $unwind$?catch$1@?0??Execute@AsyncEcImportJwk@@UEAAXXZ@4HA 00000001800449e0     async_ec.obj
 0002:000119f0       $unwind$?Execute@AsyncEcdsaSign@@UEAAXXZ 00000001800449f0     async_ec.obj
 0002:00011a04       $tryMap$?Execute@AsyncEcdsaSign@@UEAAXXZ 0000000180044a04     async_ec.obj
 0002:00011a18       $handlerMap$0$?Execute@AsyncEcdsaSign@@UEAAXXZ 0000000180044a18     async_ec.obj
 0002:00011a30       $ip2state$?Execute@AsyncEcdsaSign@@UEAAXXZ 0000000180044a30     async_ec.obj
 0002:00011a60       $unwind$?catch$3@?0??Execute@AsyncEcdsaSign@@UEAAXXZ@4HA 0000000180044a60     async_ec.obj
 0002:00011a70       $unwind$?Execute@AsyncEcdsaVerify@@UEAAXXZ 0000000180044a70     async_ec.obj
 0002:00011a80       $tryMap$?Execute@AsyncEcdsaVerify@@UEAAXXZ 0000000180044a80     async_ec.obj
 0002:00011a94       $handlerMap$0$?Execute@AsyncEcdsaVerify@@UEAAXXZ 0000000180044a94     async_ec.obj
 0002:00011aa8       $ip2state$?Execute@AsyncEcdsaVerify@@UEAAXXZ 0000000180044aa8     async_ec.obj
 0002:00011ad8       $unwind$?catch$3@?0??Execute@AsyncEcdsaVerify@@UEAAXXZ@4HA 0000000180044ad8     async_ec.obj
 0002:00011ae8       $unwind$?Execute@AsyncEcdhDeriveBits@@UEAAXXZ 0000000180044ae8     async_ec.obj
 0002:00011afc       $tryMap$?Execute@AsyncEcdhDeriveBits@@UEAAXXZ 0000000180044afc     async_ec.obj
 0002:00011b10       $handlerMap$0$?Execute@AsyncEcdhDeriveBits@@UEAAXXZ 0000000180044b10     async_ec.obj
 0002:00011b28       $ip2state$?Execute@AsyncEcdhDeriveBits@@UEAAXXZ 0000000180044b28     async_ec.obj
 0002:00011b58       $unwind$?catch$3@?0??Execute@AsyncEcdhDeriveBits@@UEAAXXZ@4HA 0000000180044b58     async_ec.obj
 0002:00011b68       $unwind$?Execute@AsyncAesGenerateKey@@UEAAXXZ 0000000180044b68     async_aes.obj
 0002:00011b7c       $tryMap$?Execute@AsyncAesGenerateKey@@UEAAXXZ 0000000180044b7c     async_aes.obj
 0002:00011b90       $handlerMap$0$?Execute@AsyncAesGenerateKey@@UEAAXXZ 0000000180044b90     async_aes.obj
 0002:00011ba8       $ip2state$?Execute@AsyncAesGenerateKey@@UEAAXXZ 0000000180044ba8     async_aes.obj
 0002:00011bd8       $unwind$?catch$1@?0??Execute@AsyncAesGenerateKey@@UEAAXXZ@4HA 0000000180044bd8     async_aes.obj
 0002:00011be8       $unwind$?HandleOKCallback@AsyncAesGenerateKey@@UEAAXXZ 0000000180044be8     async_aes.obj
 0002:00011c00       $ip2state$?HandleOKCallback@AsyncAesGenerateKey@@UEAAXXZ 0000000180044c00     async_aes.obj
 0002:00011c18       $unwind$?Execute@AsyncAesEncryptCBC@@UEAAXXZ 0000000180044c18     async_aes.obj
 0002:00011c30       $tryMap$?Execute@AsyncAesEncryptCBC@@UEAAXXZ 0000000180044c30     async_aes.obj
 0002:00011c44       $handlerMap$0$?Execute@AsyncAesEncryptCBC@@UEAAXXZ 0000000180044c44     async_aes.obj
 0002:00011c58       $ip2state$?Execute@AsyncAesEncryptCBC@@UEAAXXZ 0000000180044c58     async_aes.obj
 0002:00011c88       $unwind$?catch$6@?0??Execute@AsyncAesEncryptCBC@@UEAAXXZ@4HA 0000000180044c88     async_aes.obj
 0002:00011c98       $unwind$?HandleOKCallback@AsyncAesEncryptCTR@@UEAAXXZ 0000000180044c98     async_aes.obj
 0002:00011c98       $unwind$?HandleOKCallback@AsyncAesEncryptCBC@@UEAAXXZ 0000000180044c98     async_aes.obj
 0002:00011ca8       $ip2state$?HandleOKCallback@AsyncAesEncryptCBC@@UEAAXXZ 0000000180044ca8     async_aes.obj
 0002:00011ca8       $ip2state$?HandleOKCallback@AsyncAesEncryptCTR@@UEAAXXZ 0000000180044ca8     async_aes.obj
 0002:00011cc0       $unwind$?Execute@AsyncAesEncryptECB@@UEAAXXZ 0000000180044cc0     async_aes.obj
 0002:00011cd4       $tryMap$?Execute@AsyncAesEncryptECB@@UEAAXXZ 0000000180044cd4     async_aes.obj
 0002:00011ce8       $handlerMap$0$?Execute@AsyncAesEncryptECB@@UEAAXXZ 0000000180044ce8     async_aes.obj
 0002:00011d00       $ip2state$?Execute@AsyncAesEncryptECB@@UEAAXXZ 0000000180044d00     async_aes.obj
 0002:00011d30       $unwind$?catch$4@?0??Execute@AsyncAesEncryptECB@@UEAAXXZ@4HA 0000000180044d30     async_aes.obj
 0002:00011d40       $unwind$?HandleOKCallback@AsyncHmacExport@@UEAAXXZ 0000000180044d40     async_hmac.obj
 0002:00011d40       $unwind$?HandleOKCallback@AsyncAesExport@@UEAAXXZ 0000000180044d40     async_aes.obj
 0002:00011d50       $ip2state$?HandleOKCallback@AsyncAesExport@@UEAAXXZ 0000000180044d50     async_aes.obj
 0002:00011d50       $ip2state$?HandleOKCallback@AsyncHmacExport@@UEAAXXZ 0000000180044d50     async_hmac.obj
 0002:00011d68       $unwind$?Execute@AsyncAesImport@@UEAAXXZ 0000000180044d68     async_aes.obj
 0002:00011d7c       $tryMap$?Execute@AsyncAesImport@@UEAAXXZ 0000000180044d7c     async_aes.obj
 0002:00011d90       $handlerMap$0$?Execute@AsyncAesImport@@UEAAXXZ 0000000180044d90     async_aes.obj
 0002:00011da8       $ip2state$?Execute@AsyncAesImport@@UEAAXXZ 0000000180044da8     async_aes.obj
 0002:00011dd8       $unwind$?catch$4@?0??Execute@AsyncAesImport@@UEAAXXZ@4HA 0000000180044dd8     async_aes.obj
 0002:00011de8       $unwind$?HandleOKCallback@AsyncAesImport@@UEAAXXZ 0000000180044de8     async_aes.obj
 0002:00011e00       $ip2state$?HandleOKCallback@AsyncAesImport@@UEAAXXZ 0000000180044e00     async_aes.obj
 0002:00011e18       $unwind$?Execute@AsyncAesEncryptGCM@@UEAAXXZ 0000000180044e18     async_aes.obj
 0002:00011e30       $tryMap$?Execute@AsyncAesEncryptGCM@@UEAAXXZ 0000000180044e30     async_aes.obj
 0002:00011e44       $handlerMap$0$?Execute@AsyncAesEncryptGCM@@UEAAXXZ 0000000180044e44     async_aes.obj
 0002:00011e58       $ip2state$?Execute@AsyncAesEncryptGCM@@UEAAXXZ 0000000180044e58     async_aes.obj
 0002:00011e88       $unwind$?catch$8@?0??Execute@AsyncAesEncryptGCM@@UEAAXXZ@4HA 0000000180044e88     async_aes.obj
 0002:00011e98       $unwind$?HandleOKCallback@AsyncAesEncryptGCM@@UEAAXXZ 0000000180044e98     async_aes.obj
 0002:00011ea8       $ip2state$?HandleOKCallback@AsyncAesEncryptGCM@@UEAAXXZ 0000000180044ea8     async_aes.obj
 0002:00011ec0       $unwind$?Execute@AsyncAesWrapKey@@UEAAXXZ 0000000180044ec0     async_aes.obj
 0002:00011ed4       $tryMap$?Execute@AsyncAesWrapKey@@UEAAXXZ 0000000180044ed4     async_aes.obj
 0002:00011ee8       $handlerMap$0$?Execute@AsyncAesWrapKey@@UEAAXXZ 0000000180044ee8     async_aes.obj
 0002:00011f00       $ip2state$?Execute@AsyncAesWrapKey@@UEAAXXZ 0000000180044f00     async_aes.obj
 0002:00011f30       $unwind$?catch$4@?0??Execute@AsyncAesWrapKey@@UEAAXXZ@4HA 0000000180044f30     async_aes.obj
 0002:00011f40       $unwind$?Execute@AsyncAesEncryptCTR@@UEAAXXZ 0000000180044f40     async_aes.obj
 0002:00011f58       $tryMap$?Execute@AsyncAesEncryptCTR@@UEAAXXZ 0000000180044f58     async_aes.obj
 0002:00011f6c       $handlerMap$0$?Execute@AsyncAesEncryptCTR@@UEAAXXZ 0000000180044f6c     async_aes.obj
 0002:00011f80       $ip2state$?Execute@AsyncAesEncryptCTR@@UEAAXXZ 0000000180044f80     async_aes.obj
 0002:00011fb0       $unwind$?catch$6@?0??Execute@AsyncAesEncryptCTR@@UEAAXXZ@4HA 0000000180044fb0     async_aes.obj
 0002:00011fc0       $chain$0$??0ScopedHMAC@@QEAA@V?$shared_ptr@V?$basic_string@DU?$char_traits@D@std@@V?$allocator@D@2@@std@@@std@@@Z 0000000180044fc0     async_hmac.obj
 0002:00011fd4       $chain$1$??0ScopedHMAC@@QEAA@V?$shared_ptr@V?$basic_string@DU?$char_traits@D@std@@V?$allocator@D@2@@std@@@std@@@Z 0000000180044fd4     async_hmac.obj
 0002:00011fe4       $unwind$?Execute@AsyncHmacGenerateKey@@UEAAXXZ 0000000180044fe4     async_hmac.obj
 0002:00011ff8       $tryMap$?Execute@AsyncHmacGenerateKey@@UEAAXXZ 0000000180044ff8     async_hmac.obj
 0002:0001200c       $handlerMap$0$?Execute@AsyncHmacGenerateKey@@UEAAXXZ 000000018004500c     async_hmac.obj
 0002:00012020       $ip2state$?Execute@AsyncHmacGenerateKey@@UEAAXXZ 0000000180045020     async_hmac.obj
 0002:00012050       $unwind$?catch$1@?0??Execute@AsyncHmacGenerateKey@@UEAAXXZ@4HA 0000000180045050     async_hmac.obj
 0002:00012060       $unwind$?HandleOKCallback@AsyncHmacGenerateKey@@UEAAXXZ 0000000180045060     async_hmac.obj
 0002:00012078       $ip2state$?HandleOKCallback@AsyncHmacGenerateKey@@UEAAXXZ 0000000180045078     async_hmac.obj
 0002:00012090       $unwind$?Execute@AsyncHmacImport@@UEAAXXZ 0000000180045090     async_hmac.obj
 0002:000120a4       $tryMap$?Execute@AsyncHmacImport@@UEAAXXZ 00000001800450a4     async_hmac.obj
 0002:000120b8       $handlerMap$0$?Execute@AsyncHmacImport@@UEAAXXZ 00000001800450b8     async_hmac.obj
 0002:000120d0       $ip2state$?Execute@AsyncHmacImport@@UEAAXXZ 00000001800450d0     async_hmac.obj
 0002:00012100       $unwind$?catch$4@?0??Execute@AsyncHmacImport@@UEAAXXZ@4HA 0000000180045100     async_hmac.obj
 0002:00012110       $unwind$?HandleOKCallback@AsyncHmacImport@@UEAAXXZ 0000000180045110     async_hmac.obj
 0002:00012128       $ip2state$?HandleOKCallback@AsyncHmacImport@@UEAAXXZ 0000000180045128     async_hmac.obj
 0002:00012140       $unwind$?Execute@AsyncHmacSign@@UEAAXXZ 0000000180045140     async_hmac.obj
 0002:00012154       $tryMap$?Execute@AsyncHmacSign@@UEAAXXZ 0000000180045154     async_hmac.obj
 0002:00012168       $handlerMap$0$?Execute@AsyncHmacSign@@UEAAXXZ 0000000180045168     async_hmac.obj
 0002:00012180       $ip2state$?Execute@AsyncHmacSign@@UEAAXXZ 0000000180045180     async_hmac.obj
 0002:000121b0       $unwind$?catch$2@?0??Execute@AsyncHmacSign@@UEAAXXZ@4HA 00000001800451b0     async_hmac.obj
 0002:000121c0       $unwind$?Execute@AsyncHmacVerify@@UEAAXXZ 00000001800451c0     async_hmac.obj
 0002:000121d0       $tryMap$?Execute@AsyncHmacVerify@@UEAAXXZ 00000001800451d0     async_hmac.obj
 0002:000121e4       $handlerMap$0$?Execute@AsyncHmacVerify@@UEAAXXZ 00000001800451e4     async_hmac.obj
 0002:000121f8       $ip2state$?Execute@AsyncHmacVerify@@UEAAXXZ 00000001800451f8     async_hmac.obj
 0002:00012228       $unwind$?catch$2@?0??Execute@AsyncHmacVerify@@UEAAXXZ@4HA 0000000180045228     async_hmac.obj
 0002:00012238       $chain$0$??0ScopedPbkdf2@@QEAA@V?$shared_ptr@V?$basic_string@DU?$char_traits@D@std@@V?$allocator@D@2@@std@@@std@@@Z 0000000180045238     async_pbkdf2.obj
 0002:0001224c       $chain$1$??0ScopedPbkdf2@@QEAA@V?$shared_ptr@V?$basic_string@DU?$char_traits@D@std@@V?$allocator@D@2@@std@@@std@@@Z 000000018004524c     async_pbkdf2.obj
 0002:0001225c       $unwind$?Execute@AsyncPbkdf2Import@@UEAAXXZ 000000018004525c     async_pbkdf2.obj
 0002:00012270       $tryMap$?Execute@AsyncPbkdf2Import@@UEAAXXZ 0000000180045270     async_pbkdf2.obj
 0002:00012284       $handlerMap$0$?Execute@AsyncPbkdf2Import@@UEAAXXZ 0000000180045284     async_pbkdf2.obj
 0002:00012298       $ip2state$?Execute@AsyncPbkdf2Import@@UEAAXXZ 0000000180045298     async_pbkdf2.obj
 0002:000122c8       $unwind$?catch$4@?0??Execute@AsyncPbkdf2Import@@UEAAXXZ@4HA 00000001800452c8     async_pbkdf2.obj
 0002:000122d8       $unwind$?HandleOKCallback@AsyncPbkdf2Import@@UEAAXXZ 00000001800452d8     async_pbkdf2.obj
 0002:000122f0       $ip2state$?HandleOKCallback@AsyncPbkdf2Import@@UEAAXXZ 00000001800452f0     async_pbkdf2.obj
 0002:00012308       $unwind$?Execute@AsyncPbkdf2DeriveBits@@UEAAXXZ 0000000180045308     async_pbkdf2.obj
 0002:0001231c       $tryMap$?Execute@AsyncPbkdf2DeriveBits@@UEAAXXZ 000000018004531c     async_pbkdf2.obj
 0002:00012330       $handlerMap$0$?Execute@AsyncPbkdf2DeriveBits@@UEAAXXZ 0000000180045330     async_pbkdf2.obj
 0002:00012348       $ip2state$?Execute@AsyncPbkdf2DeriveBits@@UEAAXXZ 0000000180045348     async_pbkdf2.obj
 0002:00012378       $unwind$?catch$2@?0??Execute@AsyncPbkdf2DeriveBits@@UEAAXXZ@4HA 0000000180045378     async_pbkdf2.obj
 0002:00012388       $unwind$?HandleOKCallback@AsyncPbkdf2DeriveBits@@UEAAXXZ 0000000180045388     async_pbkdf2.obj
 0002:00012398       $ip2state$?HandleOKCallback@AsyncPbkdf2DeriveBits@@UEAAXXZ 0000000180045398     async_pbkdf2.obj
 0002:000123b0       $unwind$?Execute@AsyncDigest@@UEAAXXZ 00000001800453b0     async_core.obj
 0002:000123c4       $tryMap$?Execute@AsyncDigest@@UEAAXXZ 00000001800453c4     async_core.obj
 0002:000123d8       $handlerMap$0$?Execute@AsyncDigest@@UEAAXXZ 00000001800453d8     async_core.obj
 0002:000123f0       $ip2state$?Execute@AsyncDigest@@UEAAXXZ 00000001800453f0     async_core.obj
 0002:00012420       $unwind$?catch$2@?0??Execute@AsyncDigest@@UEAAXXZ@4HA 0000000180045420     async_core.obj
 0002:00012430       $unwind$?HandleOKCallback@AsyncDigest@@UEAAXXZ 0000000180045430     async_core.obj
 0002:00012440       $ip2state$?HandleOKCallback@AsyncDigest@@UEAAXXZ 0000000180045440     async_core.obj
 0002:00012458       xdata                      0000000180045458     node:node.exe
 0002:00012460       $xdatasym                  0000000180045460     LIBCMT:_amdsecgs_.obj
 0002:00012464       $unwind$__scrt_is_nonwritable_in_current_image 0000000180045464     LIBCMT:utility.obj
 0002:00012484       $unwind$__scrt_is_nonwritable_in_current_image$filt$0 0000000180045484     LIBCMT:utility.obj
 0002:0001248c       $unwind$__scrt_initialize_onexit_tables 000000018004548c     LIBCMT:utility.obj
 0002:00012498       $unwind$?dllmain_crt_process_attach@@YAHQEAUHINSTANCE__@@QEAX@Z 0000000180045498     LIBCMT:dll_dllmain.obj
 0002:000124c4       $unwind$?dllmain_crt_process_detach@@YAH_N@Z 00000001800454c4     LIBCMT:dll_dllmain.obj
 0002:000124ec       $unwind$?dllmain_dispatch@@YAHQEAUHINSTANCE__@@KQEAX@Z 00000001800454ec     LIBCMT:dll_dllmain.obj
 0002:00012514       $unwind$?filt$0@?0??dllmain_dispatch@@YAHQEAUHINSTANCE__@@KQEAX@Z@4HA 0000000180045514     LIBCMT:dll_dllmain.obj
 0002:0001251c       $unwind$__report_securityfailure 000000018004551c     LIBCMT:gs_report.obj
 0002:00012524       $unwind$_putwch_nolock     0000000180045524     libucrt:putwch.obj
 0002:00012524       $unwind$__report_gsfailure 0000000180045524     LIBCMT:gs_report.obj
 0002:0001252c       $unwind$capture_current_context 000000018004552c     LIBCMT:gs_report.obj
 0002:00012538       $unwind$capture_previous_context 0000000180045538     LIBCMT:gs_report.obj
 0002:00012544       $unwind$__scrt_fastfail    0000000180045544     LIBCMT:utility_desktop.obj
 0002:00012554       $unwind$__isa_available_init 0000000180045554     LIBCMT:_cpu_disp_.obj
 0002:00012564       $unwind$__security_init_cookie 0000000180045564     LIBCMT:gs_support.obj
 0002:00012570       $xdatasym                  0000000180045570     LIBCMT:_guard_dispatch_.obj
 0002:00012574       $unwind$__CxxCallCatchBlock 0000000180045574     libvcruntime:frame.obj
 0002:000125b0       $unwind$__CxxCallCatchBlock$fin$1 00000001800455b0     libvcruntime:frame.obj
 0002:000125bc       $unwind$__FrameUnwindToState 00000001800455bc     libvcruntime:frame.obj
 0002:000125f8       $unwind$?FindHandler@@YAXPEAUEHExceptionRecord@@PEA_KPEAU_CONTEXT@@PEAU_xDISPATCHER_CONTEXT@@PEBU_s_FuncInfo@@EH1@Z 00000001800455f8     libvcruntime:frame.obj
 0002:00012618       $unwind$?CatchIt@@YAXPEAUEHExceptionRecord@@PEA_KPEAU_CONTEXT@@PEAU_xDISPATCHER_CONTEXT@@PEBU_s_FuncInfo@@PEBU_s_HandlerType@@PEBU_s_CatchableType@@PEBU_s_TryBlockMapEntry@@H1EE@Z 0000000180045618     libvcruntime:frame.obj
 0002:00012630       $unwind$__BuildCatchObject 0000000180045630     libvcruntime:frame.obj
 0002:0001265c       $unwind$?FindHandlerForForeignException@@YAXPEAUEHExceptionRecord@@PEA_KPEAU_CONTEXT@@PEAU_xDISPATCHER_CONTEXT@@PEBU_s_FuncInfo@@HH1@Z 000000018004565c     libvcruntime:frame.obj
 0002:00012674       $unwind$__DestructExceptionObject 0000000180045674     libvcruntime:frame.obj
 0002:00012698       $unwind$?try_get_function@@YAPEAXW4function_id@?A0x679b24ab@@QEBDQEBW4module_id@2@2@Z 0000000180045698     libvcruntime:winapi_downlevel.obj
 0002:00012698       $unwind$?try_get_function@@YAPEAXW4function_id@?A0x63058377@@QEBDQEBW4module_id@2@2@Z 0000000180045698     libucrt:winapi_thunks.obj
 0002:00012698       $unwind$?IsInExceptionSpec@@YAEPEAUEHExceptionRecord@@PEBU_s_ESTypeList@@@Z 0000000180045698     libvcruntime:frame.obj
 0002:00012698       $unwind$?write_string@?$string_output_adapter@_W@__crt_stdio_output@@QEBAXQEB_WHQEAH1@Z 0000000180045698     libucrt:output.obj
 0002:000126b4       $unwind$__C_specific_handler 00000001800456b4     libvcruntime:_chandler_.obj
 0002:000126b4       $unwind$__InternalCxxFrameHandler 00000001800456b4     libvcruntime:frame.obj
 0002:000126d0       $unwind$__BuildCatchObjectHelper 00000001800456d0     libvcruntime:frame.obj
 0002:00012710       $xdatasym                  0000000180045710     libvcruntime:memcpy.obj
 0002:00012714       $unwind$_CxxThrowException 0000000180045714     libvcruntime:throw.obj
 0002:00012728       $xdatasym                  0000000180045728     libvcruntime:memset.obj
 0002:00012730       $xdatasym                  0000000180045730     libvcruntime:handlers.obj
 0002:00012738       $unwind$?_GetEstablisherFrame@@YAPEA_KPEA_KPEAU_xDISPATCHER_CONTEXT@@PEBU_s_FuncInfo@@0@Z 0000000180045738     libvcruntime:trnsctrl.obj
 0002:00012750       $unwind$?__FrameUnwindToEmptyState@@YAXPEA_KPEAU_xDISPATCHER_CONTEXT@@PEBU_s_FuncInfo@@@Z 0000000180045750     libvcruntime:trnsctrl.obj
 0002:00012764       $unwind$_CallSETranslator  0000000180045764     libvcruntime:trnsctrl.obj
 0002:00012788       $unwind$_CallSETranslator$filt$0 0000000180045788     libvcruntime:trnsctrl.obj
 0002:00012790       $unwind$?_GetRangeOfTrysToCheck@@YAPEBU_s_TryBlockMapEntry@@PEA_KPEBU_s_FuncInfo@@HHPEAI2PEAU_xDISPATCHER_CONTEXT@@@Z 0000000180045790     libvcruntime:trnsctrl.obj
 0002:00012790       $unwind$??R<lambda_4e60a939b0d047cfe11ddc22648dfba9>@@QEBAHXZ 0000000180045790     libucrt:onexit.obj
 0002:00012790       $unwind$??$parse_command_line@D@@YAXPEADPEAPEAD0PEA_K2@Z 0000000180045790     libucrt:argv_parsing.obj
 0002:000127ac       $unwind$_UnwindNestedFrames 00000001800457ac     libvcruntime:trnsctrl.obj
 0002:000127c0       $unwind$__CxxFrameHandler3 00000001800457c0     libvcruntime:trnsctrl.obj
 0002:000127d0       $unwind$?__SehTransFilter@@YAHPEAU_EXCEPTION_POINTERS@@PEAUEHExceptionRecord@@PEA_KPEAU_CONTEXT@@PEAU_xDISPATCHER_CONTEXT@@PEBU_s_FuncInfo@@PEAH@Z 00000001800457d0     libvcruntime:trnsctrl.obj
 0002:000127e8       $xdatasym                  00000001800457e8     libvcruntime:_jmpuwind_.obj
 0002:000127fc       $unwind$__acrt_call_reportfault 00000001800457fc     libucrt:invalid_parameter.obj
 0002:0001281c       $unwind$_invalid_parameter 000000018004581c     libucrt:invalid_parameter.obj
 0002:00012834       $unwind$fwprintf           0000000180045834     libucrt:assert.obj
 0002:00012840       $unwind$swprintf           0000000180045840     libucrt:assert.obj
 0002:00012850       $unwind$??$common_assert_to_stderr@_W@@YAXQEB_W0I@Z 0000000180045850     libucrt:assert.obj
 0002:0001286c       $unwind$??$common_assert_to_message_box@_W@@YAXQEB_W0IQEAX@Z 000000018004586c     libucrt:assert.obj
 0002:00012888       $unwind$??$common_assert_to_message_box_build_string@_W@@YAXQEA_W_KQEB_W2IQEAX@Z 0000000180045888     libucrt:assert.obj
 0002:000128a8       $unwind$_query_new_handler 00000001800458a8     libucrt:new_handler.obj
 0002:000128c8       $unwind$?common_exit@@YAXHW4_crt_exit_cleanup_mode@@W4_crt_exit_return_mode@@@Z 00000001800458c8     libucrt:exit.obj
 0002:00012908       $unwind$_configure_narrow_argv 0000000180045908     libucrt:argv_parsing.obj
 0002:0001291c       $unwind$??$create_environment@D@@YAQEAPEADQEAD@Z 000000018004591c     libucrt:environment_initialization.obj
 0002:00012934       $unwind$_register_onexit_function 0000000180045934     libucrt:onexit.obj
 0002:0001293c       $unwind$_execute_onexit_table 000000018004593c     libucrt:onexit.obj
 0002:00012944       $unwind$??$?RV<lambda_b8c45f8f788dd370798f47cfe8ac3a86>@@AEAV<lambda_4e60a939b0d047cfe11ddc22648dfba9>@@V<lambda_332c3edc96d0294ec56c57d38c1cdfd5>@@@?$__crt_seh_guarded_call@H@@QEAAH$$QEAV<lambda_b8c45f8f788dd370798f47cfe8ac3a86>@@AEAV<lambda_4e60a939b0d047cfe11ddc22648dfba9>@@$$QEAV<lambda_332c3edc96d0294ec56c57d38c1cdfd5>@@@Z 0000000180045944     libucrt:onexit.obj
 0002:00012968       $unwind$??$?RV<lambda_e24bbb7b643b32fcea6fa61b31d4c984>@@AEAV<lambda_275893d493268fdec8709772e3fcec0e>@@V<lambda_9d71df4d7cf3f480f8d633942495c3b0>@@@?$__crt_seh_guarded_call@H@@QEAAH$$QEAV<lambda_e24bbb7b643b32fcea6fa61b31d4c984>@@AEAV<lambda_275893d493268fdec8709772e3fcec0e>@@$$QEAV<lambda_9d71df4d7cf3f480f8d633942495c3b0>@@@Z 0000000180045968     libucrt:onexit.obj
 0002:00012998       $unwind$terminate          0000000180045998     libucrt:terminate.obj
 0002:000129b8       $unwind$__stdio_common_vfwprintf 00000001800459b8     libucrt:output.obj
 0002:000129c0       $unwind$__stdio_common_vswprintf 00000001800459c0     libucrt:output.obj
 0002:000129e4       $unwind$?write_string@?$stream_output_adapter@_W@__crt_stdio_output@@QEBAXQEB_WHQEAH1@Z 00000001800459e4     libucrt:output.obj
 0002:000129fc       $unwind$?process@?$output_processor@_WV?$stream_output_adapter@_W@__crt_stdio_output@@V?$standard_base@_WV?$stream_output_adapter@_W@__crt_stdio_output@@@2@@__crt_stdio_output@@QEAAHXZ 00000001800459fc     libucrt:output.obj
 0002:00012a14       $unwind$?state_case_type@?$output_processor@_WV?$stream_output_adapter@_W@__crt_stdio_output@@V?$standard_base@_WV?$stream_output_adapter@_W@__crt_stdio_output@@@2@@__crt_stdio_output@@AEAA_NXZ 0000000180045a14     libucrt:output.obj
 0002:00012a14       $unwind$?state_case_type@?$output_processor@_WV?$string_output_adapter@_W@__crt_stdio_output@@V?$standard_base@_WV?$string_output_adapter@_W@__crt_stdio_output@@@2@@__crt_stdio_output@@AEAA_NXZ 0000000180045a14     libucrt:output.obj
 0002:00012a38       $unwind$??R<lambda_b721fa326cdb32351d23dfa67958c160>@@QEBAHXZ 0000000180045a38     libucrt:setvbuf.obj
 0002:00012a38       $unwind$?type_case_c_tchar@?$output_processor@_WV?$string_output_adapter@_W@__crt_stdio_output@@V?$standard_base@_WV?$string_output_adapter@_W@__crt_stdio_output@@@2@@__crt_stdio_output@@AEAA_N_W@Z 0000000180045a38     libucrt:output.obj
 0002:00012a38       $unwind$?type_case_c_tchar@?$output_processor@_WV?$stream_output_adapter@_W@__crt_stdio_output@@V?$standard_base@_WV?$stream_output_adapter@_W@__crt_stdio_output@@@2@@__crt_stdio_output@@AEAA_N_W@Z 0000000180045a38     libucrt:output.obj
 0002:00012a48       $unwind$?write_stored_string_tchar@?$output_processor@_WV?$stream_output_adapter@_W@__crt_stdio_output@@V?$standard_base@_WV?$stream_output_adapter@_W@__crt_stdio_output@@@2@@__crt_stdio_output@@AEAA_N_W@Z 0000000180045a48     libucrt:output.obj
 0002:00012a5c       $unwind$??R<lambda_dd75445284c072d0bd3768540cc698fa>@@QEBAHXZ 0000000180045a5c     libucrt:output.obj
 0002:00012a78       $unwind$?type_case_a@?$output_processor@_WV?$stream_output_adapter@_W@__crt_stdio_output@@V?$standard_base@_WV?$stream_output_adapter@_W@__crt_stdio_output@@@2@@__crt_stdio_output@@AEAA_NXZ 0000000180045a78     libucrt:output.obj
 0002:00012a78       $unwind$?type_case_a@?$output_processor@_WV?$string_output_adapter@_W@__crt_stdio_output@@V?$standard_base@_WV?$string_output_adapter@_W@__crt_stdio_output@@@2@@__crt_stdio_output@@AEAA_NXZ 0000000180045a78     libucrt:output.obj
 0002:00012a88       $unwind$?write_stored_string_tchar@?$output_processor@_WV?$string_output_adapter@_W@__crt_stdio_output@@V?$standard_base@_WV?$string_output_adapter@_W@__crt_stdio_output@@@2@@__crt_stdio_output@@AEAA_N_W@Z 0000000180045a88     libucrt:output.obj
 0002:00012a9c       $unwind$??$write_multiple_characters@V?$stream_output_adapter@_W@__crt_stdio_output@@D@__crt_stdio_output@@YAXAEBV?$stream_output_adapter@_W@0@DHQEAH@Z 0000000180045a9c     libucrt:output.obj
 0002:00012ab4       $unwind$??$write_multiple_characters@V?$string_output_adapter@_W@__crt_stdio_output@@D@__crt_stdio_output@@YAXAEBV?$string_output_adapter@_W@0@DHQEAH@Z 0000000180045ab4     libucrt:output.obj
 0002:00012ac0       $unwind$??$type_case_integer_parse_into_buffer@_K@?$output_processor@_WV?$string_output_adapter@_W@__crt_stdio_output@@V?$standard_base@_WV?$string_output_adapter@_W@__crt_stdio_output@@@2@@__crt_stdio_output@@AEAAX_KI_N@Z 0000000180045ac0     libucrt:output.obj
 0002:00012ac0       $unwind$??$type_case_integer_parse_into_buffer@I@?$output_processor@_WV?$stream_output_adapter@_W@__crt_stdio_output@@V?$standard_base@_WV?$stream_output_adapter@_W@__crt_stdio_output@@@2@@__crt_stdio_output@@AEAAXII_N@Z 0000000180045ac0     libucrt:output.obj
 0002:00012ac0       $unwind$??$type_case_integer_parse_into_buffer@I@?$output_processor@_WV?$string_output_adapter@_W@__crt_stdio_output@@V?$standard_base@_WV?$string_output_adapter@_W@__crt_stdio_output@@@2@@__crt_stdio_output@@AEAAXII_N@Z 0000000180045ac0     libucrt:output.obj
 0002:00012ac0       $unwind$??$type_case_integer_parse_into_buffer@_K@?$output_processor@_WV?$stream_output_adapter@_W@__crt_stdio_output@@V?$standard_base@_WV?$stream_output_adapter@_W@__crt_stdio_output@@@2@@__crt_stdio_output@@AEAAX_KI_N@Z 0000000180045ac0     libucrt:output.obj
 0002:00012ac8       $unwind$??$?RV<lambda_7b91131dde12e1c3dfc74ff76b3f2eac>@@AEAV<lambda_dd75445284c072d0bd3768540cc698fa>@@V<lambda_16bc4ecb55b4718497c16bceaea2ceaf>@@@?$__crt_seh_guarded_call@H@@QEAAH$$QEAV<lambda_7b91131dde12e1c3dfc74ff76b3f2eac>@@AEAV<lambda_dd75445284c072d0bd3768540cc698fa>@@$$QEAV<lambda_16bc4ecb55b4718497c16bceaea2ceaf>@@@Z 0000000180045ac8     libucrt:output.obj
 0002:00012aec       $unwind$??$parse_integer@KV?$c_string_character_source@_W@__crt_strtox@@@__crt_strtox@@YAKQEAU__crt_locale_pointers@@V?$c_string_character_source@_W@0@H_N@Z 0000000180045aec     libucrt:atox.obj
 0002:00012b08       $unwind$?construct_ptd_array@@YAXQEAU__acrt_ptd@@@Z 0000000180045b08     libucrt:per_thread_data.obj
 0002:00012b10       $unwind$?destroy_ptd_array@@YAXQEAU__acrt_ptd@@@Z 0000000180045b10     libucrt:per_thread_data.obj
 0002:00012b18       $unwind$??$?RV<lambda_72d1df2b273a38828b1ce30cbf4cdab5>@@AEAV<lambda_876a65b173b8412d3a47c70a915b0cf4>@@V<lambda_41932305e351933ebe8f8be3ed8bb5dc>@@@?$__crt_seh_guarded_call@X@@QEAAX$$QEAV<lambda_72d1df2b273a38828b1ce30cbf4cdab5>@@AEAV<lambda_876a65b173b8412d3a47c70a915b0cf4>@@$$QEAV<lambda_41932305e351933ebe8f8be3ed8bb5dc>@@@Z 0000000180045b18     libucrt:per_thread_data.obj
 0002:00012b3c       $unwind$??$?RV<lambda_5e887d1dcbef67a5eb4283622ba103bf>@@AEAV<lambda_4466841279450cc726390878d4a41900>@@V<lambda_341c25c0346d94847f1f3c463c57e077>@@@?$__crt_seh_guarded_call@X@@QEAAX$$QEAV<lambda_5e887d1dcbef67a5eb4283622ba103bf>@@AEAV<lambda_4466841279450cc726390878d4a41900>@@$$QEAV<lambda_341c25c0346d94847f1f3c463c57e077>@@@Z 0000000180045b3c     libucrt:per_thread_data.obj
 0002:00012b60       $unwind$??$?RV<lambda_46352004c1216016012b18bd6f87e700>@@AEAV<lambda_3bd07e1a1191394380780325891bf33f>@@V<lambda_334532d3f185bcaa59b5be82d7d22bff>@@@?$__crt_seh_guarded_call@X@@QEAAX$$QEAV<lambda_46352004c1216016012b18bd6f87e700>@@AEAV<lambda_3bd07e1a1191394380780325891bf33f>@@$$QEAV<lambda_334532d3f185bcaa59b5be82d7d22bff>@@@Z 0000000180045b60     libucrt:per_thread_data.obj
 0002:00012b84       $unwind$??$?RV<lambda_fb3a7dec4e47f37f22dae91bb15c9095>@@AEAV<lambda_698284760c8add0bfb0756c19673e34b>@@V<lambda_dfb8eca1e75fef3034a8fb18dd509707>@@@?$__crt_seh_guarded_call@X@@QEAAX$$QEAV<lambda_fb3a7dec4e47f37f22dae91bb15c9095>@@AEAV<lambda_698284760c8add0bfb0756c19673e34b>@@$$QEAV<lambda_dfb8eca1e75fef3034a8fb18dd509707>@@@Z 0000000180045b84     libucrt:per_thread_data.obj
 0002:00012ba8       $unwind$fflush             0000000180045ba8     libucrt:fflush.obj
 0002:00012bcc       $unwind$common_flush_all   0000000180045bcc     libucrt:fflush.obj
 0002:00012c08       $unwind$setvbuf            0000000180045c08     libucrt:setvbuf.obj
 0002:00012c10       $unwind$??$?RV<lambda_7a5ef57ff966f610505f1d28a3d40618>@@AEAV<lambda_b721fa326cdb32351d23dfa67958c160>@@V<lambda_5e0fb27672408a07956fe59e48ccb2aa>@@@?$__crt_seh_guarded_call@H@@QEAAH$$QEAV<lambda_7a5ef57ff966f610505f1d28a3d40618>@@AEAV<lambda_b721fa326cdb32351d23dfa67958c160>@@$$QEAV<lambda_5e0fb27672408a07956fe59e48ccb2aa>@@@Z 0000000180045c10     libucrt:setvbuf.obj
 0002:00012c34       $unwind$__acrt_get_sigabrt_handler 0000000180045c34     libucrt:signal.obj
 0002:00012c3c       $unwind$raise              0000000180045c3c     libucrt:signal.obj
 0002:00012c68       $unwind$??$?RV<lambda_c36588078e9f5dfd39652860aa6b3aaf>@@AEAV<lambda_ec61778202f4f5fc7e7711acc23c3bca>@@V<lambda_dc9d2797ccde5d239b4a0efae8ebd7db>@@@?$__crt_seh_guarded_call@P6AXH@Z@@QEAAP6AXH@Z$$QEAV<lambda_c36588078e9f5dfd39652860aa6b3aaf>@@AEAV<lambda_ec61778202f4f5fc7e7711acc23c3bca>@@$$QEAV<lambda_dc9d2797ccde5d239b4a0efae8ebd7db>@@@Z 0000000180045c68     libucrt:signal.obj
 0002:00012c8c       $unwind$_tolower_l         0000000180045c8c     libucrt:tolower_toupper.obj
 0002:00012c9c       $unwind$__acrt_uninitialize_locale 0000000180045c9c     libucrt:wsetlocale.obj
 0002:00012cbc       $unwind$__acrt_initialize_winapi_thunks 0000000180045cbc     libucrt:winapi_thunks.obj
 0002:00012cc4       $unwind$__acrt_LCMapStringEx 0000000180045cc4     libucrt:winapi_thunks.obj
 0002:00012cc4       $unwind$__acrt_show_wide_message_box 0000000180045cc4     libucrt:crtmbox.obj
 0002:00012cc4       $unwind$_mbtowc_l          0000000180045cc4     libucrt:mbtowc.obj
 0002:00012cdc       $unwind$__acrt_is_interactive 0000000180045cdc     libucrt:winapi_thunks.obj
 0002:00012cf0       $unwind$??$common_expand_argv_wildcards@D@@YAHQEAPEADQEAPEAPEAD@Z 0000000180045cf0     libucrt:argv_wildcards.obj
 0002:00012d08       $unwind$??$copy_and_add_argument_to_buffer@D@@YAHQEBD0_KAEAV?$argument_list@D@?A0xca0879c4@@@Z 0000000180045d08     libucrt:argv_wildcards.obj
 0002:00012d24       $unwind$??$expand_argument_wildcards@D@@YAHQEAD0AEAV?$argument_list@D@?A0xca0879c4@@@Z 0000000180045d24     libucrt:argv_wildcards.obj
 0002:00012d44       $unwind$__acrt_update_thread_multibyte_data 0000000180045d44     libucrt:mbctype.obj
 0002:00012d68       $unwind$_setmbcp_nolock    0000000180045d68     libucrt:mbctype.obj
 0002:00012d88       $unwind$?setSBUpLow@@YAXPEAU__crt_multibyte_data@@@Z 0000000180045d88     libucrt:mbctype.obj
 0002:00012da4       $unwind$?setmbcp_internal@@YAHH_N@Z 0000000180045da4     libucrt:mbctype.obj
 0002:00012db4       $unwind$??$?RV<lambda_99476a1ad63dd22509b5d3e65b0ffc95>@@AEAV<lambda_ad1ced32f4ac17aa236e5ef05d6b3b7c>@@V<lambda_f7424dd8d45958661754dc4f2697e9c3>@@@?$__crt_seh_guarded_call@X@@QEAAX$$QEAV<lambda_99476a1ad63dd22509b5d3e65b0ffc95>@@AEAV<lambda_ad1ced32f4ac17aa236e5ef05d6b3b7c>@@$$QEAV<lambda_f7424dd8d45958661754dc4f2697e9c3>@@@Z 0000000180045db4     libucrt:mbctype.obj
 0002:00012dd8       $unwind$?x_ismbbtype_l@@YAHPEAU__crt_locale_pointers@@IHH@Z 0000000180045dd8     libucrt:ismbbyte.obj
 0002:00012dd8       $unwind$_stricmp_l         0000000180045dd8     libucrt:stricmp.obj
 0002:00012de8       $unwind$?fp_format_f_internal@@YAHQEAD_KHQEAU_strflt@@_NQEAU__crt_locale_pointers@@@Z 0000000180045de8     libucrt:cvt.obj
 0002:00012de8       $unwind$__dcrt_get_narrow_environment_from_os 0000000180045de8     libucrt:get_environment_from_os.obj
 0002:00012e00       $unwind$__acrt_initialize_lowio 0000000180045e00     libucrt:ioinit.obj
 0002:00012e20       $unwind$?initialize_inherited_file_handles_nolock@@YAXXZ 0000000180045e20     libucrt:ioinit.obj
 0002:00012e3c       $unwind$__vcrt_uninitialize_winapi_thunks 0000000180045e3c     libvcruntime:winapi_downlevel.obj
 0002:00012e3c       $unwind$__acrt_stdio_end_temporary_buffering_nolock 0000000180045e3c     libucrt:_sftbuf.obj
 0002:00012e44       $unwind$_isleadbyte_l      0000000180045e44     libucrt:_wctype.obj
 0002:00012e44       $unwind$?getSystemCP@@YAHH@Z 0000000180045e44     libucrt:mbctype.obj
 0002:00012e44       $unwind$isdigit            0000000180045e44     libucrt:_ctype.obj
 0002:00012e4c       $unwind$_wctomb_s_l        0000000180045e4c     libucrt:wctomb.obj
 0002:00012e5c       $unwind$wcsnlen            0000000180045e5c     libucrt:strnlen.obj
 0002:00012e64       $unwind$__acrt_fp_format   0000000180045e64     libucrt:cvt.obj
 0002:00012e80       $unwind$?fp_format_nan_or_infinity@@YAHW4__acrt_fp_class@@_NPEAD_K1@Z 0000000180045e80     libucrt:cvt.obj
 0002:00012e94       $unwind$?fp_format_e_internal@@YAHQEAD_KH_NIQEAU_strflt@@2QEAU__crt_locale_pointers@@@Z 0000000180045e94     libucrt:cvt.obj
 0002:00012eac       $unwind$?fp_format_e@@YAHQEBNQEAD_K12H_NIQEAU__crt_locale_pointers@@@Z 0000000180045eac     libucrt:cvt.obj
 0002:00012ec0       $unwind$?fp_format_a@@YAHQEBNPEAD_KQEAD2H_NIQEAU__crt_locale_pointers@@@Z 0000000180045ec0     libucrt:cvt.obj
 0002:00012edc       $unwind$?fp_format_g@@YAHQEBNQEAD_K12H_NIQEAU__crt_locale_pointers@@@Z 0000000180045edc     libucrt:cvt.obj
 0002:00012ef0       $unwind$_fputwc_nolock     0000000180045ef0     libucrt:fputwc.obj
 0002:00012f0c       $unwind$_isctype_l         0000000180045f0c     libucrt:isctype.obj
 0002:00012f28       $unwind$__acrt_update_thread_locale_data 0000000180045f28     libucrt:locale_refcounting.obj
 0002:00012f4c       $unwind$_fcloseall         0000000180045f4c     libucrt:closeall.obj
 0002:00012f70       $unwind$??$?RV<lambda_b521505b218e5242e90febf6bfebc422>@@AEAV<lambda_6978c1fb23f02e42e1d9e99668cc68aa>@@V<lambda_314360699dd331753a4119843814e9a7>@@@?$__crt_seh_guarded_call@H@@QEAAH$$QEAV<lambda_b521505b218e5242e90febf6bfebc422>@@AEAV<lambda_6978c1fb23f02e42e1d9e99668cc68aa>@@$$QEAV<lambda_314360699dd331753a4119843814e9a7>@@@Z 0000000180045f70     libucrt:commit.obj
 0002:00012f94       $unwind$_write             0000000180045f94     libucrt:write.obj
 0002:00012fc4       $unwind$_write_nolock      0000000180045fc4     libucrt:write.obj
 0002:00012fdc       $unwind$?write_double_translated_ansi_nolock@@YA?AUwrite_result@?A0x9c548279@@HQEBDI@Z 0000000180045fdc     libucrt:write.obj
 0002:00012ffc       $unwind$?write_text_utf16le_nolock@@YA?AUwrite_result@?A0x9c548279@@HQEBDI@Z 0000000180045ffc     libucrt:write.obj
 0002:00012ffc       $unwind$?write_text_ansi_nolock@@YA?AUwrite_result@?A0x9c548279@@HQEBDI@Z 0000000180045ffc     libucrt:write.obj
 0002:0001301c       $unwind$?write_text_utf8_nolock@@YA?AUwrite_result@?A0x9c548279@@HQEBDI@Z 000000018004601c     libucrt:write.obj
 0002:00013040       $unwind$__acrt_LCMapStringA 0000000180046040     libucrt:lcmapstringa.obj
 0002:00013050       $unwind$?__acrt_LCMapStringA_stat@@YAHPEAU__crt_locale_pointers@@PEB_WKPEBDHPEADHHH@Z 0000000180046050     libucrt:lcmapstringa.obj
 0002:00013078       $unwind$__acrt_locale_free_monetary 0000000180046078     libucrt:initmon.obj
 0002:00013080       $unwind$__acrt_locale_free_numeric 0000000180046080     libucrt:initnum.obj
 0002:00013080       $unwind$__acrt_locale_free_lc_time_if_unreferenced 0000000180046080     libucrt:locale_refcounting.obj
 0002:00013080       $unwind$_free_base         0000000180046080     libucrt:free_base.obj
 0002:00013080       $unwind$?destroy_fls@@YAXPEAX@Z 0000000180046080     libucrt:per_thread_data.obj
 0002:00013088       $unwind$__acrt_locale_free_time 0000000180046088     libucrt:inittime.obj
 0002:00013098       $unwind$__acrt_GetStringTypeA 0000000180046098     libucrt:getstringtypea.obj
 0002:000130c0       $unwind$?GetTableIndexFromLocaleName@@YAHPEB_W@Z 00000001800460c0     libucrt:lcidtoname_downlevel.obj
 0002:000130d8       $unwind$qsort              00000001800460d8     libucrt:qsort.obj
 0002:000130f0       $chain$4$qsort             00000001800460f0     libucrt:qsort.obj
 0002:00013114       $chain$5$qsort             0000000180046114     libucrt:qsort.obj
 0002:00013124       $unwind$?shortsort@@YAXPEAD0_KP6AHPEBX2@Z@Z 0000000180046124     libucrt:qsort.obj
 0002:00013134       $chain$2$?shortsort@@YAXPEAD0_KP6AHPEBX2@Z@Z 0000000180046134     libucrt:qsort.obj
 0002:00013150       $chain$3$?shortsort@@YAXPEAD0_KP6AHPEBX2@Z@Z 0000000180046150     libucrt:qsort.obj
 0002:00013160       $unwind$strpbrk            0000000180046160     libucrt:strpbrk.obj
 0002:00013170       $unwind$_mbsdec_l          0000000180046170     libucrt:mbsdec.obj
 0002:0001317c       $unwind$__vcrt_InitializeCriticalSectionEx 000000018004617c     libvcruntime:winapi_downlevel.obj
 0002:0001317c       $unwind$_recalloc_base     000000018004617c     libucrt:recalloc.obj
 0002:0001317c       $unwind$__acrt_InitializeCriticalSectionEx 000000018004617c     libucrt:winapi_thunks.obj
 0002:0001317c       $unwind$_wassert           000000018004617c     libucrt:assert.obj
 0002:0001317c       $unwind$?dllmain_raw@@YAHQEAUHINSTANCE__@@KQEAX@Z 000000018004617c     LIBCMT:dll_dllmain.obj
 0002:0001317c       $unwind$__scrt_dllmain_exception_filter 000000018004617c     LIBCMT:utility.obj
 0002:0001317c       $unwind$__acrt_free_locale 000000018004617c     libucrt:locale_refcounting.obj
 0002:0001317c       $unwind$?expand_if_necessary@?$argument_list@D@?A0xca0879c4@@AEAAHXZ 000000018004617c     libucrt:argv_wildcards.obj
 0002:0001317c       $unwind$_seh_filter_exe    000000018004617c     libucrt:exception_filter.obj
 0002:0001317c       $unwind$?setSBCS@@YAXPEAU__crt_multibyte_data@@@Z 000000018004617c     libucrt:mbctype.obj
 0002:0001317c       $unwind$__acrt_execute_initializers 000000018004617c     libucrt:shared_initialization.obj
 0002:0001317c       $unwind$??$ensure_buffer_is_big_enough@D@formatting_buffer@__crt_stdio_output@@QEAA_N_K@Z 000000018004617c     libucrt:output.obj
 0002:0001317c       $unwind$?_ExecutionInCatch@@YAHPEAU_xDISPATCHER_CONTEXT@@PEBU_s_FuncInfo@@@Z 000000018004617c     libvcruntime:trnsctrl.obj
 0002:0001317c       $unwind$__acrt_lowio_create_handle_array 000000018004617c     libucrt:osfinfo.obj
 0002:00013190       $unwind$__acrt_lowio_destroy_handle_array 0000000180046190     libucrt:osfinfo.obj
 0002:000131a0       $unwind$__acrt_lowio_ensure_fh_exists 00000001800461a0     libucrt:osfinfo.obj
 0002:000131cc       $unwind$__acrt_fltout      00000001800461cc     libucrt:cfout.obj
 0002:000131ec       $unwind$?divide@__crt_strtox@@YA_KAEAUbig_integer@1@AEBU21@@Z 00000001800461ec     libucrt:cfout.obj
 0002:0001320c       $chain$5$?divide@__crt_strtox@@YA_KAEAUbig_integer@1@AEBU21@@Z 000000018004620c     libucrt:cfout.obj
 0002:00013220       $chain$6$?divide@__crt_strtox@@YA_KAEAUbig_integer@1@AEBU21@@Z 0000000180046220     libucrt:cfout.obj
 0002:00013230       $unwind$??$write_buffer_nolock@D@@YA_NDV__crt_stdio_stream@@@Z 0000000180046230     libucrt:_flsbuf.obj
 0002:00013240       $unwind$??$write_buffer_nolock@_W@@YA_N_WV__crt_stdio_stream@@@Z 0000000180046240     libucrt:_flsbuf.obj
 0002:00013250       $unwind$fclose             0000000180046250     libucrt:fclose.obj
 0002:00013274       $unwind$??$common_lseek@_J@@YA_JH_JH@Z 0000000180046274     libucrt:lseek.obj
 0002:000132a8       $xdatasym                  00000001800462a8     libucrt:log10.obj
 0002:000132b4       $unwind$_commit            00000001800462b4     libucrt:commit.obj
 0002:000132b4       $unwind$_close             00000001800462b4     libucrt:close.obj
 0002:000132bc       $unwind$??$?RV<lambda_bfedae4ebbf01fab1bb6dcc6a9e276e0>@@AEAV<lambda_2fe9b910cf3cbf4a0ab98a02ba45b3ec>@@V<lambda_237c231691f317818eb88cc1d5d642d6>@@@?$__crt_seh_guarded_call@H@@QEAAH$$QEAV<lambda_bfedae4ebbf01fab1bb6dcc6a9e276e0>@@AEAV<lambda_2fe9b910cf3cbf4a0ab98a02ba45b3ec>@@$$QEAV<lambda_237c231691f317818eb88cc1d5d642d6>@@@Z 00000001800462bc     libucrt:close.obj
 0002:000132e0       $unwind$common_control87   00000001800462e0     libucrt:ieee.obj
 0002:00013310       $unwind$_call_matherr      0000000180046310     libucrt:libm_error.obj
 0002:00013318       $unwind$_handle_error      0000000180046318     libucrt:libm_error.obj
 0002:00013338       $unwind$__acrt_initialize_fma3 0000000180046338     libucrt:fma3_available.obj
 0002:00013340       $unwind$_log_special_common 0000000180046340     libucrt:log_special.obj
 0002:00013350       $xdatasym                  0000000180046350     libucrt:fpsr.obj
 0002:00013358       $unwind$?__scrt_throw_std_bad_array_new_length@@YAXXZ 0000000180046358     LIBCMT:throw_bad_alloc.obj
 0002:00013358       $unwind$?__scrt_throw_std_bad_alloc@@YAXXZ 0000000180046358     LIBCMT:throw_bad_alloc.obj
 0002:00013358       $unwind$?_Xbad_alloc@std@@YAXXZ 0000000180046358     libcpmt:xthrow.obj
 0002:00013358       $unwind$_raise_exc         0000000180046358     libucrt:fpexcept.obj
 0002:00013358       $unwind$?_Xlength_error@std@@YAXPEBD@Z 0000000180046358     libcpmt:xthrow.obj
 0002:00013358       $unwind$__dcrt_lowio_initialize_console_output 0000000180046358     libucrt:initcon.obj
 0002:00013358       $unwind$?_Xout_of_range@std@@YAXPEBD@Z 0000000180046358     libcpmt:xthrow.obj
 0002:00013360       $unwind$_raise_exc_ex      0000000180046360     libucrt:fpexcept.obj
 0002:00013374       $unwind$_ctrlfp            0000000180046374     libucrt:fpctrl.obj
 0002:0001339c       $unwind$?DloadObtainSection@@YAPEAXPEAK0@Z 000000018004639c     DelayImp:delayhlp.obj
 0002:000133ac       $unwind$?DloadMakePermanentImageCommit@@YAXPEAX_K@Z 00000001800463ac     DelayImp:delayhlp.obj
 0002:000133b8       $unwind$?DloadProtectSection@@YAXKPEAK@Z 00000001800463b8     DelayImp:delayhlp.obj
 0002:000133c8       $unwind$__delayLoadHelper2 00000001800463c8     DelayImp:delayhlp.obj
 0002:000133e0       $unwind$_IsNonwritableInCurrentImage 00000001800463e0     LIBCMT:pesect.obj
 0002:00013404       $unwind$__GSHandlerCheckCommon 0000000180046404     LIBCMT:_gshandler_.obj
 0002:00013410       $xdatasym                  0000000180046410     LIBCMT:_chkstk_.obj
 0002:00013418       $xdatasym                  0000000180046418     libvcruntime:memcmp.obj
 0002:0001341c       $unwind$strrchr            000000018004641c     libvcruntime:strrchr.obj
 0002:00013424       $unwind$__acrt_MessageBoxW 0000000180046424     libucrt:winapi_thunks.obj
 0002:00013424       $unwind$_initterm          0000000180046424     libucrt:initterm.obj
 0002:00013424       $unwind$?process@?$output_processor@_WV?$string_output_adapter@_W@__crt_stdio_output@@V?$standard_base@_WV?$string_output_adapter@_W@__crt_stdio_output@@@2@@__crt_stdio_output@@QEAAHXZ 0000000180046424     libucrt:output.obj
 0002:00013424       $unwind$__GSHandlerCheck_EH 0000000180046424     LIBCMT:gshandlereh.obj
 0002:00013424       $unwind$__acrt_initialize_stdio 0000000180046424     libucrt:_file.obj
 0002:00013424       $unwind$__TypeMatch        0000000180046424     libvcruntime:frame.obj
 0002:00015c30       .edata                     0000000180048c30     nodessl.exp
 0002:00015c58       rgpv                       0000000180048c58     nodessl.exp
 0002:00015c5c       rgszName                   0000000180048c5c     nodessl.exp
 0002:00015c60       rgwOrd                     0000000180048c60     nodessl.exp
 0002:00015c62       szName                     0000000180048c62     nodessl.exp
 0002:00015c6f       $N00001                    0000000180048c6f     nodessl.exp
 0002:00015f4c       .idata$6                   0000000180048f4c     kernel32:KERNEL32.dll
 0003:00000030       ?__vcrt_flsindex@@3KA      000000018004a030     libvcruntime:per_thread_data.obj
 0003:00000044       __acrt_flsindex            000000018004a044     libucrt:per_thread_data.obj
 0003:00000048       errno_no_memory            000000018004a048     libucrt:errno.obj
 0003:0000004c       doserrno_no_memory         000000018004a04c     libucrt:errno.obj
 0003:00000500       __rgctypeflag              000000018004a500     libucrt:mbctype.obj
 0003:00000510       __rgcode_page_info         000000018004a510     libucrt:mbctype.obj
 0003:00000908       ?dazSupported@?1??common_control87@@9@9 000000018004a908     libucrt:ieee.obj
 0003:00000910       ?dazSupported@?1??_ctrlfp@@9@9 000000018004a910     libucrt:fpctrl.obj
 0003:00000930       _module                    000000018004a930     main.obj
 0003:00001068       ?_Tss_mutex@@3U_RTL_CRITICAL_SECTION@@A 000000018004b068     LIBCMT:thread_safe_statics.obj
 0003:00001090       ?_Tss_cv@@3U_RTL_CONDITION_VARIABLE@@A 000000018004b090     LIBCMT:thread_safe_statics.obj
 0003:00001098       ?_Tss_event@@3PEAXEA       000000018004b098     LIBCMT:thread_safe_statics.obj
 0003:000010a0       ?encoded_sleep_condition_variable_cs@@3P6AHPEAU_RTL_CONDITION_VARIABLE@@PEAU_RTL_CRITICAL_SECTION@@K@ZEA 000000018004b0a0     LIBCMT:thread_safe_statics.obj
 0003:000010a8       ?encoded_wake_all_condition_variable@@3P6AXPEAU_RTL_CONDITION_VARIABLE@@@ZEA 000000018004b0a8     LIBCMT:thread_safe_statics.obj
 0003:000010c0       ?module_local_atexit_table@@3U_onexit_table_t@@A 000000018004b0c0     LIBCMT:utility.obj
 0003:000010d8       ?module_local_at_quick_exit_table@@3U_onexit_table_t@@A 000000018004b0d8     LIBCMT:utility.obj
 0003:000010f0       ?is_initialized_as_dll@@3_NA 000000018004b0f0     LIBCMT:utility.obj
 0003:000010f4       ?__proc_attached@@3HA      000000018004b0f4     LIBCMT:dll_dllmain.obj
 0003:00001100       GS_ExceptionRecord         000000018004b100     LIBCMT:gs_report.obj
 0003:000011a0       GS_ContextRecord           000000018004b1a0     LIBCMT:gs_report.obj
 0003:000016b0       ?module_handles@@3PAPEAUHINSTANCE__@@A 000000018004b6b0     libvcruntime:winapi_downlevel.obj
 0003:000016d0       ?encoded_function_pointers@@3PAPEAXA 000000018004b6d0     libvcruntime:winapi_downlevel.obj
 0003:00001720       ?__vcrt_startup_thread_ptd@@3U__vcrt_ptd@@A 000000018004b720     libvcruntime:per_thread_data.obj
 0003:000017a0       __vcrt_lock_table          000000018004b7a0     libvcruntime:locks.obj
 0003:000017c8       __vcrt_locks_initialized   000000018004b7c8     libvcruntime:locks.obj
 0003:00001818       ?heap@@3V_HeapManager@@A   000000018004b818     libvcruntime:undname.obj
 0003:00001840       __acrt_invalid_parameter_handler 000000018004b840     libucrt:invalid_parameter.obj
 0003:00001848       __acrt_new_handler         000000018004b848     libucrt:new_handler.obj
 0003:00001850       c_termination_complete     000000018004b850     libucrt:exit.obj
 0003:00001858       thread_local_exit_callback_func 000000018004b858     libucrt:exit.obj
 0003:00001860       ?c_exit_complete@?5??common_exit@@YAXHW4_crt_exit_cleanup_mode@@W4_crt_exit_return_mode@@@Z@4_NA 000000018004b860     libucrt:exit.obj
 0003:00001870       ?program_name@?5???$common_configure_argv@D@@YAHW4_crt_argv_mode@@@Z@4PADA 000000018004b870     libucrt:argv_parsing.obj
 0003:000019c8       __acrt_app_type            000000018004b9c8     libucrt:report_runtime_error.obj
 0003:000019cc       __acrt_error_mode          000000018004b9cc     libucrt:set_error_mode.obj
 0003:000019e8       ctrlc_action               000000018004b9e8     libucrt:signal.obj
 0003:000019f0       ctrlbreak_action           000000018004b9f0     libucrt:signal.obj
 0003:000019f8       abort_action               000000018004b9f8     libucrt:signal.obj
 0003:00001a00       term_action                000000018004ba00     libucrt:signal.obj
 0003:00001a20       __acrt_lock_table          000000018004ba20     libucrt:locks.obj
 0003:00001c28       __acrt_locks_initialized   000000018004bc28     libucrt:locks.obj
 0003:00001c30       module_handles             000000018004bc30     libucrt:winapi_thunks.obj
 0003:00001cd0       encoded_function_pointers  000000018004bcd0     libucrt:winapi_thunks.obj
 0003:00001dd0       ?state_cache@?1??__acrt_is_packaged_app@@9@4JA 000000018004bdd0     libucrt:winapi_thunks.obj
 0003:00001dec       fSystemSet                 000000018004bdec     libucrt:mbctype.obj
 0003:00001df8       ?initialized@?1??__acrt_initialize_multibyte@@9@4_NA 000000018004bdf8     libucrt:mbctype.obj
 0003:00002238       user_matherr               000000018004c238     libucrt:matherr.obj
 0003:00002250       __acrt_global_new_mode     000000018004c250     libucrt:new_mode.obj
 0003:00002258       enable_percent_n           000000018004c258     libucrt:printf_count_output.obj
 0004:00000000       $pdata$?EcNamedCurves@@YAXV?$Local@VObject@v8@@@v8@@@Z 000000018004d000     main.obj
 0004:0000000c       $pdata$?RsaPublicExponent@@YAXV?$Local@VObject@v8@@@v8@@@Z 000000018004d00c     main.obj
 0004:00000018       $pdata$?KeyType@@YAXV?$Local@VObject@v8@@@v8@@@Z 000000018004d018     main.obj
 0004:00000024       $pdata$?InitModule@@YAXV?$Local@VObject@v8@@@v8@@@Z 000000018004d024     main.obj
 0004:00000030       $pdata$?BN_bn2bin_padded@@YAHPEAE_KPEBUbignum_st@@@Z 000000018004d030     bn.obj
 0004:0000003c       $pdata$0$?BN_bn2bin_padded@@YAHPEAE_KPEBUbignum_st@@@Z 000000018004d03c     bn.obj
 0004:00000048       $pdata$3$?BN_bn2bin_padded@@YAHPEAE_KPEBUbignum_st@@@Z 000000018004d048     bn.obj
 0004:00000054       $pdata$5$?BN_bn2bin_padded@@YAHPEAE_KPEBUbignum_st@@@Z 000000018004d054     bn.obj
 0004:00000060       $pdata$??_Gruntime_error@std@@UEAAPEAXI@Z 000000018004d060     key_exp.obj
 0004:00000060       $pdata$??_Gexception@stdext@@UEAAPEAXI@Z 000000018004d060     key_exp.obj
 0004:0000006c       $pdata$??_G_Ref_count_base@std@@UEAAPEAXI@Z 000000018004d06c     key_exp.obj
 0004:00000078       $pdata$?KEY_export@@YA?AV?$shared_ptr@V?$basic_string@DU?$char_traits@D@std@@V?$allocator@D@2@@std@@@std@@PEAUevp_pkey_st@@P6AHPEAUbio_st@@0@Z@Z 000000018004d078     key_exp.obj
 0004:00000084       $pdata$?KEY_import@@YA?AV?$shared_ptr@V?$ScopedSSL@Uevp_pkey_st@@$1?ScopedEVP_PKEY_free@@YAXPEAX@Z@@@std@@PEAUbio_st@@P6APEAUevp_pkey_st@@0PEAPEAU4@@Z@Z 000000018004d084     key_exp.obj
 0004:00000090       $pdata$?KEY_export_spki@@YA?AV?$shared_ptr@V?$basic_string@DU?$char_traits@D@std@@V?$allocator@D@2@@std@@@std@@PEAUevp_pkey_st@@@Z 000000018004d090     key_exp.obj
 0004:0000009c       $pdata$?KEY_import_spki@@YA?AV?$shared_ptr@V?$ScopedSSL@Uevp_pkey_st@@$1?ScopedEVP_PKEY_free@@YAXPEAX@Z@@@std@@V?$shared_ptr@V?$basic_string@DU?$char_traits@D@std@@V?$allocator@D@2@@std@@@2@@Z 000000018004d09c     key_exp.obj
 0004:000000a8       $pdata$?KEY_export_pkcs8@@YA?AV?$shared_ptr@V?$basic_string@DU?$char_traits@D@std@@V?$allocator@D@2@@std@@@std@@PEAUevp_pkey_st@@@Z 000000018004d0a8     key_exp.obj
 0004:000000b4       $pdata$?KEY_import_pkcs8@@YA?AV?$shared_ptr@V?$ScopedSSL@Uevp_pkey_st@@$1?ScopedEVP_PKEY_free@@YAXPEAX@Z@@@std@@V?$shared_ptr@V?$basic_string@DU?$char_traits@D@std@@V?$allocator@D@2@@std@@@2@@Z 000000018004d0b4     key_exp.obj
 0004:000000c0       $pdata$??1?$shared_ptr@V?$basic_string@DU?$char_traits@D@std@@V?$allocator@D@2@@std@@@std@@QEAA@XZ 000000018004d0c0     key_exp.obj
 0004:000000c0       $pdata$??1?$shared_ptr@VJwkRsa@@@std@@QEAA@XZ 000000018004d0c0     rsa_jwk.obj
 0004:000000c0       $pdata$??1?$shared_ptr@VScopedPbkdf2@@@std@@QEAA@XZ 000000018004d0c0     w_pbkdf2.obj
 0004:000000c0       $pdata$??1?$shared_ptr@VScopedHMAC@@@std@@QEAA@XZ 000000018004d0c0     hmac_gen.obj
 0004:000000c0       $pdata$??1?$shared_ptr@VJwkEc@@@std@@QEAA@XZ 000000018004d0c0     ec_jwk.obj
 0004:000000c0       $pdata$??1?$shared_ptr@V?$ScopedSSL@Uevp_pkey_st@@$1?ScopedEVP_PKEY_free@@YAXPEAX@Z@@@std@@QEAA@XZ 000000018004d0c0     key_exp.obj
 0004:000000c0       $pdata$??1?$shared_ptr@VScopedAES@@@std@@QEAA@XZ 000000018004d0c0     aes_gen.obj
 0004:000000cc       $pdata$0$??1?$shared_ptr@VScopedPbkdf2@@@std@@QEAA@XZ 000000018004d0cc     w_pbkdf2.obj
 0004:000000cc       $pdata$0$??1?$shared_ptr@VScopedAES@@@std@@QEAA@XZ 000000018004d0cc     aes_gen.obj
 0004:000000cc       $pdata$0$??1?$shared_ptr@VScopedHMAC@@@std@@QEAA@XZ 000000018004d0cc     hmac_gen.obj
 0004:000000cc       $pdata$0$??1?$shared_ptr@VJwkEc@@@std@@QEAA@XZ 000000018004d0cc     ec_jwk.obj
 0004:000000cc       $pdata$0$??1?$shared_ptr@V?$ScopedSSL@Uevp_pkey_st@@$1?ScopedEVP_PKEY_free@@YAXPEAX@Z@@@std@@QEAA@XZ 000000018004d0cc     key_exp.obj
 0004:000000cc       $pdata$0$??1?$shared_ptr@V?$basic_string@DU?$char_traits@D@std@@V?$allocator@D@2@@std@@@std@@QEAA@XZ 000000018004d0cc     key_exp.obj
 0004:000000cc       $pdata$0$??1?$shared_ptr@VJwkRsa@@@std@@QEAA@XZ 000000018004d0cc     rsa_jwk.obj
 0004:000000d8       $pdata$1$??1?$shared_ptr@VJwkEc@@@std@@QEAA@XZ 000000018004d0d8     ec_jwk.obj
 0004:000000d8       $pdata$1$??1?$shared_ptr@VScopedAES@@@std@@QEAA@XZ 000000018004d0d8     aes_gen.obj
 0004:000000d8       $pdata$1$??1?$shared_ptr@V?$ScopedSSL@Uevp_pkey_st@@$1?ScopedEVP_PKEY_free@@YAXPEAX@Z@@@std@@QEAA@XZ 000000018004d0d8     key_exp.obj
 0004:000000d8       $pdata$1$??1?$shared_ptr@V?$basic_string@DU?$char_traits@D@std@@V?$allocator@D@2@@std@@@std@@QEAA@XZ 000000018004d0d8     key_exp.obj
 0004:000000d8       $pdata$1$??1?$shared_ptr@VScopedHMAC@@@std@@QEAA@XZ 000000018004d0d8     hmac_gen.obj
 0004:000000d8       $pdata$1$??1?$shared_ptr@VJwkRsa@@@std@@QEAA@XZ 000000018004d0d8     rsa_jwk.obj
 0004:000000d8       $pdata$1$??1?$shared_ptr@VScopedPbkdf2@@@std@@QEAA@XZ 000000018004d0d8     w_pbkdf2.obj
 0004:000000e4       $pdata$??1?$ScopedSSL@Uec_group_st@@$1?ScopedEC_GROUP_free@@YAXPEAX@Z@@QEAA@XZ 000000018004d0e4     ec_jwk.obj
 0004:000000e4       $pdata$??1?$ScopedSSL@Uenv_md_ctx_st@@$1?ScopedEVP_MD_CTX_free@@YAXPEAX@Z@@QEAA@XZ 000000018004d0e4     rsa_pkcs1.obj
 0004:000000e4       $pdata$??1?$ScopedSSL@Uevp_pkey_ctx_st@@$1?ScopedEVP_PKEY_CTX_free@@YAXPEAX@Z@@QEAA@XZ 000000018004d0e4     rsa_oaep.obj
 0004:000000e4       $pdata$??1?$ScopedSSL@Ubignum_st@@$1?ScopedBIGNUM_free@@YAXPEAX@Z@@QEAA@XZ 000000018004d0e4     rsa_gen.obj
 0004:000000e4       $pdata$??1?$ScopedSSL@Uevp_cipher_ctx_st@@$1?ScopedEVP_CIPHER_CTX_free@@YAXPEAX@Z@@QEAA@XZ 000000018004d0e4     aes_ecb.obj
 0004:000000e4       $pdata$??1?$ScopedSSL@Ubignum_ctx@@$1?ScopedBN_CTX_free@@YAXPEAX@Z@@QEAA@XZ 000000018004d0e4     ec_jwk.obj
 0004:000000e4       $pdata$??1?$ScopedSSL@Ubio_st@@$1?ScopedBIO_free@@YAXPEAX@Z@@QEAA@XZ 000000018004d0e4     key_exp.obj
 0004:000000e4       $pdata$??1?$ScopedSSL@Uec_key_st@@$1?ScopedEC_KEY_free@@YAXPEAX@Z@@QEAA@XZ 000000018004d0e4     ec_gen.obj
 0004:000000e4       $pdata$??1?$ScopedSSL@Uevp_pkey_st@@$1?ScopedEVP_PKEY_free@@YAXPEAX@Z@@QEAA@XZ 000000018004d0e4     key_exp.obj
 0004:000000e4       $pdata$??1?$ScopedSSL@UECDSA_SIG_st@@$1?ScopedECDSA_SIG_free@@YAXPEAX@Z@@QEAA@XZ 000000018004d0e4     ec_dsa.obj
 0004:000000e4       $pdata$??1?$ScopedSSL@Ursa_st@@$1?ScopedRSA_free@@YAXPEAX@Z@@QEAA@XZ 000000018004d0e4     w_key.obj
 0004:000000f0       $pdata$??1?$basic_string@DU?$char_traits@D@std@@V?$allocator@D@2@@std@@QEAA@XZ 000000018004d0f0     key_exp.obj
 0004:000000fc       $pdata$?assign@?$basic_string@DU?$char_traits@D@std@@V?$allocator@D@2@@std@@QEAAAEAV12@PEBD_K@Z 000000018004d0fc     key_exp.obj
 0004:00000108       $pdata$?assign@?$basic_string@DU?$char_traits@D@std@@V?$allocator@D@2@@std@@QEAAAEAV12@AEBV12@_K1@Z 000000018004d108     key_exp.obj
 0004:00000114       $pdata$?erase@?$basic_string@DU?$char_traits@D@std@@V?$allocator@D@2@@std@@QEAAAEAV12@_K0@Z 000000018004d114     key_exp.obj
 0004:00000120       $pdata$?_Copy@?$basic_string@DU?$char_traits@D@std@@V?$allocator@D@2@@std@@QEAAX_K0@Z 000000018004d120     key_exp.obj
 0004:0000012c       $pdata$??$?0V?$basic_string@DU?$char_traits@D@std@@V?$allocator@D@2@@std@@@?$shared_ptr@V?$basic_string@DU?$char_traits@D@std@@V?$allocator@D@2@@std@@@std@@QEAA@PEAV?$basic_string@DU?$char_traits@D@std@@V?$allocator@D@2@@1@@Z 000000018004d12c     key_exp.obj
 0004:00000138       $pdata$??$?0V?$ScopedSSL@Uevp_pkey_st@@$1?ScopedEVP_PKEY_free@@YAXPEAX@Z@@@?$shared_ptr@V?$ScopedSSL@Uevp_pkey_st@@$1?ScopedEVP_PKEY_free@@YAXPEAX@Z@@@std@@QEAA@PEAV?$ScopedSSL@Uevp_pkey_st@@$1?ScopedEVP_PKEY_free@@YAXPEAX@Z@@@Z 000000018004d138     key_exp.obj
 0004:00000144       $pdata$?_Destroy@?$_Ref_count@V?$ScopedSSL@Uevp_pkey_st@@$1?ScopedEVP_PKEY_free@@YAXPEAX@Z@@@std@@EEAAXXZ 000000018004d144     key_exp.obj
 0004:00000150       $pdata$?_Destroy@?$_Ref_count@V?$basic_string@DU?$char_traits@D@std@@V?$allocator@D@2@@std@@@std@@EEAAXXZ 000000018004d150     key_exp.obj
 0004:0000015c       $pdata$??_G?$_Ref_count@VScopedHMAC@@@std@@UEAAPEAXI@Z 000000018004d15c     hmac_gen.obj
 0004:0000015c       $pdata$??_G?$_Ref_count@VJwkRsa@@@std@@UEAAPEAXI@Z 000000018004d15c     rsa_jwk.obj
 0004:0000015c       $pdata$??_G?$_Ref_count@VScopedPbkdf2@@@std@@UEAAPEAXI@Z 000000018004d15c     async_pbkdf2.obj
 0004:0000015c       $pdata$??_G?$_Ref_count@V?$ScopedSSL@Uevp_pkey_st@@$1?ScopedEVP_PKEY_free@@YAXPEAX@Z@@@std@@UEAAPEAXI@Z 000000018004d15c     key_exp.obj
 0004:0000015c       $pdata$??_G?$_Ref_count@VJwkEc@@@std@@UEAAPEAXI@Z 000000018004d15c     ec_jwk.obj
 0004:0000015c       $pdata$??_G?$_Ref_count@V?$basic_string@DU?$char_traits@D@std@@V?$allocator@D@2@@std@@@std@@UEAAPEAXI@Z 000000018004d15c     key_exp.obj
 0004:0000015c       $pdata$??_G?$_Ref_count@VScopedAES@@@std@@UEAAPEAXI@Z 000000018004d15c     aes_gen.obj
 0004:00000168       $pdata$?_Reset0@?$_Ptr_base@VJwkRsa@@@std@@QEAAXPEAVJwkRsa@@PEAV_Ref_count_base@2@@Z 000000018004d168     rsa_jwk.obj
 0004:00000168       $pdata$?_Reset0@?$_Ptr_base@VJwkEc@@@std@@QEAAXPEAVJwkEc@@PEAV_Ref_count_base@2@@Z 000000018004d168     ec_jwk.obj
 0004:00000168       $pdata$?_Reset0@?$_Ptr_base@V?$ScopedSSL@Uevp_pkey_st@@$1?ScopedEVP_PKEY_free@@YAXPEAX@Z@@@std@@QEAAXPEAV?$ScopedSSL@Uevp_pkey_st@@$1?ScopedEVP_PKEY_free@@YAXPEAX@Z@@PEAV_Ref_count_base@2@@Z 000000018004d168     key_exp.obj
 0004:00000168       $pdata$?_Reset0@?$_Ptr_base@VScopedAES@@@std@@QEAAXPEAVScopedAES@@PEAV_Ref_count_base@2@@Z 000000018004d168     aes_gen.obj
 0004:00000168       $pdata$?_Reset0@?$_Ptr_base@V?$basic_string@DU?$char_traits@D@std@@V?$allocator@D@2@@std@@@std@@QEAAXPEAV?$basic_string@DU?$char_traits@D@std@@V?$allocator@D@2@@2@PEAV_Ref_count_base@2@@Z 000000018004d168     key_exp.obj
 0004:00000168       $pdata$?_Reset0@?$_Ptr_base@VScopedPbkdf2@@@std@@QEAAXPEAVScopedPbkdf2@@PEAV_Ref_count_base@2@@Z 000000018004d168     w_pbkdf2.obj
 0004:00000168       $pdata$?_Reset0@?$_Ptr_base@VScopedHMAC@@@std@@QEAAXPEAVScopedHMAC@@PEAV_Ref_count_base@2@@Z 000000018004d168     hmac_gen.obj
 0004:00000174       $pdata$0$?_Reset0@?$_Ptr_base@VScopedPbkdf2@@@std@@QEAAXPEAVScopedPbkdf2@@PEAV_Ref_count_base@2@@Z 000000018004d174     w_pbkdf2.obj
 0004:00000174       $pdata$0$?_Reset0@?$_Ptr_base@VJwkRsa@@@std@@QEAAXPEAVJwkRsa@@PEAV_Ref_count_base@2@@Z 000000018004d174     rsa_jwk.obj
 0004:00000174       $pdata$0$?_Reset0@?$_Ptr_base@V?$ScopedSSL@Uevp_pkey_st@@$1?ScopedEVP_PKEY_free@@YAXPEAX@Z@@@std@@QEAAXPEAV?$ScopedSSL@Uevp_pkey_st@@$1?ScopedEVP_PKEY_free@@YAXPEAX@Z@@PEAV_Ref_count_base@2@@Z 000000018004d174     key_exp.obj
 0004:00000174       $pdata$0$?_Reset0@?$_Ptr_base@VScopedAES@@@std@@QEAAXPEAVScopedAES@@PEAV_Ref_count_base@2@@Z 000000018004d174     aes_gen.obj
 0004:00000174       $pdata$0$?_Reset0@?$_Ptr_base@VJwkEc@@@std@@QEAAXPEAVJwkEc@@PEAV_Ref_count_base@2@@Z 000000018004d174     ec_jwk.obj
 0004:00000174       $pdata$0$?_Reset0@?$_Ptr_base@VScopedHMAC@@@std@@QEAAXPEAVScopedHMAC@@PEAV_Ref_count_base@2@@Z 000000018004d174     hmac_gen.obj
 0004:00000174       $pdata$0$?_Reset0@?$_Ptr_base@V?$basic_string@DU?$char_traits@D@std@@V?$allocator@D@2@@std@@@std@@QEAAXPEAV?$basic_string@DU?$char_traits@D@std@@V?$allocator@D@2@@2@PEAV_Ref_count_base@2@@Z 000000018004d174     key_exp.obj
 0004:00000180       $pdata$1$?_Reset0@?$_Ptr_base@V?$basic_string@DU?$char_traits@D@std@@V?$allocator@D@2@@std@@@std@@QEAAXPEAV?$basic_string@DU?$char_traits@D@std@@V?$allocator@D@2@@2@PEAV_Ref_count_base@2@@Z 000000018004d180     key_exp.obj
 0004:00000180       $pdata$1$?_Reset0@?$_Ptr_base@VScopedPbkdf2@@@std@@QEAAXPEAVScopedPbkdf2@@PEAV_Ref_count_base@2@@Z 000000018004d180     w_pbkdf2.obj
 0004:00000180       $pdata$1$?_Reset0@?$_Ptr_base@VScopedAES@@@std@@QEAAXPEAVScopedAES@@PEAV_Ref_count_base@2@@Z 000000018004d180     aes_gen.obj
 0004:00000180       $pdata$1$?_Reset0@?$_Ptr_base@V?$ScopedSSL@Uevp_pkey_st@@$1?ScopedEVP_PKEY_free@@YAXPEAX@Z@@@std@@QEAAXPEAV?$ScopedSSL@Uevp_pkey_st@@$1?ScopedEVP_PKEY_free@@YAXPEAX@Z@@PEAV_Ref_count_base@2@@Z 000000018004d180     key_exp.obj
 0004:00000180       $pdata$1$?_Reset0@?$_Ptr_base@VJwkRsa@@@std@@QEAAXPEAVJwkRsa@@PEAV_Ref_count_base@2@@Z 000000018004d180     rsa_jwk.obj
 0004:00000180       $pdata$1$?_Reset0@?$_Ptr_base@VJwkEc@@@std@@QEAAXPEAVJwkEc@@PEAV_Ref_count_base@2@@Z 000000018004d180     ec_jwk.obj
 0004:00000180       $pdata$1$?_Reset0@?$_Ptr_base@VScopedHMAC@@@std@@QEAAXPEAVScopedHMAC@@PEAV_Ref_count_base@2@@Z 000000018004d180     hmac_gen.obj
 0004:0000018c       $pdata$2$?_Reset0@?$_Ptr_base@VScopedHMAC@@@std@@QEAAXPEAVScopedHMAC@@PEAV_Ref_count_base@2@@Z 000000018004d18c     hmac_gen.obj
 0004:0000018c       $pdata$2$?_Reset0@?$_Ptr_base@V?$basic_string@DU?$char_traits@D@std@@V?$allocator@D@2@@std@@@std@@QEAAXPEAV?$basic_string@DU?$char_traits@D@std@@V?$allocator@D@2@@2@PEAV_Ref_count_base@2@@Z 000000018004d18c     key_exp.obj
 0004:0000018c       $pdata$2$?_Reset0@?$_Ptr_base@VJwkRsa@@@std@@QEAAXPEAVJwkRsa@@PEAV_Ref_count_base@2@@Z 000000018004d18c     rsa_jwk.obj
 0004:0000018c       $pdata$2$?_Reset0@?$_Ptr_base@V?$ScopedSSL@Uevp_pkey_st@@$1?ScopedEVP_PKEY_free@@YAXPEAX@Z@@@std@@QEAAXPEAV?$ScopedSSL@Uevp_pkey_st@@$1?ScopedEVP_PKEY_free@@YAXPEAX@Z@@PEAV_Ref_count_base@2@@Z 000000018004d18c     key_exp.obj
 0004:0000018c       $pdata$2$?_Reset0@?$_Ptr_base@VScopedAES@@@std@@QEAAXPEAVScopedAES@@PEAV_Ref_count_base@2@@Z 000000018004d18c     aes_gen.obj
 0004:0000018c       $pdata$2$?_Reset0@?$_Ptr_base@VScopedPbkdf2@@@std@@QEAAXPEAVScopedPbkdf2@@PEAV_Ref_count_base@2@@Z 000000018004d18c     w_pbkdf2.obj
 0004:0000018c       $pdata$2$?_Reset0@?$_Ptr_base@VJwkEc@@@std@@QEAAXPEAVJwkEc@@PEAV_Ref_count_base@2@@Z 000000018004d18c     ec_jwk.obj
 0004:00000198       $pdata$3$?_Reset0@?$_Ptr_base@VScopedPbkdf2@@@std@@QEAAXPEAVScopedPbkdf2@@PEAV_Ref_count_base@2@@Z 000000018004d198     w_pbkdf2.obj
 0004:00000198       $pdata$3$?_Reset0@?$_Ptr_base@VScopedAES@@@std@@QEAAXPEAVScopedAES@@PEAV_Ref_count_base@2@@Z 000000018004d198     aes_gen.obj
 0004:00000198       $pdata$3$?_Reset0@?$_Ptr_base@V?$ScopedSSL@Uevp_pkey_st@@$1?ScopedEVP_PKEY_free@@YAXPEAX@Z@@@std@@QEAAXPEAV?$ScopedSSL@Uevp_pkey_st@@$1?ScopedEVP_PKEY_free@@YAXPEAX@Z@@PEAV_Ref_count_base@2@@Z 000000018004d198     key_exp.obj
 0004:00000198       $pdata$3$?_Reset0@?$_Ptr_base@V?$basic_string@DU?$char_traits@D@std@@V?$allocator@D@2@@std@@@std@@QEAAXPEAV?$basic_string@DU?$char_traits@D@std@@V?$allocator@D@2@@2@PEAV_Ref_count_base@2@@Z 000000018004d198     key_exp.obj
 0004:00000198       $pdata$3$?_Reset0@?$_Ptr_base@VScopedHMAC@@@std@@QEAAXPEAVScopedHMAC@@PEAV_Ref_count_base@2@@Z 000000018004d198     hmac_gen.obj
 0004:00000198       $pdata$3$?_Reset0@?$_Ptr_base@VJwkEc@@@std@@QEAAXPEAVJwkEc@@PEAV_Ref_count_base@2@@Z 000000018004d198     ec_jwk.obj
 0004:00000198       $pdata$3$?_Reset0@?$_Ptr_base@VJwkRsa@@@std@@QEAAXPEAVJwkRsa@@PEAV_Ref_count_base@2@@Z 000000018004d198     rsa_jwk.obj
 0004:000001a4       $pdata$?OPENSSL_get_errors@@YA?AV?$basic_string@DU?$char_traits@D@std@@V?$allocator@D@2@@std@@XZ 000000018004d1a4     excep.obj
 0004:000001b0       $pdata$?digest@@YA?AV?$shared_ptr@V?$basic_string@DU?$char_traits@D@std@@V?$allocator@D@2@@std@@@std@@PEBUenv_md_st@@V12@@Z 000000018004d1b0     digest.obj
 0004:000001bc       $pdata$?append@?$basic_string@DU?$char_traits@D@std@@V?$allocator@D@2@@std@@QEAAAEAV12@_KD@Z 000000018004d1bc     digest.obj
 0004:000001c8       $pdata$0$?append@?$basic_string@DU?$char_traits@D@std@@V?$allocator@D@2@@std@@QEAAAEAV12@_KD@Z 000000018004d1c8     digest.obj
 0004:000001d4       $pdata$2$?append@?$basic_string@DU?$char_traits@D@std@@V?$allocator@D@2@@std@@QEAAAEAV12@_KD@Z 000000018004d1d4     digest.obj
 0004:000001e0       $pdata$4$?append@?$basic_string@DU?$char_traits@D@std@@V?$allocator@D@2@@std@@QEAAAEAV12@_KD@Z 000000018004d1e0     digest.obj
 0004:000001ec       $pdata$5$?append@?$basic_string@DU?$char_traits@D@std@@V?$allocator@D@2@@std@@QEAAAEAV12@_KD@Z 000000018004d1ec     digest.obj
 0004:000001f8       $pdata$6$?append@?$basic_string@DU?$char_traits@D@std@@V?$allocator@D@2@@std@@QEAAAEAV12@_KD@Z 000000018004d1f8     digest.obj
 0004:00000204       $pdata$?RSA_generate@@YA?AV?$shared_ptr@V?$ScopedSSL@Uevp_pkey_st@@$1?ScopedEVP_PKEY_free@@YAXPEAX@Z@@@std@@HH@Z 000000018004d204     rsa_gen.obj
 0004:00000210       $pdata$??4?$ScopedSSL@Ubignum_st@@$1?ScopedBIGNUM_free@@YAXPEAX@Z@@QEAAAEAV0@PEAUbignum_st@@@Z 000000018004d210     rsa_gen.obj
 0004:0000021c       $pdata$?From@JwkRsa@@SA?AV?$shared_ptr@VJwkRsa@@@std@@V?$shared_ptr@V?$ScopedSSL@Uevp_pkey_st@@$1?ScopedEVP_PKEY_free@@YAXPEAX@Z@@@3@AEAH@Z 000000018004d21c     rsa_jwk.obj
 0004:00000228       $pdata$?To@JwkRsa@@QEAA?AV?$shared_ptr@V?$ScopedSSL@Uevp_pkey_st@@$1?ScopedEVP_PKEY_free@@YAXPEAX@Z@@@std@@AEAH@Z 000000018004d228     rsa_jwk.obj
 0004:00000234       $pdata$??$?0VJwkRsa@@@?$shared_ptr@VJwkRsa@@@std@@QEAA@PEAVJwkRsa@@@Z 000000018004d234     rsa_jwk.obj
 0004:00000240       $pdata$??1JwkRsa@@QEAA@XZ  000000018004d240     rsa_jwk.obj
 0004:0000024c       $pdata$?_Destroy@?$_Ref_count@VJwkRsa@@@std@@EEAAXXZ 000000018004d24c     rsa_jwk.obj
 0004:00000258       $pdata$?RSA_PKCS1_sign@@YA?AV?$shared_ptr@V?$basic_string@DU?$char_traits@D@std@@V?$allocator@D@2@@std@@@std@@V?$shared_ptr@V?$ScopedSSL@Uevp_pkey_st@@$1?ScopedEVP_PKEY_free@@YAXPEAX@Z@@@2@PEBUenv_md_st@@V12@@Z 000000018004d258     rsa_pkcs1.obj
 0004:00000264       $pdata$?RSA_PKCS1_verify@@YA_NV?$shared_ptr@V?$ScopedSSL@Uevp_pkey_st@@$1?ScopedEVP_PKEY_free@@YAXPEAX@Z@@@std@@PEBUenv_md_st@@V?$shared_ptr@V?$basic_string@DU?$char_traits@D@std@@V?$allocator@D@2@@std@@@2@2@Z 000000018004d264     rsa_pkcs1.obj
 0004:00000270       $pdata$?RSA_OAEP_enc_dec@@YA?AV?$shared_ptr@V?$basic_string@DU?$char_traits@D@std@@V?$allocator@D@2@@std@@@std@@V?$shared_ptr@V?$ScopedSSL@Uevp_pkey_st@@$1?ScopedEVP_PKEY_free@@YAXPEAX@Z@@@2@PEBUenv_md_st@@V12@2_N@Z 000000018004d270     rsa_oaep.obj
 0004:0000027c       $pdata$?setRsaPssParams@@YAXPEBUenv_md_st@@HPEAUevp_pkey_ctx_st@@@Z 000000018004d27c     rsa_pss.obj
 0004:00000288       $pdata$?RSA_PSS_sign@@YA?AV?$shared_ptr@V?$basic_string@DU?$char_traits@D@std@@V?$allocator@D@2@@std@@@std@@V?$shared_ptr@V?$ScopedSSL@Uevp_pkey_st@@$1?ScopedEVP_PKEY_free@@YAXPEAX@Z@@@2@PEBUenv_md_st@@HV12@@Z 000000018004d288     rsa_pss.obj
 0004:00000294       $pdata$?RSA_PSS_verify@@YA_NV?$shared_ptr@V?$ScopedSSL@Uevp_pkey_st@@$1?ScopedEVP_PKEY_free@@YAXPEAX@Z@@@std@@PEBUenv_md_st@@HV?$shared_ptr@V?$basic_string@DU?$char_traits@D@std@@V?$allocator@D@2@@std@@@2@2@Z 000000018004d294     rsa_pss.obj
 0004:000002a0       $pdata$?EC_generate@@YA?AV?$shared_ptr@V?$ScopedSSL@Uevp_pkey_st@@$1?ScopedEVP_PKEY_free@@YAXPEAX@Z@@@std@@AEAH@Z 000000018004d2a0     ec_gen.obj
 0004:000002ac       $pdata$??4?$shared_ptr@VScopedPbkdf2@@@std@@QEAAAEAV01@$$QEAV01@@Z 000000018004d2ac     async_pbkdf2.obj
 0004:000002ac       $pdata$??4?$shared_ptr@VScopedHMAC@@@std@@QEAAAEAV01@$$QEAV01@@Z 000000018004d2ac     async_hmac.obj
 0004:000002ac       $pdata$??4?$shared_ptr@VJwkEc@@@std@@QEAAAEAV01@$$QEAV01@@Z 000000018004d2ac     async_ec.obj
 0004:000002ac       $pdata$??4?$shared_ptr@VScopedAES@@@std@@QEAAAEAV01@$$QEAV01@@Z 000000018004d2ac     async_aes.obj
 0004:000002ac       $pdata$??4?$shared_ptr@V?$basic_string@DU?$char_traits@D@std@@V?$allocator@D@2@@std@@@std@@QEAAAEAV01@$$QEAV01@@Z 000000018004d2ac     w_key.obj
 0004:000002ac       $pdata$??4?$shared_ptr@V?$ScopedSSL@Uevp_pkey_st@@$1?ScopedEVP_PKEY_free@@YAXPEAX@Z@@@std@@QEAAAEAV01@$$QEAV01@@Z 000000018004d2ac     ec_gen.obj
 0004:000002ac       $pdata$??4?$shared_ptr@VJwkRsa@@@std@@QEAAAEAV01@$$QEAV01@@Z 000000018004d2ac     async_rsa.obj
 0004:000002b8       $pdata$0$??4?$shared_ptr@VJwkRsa@@@std@@QEAAAEAV01@$$QEAV01@@Z 000000018004d2b8     async_rsa.obj
 0004:000002b8       $pdata$0$??4?$shared_ptr@VScopedPbkdf2@@@std@@QEAAAEAV01@$$QEAV01@@Z 000000018004d2b8     async_pbkdf2.obj
 0004:000002b8       $pdata$0$??4?$shared_ptr@VJwkEc@@@std@@QEAAAEAV01@$$QEAV01@@Z 000000018004d2b8     async_ec.obj
 0004:000002b8       $pdata$0$??4?$shared_ptr@VScopedAES@@@std@@QEAAAEAV01@$$QEAV01@@Z 000000018004d2b8     async_aes.obj
 0004:000002b8       $pdata$0$??4?$shared_ptr@VScopedHMAC@@@std@@QEAAAEAV01@$$QEAV01@@Z 000000018004d2b8     async_hmac.obj
 0004:000002b8       $pdata$0$??4?$shared_ptr@V?$basic_string@DU?$char_traits@D@std@@V?$allocator@D@2@@std@@@std@@QEAAAEAV01@$$QEAV01@@Z 000000018004d2b8     w_key.obj
 0004:000002b8       $pdata$0$??4?$shared_ptr@V?$ScopedSSL@Uevp_pkey_st@@$1?ScopedEVP_PKEY_free@@YAXPEAX@Z@@@std@@QEAAAEAV01@$$QEAV01@@Z 000000018004d2b8     ec_gen.obj
 0004:000002c4       $pdata$1$??4?$shared_ptr@V?$basic_string@DU?$char_traits@D@std@@V?$allocator@D@2@@std@@@std@@QEAAAEAV01@$$QEAV01@@Z 000000018004d2c4     w_key.obj
 0004:000002c4       $pdata$1$??4?$shared_ptr@V?$ScopedSSL@Uevp_pkey_st@@$1?ScopedEVP_PKEY_free@@YAXPEAX@Z@@@std@@QEAAAEAV01@$$QEAV01@@Z 000000018004d2c4     ec_gen.obj
 0004:000002c4       $pdata$1$??4?$shared_ptr@VJwkEc@@@std@@QEAAAEAV01@$$QEAV01@@Z 000000018004d2c4     async_ec.obj
 0004:000002c4       $pdata$1$??4?$shared_ptr@VScopedAES@@@std@@QEAAAEAV01@$$QEAV01@@Z 000000018004d2c4     async_aes.obj
 0004:000002c4       $pdata$1$??4?$shared_ptr@VScopedPbkdf2@@@std@@QEAAAEAV01@$$QEAV01@@Z 000000018004d2c4     async_pbkdf2.obj
 0004:000002c4       $pdata$1$??4?$shared_ptr@VScopedHMAC@@@std@@QEAAAEAV01@$$QEAV01@@Z 000000018004d2c4     async_hmac.obj
 0004:000002c4       $pdata$1$??4?$shared_ptr@VJwkRsa@@@std@@QEAAAEAV01@$$QEAV01@@Z 000000018004d2c4     async_rsa.obj
 0004:000002d0       $pdata$2$??4?$shared_ptr@VScopedPbkdf2@@@std@@QEAAAEAV01@$$QEAV01@@Z 000000018004d2d0     async_pbkdf2.obj
 0004:000002d0       $pdata$2$??4?$shared_ptr@VJwkEc@@@std@@QEAAAEAV01@$$QEAV01@@Z 000000018004d2d0     async_ec.obj
 0004:000002d0       $pdata$2$??4?$shared_ptr@VScopedHMAC@@@std@@QEAAAEAV01@$$QEAV01@@Z 000000018004d2d0     async_hmac.obj
 0004:000002d0       $pdata$2$??4?$shared_ptr@VJwkRsa@@@std@@QEAAAEAV01@$$QEAV01@@Z 000000018004d2d0     async_rsa.obj
 0004:000002d0       $pdata$2$??4?$shared_ptr@V?$basic_string@DU?$char_traits@D@std@@V?$allocator@D@2@@std@@@std@@QEAAAEAV01@$$QEAV01@@Z 000000018004d2d0     w_key.obj
 0004:000002d0       $pdata$2$??4?$shared_ptr@V?$ScopedSSL@Uevp_pkey_st@@$1?ScopedEVP_PKEY_free@@YAXPEAX@Z@@@std@@QEAAAEAV01@$$QEAV01@@Z 000000018004d2d0     ec_gen.obj
 0004:000002d0       $pdata$2$??4?$shared_ptr@VScopedAES@@@std@@QEAAAEAV01@$$QEAV01@@Z 000000018004d2d0     async_aes.obj
 0004:000002dc       $pdata$3$??4?$shared_ptr@VScopedAES@@@std@@QEAAAEAV01@$$QEAV01@@Z 000000018004d2dc     async_aes.obj
 0004:000002dc       $pdata$3$??4?$shared_ptr@V?$basic_string@DU?$char_traits@D@std@@V?$allocator@D@2@@std@@@std@@QEAAAEAV01@$$QEAV01@@Z 000000018004d2dc     w_key.obj
 0004:000002dc       $pdata$3$??4?$shared_ptr@V?$ScopedSSL@Uevp_pkey_st@@$1?ScopedEVP_PKEY_free@@YAXPEAX@Z@@@std@@QEAAAEAV01@$$QEAV01@@Z 000000018004d2dc     ec_gen.obj
 0004:000002dc       $pdata$3$??4?$shared_ptr@VScopedPbkdf2@@@std@@QEAAAEAV01@$$QEAV01@@Z 000000018004d2dc     async_pbkdf2.obj
 0004:000002dc       $pdata$3$??4?$shared_ptr@VJwkRsa@@@std@@QEAAAEAV01@$$QEAV01@@Z 000000018004d2dc     async_rsa.obj
 0004:000002dc       $pdata$3$??4?$shared_ptr@VJwkEc@@@std@@QEAAAEAV01@$$QEAV01@@Z 000000018004d2dc     async_ec.obj
 0004:000002dc       $pdata$3$??4?$shared_ptr@VScopedHMAC@@@std@@QEAAAEAV01@$$QEAV01@@Z 000000018004d2dc     async_hmac.obj
 0004:000002e8       $pdata$?GetEcGroupOrderSize@@YA_KPEAUevp_pkey_st@@@Z 000000018004d2e8     ec_dsa.obj
 0004:000002f4       $pdata$?ConvertWebCryptoSignatureToDerSignature@@YA?AV?$shared_ptr@V?$basic_string@DU?$char_traits@D@std@@V?$allocator@D@2@@std@@@std@@PEAUevp_pkey_st@@PEBEAEB_KPEA_N@Z 000000018004d2f4     ec_dsa.obj
 0004:00000300       $pdata$?ConvertDerSignatureToWebCryptoSignature@@YA?AV?$shared_ptr@V?$basic_string@DU?$char_traits@D@std@@V?$allocator@D@2@@std@@@std@@PEAUevp_pkey_st@@PEBEAEA_K@Z 000000018004d300     ec_dsa.obj
 0004:0000030c       $pdata$?EC_DSA_sign@@YA?AV?$shared_ptr@V?$basic_string@DU?$char_traits@D@std@@V?$allocator@D@2@@std@@@std@@V?$shared_ptr@V?$ScopedSSL@Uevp_pkey_st@@$1?ScopedEVP_PKEY_free@@YAXPEAX@Z@@@2@PEBUenv_md_st@@V12@@Z 000000018004d30c     ec_dsa.obj
 0004:00000318       $pdata$?EC_DSA_verify@@YA_NV?$shared_ptr@V?$ScopedSSL@Uevp_pkey_st@@$1?ScopedEVP_PKEY_free@@YAXPEAX@Z@@@std@@PEBUenv_md_st@@V?$shared_ptr@V?$basic_string@DU?$char_traits@D@std@@V?$allocator@D@2@@std@@@2@2@Z 000000018004d318     ec_dsa.obj
 0004:00000324       $pdata$?ECDH_derive_key@@YA?AV?$shared_ptr@V?$basic_string@DU?$char_traits@D@std@@V?$allocator@D@2@@std@@@std@@V?$shared_ptr@V?$ScopedSSL@Uevp_pkey_st@@$1?ScopedEVP_PKEY_free@@YAXPEAX@Z@@@2@0AEA_K@Z 000000018004d324     ec_dh.obj
 0004:00000330       $pdata$?TruncateToBitLength@@YAX_KPEAV?$basic_string@DU?$char_traits@D@std@@V?$allocator@D@2@@std@@@Z 000000018004d330     ec_dh.obj
 0004:0000033c       $pdata$?EC_get_named_curve@@YAHPEAUec_key_st@@@Z 000000018004d33c     ec_dh.obj
 0004:00000348       $pdata$?ECDH_derive_bits@@YA?AV?$shared_ptr@V?$basic_string@DU?$char_traits@D@std@@V?$allocator@D@2@@std@@@std@@V?$shared_ptr@V?$ScopedSSL@Uevp_pkey_st@@$1?ScopedEVP_PKEY_free@@YAXPEAX@Z@@@2@0_NI@Z 000000018004d348     ec_dh.obj
 0004:00000354       $pdata$?From@JwkEc@@SA?AV?$shared_ptr@VJwkEc@@@std@@V?$shared_ptr@V?$ScopedSSL@Uevp_pkey_st@@$1?ScopedEVP_PKEY_free@@YAXPEAX@Z@@@3@AEAH@Z 000000018004d354     ec_jwk.obj
 0004:00000360       $pdata$?To@JwkEc@@QEAA?AV?$shared_ptr@V?$ScopedSSL@Uevp_pkey_st@@$1?ScopedEVP_PKEY_free@@YAXPEAX@Z@@@std@@AEAH@Z 000000018004d360     ec_jwk.obj
 0004:0000036c       $pdata$??$?0VJwkEc@@@?$shared_ptr@VJwkEc@@@std@@QEAA@PEAVJwkEc@@@Z 000000018004d36c     ec_jwk.obj
 0004:00000378       $pdata$?_Destroy@?$_Ref_count@VJwkEc@@@std@@EEAAXXZ 000000018004d378     ec_jwk.obj
 0004:00000384       $pdata$?generate@ScopedAES@@SA?AV?$shared_ptr@VScopedAES@@@std@@AEAH@Z 000000018004d384     aes_gen.obj
 0004:00000390       $pdata$??4?$shared_ptr@VScopedAES@@@std@@QEAAAEAV01@AEBV01@@Z 000000018004d390     async_aes.obj
 0004:00000390       $pdata$??4?$shared_ptr@V?$ScopedSSL@Uevp_pkey_st@@$1?ScopedEVP_PKEY_free@@YAXPEAX@Z@@@std@@QEAAAEAV01@AEBV01@@Z 000000018004d390     w_key.obj
 0004:00000390       $pdata$??4?$shared_ptr@VScopedPbkdf2@@@std@@QEAAAEAV01@AEBV01@@Z 000000018004d390     async_pbkdf2.obj
 0004:00000390       $pdata$??4?$shared_ptr@VScopedHMAC@@@std@@QEAAAEAV01@AEBV01@@Z 000000018004d390     async_hmac.obj
 0004:00000390       $pdata$??4?$shared_ptr@V?$basic_string@DU?$char_traits@D@std@@V?$allocator@D@2@@std@@@std@@QEAAAEAV01@AEBV01@@Z 000000018004d390     aes_gen.obj
 0004:0000039c       $pdata$0$??4?$shared_ptr@VScopedAES@@@std@@QEAAAEAV01@AEBV01@@Z 000000018004d39c     async_aes.obj
 0004:0000039c       $pdata$0$??4?$shared_ptr@V?$ScopedSSL@Uevp_pkey_st@@$1?ScopedEVP_PKEY_free@@YAXPEAX@Z@@@std@@QEAAAEAV01@AEBV01@@Z 000000018004d39c     w_key.obj
 0004:0000039c       $pdata$0$??4?$shared_ptr@V?$basic_string@DU?$char_traits@D@std@@V?$allocator@D@2@@std@@@std@@QEAAAEAV01@AEBV01@@Z 000000018004d39c     aes_gen.obj
 0004:0000039c       $pdata$0$??4?$shared_ptr@VScopedHMAC@@@std@@QEAAAEAV01@AEBV01@@Z 000000018004d39c     async_hmac.obj
 0004:0000039c       $pdata$0$??4?$shared_ptr@VScopedPbkdf2@@@std@@QEAAAEAV01@AEBV01@@Z 000000018004d39c     async_pbkdf2.obj
 0004:000003a8       $pdata$1$??4?$shared_ptr@VScopedPbkdf2@@@std@@QEAAAEAV01@AEBV01@@Z 000000018004d3a8     async_pbkdf2.obj
 0004:000003a8       $pdata$1$??4?$shared_ptr@VScopedAES@@@std@@QEAAAEAV01@AEBV01@@Z 000000018004d3a8     async_aes.obj
 0004:000003a8       $pdata$1$??4?$shared_ptr@VScopedHMAC@@@std@@QEAAAEAV01@AEBV01@@Z 000000018004d3a8     async_hmac.obj
 0004:000003a8       $pdata$1$??4?$shared_ptr@V?$ScopedSSL@Uevp_pkey_st@@$1?ScopedEVP_PKEY_free@@YAXPEAX@Z@@@std@@QEAAAEAV01@AEBV01@@Z 000000018004d3a8     w_key.obj
 0004:000003a8       $pdata$1$??4?$shared_ptr@V?$basic_string@DU?$char_traits@D@std@@V?$allocator@D@2@@std@@@std@@QEAAAEAV01@AEBV01@@Z 000000018004d3a8     aes_gen.obj
 0004:000003b4       $pdata$2$??4?$shared_ptr@V?$basic_string@DU?$char_traits@D@std@@V?$allocator@D@2@@std@@@std@@QEAAAEAV01@AEBV01@@Z 000000018004d3b4     aes_gen.obj
 0004:000003b4       $pdata$2$??4?$shared_ptr@VScopedHMAC@@@std@@QEAAAEAV01@AEBV01@@Z 000000018004d3b4     async_hmac.obj
 0004:000003b4       $pdata$2$??4?$shared_ptr@VScopedAES@@@std@@QEAAAEAV01@AEBV01@@Z 000000018004d3b4     async_aes.obj
 0004:000003b4       $pdata$2$??4?$shared_ptr@V?$ScopedSSL@Uevp_pkey_st@@$1?ScopedEVP_PKEY_free@@YAXPEAX@Z@@@std@@QEAAAEAV01@AEBV01@@Z 000000018004d3b4     w_key.obj
 0004:000003b4       $pdata$2$??4?$shared_ptr@VScopedPbkdf2@@@std@@QEAAAEAV01@AEBV01@@Z 000000018004d3b4     async_pbkdf2.obj
 0004:000003c0       $pdata$3$??4?$shared_ptr@VScopedPbkdf2@@@std@@QEAAAEAV01@AEBV01@@Z 000000018004d3c0     async_pbkdf2.obj
 0004:000003c0       $pdata$3$??4?$shared_ptr@V?$basic_string@DU?$char_traits@D@std@@V?$allocator@D@2@@std@@@std@@QEAAAEAV01@AEBV01@@Z 000000018004d3c0     aes_gen.obj
 0004:000003c0       $pdata$3$??4?$shared_ptr@VScopedAES@@@std@@QEAAAEAV01@AEBV01@@Z 000000018004d3c0     async_aes.obj
 0004:000003c0       $pdata$3$??4?$shared_ptr@VScopedHMAC@@@std@@QEAAAEAV01@AEBV01@@Z 000000018004d3c0     async_hmac.obj
 0004:000003c0       $pdata$3$??4?$shared_ptr@V?$ScopedSSL@Uevp_pkey_st@@$1?ScopedEVP_PKEY_free@@YAXPEAX@Z@@@std@@QEAAAEAV01@AEBV01@@Z 000000018004d3c0     w_key.obj
 0004:000003cc       $pdata$??_GScopedHMAC@@QEAAPEAXI@Z 000000018004d3cc     hmac_gen.obj
 0004:000003cc       $pdata$??_GScopedAES@@QEAAPEAXI@Z 000000018004d3cc     aes_gen.obj
 0004:000003cc       $pdata$??_GScopedPbkdf2@@QEAAPEAXI@Z 000000018004d3cc     async_pbkdf2.obj
 0004:000003d8       $pdata$?AES_ECB_encrypt@@YA?AV?$shared_ptr@V?$basic_string@DU?$char_traits@D@std@@V?$allocator@D@2@@std@@@std@@V12@0_N@Z 000000018004d3d8     aes_ecb.obj
 0004:000003e4       $pdata$?encryptEcb@ScopedAES@@QEAA?AV?$shared_ptr@V?$basic_string@DU?$char_traits@D@std@@V?$allocator@D@2@@std@@@std@@V23@@Z 000000018004d3e4     aes_ecb.obj
 0004:000003f0       $pdata$?decryptEcb@ScopedAES@@QEAA?AV?$shared_ptr@V?$basic_string@DU?$char_traits@D@std@@V?$allocator@D@2@@std@@@std@@V23@@Z 000000018004d3f0     aes_ecb.obj
 0004:000003fc       $pdata$?AES_CBC_encrypt@@YA?AV?$shared_ptr@V?$basic_string@DU?$char_traits@D@std@@V?$allocator@D@2@@std@@@std@@V12@00_N@Z 000000018004d3fc     aes_cbc.obj
 0004:00000408       $pdata$?encryptCbc@ScopedAES@@QEAA?AV?$shared_ptr@V?$basic_string@DU?$char_traits@D@std@@V?$allocator@D@2@@std@@@std@@V23@0@Z 000000018004d408     aes_cbc.obj
 0004:00000414       $pdata$?decryptCbc@ScopedAES@@QEAA?AV?$shared_ptr@V?$basic_string@DU?$char_traits@D@std@@V?$allocator@D@2@@std@@@std@@V23@0@Z 000000018004d414     aes_cbc.obj
 0004:00000420       $pdata$?wrap@ScopedAES@@QEAA?AV?$shared_ptr@V?$basic_string@DU?$char_traits@D@std@@V?$allocator@D@2@@std@@@std@@V23@@Z 000000018004d420     aes_cbc.obj
 0004:0000042c       $pdata$?unwrap@ScopedAES@@QEAA?AV?$shared_ptr@V?$basic_string@DU?$char_traits@D@std@@V?$allocator@D@2@@std@@@std@@V23@@Z 000000018004d42c     aes_cbc.obj
 0004:00000438       $pdata$?AES_GCM_encrypt@@YA?AV?$shared_ptr@V?$basic_string@DU?$char_traits@D@std@@V?$allocator@D@2@@std@@@std@@V12@000H@Z 000000018004d438     aes_gcm.obj
 0004:00000444       $pdata$?AES_GCM_decrypt@@YA?AV?$shared_ptr@V?$basic_string@DU?$char_traits@D@std@@V?$allocator@D@2@@std@@@std@@V12@000H@Z 000000018004d444     aes_gcm.obj
 0004:00000450       $pdata$?encryptGcm@ScopedAES@@QEAA?AV?$shared_ptr@V?$basic_string@DU?$char_traits@D@std@@V?$allocator@D@2@@std@@@std@@V23@00H@Z 000000018004d450     aes_gcm.obj
 0004:0000045c       $pdata$?decryptGcm@ScopedAES@@QEAA?AV?$shared_ptr@V?$basic_string@DU?$char_traits@D@std@@V?$allocator@D@2@@std@@@std@@V23@00H@Z 000000018004d45c     aes_gcm.obj
 0004:00000468       $pdata$?substr@?$basic_string@DU?$char_traits@D@std@@V?$allocator@D@2@@std@@QEBA?AV12@_K0@Z 000000018004d468     aes_gcm.obj
 0004:00000474       $pdata$?AES_CTR_encrypt@@YA?AV?$shared_ptr@V?$basic_string@DU?$char_traits@D@std@@V?$allocator@D@2@@std@@@std@@V12@00H_N@Z 000000018004d474     aes_ctr.obj
 0004:00000480       $pdata$?encryptCtr@ScopedAES@@QEAA?AV?$shared_ptr@V?$basic_string@DU?$char_traits@D@std@@V?$allocator@D@2@@std@@@std@@V23@0H@Z 000000018004d480     aes_ctr.obj
 0004:00000480       $pdata$?decryptCtr@ScopedAES@@QEAA?AV?$shared_ptr@V?$basic_string@DU?$char_traits@D@std@@V?$allocator@D@2@@std@@@std@@V23@0H@Z 000000018004d480     aes_ctr.obj
 0004:0000048c       $pdata$?generate@ScopedHMAC@@SA?AV?$shared_ptr@VScopedHMAC@@@std@@AEAH@Z 000000018004d48c     hmac_gen.obj
 0004:00000498       $pdata$?sign@ScopedHMAC@@QEAA?AV?$shared_ptr@V?$basic_string@DU?$char_traits@D@std@@V?$allocator@D@2@@std@@@std@@V23@PEBUenv_md_st@@@Z 000000018004d498     hmac_sign.obj
 0004:000004a4       $pdata$?verify@ScopedHMAC@@QEAA_NV?$shared_ptr@V?$basic_string@DU?$char_traits@D@std@@V?$allocator@D@2@@std@@@std@@PEBUenv_md_st@@0@Z 000000018004d4a4     hmac_sign.obj
 0004:000004b0       $pdata$?deriveBits@ScopedPbkdf2@@QEAA?AV?$shared_ptr@V?$basic_string@DU?$char_traits@D@std@@V?$allocator@D@2@@std@@@std@@V23@_KPEBUenv_md_st@@1@Z 000000018004d4b0     pbkdf2_derive.obj
 0004:000004bc       $pdata$?v8Buffer_to_String@@YA?AV?$shared_ptr@V?$basic_string@DU?$char_traits@D@std@@V?$allocator@D@2@@std@@@std@@V?$Local@VValue@v8@@@v8@@@Z 000000018004d4bc     common.obj
 0004:000004c8       $pdata$?v8Buffer_to_String@@YA?AV?$shared_ptr@V?$basic_string@DU?$char_traits@D@std@@V?$allocator@D@2@@std@@@std@@V?$Local@VObject@v8@@@v8@@@Z 000000018004d4c8     common.obj
 0004:000004d4       $pdata$?String_to_v8Buffer@@YA?AV?$Local@VObject@v8@@@v8@@V?$shared_ptr@V?$basic_string@DU?$char_traits@D@std@@V?$allocator@D@2@@std@@@std@@@Z 000000018004d4d4     common.obj
 0004:000004e0       $pdata$?bn2buf@@YA?AV?$Local@VObject@v8@@@v8@@PEAUbignum_st@@@Z 000000018004d4e0     common.obj
 0004:000004ec       $pdata$??1ObjectWrap@node@@UEAA@XZ 000000018004d4ec     w_key.obj
 0004:000004f8       $pdata$?Wrap@ObjectWrap@node@@IEAAXV?$Local@VObject@v8@@@v8@@@Z 000000018004d4f8     w_key.obj
 0004:00000504       $pdata$?Ref@ObjectWrap@node@@MEAAXXZ 000000018004d504     w_key.obj
 0004:00000510       $pdata$?Unref@ObjectWrap@node@@MEAAXXZ 000000018004d510     w_key.obj
 0004:0000051c       $pdata$?WeakCallback@ObjectWrap@node@@CAXAEBV?$WeakCallbackInfo@VObjectWrap@node@@@v8@@@Z 000000018004d51c     w_key.obj
 0004:00000528       $pdata$??_GObjectWrap@node@@UEAAPEAXI@Z 000000018004d528     w_key.obj
 0004:00000528       $pdata$??_GWCore@@UEAAPEAXI@Z 000000018004d528     w_core.obj
 0004:00000534       $pdata$?FunctionCallbackWrapper@imp@Nan@@YAXAEBV?$FunctionCallbackInfo@VValue@v8@@@v8@@@Z 000000018004d534     w_key.obj
 0004:00000540       $pdata$?GetterCallbackWrapper@imp@Nan@@YAXV?$Local@VName@v8@@@v8@@AEBV?$PropertyCallbackInfo@VValue@v8@@@4@@Z 000000018004d540     w_key.obj
 0004:0000054c       $pdata$?NewInstance@Nan@@YA?AV?$MaybeLocal@VObject@v8@@@v8@@V?$Local@VFunction@v8@@@3@@Z 000000018004d54c     w_key.obj
 0004:00000558       $pdata$?NewInstance@Nan@@YA?AV?$MaybeLocal@VObject@v8@@@v8@@V?$Local@VFunction@v8@@@3@HQEAV?$Local@VValue@v8@@@3@@Z 000000018004d558     w_key.obj
 0004:00000564       $pdata$?NewInstance@Nan@@YA?AV?$MaybeLocal@VObject@v8@@@v8@@V?$Local@VObjectTemplate@v8@@@3@@Z 000000018004d564     w_key.obj
 0004:00000570       $pdata$?GetFunction@Nan@@YA?AV?$MaybeLocal@VFunction@v8@@@v8@@V?$Local@VFunctionTemplate@v8@@@3@@Z 000000018004d570     w_key.obj
 0004:0000057c       $pdata$?Set@Nan@@YA?AV?$Maybe@_N@v8@@V?$Local@VObject@v8@@@3@V?$Local@VValue@v8@@@3@1@Z 000000018004d57c     w_key.obj
 0004:00000588       $pdata$?Get@Nan@@YA?AV?$MaybeLocal@VValue@v8@@@v8@@V?$Local@VObject@v8@@@3@V?$Local@VValue@v8@@@3@@Z 000000018004d588     w_key.obj
 0004:00000594       $pdata$?CallAsFunction@Nan@@YA?AV?$MaybeLocal@VValue@v8@@@v8@@V?$Local@VObject@v8@@@3@0HQEAV?$Local@VValue@v8@@@3@@Z 000000018004d594     w_key.obj
 0004:000005a0       $pdata$?convert@?$ToFactory@VObject@v8@@@imp@Nan@@SA?AV?$MaybeLocal@VObject@v8@@@v8@@V?$Local@VValue@v8@@@5@@Z 000000018004d5a0     w_key.obj
 0004:000005ac       $pdata$?convert@?$ToFactory@H@imp@Nan@@SA?AV?$Maybe@H@v8@@V?$Local@VValue@v8@@@5@@Z 000000018004d5ac     w_key.obj
 0004:000005b8       $pdata$?New@?$Factory@VFunctionTemplate@v8@@@imp@Nan@@SA?AV?$Local@VFunctionTemplate@v8@@@v8@@P6AXAEBV?$FunctionCallbackInfo@VValue@v8@@@3@@ZV?$Local@VValue@v8@@@5@V?$Local@VSignature@v8@@@5@@Z 000000018004d5b8     w_key.obj
 0004:000005c4       $pdata$?ThrowError@Nan@@YAXPEBD@Z 000000018004d5c4     w_key.obj
 0004:000005d0       $pdata$?ThrowError@Nan@@YAXV?$Local@VString@v8@@@v8@@@Z 000000018004d5d0     w_key.obj
 0004:000005dc       $pdata$?Call@Callback@Nan@@QEBA?AV?$MaybeLocal@VValue@v8@@@v8@@HQEAV?$Local@VValue@v8@@@4@PEAVAsyncResource@2@@Z 000000018004d5dc     w_key.obj
 0004:000005e8       $pdata$?Call_@Callback@Nan@@AEBA?AV?$Local@VValue@v8@@@v8@@PEAVIsolate@4@V?$Local@VObject@v8@@@4@HQEAV34@@Z 000000018004d5e8     w_key.obj
 0004:000005f4       $pdata$??0AsyncWorker@Nan@@QEAA@PEAVCallback@1@PEBD@Z 000000018004d5f4     w_key.obj
 0004:00000600       $pdata$??1AsyncWorker@Nan@@UEAA@XZ 000000018004d600     w_key.obj
 0004:0000060c       $pdata$?WorkComplete@AsyncWorker@Nan@@UEAAXXZ 000000018004d60c     w_key.obj
 0004:00000618       $pdata$?HandleOKCallback@AsyncWorker@Nan@@MEAAXXZ 000000018004d618     w_key.obj
 0004:00000624       $pdata$?HandleErrorCallback@AsyncWorker@Nan@@MEAAXXZ 000000018004d624     w_key.obj
 0004:00000630       $pdata$??_GAsyncWorker@Nan@@UEAAPEAXI@Z 000000018004d630     w_key.obj
 0004:0000063c       $pdata$??1?$Persistent@VObject@v8@@V?$NonCopyablePersistentTraits@VObject@v8@@@2@@Nan@@QEAA@XZ 000000018004d63c     w_key.obj
 0004:00000648       $pdata$?AsyncExecuteComplete@Nan@@YAXPEAUuv_work_s@@@Z 000000018004d648     w_key.obj
 0004:00000654       $pdata$?SetPrototypeMethod@Nan@@YAXV?$Local@VFunctionTemplate@v8@@@v8@@PEBDP6AXAEBV?$FunctionCallbackInfo@VValue@v8@@@1@@Z@Z 000000018004d654     w_key.obj
 0004:00000660       $pdata$?SetAccessor@Nan@@YAXV?$Local@VObjectTemplate@v8@@@v8@@V?$Local@VString@v8@@@3@P6AX1AEBV?$PropertyCallbackInfo@VValue@v8@@@1@@ZP6AX1V?$Local@VValue@v8@@@3@AEBV?$PropertyCallbackInfo@X@1@@Z4W4AccessControl@3@W4PropertyAttribute@3@V?$Local@VAccessorSignature@v8@@@3@@Z 000000018004d660     w_key.obj
 0004:0000066c       $pdata$?NewInstance@WKey@@SA?AV?$Local@VObject@v8@@@v8@@XZ 000000018004d66c     w_key.obj
 0004:00000678       $pdata$?constructor@WKey@@KAAEAV?$Persistent@VFunction@v8@@V?$NonCopyablePersistentTraits@VFunction@v8@@@2@@Nan@@XZ 000000018004d678     w_key.obj
 0004:00000684       $pdata$??1AsyncRsaGenerateKey@@UEAA@XZ 000000018004d684     w_key.obj
 0004:00000690       $pdata$??_GAsyncRsaGenerateKey@@UEAAPEAXI@Z 000000018004d690     w_key.obj
 0004:0000069c       $pdata$??0AsyncEncrypDecryptRsaOAEP@@QEAA@PEAVCallback@Nan@@V?$shared_ptr@V?$ScopedSSL@Uevp_pkey_st@@$1?ScopedEVP_PKEY_free@@YAXPEAX@Z@@@std@@PEBUenv_md_st@@V?$shared_ptr@V?$basic_string@DU?$char_traits@D@std@@V?$allocator@D@2@@std@@@4@3_N@Z 000000018004d69c     w_key.obj
 0004:000006a8       $pdata$??_GAsyncEncrypDecryptRsaOAEP@@UEAAPEAXI@Z 000000018004d6a8     w_key.obj
 0004:000006b4       $pdata$??1AsyncEncrypDecryptRsaOAEP@@UEAA@XZ 000000018004d6b4     w_key.obj
 0004:000006c0       $pdata$??0AsyncExportJwkRsa@@QEAA@PEAVCallback@Nan@@HV?$shared_ptr@V?$ScopedSSL@Uevp_pkey_st@@$1?ScopedEVP_PKEY_free@@YAXPEAX@Z@@@std@@@Z 000000018004d6c0     w_key.obj
 0004:000006cc       $pdata$??1AsyncExportJwkRsa@@UEAA@XZ 000000018004d6cc     w_key.obj
 0004:000006d8       $pdata$??_GAsyncExportJwkRsa@@UEAAPEAXI@Z 000000018004d6d8     w_key.obj
 0004:000006e4       $pdata$??0AsyncExportSpki@@QEAA@PEAVCallback@Nan@@V?$shared_ptr@V?$ScopedSSL@Uevp_pkey_st@@$1?ScopedEVP_PKEY_free@@YAXPEAX@Z@@@std@@@Z 000000018004d6e4     w_key.obj
 0004:000006f0       $pdata$??1AsyncExportSpki@@UEAA@XZ 000000018004d6f0     w_key.obj
 0004:000006fc       $pdata$??_GAsyncExportSpki@@UEAAPEAXI@Z 000000018004d6fc     w_key.obj
 0004:00000708       $pdata$??0AsyncExportPkcs8@@QEAA@PEAVCallback@Nan@@V?$shared_ptr@V?$ScopedSSL@Uevp_pkey_st@@$1?ScopedEVP_PKEY_free@@YAXPEAX@Z@@@std@@@Z 000000018004d708     w_key.obj
 0004:00000714       $pdata$??1AsyncExportPkcs8@@UEAA@XZ 000000018004d714     w_key.obj
 0004:00000720       $pdata$??_GAsyncExportPkcs8@@UEAAPEAXI@Z 000000018004d720     w_key.obj
 0004:0000072c       $pdata$??0AsyncImportPkcs8@@QEAA@PEAVCallback@Nan@@V?$shared_ptr@V?$basic_string@DU?$char_traits@D@std@@V?$allocator@D@2@@std@@@std@@@Z 000000018004d72c     w_key.obj
 0004:00000738       $pdata$??1AsyncImportPkcs8@@UEAA@XZ 000000018004d738     w_key.obj
 0004:00000744       $pdata$??_GAsyncImportPkcs8@@UEAAPEAXI@Z 000000018004d744     w_key.obj
 0004:00000750       $pdata$??0AsyncImportSpki@@QEAA@PEAVCallback@Nan@@V?$shared_ptr@V?$basic_string@DU?$char_traits@D@std@@V?$allocator@D@2@@std@@@std@@@Z 000000018004d750     w_key.obj
 0004:0000075c       $pdata$??1AsyncImportSpki@@UEAA@XZ 000000018004d75c     w_key.obj
 0004:00000768       $pdata$??_GAsyncImportSpki@@UEAAPEAXI@Z 000000018004d768     w_key.obj
 0004:00000774       $pdata$??0AsyncImportJwkRsa@@QEAA@PEAVCallback@Nan@@V?$shared_ptr@VJwkRsa@@@std@@H@Z 000000018004d774     w_key.obj
 0004:00000780       $pdata$??1AsyncImportJwkRsa@@UEAA@XZ 000000018004d780     w_key.obj
 0004:0000078c       $pdata$??_GAsyncImportJwkRsa@@UEAAPEAXI@Z 000000018004d78c     w_key.obj
 0004:00000798       $pdata$??0AsyncSignRsa@@QEAA@PEAVCallback@Nan@@PEBUenv_md_st@@V?$shared_ptr@V?$ScopedSSL@Uevp_pkey_st@@$1?ScopedEVP_PKEY_free@@YAXPEAX@Z@@@std@@V?$shared_ptr@V?$basic_string@DU?$char_traits@D@std@@V?$allocator@D@2@@std@@@5@@Z 000000018004d798     w_key.obj
 0004:000007a4       $pdata$??1AsyncSignRsa@@UEAA@XZ 000000018004d7a4     w_key.obj
 0004:000007b0       $pdata$??_GAsyncSignRsa@@UEAAPEAXI@Z 000000018004d7b0     w_key.obj
 0004:000007bc       $pdata$??0AsyncVerifyRsa@@QEAA@PEAVCallback@Nan@@PEBUenv_md_st@@V?$shared_ptr@V?$ScopedSSL@Uevp_pkey_st@@$1?ScopedEVP_PKEY_free@@YAXPEAX@Z@@@std@@V?$shared_ptr@V?$basic_string@DU?$char_traits@D@std@@V?$allocator@D@2@@std@@@5@3@Z 000000018004d7bc     w_key.obj
 0004:000007c8       $pdata$??1AsyncVerifyRsa@@UEAA@XZ 000000018004d7c8     w_key.obj
 0004:000007d4       $pdata$??_GAsyncVerifyRsa@@UEAAPEAXI@Z 000000018004d7d4     w_key.obj
 0004:000007e0       $pdata$??0AsyncSignRsaPSS@@QEAA@PEAVCallback@Nan@@PEBUenv_md_st@@V?$shared_ptr@V?$ScopedSSL@Uevp_pkey_st@@$1?ScopedEVP_PKEY_free@@YAXPEAX@Z@@@std@@HV?$shared_ptr@V?$basic_string@DU?$char_traits@D@std@@V?$allocator@D@2@@std@@@5@@Z 000000018004d7e0     w_key.obj
 0004:000007ec       $pdata$??1AsyncSignRsaPSS@@UEAA@XZ 000000018004d7ec     w_key.obj
 0004:000007f8       $pdata$??_GAsyncSignRsaPSS@@UEAAPEAXI@Z 000000018004d7f8     w_key.obj
 0004:00000804       $pdata$??0AsyncVerifyRsaPSS@@QEAA@PEAVCallback@Nan@@PEBUenv_md_st@@V?$shared_ptr@V?$ScopedSSL@Uevp_pkey_st@@$1?ScopedEVP_PKEY_free@@YAXPEAX@Z@@@std@@HV?$shared_ptr@V?$basic_string@DU?$char_traits@D@std@@V?$allocator@D@2@@std@@@5@3@Z 000000018004d804     w_key.obj
 0004:00000810       $pdata$??1AsyncVerifyRsaPSS@@UEAA@XZ 000000018004d810     w_key.obj
 0004:0000081c       $pdata$??_GAsyncVerifyRsaPSS@@UEAAPEAXI@Z 000000018004d81c     w_key.obj
 0004:00000828       $pdata$??1AsyncEcGenerateKey@@UEAA@XZ 000000018004d828     w_key.obj
 0004:00000834       $pdata$??_GAsyncEcGenerateKey@@UEAAPEAXI@Z 000000018004d834     w_key.obj
 0004:00000840       $pdata$??0AsyncEcdhDeriveKey@@QEAA@PEAVCallback@Nan@@V?$shared_ptr@V?$ScopedSSL@Uevp_pkey_st@@$1?ScopedEVP_PKEY_free@@YAXPEAX@Z@@@std@@1_K@Z 000000018004d840     w_key.obj
 0004:0000084c       $pdata$??1AsyncEcdhDeriveKey@@UEAA@XZ 000000018004d84c     w_key.obj
 0004:00000858       $pdata$??_GAsyncEcdhDeriveKey@@UEAAPEAXI@Z 000000018004d858     w_key.obj
 0004:00000864       $pdata$??0AsyncEcExportJwk@@QEAA@PEAVCallback@Nan@@HV?$shared_ptr@V?$ScopedSSL@Uevp_pkey_st@@$1?ScopedEVP_PKEY_free@@YAXPEAX@Z@@@std@@@Z 000000018004d864     w_key.obj
 0004:00000870       $pdata$??1AsyncEcExportJwk@@UEAA@XZ 000000018004d870     w_key.obj
 0004:0000087c       $pdata$??_GAsyncEcExportJwk@@UEAAPEAXI@Z 000000018004d87c     w_key.obj
 0004:00000888       $pdata$??0AsyncEcImportJwk@@QEAA@PEAVCallback@Nan@@V?$shared_ptr@VJwkEc@@@std@@H@Z 000000018004d888     w_key.obj
 0004:00000894       $pdata$??1AsyncEcImportJwk@@UEAA@XZ 000000018004d894     w_key.obj
 0004:000008a0       $pdata$??_GAsyncEcImportJwk@@UEAAPEAXI@Z 000000018004d8a0     w_key.obj
 0004:000008ac       $pdata$??0AsyncEcdsaSign@@QEAA@PEAVCallback@Nan@@PEBUenv_md_st@@V?$shared_ptr@V?$ScopedSSL@Uevp_pkey_st@@$1?ScopedEVP_PKEY_free@@YAXPEAX@Z@@@std@@V?$shared_ptr@V?$basic_string@DU?$char_traits@D@std@@V?$allocator@D@2@@std@@@5@@Z 000000018004d8ac     w_key.obj
 0004:000008b8       $pdata$??1AsyncEcdsaSign@@UEAA@XZ 000000018004d8b8     w_key.obj
 0004:000008c4       $pdata$??_GAsyncEcdsaSign@@UEAAPEAXI@Z 000000018004d8c4     w_key.obj
 0004:000008d0       $pdata$??0AsyncEcdsaVerify@@QEAA@PEAVCallback@Nan@@PEBUenv_md_st@@V?$shared_ptr@V?$ScopedSSL@Uevp_pkey_st@@$1?ScopedEVP_PKEY_free@@YAXPEAX@Z@@@std@@V?$shared_ptr@V?$basic_string@DU?$char_traits@D@std@@V?$allocator@D@2@@std@@@5@3@Z 000000018004d8d0     w_key.obj
 0004:000008dc       $pdata$??1AsyncEcdsaVerify@@UEAA@XZ 000000018004d8dc     w_key.obj
 0004:000008e8       $pdata$??_GAsyncEcdsaVerify@@UEAAPEAXI@Z 000000018004d8e8     w_key.obj
 0004:000008f4       $pdata$??0AsyncEcdhDeriveBits@@QEAA@PEAVCallback@Nan@@V?$shared_ptr@V?$ScopedSSL@Uevp_pkey_st@@$1?ScopedEVP_PKEY_free@@YAXPEAX@Z@@@std@@1_K@Z 000000018004d8f4     w_key.obj
 0004:00000900       $pdata$??1AsyncEcdhDeriveBits@@UEAA@XZ 000000018004d900     w_key.obj
 0004:0000090c       $pdata$??_GAsyncEcdhDeriveBits@@UEAAPEAXI@Z 000000018004d90c     w_key.obj
 0004:00000918       $pdata$?Init@WKey@@SAXV?$Local@VObject@v8@@@v8@@@Z 000000018004d918     w_key.obj
 0004:00000924       $pdata$?New@WKey@@SAXAEBV?$FunctionCallbackInfo@VValue@v8@@@Nan@@@Z 000000018004d924     w_key.obj
 0004:00000930       $pdata$0$?New@WKey@@SAXAEBV?$FunctionCallbackInfo@VValue@v8@@@Nan@@@Z 000000018004d930     w_key.obj
 0004:0000093c       $pdata$1$?New@WKey@@SAXAEBV?$FunctionCallbackInfo@VValue@v8@@@Nan@@@Z 000000018004d93c     w_key.obj
 0004:00000948       $pdata$??_GWKey@@UEAAPEAXI@Z 000000018004d948     w_key.obj
 0004:00000948       $pdata$??_GWHmac@@UEAAPEAXI@Z 000000018004d948     w_hmac.obj
 0004:00000948       $pdata$??_GWAes@@UEAAPEAXI@Z 000000018004d948     w_aes.obj
 0004:00000948       $pdata$??_GWPbkdf2@@UEAAPEAXI@Z 000000018004d948     w_pbkdf2.obj
 0004:00000954       $pdata$?Type@WKey@@SAXV?$Local@VString@v8@@@v8@@AEBV?$PropertyCallbackInfo@VValue@v8@@@Nan@@@Z 000000018004d954     w_key.obj
 0004:00000960       $pdata$?ModulusLength@WKey@@SAXAEBV?$FunctionCallbackInfo@VValue@v8@@@Nan@@@Z 000000018004d960     w_key.obj
 0004:0000096c       $pdata$?PublicExponent@WKey@@SAXAEBV?$FunctionCallbackInfo@VValue@v8@@@Nan@@@Z 000000018004d96c     w_key.obj
 0004:00000978       $pdata$?GenerateRsa@WKey@@SAXAEBV?$FunctionCallbackInfo@VValue@v8@@@Nan@@@Z 000000018004d978     w_key.obj
 0004:00000984       $pdata$?GenerateEc@WKey@@SAXAEBV?$FunctionCallbackInfo@VValue@v8@@@Nan@@@Z 000000018004d984     w_key.obj
 0004:00000990       $pdata$?ExportJwk@WKey@@SAXAEBV?$FunctionCallbackInfo@VValue@v8@@@Nan@@@Z 000000018004d990     w_key.obj
 0004:0000099c       $pdata$?ExportSpki@WKey@@SAXAEBV?$FunctionCallbackInfo@VValue@v8@@@Nan@@@Z 000000018004d99c     w_key.obj
 0004:000009a8       $pdata$?ExportPkcs8@WKey@@SAXAEBV?$FunctionCallbackInfo@VValue@v8@@@Nan@@@Z 000000018004d9a8     w_key.obj
 0004:000009b4       $pdata$?ImportPkcs8@WKey@@SAXAEBV?$FunctionCallbackInfo@VValue@v8@@@Nan@@@Z 000000018004d9b4     w_key.obj
 0004:000009c0       $pdata$?ImportSpki@WKey@@SAXAEBV?$FunctionCallbackInfo@VValue@v8@@@Nan@@@Z 000000018004d9c0     w_key.obj
 0004:000009cc       $pdata$?ImportJwk@WKey@@SAXAEBV?$FunctionCallbackInfo@VValue@v8@@@Nan@@@Z 000000018004d9cc     w_key.obj
 0004:000009d8       $pdata$?Sign@WKey@@SAXAEBV?$FunctionCallbackInfo@VValue@v8@@@Nan@@@Z 000000018004d9d8     w_key.obj
 0004:000009e4       $pdata$?Verify@WKey@@SAXAEBV?$FunctionCallbackInfo@VValue@v8@@@Nan@@@Z 000000018004d9e4     w_key.obj
 0004:000009f0       $pdata$?RsaOaepEncDec@WKey@@SAXAEBV?$FunctionCallbackInfo@VValue@v8@@@Nan@@@Z 000000018004d9f0     w_key.obj
 0004:000009fc       $pdata$?RsaPssSign@WKey@@SAXAEBV?$FunctionCallbackInfo@VValue@v8@@@Nan@@@Z 000000018004d9fc     w_key.obj
 0004:00000a08       $pdata$?RsaPssVerify@WKey@@SAXAEBV?$FunctionCallbackInfo@VValue@v8@@@Nan@@@Z 000000018004da08     w_key.obj
 0004:00000a14       $pdata$?EcdhDeriveKey@WKey@@SAXAEBV?$FunctionCallbackInfo@VValue@v8@@@Nan@@@Z 000000018004da14     w_key.obj
 0004:00000a20       $pdata$?EcdhDeriveBits@WKey@@SAXAEBV?$FunctionCallbackInfo@VValue@v8@@@Nan@@@Z 000000018004da20     w_key.obj
 0004:00000a2c       $pdata$??$Unwrap@VWKey@@@ObjectWrap@node@@SAPEAVWKey@@V?$Local@VObject@v8@@@v8@@@Z 000000018004da2c     w_key.obj
 0004:00000a2c       $pdata$??$Unwrap@VWHmac@@@ObjectWrap@node@@SAPEAVWHmac@@V?$Local@VObject@v8@@@v8@@@Z 000000018004da2c     w_hmac.obj
 0004:00000a2c       $pdata$??$Unwrap@VWAes@@@ObjectWrap@node@@SAPEAVWAes@@V?$Local@VObject@v8@@@v8@@@Z 000000018004da2c     w_aes.obj
 0004:00000a2c       $pdata$??$Unwrap@VWPbkdf2@@@ObjectWrap@node@@SAPEAVWPbkdf2@@V?$Local@VObject@v8@@@v8@@@Z 000000018004da2c     w_pbkdf2.obj
 0004:00000a38       $pdata$??$SetMethodAux@V?$Local@VFunction@v8@@@v8@@@imp@Nan@@YAXV?$Local@VFunction@v8@@@v8@@V?$Local@VString@v8@@@3@V?$Local@VFunctionTemplate@v8@@@3@ZZ 000000018004da38     w_key.obj
 0004:00000a44       $pdata$?Call@Nan@@YA?AV?$MaybeLocal@VValue@v8@@@v8@@V?$Local@VFunction@v8@@@3@V?$Local@VObject@v8@@@3@HQEAV?$Local@VValue@v8@@@3@@Z 000000018004da44     w_aes.obj
 0004:00000a50       $pdata$??1AsyncAesGenerateKey@@UEAA@XZ 000000018004da50     w_aes.obj
 0004:00000a5c       $pdata$??_GAsyncAesGenerateKey@@UEAAPEAXI@Z 000000018004da5c     w_aes.obj
 0004:00000a68       $pdata$??0AsyncAesEncryptCBC@@QEAA@PEAVCallback@Nan@@V?$shared_ptr@VScopedAES@@@std@@V?$shared_ptr@V?$basic_string@DU?$char_traits@D@std@@V?$allocator@D@2@@std@@@4@2_N@Z 000000018004da68     w_aes.obj
 0004:00000a74       $pdata$??1AsyncAesEncryptCBC@@UEAA@XZ 000000018004da74     w_aes.obj
 0004:00000a80       $pdata$??_GAsyncAesEncryptCBC@@UEAAPEAXI@Z 000000018004da80     w_aes.obj
 0004:00000a8c       $pdata$??0AsyncAesEncryptECB@@QEAA@PEAVCallback@Nan@@V?$shared_ptr@VScopedAES@@@std@@V?$shared_ptr@V?$basic_string@DU?$char_traits@D@std@@V?$allocator@D@2@@std@@@4@_N@Z 000000018004da8c     w_aes.obj
 0004:00000a98       $pdata$??1AsyncAesEncryptECB@@UEAA@XZ 000000018004da98     w_aes.obj
 0004:00000aa4       $pdata$??_GAsyncAesEncryptECB@@UEAAPEAXI@Z 000000018004daa4     w_aes.obj
 0004:00000ab0       $pdata$??0AsyncAesExport@@QEAA@PEAVCallback@Nan@@V?$shared_ptr@VScopedAES@@@std@@@Z 000000018004dab0     w_aes.obj
 0004:00000ab0       $pdata$??0AsyncHmacExport@@QEAA@PEAVCallback@Nan@@V?$shared_ptr@VScopedHMAC@@@std@@@Z 000000018004dab0     w_hmac.obj
 0004:00000abc       $pdata$??1AsyncHmacExport@@UEAA@XZ 000000018004dabc     w_hmac.obj
 0004:00000abc       $pdata$??1AsyncAesExport@@UEAA@XZ 000000018004dabc     w_aes.obj
 0004:00000ac8       $pdata$??_GAsyncHmacExport@@UEAAPEAXI@Z 000000018004dac8     w_hmac.obj
 0004:00000ac8       $pdata$??_GAsyncAesExport@@UEAAPEAXI@Z 000000018004dac8     w_aes.obj
 0004:00000ad4       $pdata$??0AsyncAesImport@@QEAA@PEAVCallback@Nan@@V?$shared_ptr@V?$basic_string@DU?$char_traits@D@std@@V?$allocator@D@2@@std@@@std@@@Z 000000018004dad4     w_aes.obj
 0004:00000ae0       $pdata$??1AsyncAesImport@@UEAA@XZ 000000018004dae0     w_aes.obj
 0004:00000aec       $pdata$??_GAsyncAesImport@@UEAAPEAXI@Z 000000018004daec     w_aes.obj
 0004:00000af8       $pdata$??0AsyncAesEncryptGCM@@QEAA@PEAVCallback@Nan@@V?$shared_ptr@VScopedAES@@@std@@V?$shared_ptr@V?$basic_string@DU?$char_traits@D@std@@V?$allocator@D@2@@std@@@4@22H_N@Z 000000018004daf8     w_aes.obj
 0004:00000b04       $pdata$??1AsyncAesEncryptGCM@@UEAA@XZ 000000018004db04     w_aes.obj
 0004:00000b10       $pdata$??_GAsyncAesEncryptGCM@@UEAAPEAXI@Z 000000018004db10     w_aes.obj
 0004:00000b1c       $pdata$??0AsyncAesWrapKey@@QEAA@PEAVCallback@Nan@@V?$shared_ptr@VScopedAES@@@std@@V?$shared_ptr@V?$basic_string@DU?$char_traits@D@std@@V?$allocator@D@2@@std@@@4@_N@Z 000000018004db1c     w_aes.obj
 0004:00000b28       $pdata$??1AsyncAesWrapKey@@UEAA@XZ 000000018004db28     w_aes.obj
 0004:00000b34       $pdata$??_GAsyncAesWrapKey@@UEAAPEAXI@Z 000000018004db34     w_aes.obj
 0004:00000b40       $pdata$??0AsyncAesEncryptCTR@@QEAA@PEAVCallback@Nan@@V?$shared_ptr@VScopedAES@@@std@@V?$shared_ptr@V?$basic_string@DU?$char_traits@D@std@@V?$allocator@D@2@@std@@@4@2H_N@Z 000000018004db40     w_aes.obj
 0004:00000b4c       $pdata$??1AsyncAesEncryptCTR@@UEAA@XZ 000000018004db4c     w_aes.obj
 0004:00000b58       $pdata$??_GAsyncAesEncryptCTR@@UEAAPEAXI@Z 000000018004db58     w_aes.obj
 0004:00000b64       $pdata$?constructor@WAes@@KAAEAV?$Persistent@VFunction@v8@@V?$NonCopyablePersistentTraits@VFunction@v8@@@2@@Nan@@XZ 000000018004db64     w_aes.obj
 0004:00000b70       $pdata$?Init@WAes@@SAXV?$Local@VObject@v8@@@v8@@@Z 000000018004db70     w_aes.obj
 0004:00000b7c       $pdata$?New@WAes@@SAXAEBV?$FunctionCallbackInfo@VValue@v8@@@Nan@@@Z 000000018004db7c     w_aes.obj
 0004:00000b88       $pdata$0$?New@WAes@@SAXAEBV?$FunctionCallbackInfo@VValue@v8@@@Nan@@@Z 000000018004db88     w_aes.obj
 0004:00000b94       $pdata$1$?New@WAes@@SAXAEBV?$FunctionCallbackInfo@VValue@v8@@@Nan@@@Z 000000018004db94     w_aes.obj
 0004:00000ba0       $pdata$?Generate@WAes@@SAXAEBV?$FunctionCallbackInfo@VValue@v8@@@Nan@@@Z 000000018004dba0     w_aes.obj
 0004:00000bac       $pdata$?Encrypt@WAes@@SAXAEBV?$FunctionCallbackInfo@VValue@v8@@@Nan@@@Z 000000018004dbac     w_aes.obj
 0004:00000bb8       $pdata$?Decrypt@WAes@@SAXAEBV?$FunctionCallbackInfo@VValue@v8@@@Nan@@@Z 000000018004dbb8     w_aes.obj
 0004:00000bc4       $pdata$?EncryptEcb@WAes@@SAXAEBV?$FunctionCallbackInfo@VValue@v8@@@Nan@@@Z 000000018004dbc4     w_aes.obj
 0004:00000bd0       $pdata$?DecryptEcb@WAes@@SAXAEBV?$FunctionCallbackInfo@VValue@v8@@@Nan@@@Z 000000018004dbd0     w_aes.obj
 0004:00000bdc       $pdata$?Export@WHmac@@SAXAEBV?$FunctionCallbackInfo@VValue@v8@@@Nan@@@Z 000000018004dbdc     w_hmac.obj
 0004:00000bdc       $pdata$?Export@WAes@@SAXAEBV?$FunctionCallbackInfo@VValue@v8@@@Nan@@@Z 000000018004dbdc     w_aes.obj
 0004:00000be8       $pdata$?Import@WAes@@SAXAEBV?$FunctionCallbackInfo@VValue@v8@@@Nan@@@Z 000000018004dbe8     w_aes.obj
 0004:00000bf4       $pdata$?EncryptGcm@WAes@@SAXAEBV?$FunctionCallbackInfo@VValue@v8@@@Nan@@@Z 000000018004dbf4     w_aes.obj
 0004:00000c00       $pdata$?DecryptGcm@WAes@@SAXAEBV?$FunctionCallbackInfo@VValue@v8@@@Nan@@@Z 000000018004dc00     w_aes.obj
 0004:00000c0c       $pdata$?WrapKey@WAes@@SAXAEBV?$FunctionCallbackInfo@VValue@v8@@@Nan@@@Z 000000018004dc0c     w_aes.obj
 0004:00000c18       $pdata$?UnwrapKey@WAes@@SAXAEBV?$FunctionCallbackInfo@VValue@v8@@@Nan@@@Z 000000018004dc18     w_aes.obj
 0004:00000c24       $pdata$?EncryptCtr@WAes@@SAXAEBV?$FunctionCallbackInfo@VValue@v8@@@Nan@@@Z 000000018004dc24     w_aes.obj
 0004:00000c30       $pdata$?DecryptCtr@WAes@@SAXAEBV?$FunctionCallbackInfo@VValue@v8@@@Nan@@@Z 000000018004dc30     w_aes.obj
 0004:00000c3c       $pdata$??1AsyncHmacGenerateKey@@UEAA@XZ 000000018004dc3c     w_hmac.obj
 0004:00000c48       $pdata$??_GAsyncHmacGenerateKey@@UEAAPEAXI@Z 000000018004dc48     w_hmac.obj
 0004:00000c54       $pdata$??0AsyncHmacImport@@QEAA@PEAVCallback@Nan@@V?$shared_ptr@V?$basic_string@DU?$char_traits@D@std@@V?$allocator@D@2@@std@@@std@@@Z 000000018004dc54     w_hmac.obj
 0004:00000c60       $pdata$??1AsyncHmacImport@@UEAA@XZ 000000018004dc60     w_hmac.obj
 0004:00000c6c       $pdata$??_GAsyncHmacImport@@UEAAPEAXI@Z 000000018004dc6c     w_hmac.obj
 0004:00000c78       $pdata$??0AsyncHmacSign@@QEAA@PEAVCallback@Nan@@PEBUenv_md_st@@V?$shared_ptr@VScopedHMAC@@@std@@V?$shared_ptr@V?$basic_string@DU?$char_traits@D@std@@V?$allocator@D@2@@std@@@5@@Z 000000018004dc78     w_hmac.obj
 0004:00000c84       $pdata$??1AsyncHmacSign@@UEAA@XZ 000000018004dc84     w_hmac.obj
 0004:00000c90       $pdata$??_GAsyncHmacSign@@UEAAPEAXI@Z 000000018004dc90     w_hmac.obj
 0004:00000c9c       $pdata$??0AsyncHmacVerify@@QEAA@PEAVCallback@Nan@@PEBUenv_md_st@@V?$shared_ptr@VScopedHMAC@@@std@@V?$shared_ptr@V?$basic_string@DU?$char_traits@D@std@@V?$allocator@D@2@@std@@@5@3@Z 000000018004dc9c     w_hmac.obj
 0004:00000ca8       $pdata$??1AsyncHmacVerify@@UEAA@XZ 000000018004dca8     w_hmac.obj
 0004:00000cb4       $pdata$??_GAsyncHmacVerify@@UEAAPEAXI@Z 000000018004dcb4     w_hmac.obj
 0004:00000cc0       $pdata$?constructor@WHmac@@KAAEAV?$Persistent@VFunction@v8@@V?$NonCopyablePersistentTraits@VFunction@v8@@@2@@Nan@@XZ 000000018004dcc0     w_hmac.obj
 0004:00000ccc       $pdata$?Init@WHmac@@SAXV?$Local@VObject@v8@@@v8@@@Z 000000018004dccc     w_hmac.obj
 0004:00000cd8       $pdata$?New@WHmac@@SAXAEBV?$FunctionCallbackInfo@VValue@v8@@@Nan@@@Z 000000018004dcd8     w_hmac.obj
 0004:00000ce4       $pdata$0$?New@WHmac@@SAXAEBV?$FunctionCallbackInfo@VValue@v8@@@Nan@@@Z 000000018004dce4     w_hmac.obj
 0004:00000cf0       $pdata$1$?New@WHmac@@SAXAEBV?$FunctionCallbackInfo@VValue@v8@@@Nan@@@Z 000000018004dcf0     w_hmac.obj
 0004:00000cfc       $pdata$?Generate@WHmac@@SAXAEBV?$FunctionCallbackInfo@VValue@v8@@@Nan@@@Z 000000018004dcfc     w_hmac.obj
 0004:00000d08       $pdata$?Import@WHmac@@SAXAEBV?$FunctionCallbackInfo@VValue@v8@@@Nan@@@Z 000000018004dd08     w_hmac.obj
 0004:00000d14       $pdata$?Sign@WHmac@@SAXAEBV?$FunctionCallbackInfo@VValue@v8@@@Nan@@@Z 000000018004dd14     w_hmac.obj
 0004:00000d20       $pdata$?Verify@WHmac@@SAXAEBV?$FunctionCallbackInfo@VValue@v8@@@Nan@@@Z 000000018004dd20     w_hmac.obj
 0004:00000d2c       $pdata$?convert@?$ToFactory@VNumber@v8@@@imp@Nan@@SA?AV?$MaybeLocal@VNumber@v8@@@v8@@V?$Local@VValue@v8@@@5@@Z 000000018004dd2c     w_pbkdf2.obj
 0004:00000d38       $pdata$??0AsyncPbkdf2Import@@QEAA@PEAVCallback@Nan@@V?$shared_ptr@V?$basic_string@DU?$char_traits@D@std@@V?$allocator@D@2@@std@@@std@@@Z 000000018004dd38     w_pbkdf2.obj
 0004:00000d44       $pdata$??1AsyncPbkdf2Import@@UEAA@XZ 000000018004dd44     w_pbkdf2.obj
 0004:00000d50       $pdata$??_GAsyncPbkdf2Import@@UEAAPEAXI@Z 000000018004dd50     w_pbkdf2.obj
 0004:00000d5c       $pdata$??0AsyncPbkdf2DeriveBits@@QEAA@PEAVCallback@Nan@@V?$shared_ptr@VScopedPbkdf2@@@std@@PEBUenv_md_st@@V?$shared_ptr@V?$basic_string@DU?$char_traits@D@std@@V?$allocator@D@2@@std@@@4@HH@Z 000000018004dd5c     w_pbkdf2.obj
 0004:00000d68       $pdata$??1AsyncPbkdf2DeriveBits@@UEAA@XZ 000000018004dd68     w_pbkdf2.obj
 0004:00000d74       $pdata$??_GAsyncPbkdf2DeriveBits@@UEAAPEAXI@Z 000000018004dd74     w_pbkdf2.obj
 0004:00000d80       $pdata$?constructor@WPbkdf2@@KAAEAV?$Persistent@VFunction@v8@@V?$NonCopyablePersistentTraits@VFunction@v8@@@2@@Nan@@XZ 000000018004dd80     w_pbkdf2.obj
 0004:00000d8c       $pdata$?Init@WPbkdf2@@SAXV?$Local@VObject@v8@@@v8@@@Z 000000018004dd8c     w_pbkdf2.obj
 0004:00000d98       $pdata$?New@WPbkdf2@@SAXAEBV?$FunctionCallbackInfo@VValue@v8@@@Nan@@@Z 000000018004dd98     w_pbkdf2.obj
 0004:00000da4       $pdata$0$?New@WPbkdf2@@SAXAEBV?$FunctionCallbackInfo@VValue@v8@@@Nan@@@Z 000000018004dda4     w_pbkdf2.obj
 0004:00000db0       $pdata$1$?New@WPbkdf2@@SAXAEBV?$FunctionCallbackInfo@VValue@v8@@@Nan@@@Z 000000018004ddb0     w_pbkdf2.obj
 0004:00000dbc       $pdata$?ImportKey@WPbkdf2@@SAXAEBV?$FunctionCallbackInfo@VValue@v8@@@Nan@@@Z 000000018004ddbc     w_pbkdf2.obj
 0004:00000dc8       $pdata$?DeriveBits@WPbkdf2@@SAXAEBV?$FunctionCallbackInfo@VValue@v8@@@Nan@@@Z 000000018004ddc8     w_pbkdf2.obj
 0004:00000dd4       $pdata$??0AsyncDigest@@QEAA@PEAVCallback@Nan@@V?$shared_ptr@V?$basic_string@DU?$char_traits@D@std@@V?$allocator@D@2@@std@@@std@@1@Z 000000018004ddd4     w_core.obj
 0004:00000de0       $pdata$??1AsyncDigest@@UEAA@XZ 000000018004dde0     w_core.obj
 0004:00000dec       $pdata$??_GAsyncDigest@@UEAAPEAXI@Z 000000018004ddec     w_core.obj
 0004:00000df8       $pdata$?constructor@WCore@@KAAEAV?$Persistent@VFunction@v8@@V?$NonCopyablePersistentTraits@VFunction@v8@@@2@@Nan@@XZ 000000018004ddf8     w_core.obj
 0004:00000e04       $pdata$?Init@WCore@@SAXV?$Local@VObject@v8@@@v8@@@Z 000000018004de04     w_core.obj
 0004:00000e10       $pdata$?New@WCore@@SAXAEBV?$FunctionCallbackInfo@VValue@v8@@@Nan@@@Z 000000018004de10     w_core.obj
 0004:00000e1c       $pdata$0$?New@WCore@@SAXAEBV?$FunctionCallbackInfo@VValue@v8@@@Nan@@@Z 000000018004de1c     w_core.obj
 0004:00000e28       $pdata$1$?New@WCore@@SAXAEBV?$FunctionCallbackInfo@VValue@v8@@@Nan@@@Z 000000018004de28     w_core.obj
 0004:00000e34       $pdata$?Digest@WCore@@SAXAEBV?$FunctionCallbackInfo@VValue@v8@@@Nan@@@Z 000000018004de34     w_core.obj
 0004:00000e40       $pdata$?SetErrorMessage@AsyncWorker@Nan@@IEAAXPEBD@Z 000000018004de40     async_rsa.obj
 0004:00000e4c       $pdata$?Execute@AsyncEncrypDecryptRsaOAEP@@UEAAXXZ 000000018004de4c     async_rsa.obj
 0004:00000e58       $pdata$?HandleOKCallback@AsyncEncrypDecryptRsaOAEP@@UEAAXXZ 000000018004de58     async_rsa.obj
 0004:00000e64       $pdata$?Execute@AsyncRsaGenerateKey@@UEAAXXZ 000000018004de64     async_rsa.obj
 0004:00000e70       $pdata$?HandleOKCallback@AsyncRsaGenerateKey@@UEAAXXZ 000000018004de70     async_rsa.obj
 0004:00000e70       $pdata$?HandleOKCallback@AsyncEcGenerateKey@@UEAAXXZ 000000018004de70     async_ec.obj
 0004:00000e7c       $pdata$?Execute@AsyncExportJwkRsa@@UEAAXXZ 000000018004de7c     async_rsa.obj
 0004:00000e88       $pdata$?HandleOKCallback@AsyncExportJwkRsa@@UEAAXXZ 000000018004de88     async_rsa.obj
 0004:00000e94       $pdata$?Execute@AsyncExportSpki@@UEAAXXZ 000000018004de94     async_rsa.obj
 0004:00000ea0       $pdata$?HandleOKCallback@AsyncExportSpki@@UEAAXXZ 000000018004dea0     async_rsa.obj
 0004:00000ea0       $pdata$?HandleOKCallback@AsyncExportPkcs8@@UEAAXXZ 000000018004dea0     async_rsa.obj
 0004:00000eac       $pdata$?Execute@AsyncExportPkcs8@@UEAAXXZ 000000018004deac     async_rsa.obj
 0004:00000eb8       $pdata$?Execute@AsyncImportPkcs8@@UEAAXXZ 000000018004deb8     async_rsa.obj
 0004:00000ec4       $pdata$?HandleOKCallback@AsyncImportSpki@@UEAAXXZ 000000018004dec4     async_rsa.obj
 0004:00000ec4       $pdata$?HandleOKCallback@AsyncImportPkcs8@@UEAAXXZ 000000018004dec4     async_rsa.obj
 0004:00000ed0       $pdata$?Execute@AsyncImportSpki@@UEAAXXZ 000000018004ded0     async_rsa.obj
 0004:00000edc       $pdata$?Execute@AsyncImportJwkRsa@@UEAAXXZ 000000018004dedc     async_rsa.obj
 0004:00000ee8       $pdata$?HandleOKCallback@AsyncEcImportJwk@@UEAAXXZ 000000018004dee8     async_ec.obj
 0004:00000ee8       $pdata$?HandleOKCallback@AsyncImportJwkRsa@@UEAAXXZ 000000018004dee8     async_rsa.obj
 0004:00000ef4       $pdata$?Execute@AsyncSignRsa@@UEAAXXZ 000000018004def4     async_rsa.obj
 0004:00000f00       $pdata$?HandleOKCallback@AsyncEcdsaSign@@UEAAXXZ 000000018004df00     async_ec.obj
 0004:00000f00       $pdata$?HandleOKCallback@AsyncHmacSign@@UEAAXXZ 000000018004df00     async_hmac.obj
 0004:00000f00       $pdata$?HandleOKCallback@AsyncSignRsa@@UEAAXXZ 000000018004df00     async_rsa.obj
 0004:00000f0c       $pdata$?Execute@AsyncVerifyRsa@@UEAAXXZ 000000018004df0c     async_rsa.obj
 0004:00000f18       $pdata$?HandleOKCallback@AsyncHmacVerify@@UEAAXXZ 000000018004df18     async_hmac.obj
 0004:00000f18       $pdata$?HandleOKCallback@AsyncVerifyRsa@@UEAAXXZ 000000018004df18     async_rsa.obj
 0004:00000f18       $pdata$?HandleOKCallback@AsyncEcdsaVerify@@UEAAXXZ 000000018004df18     async_ec.obj
 0004:00000f24       $pdata$?Execute@AsyncSignRsaPSS@@UEAAXXZ 000000018004df24     async_rsa.obj
 0004:00000f30       $pdata$?HandleOKCallback@AsyncSignRsaPSS@@UEAAXXZ 000000018004df30     async_rsa.obj
 0004:00000f3c       $pdata$?Execute@AsyncVerifyRsaPSS@@UEAAXXZ 000000018004df3c     async_rsa.obj
 0004:00000f48       $pdata$?HandleOKCallback@AsyncVerifyRsaPSS@@UEAAXXZ 000000018004df48     async_rsa.obj
 0004:00000f54       $pdata$?Execute@AsyncEcGenerateKey@@UEAAXXZ 000000018004df54     async_ec.obj
 0004:00000f60       $pdata$?Execute@AsyncEcdhDeriveKey@@UEAAXXZ 000000018004df60     async_ec.obj
 0004:00000f6c       $pdata$?HandleOKCallback@AsyncAesWrapKey@@UEAAXXZ 000000018004df6c     async_aes.obj
 0004:00000f6c       $pdata$?HandleOKCallback@AsyncEcdhDeriveBits@@UEAAXXZ 000000018004df6c     async_ec.obj
 0004:00000f6c       $pdata$?HandleOKCallback@AsyncEcdhDeriveKey@@UEAAXXZ 000000018004df6c     async_ec.obj
 0004:00000f6c       $pdata$?HandleOKCallback@AsyncAesEncryptECB@@UEAAXXZ 000000018004df6c     async_aes.obj
 0004:00000f78       $pdata$?Execute@AsyncEcExportJwk@@UEAAXXZ 000000018004df78     async_ec.obj
 0004:00000f84       $pdata$?HandleOKCallback@AsyncEcExportJwk@@UEAAXXZ 000000018004df84     async_ec.obj
 0004:00000f90       $pdata$?Execute@AsyncEcImportJwk@@UEAAXXZ 000000018004df90     async_ec.obj
 0004:00000f9c       $pdata$?Execute@AsyncEcdsaSign@@UEAAXXZ 000000018004df9c     async_ec.obj
 0004:00000fa8       $pdata$?Execute@AsyncEcdsaVerify@@UEAAXXZ 000000018004dfa8     async_ec.obj
 0004:00000fb4       $pdata$?Execute@AsyncEcdhDeriveBits@@UEAAXXZ 000000018004dfb4     async_ec.obj
 0004:00000fc0       $pdata$??0ScopedAES@@QEAA@V?$shared_ptr@V?$basic_string@DU?$char_traits@D@std@@V?$allocator@D@2@@std@@@std@@@Z 000000018004dfc0     async_aes.obj
 0004:00000fcc       $pdata$?NewInstance@WAes@@SA?AV?$Local@VObject@v8@@@v8@@XZ 000000018004dfcc     async_aes.obj
 0004:00000fd8       $pdata$?Execute@AsyncAesGenerateKey@@UEAAXXZ 000000018004dfd8     async_aes.obj
 0004:00000fe4       $pdata$?HandleOKCallback@AsyncAesGenerateKey@@UEAAXXZ 000000018004dfe4     async_aes.obj
 0004:00000ff0       $pdata$?Execute@AsyncAesEncryptCBC@@UEAAXXZ 000000018004dff0     async_aes.obj
 0004:00000ffc       $pdata$?HandleOKCallback@AsyncAesEncryptCTR@@UEAAXXZ 000000018004dffc     async_aes.obj
 0004:00000ffc       $pdata$?HandleOKCallback@AsyncAesEncryptCBC@@UEAAXXZ 000000018004dffc     async_aes.obj
 0004:00001008       $pdata$?Execute@AsyncAesEncryptECB@@UEAAXXZ 000000018004e008     async_aes.obj
 0004:00001014       $pdata$?Execute@AsyncAesExport@@UEAAXXZ 000000018004e014     async_aes.obj
 0004:00001014       $pdata$?Execute@AsyncHmacExport@@UEAAXXZ 000000018004e014     async_hmac.obj
 0004:00001020       $pdata$?HandleOKCallback@AsyncAesExport@@UEAAXXZ 000000018004e020     async_aes.obj
 0004:00001020       $pdata$?HandleOKCallback@AsyncHmacExport@@UEAAXXZ 000000018004e020     async_hmac.obj
 0004:0000102c       $pdata$?Execute@AsyncAesImport@@UEAAXXZ 000000018004e02c     async_aes.obj
 0004:00001038       $pdata$?HandleOKCallback@AsyncAesImport@@UEAAXXZ 000000018004e038     async_aes.obj
 0004:00001044       $pdata$?Execute@AsyncAesEncryptGCM@@UEAAXXZ 000000018004e044     async_aes.obj
 0004:00001050       $pdata$?HandleOKCallback@AsyncAesEncryptGCM@@UEAAXXZ 000000018004e050     async_aes.obj
 0004:0000105c       $pdata$?Execute@AsyncAesWrapKey@@UEAAXXZ 000000018004e05c     async_aes.obj
 0004:00001068       $pdata$?Execute@AsyncAesEncryptCTR@@UEAAXXZ 000000018004e068     async_aes.obj
 0004:00001074       $pdata$??0ScopedHMAC@@QEAA@V?$shared_ptr@V?$basic_string@DU?$char_traits@D@std@@V?$allocator@D@2@@std@@@std@@@Z 000000018004e074     async_hmac.obj
 0004:00001080       $pdata$0$??0ScopedHMAC@@QEAA@V?$shared_ptr@V?$basic_string@DU?$char_traits@D@std@@V?$allocator@D@2@@std@@@std@@@Z 000000018004e080     async_hmac.obj
 0004:0000108c       $pdata$1$??0ScopedHMAC@@QEAA@V?$shared_ptr@V?$basic_string@DU?$char_traits@D@std@@V?$allocator@D@2@@std@@@std@@@Z 000000018004e08c     async_hmac.obj
 0004:00001098       $pdata$?NewInstance@WHmac@@SA?AV?$Local@VObject@v8@@@v8@@XZ 000000018004e098     async_hmac.obj
 0004:000010a4       $pdata$?Execute@AsyncHmacGenerateKey@@UEAAXXZ 000000018004e0a4     async_hmac.obj
 0004:000010b0       $pdata$?HandleOKCallback@AsyncHmacGenerateKey@@UEAAXXZ 000000018004e0b0     async_hmac.obj
 0004:000010bc       $pdata$?Execute@AsyncHmacImport@@UEAAXXZ 000000018004e0bc     async_hmac.obj
 0004:000010c8       $pdata$?HandleOKCallback@AsyncHmacImport@@UEAAXXZ 000000018004e0c8     async_hmac.obj
 0004:000010d4       $pdata$?Execute@AsyncHmacSign@@UEAAXXZ 000000018004e0d4     async_hmac.obj
 0004:000010e0       $pdata$?Execute@AsyncHmacVerify@@UEAAXXZ 000000018004e0e0     async_hmac.obj
 0004:000010ec       $pdata$??0ScopedPbkdf2@@QEAA@V?$shared_ptr@V?$basic_string@DU?$char_traits@D@std@@V?$allocator@D@2@@std@@@std@@@Z 000000018004e0ec     async_pbkdf2.obj
 0004:000010f8       $pdata$0$??0ScopedPbkdf2@@QEAA@V?$shared_ptr@V?$basic_string@DU?$char_traits@D@std@@V?$allocator@D@2@@std@@@std@@@Z 000000018004e0f8     async_pbkdf2.obj
 0004:00001104       $pdata$1$??0ScopedPbkdf2@@QEAA@V?$shared_ptr@V?$basic_string@DU?$char_traits@D@std@@V?$allocator@D@2@@std@@@std@@@Z 000000018004e104     async_pbkdf2.obj
 0004:00001110       $pdata$?NewInstance@WPbkdf2@@SA?AV?$Local@VObject@v8@@@v8@@XZ 000000018004e110     async_pbkdf2.obj
 0004:0000111c       $pdata$?Execute@AsyncPbkdf2Import@@UEAAXXZ 000000018004e11c     async_pbkdf2.obj
 0004:00001128       $pdata$?HandleOKCallback@AsyncPbkdf2Import@@UEAAXXZ 000000018004e128     async_pbkdf2.obj
 0004:00001134       $pdata$?Execute@AsyncPbkdf2DeriveBits@@UEAAXXZ 000000018004e134     async_pbkdf2.obj
 0004:00001140       $pdata$?HandleOKCallback@AsyncPbkdf2DeriveBits@@UEAAXXZ 000000018004e140     async_pbkdf2.obj
 0004:0000114c       $pdata$?Execute@AsyncDigest@@UEAAXXZ 000000018004e14c     async_core.obj
 0004:00001158       $pdata$?HandleOKCallback@AsyncDigest@@UEAAXXZ 000000018004e158     async_core.obj
 0004:00001164       $pdata$?load_exe_hook@@YAP6A_JXZIPEAUDelayLoadInfo@@@Z 000000018004e164     win_delay_load_hook.obj
 0004:0000117c       $pdata$??0bad_alloc@std@@QEAA@AEBV01@@Z 000000018004e17c     libcpmt:xthrow.obj
 0004:00001188       $pdata$??0exception@std@@QEAA@AEBV01@@Z 000000018004e188     libcpmt:xthrow.obj
 0004:00001194       $pdata$??0length_error@std@@QEAA@AEBV01@@Z 000000018004e194     libcpmt:xthrow.obj
 0004:000011a0       $pdata$??0length_error@std@@QEAA@PEBD@Z 000000018004e1a0     libcpmt:xthrow.obj
 0004:000011ac       $pdata$??0logic_error@std@@QEAA@AEBV01@@Z 000000018004e1ac     libcpmt:xthrow.obj
 0004:000011b8       $pdata$??0out_of_range@std@@QEAA@AEBV01@@Z 000000018004e1b8     libcpmt:xthrow.obj
 0004:000011c4       $pdata$??0out_of_range@std@@QEAA@PEBD@Z 000000018004e1c4     libcpmt:xthrow.obj
 0004:000011d0       $pdata$??_Glength_error@std@@UEAAPEAXI@Z 000000018004e1d0     libcpmt:xthrow.obj
 0004:000011d0       $pdata$??_Glogic_error@std@@UEAAPEAXI@Z 000000018004e1d0     libcpmt:xthrow.obj
 0004:000011d0       $pdata$??_Gbad_exception@std@@UEAAPEAXI@Z 000000018004e1d0     libvcruntime:frame.obj
 0004:000011d0       $pdata$??_Gexception@std@@UEAAPEAXI@Z 000000018004e1d0     libcpmt:xthrow.obj
 0004:000011d0       $pdata$??_Gbad_alloc@std@@UEAAPEAXI@Z 000000018004e1d0     libcpmt:xthrow.obj
 0004:000011d0       $pdata$??_Gout_of_range@std@@UEAAPEAXI@Z 000000018004e1d0     libcpmt:xthrow.obj
 0004:000011d0       $pdata$??_Gbad_array_new_length@std@@UEAAPEAXI@Z 000000018004e1d0     LIBCMT:throw_bad_alloc.obj
 0004:000011dc       $pdata$?__scrt_throw_std_bad_alloc@@YAXXZ 000000018004e1dc     LIBCMT:throw_bad_alloc.obj
 0004:000011dc       $pdata$?_Xbad_alloc@std@@YAXXZ 000000018004e1dc     libcpmt:xthrow.obj
 0004:000011e8       $pdata$?_Xlength_error@std@@YAXPEBD@Z 000000018004e1e8     libcpmt:xthrow.obj
 0004:000011f4       $pdata$?_Xout_of_range@std@@YAXPEBD@Z 000000018004e1f4     libcpmt:xthrow.obj
 0004:0000120c       $pdata$??2@YAPEAX_K@Z      000000018004e20c     LIBCMT:new_scalar.obj
 0004:00001218       $pdata$??_Gtype_info@@UEAAPEAXI@Z 000000018004e218     LIBCMT:std_type_info_static.obj
 0004:00001224       $pdata$?__scrt_initialize_thread_safe_statics@@YAHXZ 000000018004e224     LIBCMT:thread_safe_statics.obj
 0004:00001230       $pdata$?__scrt_uninitialize_thread_safe_statics@@YAXXZ 000000018004e230     LIBCMT:thread_safe_statics.obj
 0004:0000123c       $pdata$_Init_thread_footer 000000018004e23c     LIBCMT:thread_safe_statics.obj
 0004:00001248       $pdata$_Init_thread_header 000000018004e248     LIBCMT:thread_safe_statics.obj
 0004:00001254       $pdata$_Init_thread_notify 000000018004e254     LIBCMT:thread_safe_statics.obj
 0004:00001260       $pdata$_Init_thread_wait   000000018004e260     LIBCMT:thread_safe_statics.obj
 0004:0000126c       $pdata$__scrt_acquire_startup_lock 000000018004e26c     LIBCMT:utility.obj
 0004:00001278       $pdata$__scrt_dllmain_after_initialize_c 000000018004e278     LIBCMT:utility.obj
 0004:00001284       $pdata$__scrt_dllmain_before_initialize_c 000000018004e284     LIBCMT:utility.obj
 0004:00001290       $pdata$__scrt_dllmain_crt_thread_attach 000000018004e290     LIBCMT:utility.obj
 0004:0000129c       $pdata$__scrt_dllmain_crt_thread_detach 000000018004e29c     LIBCMT:utility.obj
 0004:000012a8       $pdata$__scrt_dllmain_exception_filter 000000018004e2a8     LIBCMT:utility.obj
 0004:000012b4       $pdata$__scrt_dllmain_uninitialize_c 000000018004e2b4     LIBCMT:utility.obj
 0004:000012c0       $pdata$__scrt_dllmain_uninitialize_critical 000000018004e2c0     LIBCMT:utility.obj
 0004:000012cc       $pdata$__scrt_initialize_crt 000000018004e2cc     LIBCMT:utility.obj
 0004:000012d8       $pdata$__scrt_initialize_onexit_tables 000000018004e2d8     LIBCMT:utility.obj
 0004:000012e4       $pdata$__scrt_is_nonwritable_in_current_image 000000018004e2e4     LIBCMT:utility.obj
 0004:000012f0       $pdata$__scrt_release_startup_lock 000000018004e2f0     LIBCMT:utility.obj
 0004:000012fc       $pdata$__scrt_uninitialize_crt 000000018004e2fc     LIBCMT:utility.obj
 0004:00001308       $pdata$_onexit             000000018004e308     LIBCMT:utility.obj
 0004:00001314       $pdata$atexit              000000018004e314     LIBCMT:utility.obj
 0004:00001320       $pdata$?dllmain_crt_dispatch@@YAHQEAUHINSTANCE__@@KQEAX@Z 000000018004e320     LIBCMT:dll_dllmain.obj
 0004:0000132c       $pdata$?dllmain_crt_process_attach@@YAHQEAUHINSTANCE__@@QEAX@Z 000000018004e32c     LIBCMT:dll_dllmain.obj
 0004:00001338       $pdata$?dllmain_crt_process_detach@@YAH_N@Z 000000018004e338     LIBCMT:dll_dllmain.obj
 0004:00001344       $pdata$?dllmain_dispatch@@YAHQEAUHINSTANCE__@@KQEAX@Z 000000018004e344     LIBCMT:dll_dllmain.obj
 0004:00001350       $pdata$?dllmain_raw@@YAHQEAUHINSTANCE__@@KQEAX@Z 000000018004e350     LIBCMT:dll_dllmain.obj
 0004:0000135c       $pdata$_DllMainCRTStartup  000000018004e35c     LIBCMT:dll_dllmain.obj
 0004:00001368       $pdata$__raise_securityfailure 000000018004e368     LIBCMT:gs_report.obj
 0004:00001374       $pdata$__report_gsfailure  000000018004e374     LIBCMT:gs_report.obj
 0004:00001380       $pdata$__report_rangecheckfailure 000000018004e380     LIBCMT:gs_report.obj
 0004:0000138c       $pdata$__report_securityfailure 000000018004e38c     LIBCMT:gs_report.obj
 0004:00001398       $pdata$capture_current_context 000000018004e398     LIBCMT:gs_report.obj
 0004:000013a4       $pdata$capture_previous_context 000000018004e3a4     LIBCMT:gs_report.obj
 0004:000013b0       $pdata$??0bad_array_new_length@std@@QEAA@AEBV01@@Z 000000018004e3b0     LIBCMT:throw_bad_alloc.obj
 0004:000013bc       $pdata$?__scrt_throw_std_bad_array_new_length@@YAXXZ 000000018004e3bc     LIBCMT:throw_bad_alloc.obj
 0004:000013c8       $pdata$__scrt_fastfail     000000018004e3c8     LIBCMT:utility_desktop.obj
 0004:000013d4       $pdata$__isa_available_init 000000018004e3d4     LIBCMT:_cpu_disp_.obj
 0004:000013e0       $pdata$__security_init_cookie 000000018004e3e0     LIBCMT:gs_support.obj
 0004:000013ec       $pdata$__scrt_initialize_default_local_stdio_options 000000018004e3ec     LIBCMT:default_local_stdio_options.obj
 0004:000013f8       $pdata$_RTC_Initialize     000000018004e3f8     LIBCMT:_initsect_.obj
 0004:00001404       $pdata$_RTC_Terminate      000000018004e404     LIBCMT:_initsect_.obj
 0004:00001410       $pdata$__DestructExceptionObject 000000018004e410     libvcruntime:frame.obj
 0004:0000141c       $pdata$??0bad_exception@std@@QEAA@AEBV01@@Z 000000018004e41c     libvcruntime:frame.obj
 0004:00001428       $pdata$?CatchIt@@YAXPEAUEHExceptionRecord@@PEA_KPEAU_CONTEXT@@PEAU_xDISPATCHER_CONTEXT@@PEBU_s_FuncInfo@@PEBU_s_HandlerType@@PEBU_s_CatchableType@@PEBU_s_TryBlockMapEntry@@H1EE@Z 000000018004e428     libvcruntime:frame.obj
 0004:00001434       $pdata$?ExFilterRethrow@@YAHPEAU_EXCEPTION_POINTERS@@PEAUEHExceptionRecord@@PEAH@Z 000000018004e434     libvcruntime:frame.obj
 0004:00001440       $pdata$?FindHandler@@YAXPEAUEHExceptionRecord@@PEA_KPEAU_CONTEXT@@PEAU_xDISPATCHER_CONTEXT@@PEBU_s_FuncInfo@@EH1@Z 000000018004e440     libvcruntime:frame.obj
 0004:0000144c       $pdata$?FindHandlerForForeignException@@YAXPEAUEHExceptionRecord@@PEA_KPEAU_CONTEXT@@PEAU_xDISPATCHER_CONTEXT@@PEBU_s_FuncInfo@@HH1@Z 000000018004e44c     libvcruntime:frame.obj
 0004:00001458       $pdata$?IsInExceptionSpec@@YAEPEAUEHExceptionRecord@@PEBU_s_ESTypeList@@@Z 000000018004e458     libvcruntime:frame.obj
 0004:00001464       $pdata$__BuildCatchObject  000000018004e464     libvcruntime:frame.obj
 0004:00001470       $pdata$__BuildCatchObjectHelper 000000018004e470     libvcruntime:frame.obj
 0004:0000147c       $pdata$__CxxCallCatchBlock 000000018004e47c     libvcruntime:frame.obj
 0004:00001488       $pdata$__FrameUnwindFilter 000000018004e488     libvcruntime:frame.obj
 0004:00001494       $pdata$__FrameUnwindToState 000000018004e494     libvcruntime:frame.obj
 0004:000014a0       $pdata$__InternalCxxFrameHandler 000000018004e4a0     libvcruntime:frame.obj
 0004:000014ac       $pdata$__TypeMatch         000000018004e4ac     libvcruntime:frame.obj
 0004:000014b8       $pdata$__std_terminate     000000018004e4b8     libvcruntime:frame.obj
 0004:000014d0       $pdata$_purecall           000000018004e4d0     libvcruntime:purevirt.obj
 0004:000014dc       $pdata$__std_exception_copy 000000018004e4dc     libvcruntime:std_exception.obj
 0004:000014e8       $pdata$__std_exception_destroy 000000018004e4e8     libvcruntime:std_exception.obj
 0004:000014f4       $pdata$_CxxThrowException  000000018004e4f4     libvcruntime:throw.obj
 0004:00001500       $pdata$?try_get_function@@YAPEAXW4function_id@?A0x679b24ab@@QEBDQEBW4module_id@2@2@Z 000000018004e500     libvcruntime:winapi_downlevel.obj
 0004:0000150c       $pdata$__vcrt_FlsAlloc     000000018004e50c     libvcruntime:winapi_downlevel.obj
 0004:00001518       $pdata$__vcrt_FlsFree      000000018004e518     libvcruntime:winapi_downlevel.obj
 0004:00001524       $pdata$__vcrt_FlsGetValue  000000018004e524     libvcruntime:winapi_downlevel.obj
 0004:00001530       $pdata$__vcrt_FlsSetValue  000000018004e530     libvcruntime:winapi_downlevel.obj
 0004:0000153c       $pdata$__vcrt_InitializeCriticalSectionEx 000000018004e53c     libvcruntime:winapi_downlevel.obj
 0004:00001548       $pdata$__vcrt_uninitialize_winapi_thunks 000000018004e548     libvcruntime:winapi_downlevel.obj
 0004:00001554       $pdata$__vcrt_initialize   000000018004e554     libvcruntime:initialization.obj
 0004:00001560       $pdata$__vcrt_thread_attach 000000018004e560     libvcruntime:initialization.obj
 0004:0000156c       $pdata$__vcrt_thread_detach 000000018004e56c     libvcruntime:initialization.obj
 0004:00001578       $pdata$__vcrt_uninitialize 000000018004e578     libvcruntime:initialization.obj
 0004:00001584       $pdata$__vcrt_uninitialize_critical 000000018004e584     libvcruntime:initialization.obj
 0004:00001590       $pdata$__C_specific_handler 000000018004e590     libvcruntime:_chandler_.obj
 0004:000015a8       $pdata$__std_type_info_destroy_list 000000018004e5a8     libvcruntime:std_type_info.obj
 0004:000015b4       $pdata$__vcrt_freefls      000000018004e5b4     libvcruntime:per_thread_data.obj
 0004:000015c0       $pdata$__vcrt_freeptd      000000018004e5c0     libvcruntime:per_thread_data.obj
 0004:000015cc       $pdata$__vcrt_getptd       000000018004e5cc     libvcruntime:per_thread_data.obj
 0004:000015d8       $pdata$__vcrt_getptd_noexit 000000018004e5d8     libvcruntime:per_thread_data.obj
 0004:000015e4       $pdata$__vcrt_initialize_ptd 000000018004e5e4     libvcruntime:per_thread_data.obj
 0004:000015f0       $pdata$__vcrt_uninitialize_ptd 000000018004e5f0     libvcruntime:per_thread_data.obj
 0004:000015fc       $pdata$?__GetCurrentState@@YAHPEA_KPEAU_xDISPATCHER_CONTEXT@@PEBU_s_FuncInfo@@@Z 000000018004e5fc     libvcruntime:ehstate.obj
 0004:00001608       $pdata$?__GetUnwindTryBlock@@YAHPEA_KPEAU_xDISPATCHER_CONTEXT@@PEBU_s_FuncInfo@@@Z 000000018004e608     libvcruntime:ehstate.obj
 0004:00001614       $pdata$?__SetUnwindTryBlock@@YAXPEA_KPEAU_xDISPATCHER_CONTEXT@@PEBU_s_FuncInfo@@H@Z 000000018004e614     libvcruntime:ehstate.obj
 0004:00001620       $pdata$?__StateFromIp@@YAHPEBU_s_FuncInfo@@PEAU_xDISPATCHER_CONTEXT@@_J@Z 000000018004e620     libvcruntime:ehstate.obj
 0004:00001638       $pdata$?_ExecutionInCatch@@YAHPEAU_xDISPATCHER_CONTEXT@@PEBU_s_FuncInfo@@@Z 000000018004e638     libvcruntime:trnsctrl.obj
 0004:00001644       $pdata$?_GetEstablisherFrame@@YAPEA_KPEA_KPEAU_xDISPATCHER_CONTEXT@@PEBU_s_FuncInfo@@0@Z 000000018004e644     libvcruntime:trnsctrl.obj
 0004:00001650       $pdata$?_GetRangeOfTrysToCheck@@YAPEBU_s_TryBlockMapEntry@@PEA_KPEBU_s_FuncInfo@@HHPEAI2PEAU_xDISPATCHER_CONTEXT@@@Z 000000018004e650     libvcruntime:trnsctrl.obj
 0004:0000165c       $pdata$?__FrameUnwindToEmptyState@@YAXPEA_KPEAU_xDISPATCHER_CONTEXT@@PEBU_s_FuncInfo@@@Z 000000018004e65c     libvcruntime:trnsctrl.obj
 0004:00001668       $pdata$?__SehTransFilter@@YAHPEAU_EXCEPTION_POINTERS@@PEAUEHExceptionRecord@@PEA_KPEAU_CONTEXT@@PEAU_xDISPATCHER_CONTEXT@@PEBU_s_FuncInfo@@PEAH@Z 000000018004e668     libvcruntime:trnsctrl.obj
 0004:00001674       $pdata$_CallSETranslator   000000018004e674     libvcruntime:trnsctrl.obj
 0004:00001680       $pdata$_CreateFrameInfo    000000018004e680     libvcruntime:trnsctrl.obj
 0004:0000168c       $pdata$_FindAndUnlinkFrame 000000018004e68c     libvcruntime:trnsctrl.obj
 0004:00001698       $pdata$_GetImageBase       000000018004e698     libvcruntime:trnsctrl.obj
 0004:000016a4       $pdata$_GetThrowImageBase  000000018004e6a4     libvcruntime:trnsctrl.obj
 0004:000016b0       $pdata$_IsExceptionObjectToBeDestroyed 000000018004e6b0     libvcruntime:trnsctrl.obj
 0004:000016bc       $pdata$_SetImageBase       000000018004e6bc     libvcruntime:trnsctrl.obj
 0004:000016c8       $pdata$_SetThrowImageBase  000000018004e6c8     libvcruntime:trnsctrl.obj
 0004:000016d4       $pdata$_UnwindNestedFrames 000000018004e6d4     libvcruntime:trnsctrl.obj
 0004:000016e0       $pdata$__CxxFrameHandler3  000000018004e6e0     libvcruntime:trnsctrl.obj
 0004:0000171c       $pdata$__vcrt_initialize_locks 000000018004e71c     libvcruntime:locks.obj
 0004:00001728       $pdata$__vcrt_uninitialize_locks 000000018004e728     libvcruntime:locks.obj
 0004:00001734       $pdata$__acrt_call_reportfault 000000018004e734     libucrt:invalid_parameter.obj
 0004:00001740       $pdata$_invalid_parameter  000000018004e740     libucrt:invalid_parameter.obj
 0004:0000174c       $pdata$_invalid_parameter_noinfo 000000018004e74c     libucrt:invalid_parameter.obj
 0004:00001758       $pdata$_invalid_parameter_noinfo_noreturn 000000018004e758     libucrt:invalid_parameter.obj
 0004:00001764       $pdata$_invoke_watson      000000018004e764     libucrt:invalid_parameter.obj
 0004:00001770       $pdata$??$common_assert_to_message_box@_W@@YAXQEB_W0IQEAX@Z 000000018004e770     libucrt:assert.obj
 0004:0000177c       $pdata$??$common_assert_to_message_box_build_string@_W@@YAXQEA_W_KQEB_W2IQEAX@Z 000000018004e77c     libucrt:assert.obj
 0004:00001788       $pdata$??$common_assert_to_stderr@_W@@YAXQEB_W0I@Z 000000018004e788     libucrt:assert.obj
 0004:00001794       $pdata$_wassert            000000018004e794     libucrt:assert.obj
 0004:000017a0       $pdata$fwprintf            000000018004e7a0     libucrt:assert.obj
 0004:000017ac       $pdata$swprintf            000000018004e7ac     libucrt:assert.obj
 0004:000017b8       $pdata$??0_LocaleUpdate@@QEAA@QEAU__crt_locale_pointers@@@Z 000000018004e7b8     libucrt:stricmp.obj
 0004:000017c4       $pdata$_stricmp            000000018004e7c4     libucrt:stricmp.obj
 0004:000017d0       $pdata$_stricmp_l          000000018004e7d0     libucrt:stricmp.obj
 0004:000017dc       $pdata$_callnewh           000000018004e7dc     libucrt:new_handler.obj
 0004:000017e8       $pdata$_query_new_handler  000000018004e7e8     libucrt:new_handler.obj
 0004:000017f4       $pdata$_seh_filter_exe     000000018004e7f4     libucrt:exception_filter.obj
 0004:00001800       $pdata$?common_exit@@YAXHW4_crt_exit_cleanup_mode@@W4_crt_exit_return_mode@@@Z 000000018004e800     libucrt:exit.obj
 0004:0000180c       $pdata$?exit_or_terminate_process@@YAXI@Z 000000018004e80c     libucrt:exit.obj
 0004:00001818       $pdata$?try_cor_exit_process@@YAXI@Z 000000018004e818     libucrt:exit.obj
 0004:00001824       $pdata$??$parse_command_line@D@@YAXPEADPEAPEAD0PEA_K2@Z 000000018004e824     libucrt:argv_parsing.obj
 0004:00001830       $pdata$__acrt_allocate_buffer_for_argv 000000018004e830     libucrt:argv_parsing.obj
 0004:0000183c       $pdata$_configure_narrow_argv 000000018004e83c     libucrt:argv_parsing.obj
 0004:00001848       $pdata$??$common_initialize_environment_nolock@D@@YAHXZ 000000018004e848     libucrt:environment_initialization.obj
 0004:00001854       $pdata$??$create_environment@D@@YAQEAPEADQEAD@Z 000000018004e854     libucrt:environment_initialization.obj
 0004:00001860       $pdata$??$free_environment@_W@@YAXQEAPEA_W@Z 000000018004e860     libucrt:environment_initialization.obj
 0004:00001860       $pdata$??$free_environment@D@@YAXQEAPEAD@Z 000000018004e860     libucrt:environment_initialization.obj
 0004:0000186c       $pdata$??$uninitialize_environment_internal@D@@YAXAEAPEAPEAD@Z 000000018004e86c     libucrt:environment_initialization.obj
 0004:00001878       $pdata$??$uninitialize_environment_internal@_W@@YAXAEAPEAPEA_W@Z 000000018004e878     libucrt:environment_initialization.obj
 0004:00001884       $pdata$__dcrt_uninitialize_environments_nolock 000000018004e884     libucrt:environment_initialization.obj
 0004:00001890       $pdata$??$?RV<lambda_b8c45f8f788dd370798f47cfe8ac3a86>@@AEAV<lambda_4e60a939b0d047cfe11ddc22648dfba9>@@V<lambda_332c3edc96d0294ec56c57d38c1cdfd5>@@@?$__crt_seh_guarded_call@H@@QEAAH$$QEAV<lambda_b8c45f8f788dd370798f47cfe8ac3a86>@@AEAV<lambda_4e60a939b0d047cfe11ddc22648dfba9>@@$$QEAV<lambda_332c3edc96d0294ec56c57d38c1cdfd5>@@@Z 000000018004e890     libucrt:onexit.obj
 0004:0000189c       $pdata$??$?RV<lambda_e24bbb7b643b32fcea6fa61b31d4c984>@@AEAV<lambda_275893d493268fdec8709772e3fcec0e>@@V<lambda_9d71df4d7cf3f480f8d633942495c3b0>@@@?$__crt_seh_guarded_call@H@@QEAAH$$QEAV<lambda_e24bbb7b643b32fcea6fa61b31d4c984>@@AEAV<lambda_275893d493268fdec8709772e3fcec0e>@@$$QEAV<lambda_9d71df4d7cf3f480f8d633942495c3b0>@@@Z 000000018004e89c     libucrt:onexit.obj
 0004:000018a8       $pdata$??R<lambda_4e60a939b0d047cfe11ddc22648dfba9>@@QEBAHXZ 000000018004e8a8     libucrt:onexit.obj
 0004:000018b4       $pdata$_execute_onexit_table 000000018004e8b4     libucrt:onexit.obj
 0004:000018c0       $pdata$_register_onexit_function 000000018004e8c0     libucrt:onexit.obj
 0004:000018cc       $pdata$initialize_c        000000018004e8cc     libucrt:initialization.obj
 0004:000018d8       $pdata$uninitialize_environment 000000018004e8d8     libucrt:initialization.obj
 0004:000018e4       $pdata$initialize_pointers 000000018004e8e4     libucrt:initialization.obj
 0004:000018f0       $pdata$uninitialize_allocated_memory 000000018004e8f0     libucrt:initialization.obj
 0004:000018fc       $pdata$__acrt_thread_attach 000000018004e8fc     libucrt:initialization.obj
 0004:00001908       $pdata$__acrt_thread_detach 000000018004e908     libucrt:initialization.obj
 0004:00001914       $pdata$__acrt_uninitialize_critical 000000018004e914     libucrt:initialization.obj
 0004:00001920       $pdata$_initterm           000000018004e920     libucrt:initterm.obj
 0004:0000192c       $pdata$_initterm_e         000000018004e92c     libucrt:initterm.obj
 0004:00001938       $pdata$terminate           000000018004e938     libucrt:terminate.obj
 0004:00001944       $pdata$abort               000000018004e944     libucrt:abort.obj
 0004:00001950       $pdata$strcpy_s            000000018004e950     libucrt:strcpy_s.obj
 0004:0000195c       $pdata$_free_base          000000018004e95c     libucrt:free_base.obj
 0004:00001968       $pdata$_malloc_base        000000018004e968     libucrt:malloc_base.obj
 0004:00001974       $pdata$_calloc_base        000000018004e974     libucrt:calloc_base.obj
 0004:00001980       $pdata$??$?RV<lambda_7b91131dde12e1c3dfc74ff76b3f2eac>@@AEAV<lambda_dd75445284c072d0bd3768540cc698fa>@@V<lambda_16bc4ecb55b4718497c16bceaea2ceaf>@@@?$__crt_seh_guarded_call@H@@QEAAH$$QEAV<lambda_7b91131dde12e1c3dfc74ff76b3f2eac>@@AEAV<lambda_dd75445284c072d0bd3768540cc698fa>@@$$QEAV<lambda_16bc4ecb55b4718497c16bceaea2ceaf>@@@Z 000000018004e980     libucrt:output.obj
 0004:0000198c       $pdata$??$ensure_buffer_is_big_enough@D@formatting_buffer@__crt_stdio_output@@QEAA_N_K@Z 000000018004e98c     libucrt:output.obj
 0004:00001998       $pdata$??$type_case_integer_parse_into_buffer@I@?$output_processor@_WV?$stream_output_adapter@_W@__crt_stdio_output@@V?$standard_base@_WV?$stream_output_adapter@_W@__crt_stdio_output@@@2@@__crt_stdio_output@@AEAAXII_N@Z 000000018004e998     libucrt:output.obj
 0004:00001998       $pdata$??$type_case_integer_parse_into_buffer@I@?$output_processor@_WV?$string_output_adapter@_W@__crt_stdio_output@@V?$standard_base@_WV?$string_output_adapter@_W@__crt_stdio_output@@@2@@__crt_stdio_output@@AEAAXII_N@Z 000000018004e998     libucrt:output.obj
 0004:000019a4       $pdata$??$type_case_integer_parse_into_buffer@_K@?$output_processor@_WV?$stream_output_adapter@_W@__crt_stdio_output@@V?$standard_base@_WV?$stream_output_adapter@_W@__crt_stdio_output@@@2@@__crt_stdio_output@@AEAAX_KI_N@Z 000000018004e9a4     libucrt:output.obj
 0004:000019a4       $pdata$??$type_case_integer_parse_into_buffer@_K@?$output_processor@_WV?$string_output_adapter@_W@__crt_stdio_output@@V?$standard_base@_WV?$string_output_adapter@_W@__crt_stdio_output@@@2@@__crt_stdio_output@@AEAAX_KI_N@Z 000000018004e9a4     libucrt:output.obj
 0004:000019b0       $pdata$??$write_multiple_characters@V?$stream_output_adapter@_W@__crt_stdio_output@@D@__crt_stdio_output@@YAXAEBV?$stream_output_adapter@_W@0@DHQEAH@Z 000000018004e9b0     libucrt:output.obj
 0004:000019bc       $pdata$??$write_multiple_characters@V?$string_output_adapter@_W@__crt_stdio_output@@D@__crt_stdio_output@@YAXAEBV?$string_output_adapter@_W@0@DHQEAH@Z 000000018004e9bc     libucrt:output.obj
 0004:000019c8       $pdata$??0?$output_processor@_WV?$stream_output_adapter@_W@__crt_stdio_output@@V?$standard_base@_WV?$stream_output_adapter@_W@__crt_stdio_output@@@2@@__crt_stdio_output@@QEAA@AEBV?$stream_output_adapter@_W@1@_KQEB_WQEAU__crt_locale_pointers@@QEAD@Z 000000018004e9c8     libucrt:output.obj
 0004:000019c8       $pdata$??0?$output_processor@_WV?$string_output_adapter@_W@__crt_stdio_output@@V?$standard_base@_WV?$string_output_adapter@_W@__crt_stdio_output@@@2@@__crt_stdio_output@@QEAA@AEBV?$string_output_adapter@_W@1@_KQEB_WQEAU__crt_locale_pointers@@QEAD@Z 000000018004e9c8     libucrt:output.obj
 0004:000019d4       $pdata$??R<lambda_dd75445284c072d0bd3768540cc698fa>@@QEBAHXZ 000000018004e9d4     libucrt:output.obj
 0004:000019e0       $pdata$?force_decimal_point@__crt_stdio_output@@YAXPEADQEAU__crt_locale_pointers@@@Z 000000018004e9e0     libucrt:output.obj
 0004:000019ec       $pdata$?parse_int_from_format_string@?$output_processor@_WV?$stream_output_adapter@_W@__crt_stdio_output@@V?$standard_base@_WV?$stream_output_adapter@_W@__crt_stdio_output@@@2@@__crt_stdio_output@@AEAA_NQEAH@Z 000000018004e9ec     libucrt:output.obj
 0004:000019ec       $pdata$?parse_int_from_format_string@?$output_processor@_WV?$string_output_adapter@_W@__crt_stdio_output@@V?$standard_base@_WV?$string_output_adapter@_W@__crt_stdio_output@@@2@@__crt_stdio_output@@AEAA_NQEAH@Z 000000018004e9ec     libucrt:output.obj
 0004:000019f8       $pdata$?process@?$output_processor@_WV?$stream_output_adapter@_W@__crt_stdio_output@@V?$standard_base@_WV?$stream_output_adapter@_W@__crt_stdio_output@@@2@@__crt_stdio_output@@QEAAHXZ 000000018004e9f8     libucrt:output.obj
 0004:00001a04       $pdata$?process@?$output_processor@_WV?$string_output_adapter@_W@__crt_stdio_output@@V?$standard_base@_WV?$string_output_adapter@_W@__crt_stdio_output@@@2@@__crt_stdio_output@@QEAAHXZ 000000018004ea04     libucrt:output.obj
 0004:00001a10       $pdata$?state_case_size@?$output_processor@_WV?$stream_output_adapter@_W@__crt_stdio_output@@V?$standard_base@_WV?$stream_output_adapter@_W@__crt_stdio_output@@@2@@__crt_stdio_output@@AEAA_NXZ 000000018004ea10     libucrt:output.obj
 0004:00001a1c       $pdata$?state_case_size@?$output_processor@_WV?$string_output_adapter@_W@__crt_stdio_output@@V?$standard_base@_WV?$string_output_adapter@_W@__crt_stdio_output@@@2@@__crt_stdio_output@@AEAA_NXZ 000000018004ea1c     libucrt:output.obj
 0004:00001a28       $pdata$?state_case_type@?$output_processor@_WV?$stream_output_adapter@_W@__crt_stdio_output@@V?$standard_base@_WV?$stream_output_adapter@_W@__crt_stdio_output@@@2@@__crt_stdio_output@@AEAA_NXZ 000000018004ea28     libucrt:output.obj
 0004:00001a34       $pdata$?state_case_type@?$output_processor@_WV?$string_output_adapter@_W@__crt_stdio_output@@V?$standard_base@_WV?$string_output_adapter@_W@__crt_stdio_output@@@2@@__crt_stdio_output@@AEAA_NXZ 000000018004ea34     libucrt:output.obj
 0004:00001a40       $pdata$?type_case_Z@?$output_processor@_WV?$stream_output_adapter@_W@__crt_stdio_output@@V?$standard_base@_WV?$stream_output_adapter@_W@__crt_stdio_output@@@2@@__crt_stdio_output@@AEAA_NXZ 000000018004ea40     libucrt:output.obj
 0004:00001a40       $pdata$?type_case_Z@?$output_processor@_WV?$string_output_adapter@_W@__crt_stdio_output@@V?$standard_base@_WV?$string_output_adapter@_W@__crt_stdio_output@@@2@@__crt_stdio_output@@AEAA_NXZ 000000018004ea40     libucrt:output.obj
 0004:00001a4c       $pdata$?type_case_a@?$output_processor@_WV?$string_output_adapter@_W@__crt_stdio_output@@V?$standard_base@_WV?$string_output_adapter@_W@__crt_stdio_output@@@2@@__crt_stdio_output@@AEAA_NXZ 000000018004ea4c     libucrt:output.obj
 0004:00001a4c       $pdata$?type_case_a@?$output_processor@_WV?$stream_output_adapter@_W@__crt_stdio_output@@V?$standard_base@_WV?$stream_output_adapter@_W@__crt_stdio_output@@@2@@__crt_stdio_output@@AEAA_NXZ 000000018004ea4c     libucrt:output.obj
 0004:00001a58       $pdata$?type_case_c_tchar@?$output_processor@_WV?$string_output_adapter@_W@__crt_stdio_output@@V?$standard_base@_WV?$string_output_adapter@_W@__crt_stdio_output@@@2@@__crt_stdio_output@@AEAA_N_W@Z 000000018004ea58     libucrt:output.obj
 0004:00001a58       $pdata$?type_case_c_tchar@?$output_processor@_WV?$stream_output_adapter@_W@__crt_stdio_output@@V?$standard_base@_WV?$stream_output_adapter@_W@__crt_stdio_output@@@2@@__crt_stdio_output@@AEAA_N_W@Z 000000018004ea58     libucrt:output.obj
 0004:00001a64       $pdata$?type_case_integer@?$output_processor@_WV?$stream_output_adapter@_W@__crt_stdio_output@@V?$standard_base@_WV?$stream_output_adapter@_W@__crt_stdio_output@@@2@@__crt_stdio_output@@AEAA_NI_N@Z 000000018004ea64     libucrt:output.obj
 0004:00001a64       $pdata$?type_case_integer@?$output_processor@_WV?$string_output_adapter@_W@__crt_stdio_output@@V?$standard_base@_WV?$string_output_adapter@_W@__crt_stdio_output@@@2@@__crt_stdio_output@@AEAA_NI_N@Z 000000018004ea64     libucrt:output.obj
 0004:00001a70       $pdata$?type_case_n@?$output_processor@_WV?$stream_output_adapter@_W@__crt_stdio_output@@V?$standard_base@_WV?$stream_output_adapter@_W@__crt_stdio_output@@@2@@__crt_stdio_output@@AEAA_NXZ 000000018004ea70     libucrt:output.obj
 0004:00001a70       $pdata$?type_case_n@?$output_processor@_WV?$string_output_adapter@_W@__crt_stdio_output@@V?$standard_base@_WV?$string_output_adapter@_W@__crt_stdio_output@@@2@@__crt_stdio_output@@AEAA_NXZ 000000018004ea70     libucrt:output.obj
 0004:00001a7c       $pdata$?type_case_s@?$output_processor@_WV?$string_output_adapter@_W@__crt_stdio_output@@V?$standard_base@_WV?$string_output_adapter@_W@__crt_stdio_output@@@2@@__crt_stdio_output@@AEAA_NXZ 000000018004ea7c     libucrt:output.obj
 0004:00001a7c       $pdata$?type_case_s@?$output_processor@_WV?$stream_output_adapter@_W@__crt_stdio_output@@V?$standard_base@_WV?$stream_output_adapter@_W@__crt_stdio_output@@@2@@__crt_stdio_output@@AEAA_NXZ 000000018004ea7c     libucrt:output.obj
 0004:00001a88       $pdata$?write_stored_string_tchar@?$output_processor@_WV?$stream_output_adapter@_W@__crt_stdio_output@@V?$standard_base@_WV?$stream_output_adapter@_W@__crt_stdio_output@@@2@@__crt_stdio_output@@AEAA_N_W@Z 000000018004ea88     libucrt:output.obj
 0004:00001a94       $pdata$?write_stored_string_tchar@?$output_processor@_WV?$string_output_adapter@_W@__crt_stdio_output@@V?$standard_base@_WV?$string_output_adapter@_W@__crt_stdio_output@@@2@@__crt_stdio_output@@AEAA_N_W@Z 000000018004ea94     libucrt:output.obj
 0004:00001aa0       $pdata$?write_string@?$stream_output_adapter@_W@__crt_stdio_output@@QEBAXQEB_WHQEAH1@Z 000000018004eaa0     libucrt:output.obj
 0004:00001aac       $pdata$?write_string@?$string_output_adapter@_W@__crt_stdio_output@@QEBAXQEB_WHQEAH1@Z 000000018004eaac     libucrt:output.obj
 0004:00001ab8       $pdata$__stdio_common_vfwprintf 000000018004eab8     libucrt:output.obj
 0004:00001ac4       $pdata$__stdio_common_vswprintf 000000018004eac4     libucrt:output.obj
 0004:00001ad0       $pdata$??$parse_integer@KV?$c_string_character_source@_W@__crt_strtox@@@__crt_strtox@@YAKQEAU__crt_locale_pointers@@V?$c_string_character_source@_W@0@H_N@Z 000000018004ead0     libucrt:atox.obj
 0004:00001adc       $pdata$??$?RV<lambda_46352004c1216016012b18bd6f87e700>@@AEAV<lambda_3bd07e1a1191394380780325891bf33f>@@V<lambda_334532d3f185bcaa59b5be82d7d22bff>@@@?$__crt_seh_guarded_call@X@@QEAAX$$QEAV<lambda_46352004c1216016012b18bd6f87e700>@@AEAV<lambda_3bd07e1a1191394380780325891bf33f>@@$$QEAV<lambda_334532d3f185bcaa59b5be82d7d22bff>@@@Z 000000018004eadc     libucrt:per_thread_data.obj
 0004:00001ae8       $pdata$??$?RV<lambda_5e887d1dcbef67a5eb4283622ba103bf>@@AEAV<lambda_4466841279450cc726390878d4a41900>@@V<lambda_341c25c0346d94847f1f3c463c57e077>@@@?$__crt_seh_guarded_call@X@@QEAAX$$QEAV<lambda_5e887d1dcbef67a5eb4283622ba103bf>@@AEAV<lambda_4466841279450cc726390878d4a41900>@@$$QEAV<lambda_341c25c0346d94847f1f3c463c57e077>@@@Z 000000018004eae8     libucrt:per_thread_data.obj
 0004:00001af4       $pdata$??$?RV<lambda_72d1df2b273a38828b1ce30cbf4cdab5>@@AEAV<lambda_876a65b173b8412d3a47c70a915b0cf4>@@V<lambda_41932305e351933ebe8f8be3ed8bb5dc>@@@?$__crt_seh_guarded_call@X@@QEAAX$$QEAV<lambda_72d1df2b273a38828b1ce30cbf4cdab5>@@AEAV<lambda_876a65b173b8412d3a47c70a915b0cf4>@@$$QEAV<lambda_41932305e351933ebe8f8be3ed8bb5dc>@@@Z 000000018004eaf4     libucrt:per_thread_data.obj
 0004:00001b00       $pdata$??$?RV<lambda_fb3a7dec4e47f37f22dae91bb15c9095>@@AEAV<lambda_698284760c8add0bfb0756c19673e34b>@@V<lambda_dfb8eca1e75fef3034a8fb18dd509707>@@@?$__crt_seh_guarded_call@X@@QEAAX$$QEAV<lambda_fb3a7dec4e47f37f22dae91bb15c9095>@@AEAV<lambda_698284760c8add0bfb0756c19673e34b>@@$$QEAV<lambda_dfb8eca1e75fef3034a8fb18dd509707>@@@Z 000000018004eb00     libucrt:per_thread_data.obj
 0004:00001b0c       $pdata$?construct_ptd_array@@YAXQEAU__acrt_ptd@@@Z 000000018004eb0c     libucrt:per_thread_data.obj
 0004:00001b18       $pdata$?destroy_fls@@YAXPEAX@Z 000000018004eb18     libucrt:per_thread_data.obj
 0004:00001b24       $pdata$?destroy_ptd_array@@YAXQEAU__acrt_ptd@@@Z 000000018004eb24     libucrt:per_thread_data.obj
 0004:00001b30       $pdata$?replace_current_thread_locale_nolock@@YAXQEAU__acrt_ptd@@QEAU__crt_locale_data@@@Z 000000018004eb30     libucrt:per_thread_data.obj
 0004:00001b3c       $pdata$__acrt_freeptd      000000018004eb3c     libucrt:per_thread_data.obj
 0004:00001b48       $pdata$__acrt_getptd       000000018004eb48     libucrt:per_thread_data.obj
 0004:00001b54       $pdata$__acrt_getptd_noexit 000000018004eb54     libucrt:per_thread_data.obj
 0004:00001b60       $pdata$__acrt_initialize_ptd 000000018004eb60     libucrt:per_thread_data.obj
 0004:00001b6c       $pdata$__acrt_uninitialize_ptd 000000018004eb6c     libucrt:per_thread_data.obj
 0004:00001b78       $pdata$__acrt_errno_map_os_error 000000018004eb78     libucrt:errno.obj
 0004:00001b84       $pdata$__doserrno          000000018004eb84     libucrt:errno.obj
 0004:00001b90       $pdata$_errno              000000018004eb90     libucrt:errno.obj
 0004:00001b9c       $pdata$??$common_xtox@K_W@@YAHKQEA_W_KI_N@Z 000000018004eb9c     libucrt:xtoa.obj
 0004:00001ba8       $pdata$??$common_xtox_s@K_W@@YAHKQEA_W_KI_N@Z 000000018004eba8     libucrt:xtoa.obj
 0004:00001bb4       $pdata$_itow_s             000000018004ebb4     libucrt:xtoa.obj
 0004:00001bc0       $pdata$_set_error_mode     000000018004ebc0     libucrt:set_error_mode.obj
 0004:00001bcc       $pdata$wcscat_s            000000018004ebcc     libucrt:wcscat_s.obj
 0004:00001bd8       $pdata$wcscpy_s            000000018004ebd8     libucrt:wcscpy_s.obj
 0004:00001be4       $pdata$wcsncat_s           000000018004ebe4     libucrt:wcsncat_s.obj
 0004:00001bf0       $pdata$??$message_box_wait_thread@_W@@YAKQEAX@Z 000000018004ebf0     libucrt:crtmbox.obj
 0004:00001bfc       $pdata$__acrt_show_wide_message_box 000000018004ebfc     libucrt:crtmbox.obj
 0004:00001c08       $pdata$__acrt_initialize_stdio 000000018004ec08     libucrt:_file.obj
 0004:00001c14       $pdata$__acrt_uninitialize_stdio 000000018004ec14     libucrt:_file.obj
 0004:00001c20       $pdata$__acrt_stdio_flush_nolock 000000018004ec20     libucrt:fflush.obj
 0004:00001c2c       $pdata$_fflush_nolock      000000018004ec2c     libucrt:fflush.obj
 0004:00001c38       $pdata$common_flush_all    000000018004ec38     libucrt:fflush.obj
 0004:00001c44       $pdata$fflush              000000018004ec44     libucrt:fflush.obj
 0004:00001c50       $pdata$??$?RV<lambda_7a5ef57ff966f610505f1d28a3d40618>@@AEAV<lambda_b721fa326cdb32351d23dfa67958c160>@@V<lambda_5e0fb27672408a07956fe59e48ccb2aa>@@@?$__crt_seh_guarded_call@H@@QEAAH$$QEAV<lambda_7a5ef57ff966f610505f1d28a3d40618>@@AEAV<lambda_b721fa326cdb32351d23dfa67958c160>@@$$QEAV<lambda_5e0fb27672408a07956fe59e48ccb2aa>@@@Z 000000018004ec50     libucrt:setvbuf.obj
 0004:00001c5c       $pdata$??R<lambda_b721fa326cdb32351d23dfa67958c160>@@QEBAHXZ 000000018004ec5c     libucrt:setvbuf.obj
 0004:00001c68       $pdata$setvbuf             000000018004ec68     libucrt:setvbuf.obj
 0004:00001c74       $pdata$??$?RV<lambda_c36588078e9f5dfd39652860aa6b3aaf>@@AEAV<lambda_ec61778202f4f5fc7e7711acc23c3bca>@@V<lambda_dc9d2797ccde5d239b4a0efae8ebd7db>@@@?$__crt_seh_guarded_call@P6AXH@Z@@QEAAP6AXH@Z$$QEAV<lambda_c36588078e9f5dfd39652860aa6b3aaf>@@AEAV<lambda_ec61778202f4f5fc7e7711acc23c3bca>@@$$QEAV<lambda_dc9d2797ccde5d239b4a0efae8ebd7db>@@@Z 000000018004ec74     libucrt:signal.obj
 0004:00001c80       $pdata$__acrt_get_sigabrt_handler 000000018004ec80     libucrt:signal.obj
 0004:00001c8c       $pdata$raise               000000018004ec8c     libucrt:signal.obj
 0004:00001c98       $pdata$?internal_isupper_l@@YA_NHQEAU__crt_locale_pointers@@@Z 000000018004ec98     libucrt:tolower_toupper.obj
 0004:00001ca4       $pdata$_tolower_l          000000018004eca4     libucrt:tolower_toupper.obj
 0004:00001cb0       $pdata$tolower             000000018004ecb0     libucrt:tolower_toupper.obj
 0004:00001cbc       $pdata$__acrt_update_locale_info 000000018004ecbc     libucrt:locale_update.obj
 0004:00001cc8       $pdata$__acrt_update_multibyte_info 000000018004ecc8     libucrt:locale_update.obj
 0004:00001cd4       $pdata$__acrt_uninitialize_locale 000000018004ecd4     libucrt:wsetlocale.obj
 0004:00001ce0       $pdata$__acrt_initialize_locks 000000018004ece0     libucrt:locks.obj
 0004:00001cec       $pdata$__acrt_uninitialize_locks 000000018004ecec     libucrt:locks.obj
 0004:00001cf8       $pdata$?try_get_function@@YAPEAXW4function_id@?A0x63058377@@QEBDQEBW4module_id@2@2@Z 000000018004ecf8     libucrt:winapi_thunks.obj
 0004:00001d04       $pdata$__acrt_FlsAlloc     000000018004ed04     libucrt:winapi_thunks.obj
 0004:00001d10       $pdata$__acrt_FlsFree      000000018004ed10     libucrt:winapi_thunks.obj
 0004:00001d1c       $pdata$__acrt_FlsGetValue  000000018004ed1c     libucrt:winapi_thunks.obj
 0004:00001d28       $pdata$__acrt_FlsSetValue  000000018004ed28     libucrt:winapi_thunks.obj
 0004:00001d34       $pdata$__acrt_InitializeCriticalSectionEx 000000018004ed34     libucrt:winapi_thunks.obj
 0004:00001d40       $pdata$__acrt_LCMapStringEx 000000018004ed40     libucrt:winapi_thunks.obj
 0004:00001d4c       $pdata$__acrt_LocaleNameToLCID 000000018004ed4c     libucrt:winapi_thunks.obj
 0004:00001d58       $pdata$__acrt_MessageBoxW  000000018004ed58     libucrt:winapi_thunks.obj
 0004:00001d64       $pdata$__acrt_can_show_message_box 000000018004ed64     libucrt:winapi_thunks.obj
 0004:00001d70       $pdata$__acrt_get_parent_window 000000018004ed70     libucrt:winapi_thunks.obj
 0004:00001d7c       $pdata$__acrt_initialize_winapi_thunks 000000018004ed7c     libucrt:winapi_thunks.obj
 0004:00001d88       $pdata$__acrt_is_interactive 000000018004ed88     libucrt:winapi_thunks.obj
 0004:00001d94       $pdata$__acrt_is_packaged_app 000000018004ed94     libucrt:winapi_thunks.obj
 0004:00001da0       $pdata$__acrt_uninitialize_winapi_thunks 000000018004eda0     libucrt:winapi_thunks.obj
 0004:00001dac       $pdata$??$common_expand_argv_wildcards@D@@YAHQEAPEADQEAPEAPEAD@Z 000000018004edac     libucrt:argv_wildcards.obj
 0004:00001db8       $pdata$??$copy_and_add_argument_to_buffer@D@@YAHQEBD0_KAEAV?$argument_list@D@?A0xca0879c4@@@Z 000000018004edb8     libucrt:argv_wildcards.obj
 0004:00001dc4       $pdata$??$expand_argument_wildcards@D@@YAHQEAD0AEAV?$argument_list@D@?A0xca0879c4@@@Z 000000018004edc4     libucrt:argv_wildcards.obj
 0004:00001dd0       $pdata$?expand_if_necessary@?$argument_list@D@?A0xca0879c4@@AEAAHXZ 000000018004edd0     libucrt:argv_wildcards.obj
 0004:00001ddc       $pdata$??$?RV<lambda_99476a1ad63dd22509b5d3e65b0ffc95>@@AEAV<lambda_ad1ced32f4ac17aa236e5ef05d6b3b7c>@@V<lambda_f7424dd8d45958661754dc4f2697e9c3>@@@?$__crt_seh_guarded_call@X@@QEAAX$$QEAV<lambda_99476a1ad63dd22509b5d3e65b0ffc95>@@AEAV<lambda_ad1ced32f4ac17aa236e5ef05d6b3b7c>@@$$QEAV<lambda_f7424dd8d45958661754dc4f2697e9c3>@@@Z 000000018004eddc     libucrt:mbctype.obj
 0004:00001de8       $pdata$??R<lambda_ad1ced32f4ac17aa236e5ef05d6b3b7c>@@QEBAXXZ 000000018004ede8     libucrt:mbctype.obj
 0004:00001df4       $pdata$?getSystemCP@@YAHH@Z 000000018004edf4     libucrt:mbctype.obj
 0004:00001e00       $pdata$?setSBCS@@YAXPEAU__crt_multibyte_data@@@Z 000000018004ee00     libucrt:mbctype.obj
 0004:00001e0c       $pdata$?setSBUpLow@@YAXPEAU__crt_multibyte_data@@@Z 000000018004ee0c     libucrt:mbctype.obj
 0004:00001e18       $pdata$?setmbcp_internal@@YAHH_N@Z 000000018004ee18     libucrt:mbctype.obj
 0004:00001e24       $pdata$__acrt_initialize_multibyte 000000018004ee24     libucrt:mbctype.obj
 0004:00001e30       $pdata$__acrt_update_thread_multibyte_data 000000018004ee30     libucrt:mbctype.obj
 0004:00001e3c       $pdata$_setmbcp_nolock     000000018004ee3c     libucrt:mbctype.obj
 0004:00001e48       $pdata$?x_ismbbtype_l@@YAHPEAU__crt_locale_pointers@@IHH@Z 000000018004ee48     libucrt:ismbbyte.obj
 0004:00001e54       $pdata$__acrt_initialize_command_line 000000018004ee54     libucrt:argv_data.obj
 0004:00001e60       $pdata$__dcrt_get_narrow_environment_from_os 000000018004ee60     libucrt:get_environment_from_os.obj
 0004:00001e6c       $pdata$_recalloc_base      000000018004ee6c     libucrt:recalloc.obj
 0004:00001e78       $pdata$__acrt_initialize_heap 000000018004ee78     libucrt:heap_handle.obj
 0004:00001e84       $pdata$?initialize_inherited_file_handles_nolock@@YAXXZ 000000018004ee84     libucrt:ioinit.obj
 0004:00001e90       $pdata$?initialize_stdio_handles_nolock@@YAXXZ 000000018004ee90     libucrt:ioinit.obj
 0004:00001e9c       $pdata$__acrt_initialize_lowio 000000018004ee9c     libucrt:ioinit.obj
 0004:00001ea8       $pdata$__acrt_uninitialize_lowio 000000018004eea8     libucrt:ioinit.obj
 0004:00001eb4       $pdata$__acrt_execute_initializers 000000018004eeb4     libucrt:shared_initialization.obj
 0004:00001ec0       $pdata$__acrt_execute_uninitializers 000000018004eec0     libucrt:shared_initialization.obj
 0004:00001ecc       $pdata$__acrt_invoke_user_matherr 000000018004eecc     libucrt:matherr.obj
 0004:00001ed8       $pdata$__acrt_stdio_begin_temporary_buffering_nolock 000000018004eed8     libucrt:_sftbuf.obj
 0004:00001ee4       $pdata$__acrt_stdio_end_temporary_buffering_nolock 000000018004eee4     libucrt:_sftbuf.obj
 0004:00001ef0       $pdata$isdigit             000000018004eef0     libucrt:_ctype.obj
 0004:00001efc       $pdata$wcstol              000000018004eefc     libucrt:strtox.obj
 0004:00001f08       $pdata$_mbtowc_l           000000018004ef08     libucrt:mbtowc.obj
 0004:00001f14       $pdata$_wctomb_s_l         000000018004ef14     libucrt:wctomb.obj
 0004:00001f20       $pdata$wctomb_s            000000018004ef20     libucrt:wctomb.obj
 0004:00001f2c       $pdata$wcsnlen             000000018004ef2c     libucrt:strnlen.obj
 0004:00001f38       $pdata$?fp_format_a@@YAHQEBNPEAD_KQEAD2H_NIQEAU__crt_locale_pointers@@@Z 000000018004ef38     libucrt:cvt.obj
 0004:00001f44       $pdata$?fp_format_e@@YAHQEBNQEAD_K12H_NIQEAU__crt_locale_pointers@@@Z 000000018004ef44     libucrt:cvt.obj
 0004:00001f50       $pdata$?fp_format_e_internal@@YAHQEAD_KH_NIQEAU_strflt@@2QEAU__crt_locale_pointers@@@Z 000000018004ef50     libucrt:cvt.obj
 0004:00001f5c       $pdata$?fp_format_f_internal@@YAHQEAD_KHQEAU_strflt@@_NQEAU__crt_locale_pointers@@@Z 000000018004ef5c     libucrt:cvt.obj
 0004:00001f68       $pdata$?fp_format_g@@YAHQEBNQEAD_K12H_NIQEAU__crt_locale_pointers@@@Z 000000018004ef68     libucrt:cvt.obj
 0004:00001f74       $pdata$?fp_format_nan_or_infinity@@YAHW4__acrt_fp_class@@_NPEAD_K1@Z 000000018004ef74     libucrt:cvt.obj
 0004:00001f80       $pdata$__acrt_fp_format    000000018004ef80     libucrt:cvt.obj
 0004:00001f8c       $pdata$_fputwc_nolock      000000018004ef8c     libucrt:fputwc.obj
 0004:00001f98       $pdata$_fileno             000000018004ef98     libucrt:fileno.obj
 0004:00001fa4       $pdata$__pctype_func       000000018004efa4     libucrt:ctype.obj
 0004:00001fb0       $pdata$iswctype            000000018004efb0     libucrt:iswctype.obj
 0004:00001fbc       $pdata$_isctype_l          000000018004efbc     libucrt:isctype.obj
 0004:00001fc8       $pdata$__acrt_free_locale  000000018004efc8     libucrt:locale_refcounting.obj
 0004:00001fd4       $pdata$__acrt_locale_free_lc_time_if_unreferenced 000000018004efd4     libucrt:locale_refcounting.obj
 0004:00001fe0       $pdata$__acrt_release_locale_ref 000000018004efe0     libucrt:locale_refcounting.obj
 0004:00001fec       $pdata$__acrt_update_thread_locale_data 000000018004efec     libucrt:locale_refcounting.obj
 0004:00001ff8       $pdata$_updatetlocinfoEx_nolock 000000018004eff8     libucrt:locale_refcounting.obj
 0004:00002004       $pdata$_fcloseall          000000018004f004     libucrt:closeall.obj
 0004:00002010       $pdata$__acrt_stdio_free_buffer_nolock 000000018004f010     libucrt:_freebuf.obj
 0004:0000201c       $pdata$??$?RV<lambda_b521505b218e5242e90febf6bfebc422>@@AEAV<lambda_6978c1fb23f02e42e1d9e99668cc68aa>@@V<lambda_314360699dd331753a4119843814e9a7>@@@?$__crt_seh_guarded_call@H@@QEAAH$$QEAV<lambda_b521505b218e5242e90febf6bfebc422>@@AEAV<lambda_6978c1fb23f02e42e1d9e99668cc68aa>@@$$QEAV<lambda_314360699dd331753a4119843814e9a7>@@@Z 000000018004f01c     libucrt:commit.obj
 0004:00002028       $pdata$_commit             000000018004f028     libucrt:commit.obj
 0004:00002034       $pdata$?write_double_translated_ansi_nolock@@YA?AUwrite_result@?A0x9c548279@@HQEBDI@Z 000000018004f034     libucrt:write.obj
 0004:00002040       $pdata$?write_text_ansi_nolock@@YA?AUwrite_result@?A0x9c548279@@HQEBDI@Z 000000018004f040     libucrt:write.obj
 0004:0000204c       $pdata$?write_text_utf16le_nolock@@YA?AUwrite_result@?A0x9c548279@@HQEBDI@Z 000000018004f04c     libucrt:write.obj
 0004:00002058       $pdata$?write_text_utf8_nolock@@YA?AUwrite_result@?A0x9c548279@@HQEBDI@Z 000000018004f058     libucrt:write.obj
 0004:00002064       $pdata$_write              000000018004f064     libucrt:write.obj
 0004:00002070       $pdata$_write_nolock       000000018004f070     libucrt:write.obj
 0004:0000207c       $pdata$_isleadbyte_l       000000018004f07c     libucrt:_wctype.obj
 0004:00002088       $pdata$?__acrt_LCMapStringA_stat@@YAHPEAU__crt_locale_pointers@@PEB_WKPEBDHPEADHHH@Z 000000018004f088     libucrt:lcmapstringa.obj
 0004:00002094       $pdata$__acrt_LCMapStringA 000000018004f094     libucrt:lcmapstringa.obj
 0004:000020a0       $pdata$__acrt_locale_free_monetary 000000018004f0a0     libucrt:initmon.obj
 0004:000020ac       $pdata$__acrt_locale_free_numeric 000000018004f0ac     libucrt:initnum.obj
 0004:000020b8       $pdata$?free_crt_array_internal@@YAXQEAPEBX_K@Z 000000018004f0b8     libucrt:inittime.obj
 0004:000020c4       $pdata$__acrt_locale_free_time 000000018004f0c4     libucrt:inittime.obj
 0004:000020d0       $pdata$__acrt_GetStringTypeA 000000018004f0d0     libucrt:getstringtypea.obj
 0004:000020dc       $pdata$?GetTableIndexFromLocaleName@@YAHPEB_W@Z 000000018004f0dc     libucrt:lcidtoname_downlevel.obj
 0004:000020e8       $pdata$__acrt_DownlevelLocaleNameToLCID 000000018004f0e8     libucrt:lcidtoname_downlevel.obj
 0004:000020f4       $pdata$?shortsort@@YAXPEAD0_KP6AHPEBX2@Z@Z 000000018004f0f4     libucrt:qsort.obj
 0004:00002100       $pdata$2$?shortsort@@YAXPEAD0_KP6AHPEBX2@Z@Z 000000018004f100     libucrt:qsort.obj
 0004:0000210c       $pdata$3$?shortsort@@YAXPEAD0_KP6AHPEBX2@Z@Z 000000018004f10c     libucrt:qsort.obj
 0004:00002118       $pdata$qsort               000000018004f118     libucrt:qsort.obj
 0004:00002124       $pdata$4$qsort             000000018004f124     libucrt:qsort.obj
 0004:00002130       $pdata$5$qsort             000000018004f130     libucrt:qsort.obj
 0004:0000213c       $pdata$strncpy_s           000000018004f13c     libucrt:strncpy_s.obj
 0004:00002148       $pdata$strpbrk             000000018004f148     libucrt:strpbrk.obj
 0004:00002154       $pdata$_mbsdec_l           000000018004f154     libucrt:mbsdec.obj
 0004:00002160       $pdata$?initialize_multibyte@@YAHXZ 000000018004f160     libucrt:multibyte_initializer.obj
 0004:0000216c       $pdata$_msize              000000018004f16c     libucrt:msize.obj
 0004:00002178       $pdata$_realloc_base       000000018004f178     libucrt:realloc_base.obj
 0004:00002184       $pdata$__acrt_lowio_create_handle_array 000000018004f184     libucrt:osfinfo.obj
 0004:00002190       $pdata$__acrt_lowio_destroy_handle_array 000000018004f190     libucrt:osfinfo.obj
 0004:0000219c       $pdata$__acrt_lowio_ensure_fh_exists 000000018004f19c     libucrt:osfinfo.obj
 0004:000021a8       $pdata$_free_osfhnd        000000018004f1a8     libucrt:osfinfo.obj
 0004:000021b4       $pdata$_get_osfhandle      000000018004f1b4     libucrt:osfinfo.obj
 0004:000021c0       $pdata$_isatty             000000018004f1c0     libucrt:isatty.obj
 0004:000021cc       $pdata$__acrt_fp_strflt_to_string 000000018004f1cc     libucrt:_fptostr.obj
 0004:000021d8       $pdata$?divide@__crt_strtox@@YA_KAEAUbig_integer@1@AEBU21@@Z 000000018004f1d8     libucrt:cfout.obj
 0004:000021e4       $pdata$5$?divide@__crt_strtox@@YA_KAEAUbig_integer@1@AEBU21@@Z 000000018004f1e4     libucrt:cfout.obj
 0004:000021f0       $pdata$6$?divide@__crt_strtox@@YA_KAEAUbig_integer@1@AEBU21@@Z 000000018004f1f0     libucrt:cfout.obj
 0004:000021fc       $pdata$__acrt_fltout       000000018004f1fc     libucrt:cfout.obj
 0004:00002208       $pdata$memcpy_s            000000018004f208     libucrt:cfout.obj
 0004:00002214       $pdata$??$write_buffer_nolock@D@@YA_NDV__crt_stdio_stream@@@Z 000000018004f214     libucrt:_flsbuf.obj
 0004:00002220       $pdata$??$write_buffer_nolock@_W@@YA_N_WV__crt_stdio_stream@@@Z 000000018004f220     libucrt:_flsbuf.obj
 0004:0000222c       $pdata$__acrt_stdio_flush_and_write_narrow_nolock 000000018004f22c     libucrt:_flsbuf.obj
 0004:00002238       $pdata$__acrt_stdio_flush_and_write_wide_nolock 000000018004f238     libucrt:_flsbuf.obj
 0004:00002244       $pdata$_fclose_nolock      000000018004f244     libucrt:fclose.obj
 0004:00002250       $pdata$fclose              000000018004f250     libucrt:fclose.obj
 0004:0000225c       $pdata$??$common_lseek@_J@@YA_JH_JH@Z 000000018004f25c     libucrt:lseek.obj
 0004:00002268       $pdata$??$common_lseek_nolock@_J@@YA_JH_JH@Z 000000018004f268     libucrt:lseek.obj
 0004:00002274       $pdata$_putwch_nolock      000000018004f274     libucrt:putwch.obj
 0004:00002280       $pdata$fegetenv            000000018004f280     libucrt:fegetenv.obj
 0004:0000228c       $pdata$fesetenv            000000018004f28c     libucrt:fesetenv.obj
 0004:00002298       $pdata$feholdexcept        000000018004f298     libucrt:feholdexcept.obj
 0004:000022b0       $pdata$__acrt_stdio_allocate_buffer_nolock 000000018004f2b0     libucrt:_getbuf.obj
 0004:000022bc       $pdata$??$?RV<lambda_bfedae4ebbf01fab1bb6dcc6a9e276e0>@@AEAV<lambda_2fe9b910cf3cbf4a0ab98a02ba45b3ec>@@V<lambda_237c231691f317818eb88cc1d5d642d6>@@@?$__crt_seh_guarded_call@H@@QEAAH$$QEAV<lambda_bfedae4ebbf01fab1bb6dcc6a9e276e0>@@AEAV<lambda_2fe9b910cf3cbf4a0ab98a02ba45b3ec>@@$$QEAV<lambda_237c231691f317818eb88cc1d5d642d6>@@@Z 000000018004f2bc     libucrt:close.obj
 0004:000022c8       $pdata$_close              000000018004f2c8     libucrt:close.obj
 0004:000022d4       $pdata$_close_nolock       000000018004f2d4     libucrt:close.obj
 0004:000022e0       $pdata$__dcrt_lowio_initialize_console_output 000000018004f2e0     libucrt:initcon.obj
 0004:000022ec       $pdata$__dcrt_terminate_console_output 000000018004f2ec     libucrt:initcon.obj
 0004:000022f8       $pdata$_getfpcontrolword   000000018004f2f8     libucrt:_fenvutils.obj
 0004:00002304       $pdata$_getfpstatusword    000000018004f304     libucrt:_fenvutils.obj
 0004:00002310       $pdata$_setfpstatusword    000000018004f310     libucrt:_fenvutils.obj
 0004:0000231c       $pdata$_clearfp            000000018004f31c     libucrt:ieee.obj
 0004:00002328       $pdata$common_control87    000000018004f328     libucrt:ieee.obj
 0004:00002334       $pdata$_call_matherr       000000018004f334     libucrt:libm_error.obj
 0004:00002340       $pdata$_exception_enabled  000000018004f340     libucrt:libm_error.obj
 0004:0000234c       $pdata$_handle_error       000000018004f34c     libucrt:libm_error.obj
 0004:00002358       $pdata$__acrt_initialize_fma3 000000018004f358     libucrt:fma3_available.obj
 0004:00002364       $pdata$_log10_special      000000018004f364     libucrt:log_special.obj
 0004:00002370       $pdata$_log_special_common 000000018004f370     libucrt:log_special.obj
 0004:00002388       $pdata$_raise_exc          000000018004f388     libucrt:fpexcept.obj
 0004:00002394       $pdata$_raise_exc_ex       000000018004f394     libucrt:fpexcept.obj
 0004:000023a0       $pdata$_set_errno_from_matherr 000000018004f3a0     libucrt:fpexcept.obj
 0004:000023ac       $pdata$_clrfp              000000018004f3ac     libucrt:fpctrl.obj
 0004:000023b8       $pdata$_ctrlfp             000000018004f3b8     libucrt:fpctrl.obj
 0004:000023c4       $pdata$_set_statfp         000000018004f3c4     libucrt:fpctrl.obj
 0004:000023d0       $pdata$_statfp             000000018004f3d0     libucrt:fpctrl.obj
 0004:000023dc       $pdata$?DloadAcquireSectionWriteAccess@@YAXXZ 000000018004f3dc     DelayImp:delayhlp.obj
 0004:000023e8       $pdata$?DloadGetSRWLockFunctionPointers@@YAEXZ 000000018004f3e8     DelayImp:delayhlp.obj
 0004:000023f4       $pdata$?DloadMakePermanentImageCommit@@YAXPEAX_K@Z 000000018004f3f4     DelayImp:delayhlp.obj
 0004:00002400       $pdata$?DloadObtainSection@@YAPEAXPEAK0@Z 000000018004f400     DelayImp:delayhlp.obj
 0004:0000240c       $pdata$?DloadProtectSection@@YAXKPEAK@Z 000000018004f40c     DelayImp:delayhlp.obj
 0004:00002418       $pdata$?DloadReleaseSectionWriteAccess@@YAXXZ 000000018004f418     DelayImp:delayhlp.obj
 0004:00002424       $pdata$__delayLoadHelper2  000000018004f424     DelayImp:delayhlp.obj
 0004:00002430       $pdata$_IsNonwritableInCurrentImage 000000018004f430     LIBCMT:pesect.obj
 0004:0000243c       $pdata$__GSHandlerCheck    000000018004f43c     LIBCMT:_gshandler_.obj
 0004:00002448       $pdata$__GSHandlerCheckCommon 000000018004f448     LIBCMT:_gshandler_.obj
 0004:0000246c       $pdata$strrchr             000000018004f46c     libvcruntime:strrchr.obj
 0004:00002478       $pdata$__GSHandlerCheck_EH 000000018004f478     LIBCMT:gshandlereh.obj
 0004:00002490       $pdata$?dtor$2@?0??KEY_export@@YA?AV?$shared_ptr@V?$basic_string@DU?$char_traits@D@std@@V?$allocator@D@2@@std@@@std@@PEAUevp_pkey_st@@P6AHPEAUbio_st@@0@Z@Z@4HA 000000018004f490     key_exp.obj
 0004:0000249c       $pdata$?dtor$2@?0??digest@@YA?AV?$shared_ptr@V?$basic_string@DU?$char_traits@D@std@@V?$allocator@D@2@@std@@@std@@PEBUenv_md_st@@V12@@Z@4HA 000000018004f49c     digest.obj
 0004:000024a8       $pdata$?dtor$2@?0??From@JwkRsa@@SA?AV?$shared_ptr@VJwkRsa@@@std@@V?$shared_ptr@V?$ScopedSSL@Uevp_pkey_st@@$1?ScopedEVP_PKEY_free@@YAXPEAX@Z@@@3@AEAH@Z@4HA 000000018004f4a8     rsa_jwk.obj
 0004:000024b4       $pdata$?dtor$7@?0??RSA_PKCS1_sign@@YA?AV?$shared_ptr@V?$basic_string@DU?$char_traits@D@std@@V?$allocator@D@2@@std@@@std@@V?$shared_ptr@V?$ScopedSSL@Uevp_pkey_st@@$1?ScopedEVP_PKEY_free@@YAXPEAX@Z@@@2@PEBUenv_md_st@@V12@@Z@4HA 000000018004f4b4     rsa_pkcs1.obj
 0004:000024b4       $pdata$?dtor$7@?0??RSA_PSS_sign@@YA?AV?$shared_ptr@V?$basic_string@DU?$char_traits@D@std@@V?$allocator@D@2@@std@@@std@@V?$shared_ptr@V?$ScopedSSL@Uevp_pkey_st@@$1?ScopedEVP_PKEY_free@@YAXPEAX@Z@@@2@PEBUenv_md_st@@HV12@@Z@4HA 000000018004f4b4     rsa_pss.obj
 0004:000024c0       $pdata$?dtor$13@?0??RSA_OAEP_enc_dec@@YA?AV?$shared_ptr@V?$basic_string@DU?$char_traits@D@std@@V?$allocator@D@2@@std@@@std@@V?$shared_ptr@V?$ScopedSSL@Uevp_pkey_st@@$1?ScopedEVP_PKEY_free@@YAXPEAX@Z@@@2@PEBUenv_md_st@@V12@2_N@Z@4HA 000000018004f4c0     rsa_oaep.obj
 0004:000024cc       $pdata$?dtor$0@?0??EC_generate@@YA?AV?$shared_ptr@V?$ScopedSSL@Uevp_pkey_st@@$1?ScopedEVP_PKEY_free@@YAXPEAX@Z@@@std@@AEAH@Z@4HA 000000018004f4cc     ec_gen.obj
 0004:000024d8       $pdata$?dtor$5@?0??ConvertWebCryptoSignatureToDerSignature@@YA?AV?$shared_ptr@V?$basic_string@DU?$char_traits@D@std@@V?$allocator@D@2@@std@@@std@@PEAUevp_pkey_st@@PEBEAEB_KPEA_N@Z@4HA 000000018004f4d8     ec_dsa.obj
 0004:000024e4       $pdata$?dtor$3@?0??ConvertDerSignatureToWebCryptoSignature@@YA?AV?$shared_ptr@V?$basic_string@DU?$char_traits@D@std@@V?$allocator@D@2@@std@@@std@@PEAUevp_pkey_st@@PEBEAEA_K@Z@4HA 000000018004f4e4     ec_dsa.obj
 0004:000024f0       $pdata$?dtor$4@?0??ECDH_derive_key@@YA?AV?$shared_ptr@V?$basic_string@DU?$char_traits@D@std@@V?$allocator@D@2@@std@@@std@@V?$shared_ptr@V?$ScopedSSL@Uevp_pkey_st@@$1?ScopedEVP_PKEY_free@@YAXPEAX@Z@@@2@0AEA_K@Z@4HA 000000018004f4f0     ec_dh.obj
 0004:000024fc       $pdata$?dtor$2@?0??From@JwkEc@@SA?AV?$shared_ptr@VJwkEc@@@std@@V?$shared_ptr@V?$ScopedSSL@Uevp_pkey_st@@$1?ScopedEVP_PKEY_free@@YAXPEAX@Z@@@3@AEAH@Z@4HA 000000018004f4fc     ec_jwk.obj
 0004:00002508       $pdata$?dtor$5@?0??AES_ECB_encrypt@@YA?AV?$shared_ptr@V?$basic_string@DU?$char_traits@D@std@@V?$allocator@D@2@@std@@@std@@V12@0_N@Z@4HA 000000018004f508     aes_ecb.obj
 0004:00002514       $pdata$?dtor$6@?0??AES_CBC_encrypt@@YA?AV?$shared_ptr@V?$basic_string@DU?$char_traits@D@std@@V?$allocator@D@2@@std@@@std@@V12@00_N@Z@4HA 000000018004f514     aes_cbc.obj
 0004:00002520       $pdata$?dtor$3@?0??wrap@ScopedAES@@QEAA?AV?$shared_ptr@V?$basic_string@DU?$char_traits@D@std@@V?$allocator@D@2@@std@@@std@@V23@@Z@4HA 000000018004f520     aes_cbc.obj
 0004:00002520       $pdata$?dtor$3@?0??unwrap@ScopedAES@@QEAA?AV?$shared_ptr@V?$basic_string@DU?$char_traits@D@std@@V?$allocator@D@2@@std@@@std@@V23@@Z@4HA 000000018004f520     aes_cbc.obj
 0004:0000252c       $pdata$?dtor$5@?0??AES_GCM_encrypt@@YA?AV?$shared_ptr@V?$basic_string@DU?$char_traits@D@std@@V?$allocator@D@2@@std@@@std@@V12@000H@Z@4HA 000000018004f52c     aes_gcm.obj
 0004:00002538       $pdata$?dtor$5@?0??AES_GCM_decrypt@@YA?AV?$shared_ptr@V?$basic_string@DU?$char_traits@D@std@@V?$allocator@D@2@@std@@@std@@V12@000H@Z@4HA 000000018004f538     aes_gcm.obj
 0004:00002544       $pdata$?dtor$4@?0??AES_CTR_encrypt@@YA?AV?$shared_ptr@V?$basic_string@DU?$char_traits@D@std@@V?$allocator@D@2@@std@@@std@@V12@00H_N@Z@4HA 000000018004f544     aes_ctr.obj
 0004:00002550       $pdata$?dtor$5@?0??AES_CTR_encrypt@@YA?AV?$shared_ptr@V?$basic_string@DU?$char_traits@D@std@@V?$allocator@D@2@@std@@@std@@V12@00H_N@Z@4HA 000000018004f550     aes_ctr.obj
 0004:0000255c       $pdata$?dtor$2@?0??deriveBits@ScopedPbkdf2@@QEAA?AV?$shared_ptr@V?$basic_string@DU?$char_traits@D@std@@V?$allocator@D@2@@std@@@std@@V23@_KPEBUenv_md_st@@1@Z@4HA 000000018004f55c     pbkdf2_derive.obj
 0004:0000255c       $pdata$?dtor$2@?0??sign@ScopedHMAC@@QEAA?AV?$shared_ptr@V?$basic_string@DU?$char_traits@D@std@@V?$allocator@D@2@@std@@@std@@V23@PEBUenv_md_st@@@Z@4HA 000000018004f55c     hmac_sign.obj
 0004:00002568       $pdata$?dtor$0@?0??v8Buffer_to_String@@YA?AV?$shared_ptr@V?$basic_string@DU?$char_traits@D@std@@V?$allocator@D@2@@std@@@std@@V?$Local@VObject@v8@@@v8@@@Z@4HA 000000018004f568     common.obj
 0004:00002574       $pdata$?dtor$0@?0??GenerateRsa@WKey@@SAXAEBV?$FunctionCallbackInfo@VValue@v8@@@Nan@@@Z@4HA 000000018004f574     w_key.obj
 0004:00002580       $pdata$?dtor$1@?0??GenerateRsa@WKey@@SAXAEBV?$FunctionCallbackInfo@VValue@v8@@@Nan@@@Z@4HA 000000018004f580     w_key.obj
 0004:0000258c       $pdata$?dtor$0@?0??GenerateEc@WKey@@SAXAEBV?$FunctionCallbackInfo@VValue@v8@@@Nan@@@Z@4HA 000000018004f58c     w_key.obj
 0004:0000258c       $pdata$?dtor$0@?0??Generate@WAes@@SAXAEBV?$FunctionCallbackInfo@VValue@v8@@@Nan@@@Z@4HA 000000018004f58c     w_aes.obj
 0004:0000258c       $pdata$?dtor$0@?0??Generate@WHmac@@SAXAEBV?$FunctionCallbackInfo@VValue@v8@@@Nan@@@Z@4HA 000000018004f58c     w_hmac.obj
 0004:00002598       $pdata$?dtor$1@?0??Generate@WAes@@SAXAEBV?$FunctionCallbackInfo@VValue@v8@@@Nan@@@Z@4HA 000000018004f598     w_aes.obj
 0004:00002598       $pdata$?dtor$1@?0??GenerateEc@WKey@@SAXAEBV?$FunctionCallbackInfo@VValue@v8@@@Nan@@@Z@4HA 000000018004f598     w_key.obj
 0004:00002598       $pdata$?dtor$1@?0??Generate@WHmac@@SAXAEBV?$FunctionCallbackInfo@VValue@v8@@@Nan@@@Z@4HA 000000018004f598     w_hmac.obj
 0004:000025a4       $pdata$?dtor$0@?0??ExportJwk@WKey@@SAXAEBV?$FunctionCallbackInfo@VValue@v8@@@Nan@@@Z@4HA 000000018004f5a4     w_key.obj
 0004:000025b0       $pdata$?dtor$1@?0??ExportJwk@WKey@@SAXAEBV?$FunctionCallbackInfo@VValue@v8@@@Nan@@@Z@4HA 000000018004f5b0     w_key.obj
 0004:000025bc       $pdata$?dtor$5@?0??ExportJwk@WKey@@SAXAEBV?$FunctionCallbackInfo@VValue@v8@@@Nan@@@Z@4HA 000000018004f5bc     w_key.obj
 0004:000025c8       $pdata$?dtor$0@?0??ExportSpki@WKey@@SAXAEBV?$FunctionCallbackInfo@VValue@v8@@@Nan@@@Z@4HA 000000018004f5c8     w_key.obj
 0004:000025c8       $pdata$?dtor$0@?0??Export@WHmac@@SAXAEBV?$FunctionCallbackInfo@VValue@v8@@@Nan@@@Z@4HA 000000018004f5c8     w_hmac.obj
 0004:000025c8       $pdata$?dtor$0@?0??Export@WAes@@SAXAEBV?$FunctionCallbackInfo@VValue@v8@@@Nan@@@Z@4HA 000000018004f5c8     w_aes.obj
 0004:000025c8       $pdata$?dtor$0@?0??ExportPkcs8@WKey@@SAXAEBV?$FunctionCallbackInfo@VValue@v8@@@Nan@@@Z@4HA 000000018004f5c8     w_key.obj
 0004:000025d4       $pdata$?dtor$1@?0??ExportSpki@WKey@@SAXAEBV?$FunctionCallbackInfo@VValue@v8@@@Nan@@@Z@4HA 000000018004f5d4     w_key.obj
 0004:000025d4       $pdata$?dtor$1@?0??Export@WAes@@SAXAEBV?$FunctionCallbackInfo@VValue@v8@@@Nan@@@Z@4HA 000000018004f5d4     w_aes.obj
 0004:000025d4       $pdata$?dtor$1@?0??Export@WHmac@@SAXAEBV?$FunctionCallbackInfo@VValue@v8@@@Nan@@@Z@4HA 000000018004f5d4     w_hmac.obj
 0004:000025d4       $pdata$?dtor$1@?0??ExportPkcs8@WKey@@SAXAEBV?$FunctionCallbackInfo@VValue@v8@@@Nan@@@Z@4HA 000000018004f5d4     w_key.obj
 0004:000025e0       $pdata$?dtor$1@?0??Import@WHmac@@SAXAEBV?$FunctionCallbackInfo@VValue@v8@@@Nan@@@Z@4HA 000000018004f5e0     w_hmac.obj
 0004:000025e0       $pdata$?dtor$1@?0??Import@WAes@@SAXAEBV?$FunctionCallbackInfo@VValue@v8@@@Nan@@@Z@4HA 000000018004f5e0     w_aes.obj
 0004:000025e0       $pdata$?dtor$1@?0??ImportKey@WPbkdf2@@SAXAEBV?$FunctionCallbackInfo@VValue@v8@@@Nan@@@Z@4HA 000000018004f5e0     w_pbkdf2.obj
 0004:000025e0       $pdata$?dtor$1@?0??ImportSpki@WKey@@SAXAEBV?$FunctionCallbackInfo@VValue@v8@@@Nan@@@Z@4HA 000000018004f5e0     w_key.obj
 0004:000025e0       $pdata$?dtor$1@?0??ImportPkcs8@WKey@@SAXAEBV?$FunctionCallbackInfo@VValue@v8@@@Nan@@@Z@4HA 000000018004f5e0     w_key.obj
 0004:000025ec       $pdata$?dtor$2@?0??Import@WAes@@SAXAEBV?$FunctionCallbackInfo@VValue@v8@@@Nan@@@Z@4HA 000000018004f5ec     w_aes.obj
 0004:000025ec       $pdata$?dtor$2@?0??ImportPkcs8@WKey@@SAXAEBV?$FunctionCallbackInfo@VValue@v8@@@Nan@@@Z@4HA 000000018004f5ec     w_key.obj
 0004:000025ec       $pdata$?dtor$2@?0??ImportKey@WPbkdf2@@SAXAEBV?$FunctionCallbackInfo@VValue@v8@@@Nan@@@Z@4HA 000000018004f5ec     w_pbkdf2.obj
 0004:000025ec       $pdata$?dtor$2@?0??Import@WHmac@@SAXAEBV?$FunctionCallbackInfo@VValue@v8@@@Nan@@@Z@4HA 000000018004f5ec     w_hmac.obj
 0004:000025ec       $pdata$?dtor$2@?0??ImportSpki@WKey@@SAXAEBV?$FunctionCallbackInfo@VValue@v8@@@Nan@@@Z@4HA 000000018004f5ec     w_key.obj
 0004:000025f8       $pdata$?dtor$1@?0??ImportJwk@WKey@@SAXAEBV?$FunctionCallbackInfo@VValue@v8@@@Nan@@@Z@4HA 000000018004f5f8     w_key.obj
 0004:00002604       $pdata$?dtor$4@?0??ImportJwk@WKey@@SAXAEBV?$FunctionCallbackInfo@VValue@v8@@@Nan@@@Z@4HA 000000018004f604     w_key.obj
 0004:00002610       $pdata$?dtor$9@?0??ImportJwk@WKey@@SAXAEBV?$FunctionCallbackInfo@VValue@v8@@@Nan@@@Z@4HA 000000018004f610     w_key.obj
 0004:0000261c       $pdata$?dtor$3@?0??Sign@WKey@@SAXAEBV?$FunctionCallbackInfo@VValue@v8@@@Nan@@@Z@4HA 000000018004f61c     w_key.obj
 0004:00002628       $pdata$?dtor$4@?0??Sign@WKey@@SAXAEBV?$FunctionCallbackInfo@VValue@v8@@@Nan@@@Z@4HA 000000018004f628     w_key.obj
 0004:00002634       $pdata$?dtor$7@?0??Sign@WKey@@SAXAEBV?$FunctionCallbackInfo@VValue@v8@@@Nan@@@Z@4HA 000000018004f634     w_key.obj
 0004:00002640       $pdata$?dtor$4@?0??Verify@WKey@@SAXAEBV?$FunctionCallbackInfo@VValue@v8@@@Nan@@@Z@4HA 000000018004f640     w_key.obj
 0004:0000264c       $pdata$?dtor$5@?0??Verify@WKey@@SAXAEBV?$FunctionCallbackInfo@VValue@v8@@@Nan@@@Z@4HA 000000018004f64c     w_key.obj
 0004:00002658       $pdata$?dtor$9@?0??Verify@WKey@@SAXAEBV?$FunctionCallbackInfo@VValue@v8@@@Nan@@@Z@4HA 000000018004f658     w_key.obj
 0004:00002664       $pdata$?dtor$6@?0??RsaOaepEncDec@WKey@@SAXAEBV?$FunctionCallbackInfo@VValue@v8@@@Nan@@@Z@4HA 000000018004f664     w_key.obj
 0004:00002670       $pdata$?dtor$7@?0??RsaOaepEncDec@WKey@@SAXAEBV?$FunctionCallbackInfo@VValue@v8@@@Nan@@@Z@4HA 000000018004f670     w_key.obj
 0004:0000267c       $pdata$?dtor$3@?0??RsaPssSign@WKey@@SAXAEBV?$FunctionCallbackInfo@VValue@v8@@@Nan@@@Z@4HA 000000018004f67c     w_key.obj
 0004:00002688       $pdata$?dtor$4@?0??RsaPssSign@WKey@@SAXAEBV?$FunctionCallbackInfo@VValue@v8@@@Nan@@@Z@4HA 000000018004f688     w_key.obj
 0004:00002694       $pdata$?dtor$4@?0??RsaPssVerify@WKey@@SAXAEBV?$FunctionCallbackInfo@VValue@v8@@@Nan@@@Z@4HA 000000018004f694     w_key.obj
 0004:000026a0       $pdata$?dtor$5@?0??RsaPssVerify@WKey@@SAXAEBV?$FunctionCallbackInfo@VValue@v8@@@Nan@@@Z@4HA 000000018004f6a0     w_key.obj
 0004:000026ac       $pdata$?dtor$2@?0??EcdhDeriveKey@WKey@@SAXAEBV?$FunctionCallbackInfo@VValue@v8@@@Nan@@@Z@4HA 000000018004f6ac     w_key.obj
 0004:000026ac       $pdata$?dtor$2@?0??EcdhDeriveBits@WKey@@SAXAEBV?$FunctionCallbackInfo@VValue@v8@@@Nan@@@Z@4HA 000000018004f6ac     w_key.obj
 0004:000026b8       $pdata$?dtor$3@?0??EcdhDeriveKey@WKey@@SAXAEBV?$FunctionCallbackInfo@VValue@v8@@@Nan@@@Z@4HA 000000018004f6b8     w_key.obj
 0004:000026b8       $pdata$?dtor$3@?0??EcdhDeriveBits@WKey@@SAXAEBV?$FunctionCallbackInfo@VValue@v8@@@Nan@@@Z@4HA 000000018004f6b8     w_key.obj
 0004:000026c4       $pdata$?dtor$3@?0??Decrypt@WAes@@SAXAEBV?$FunctionCallbackInfo@VValue@v8@@@Nan@@@Z@4HA 000000018004f6c4     w_aes.obj
 0004:000026c4       $pdata$?dtor$3@?0??Encrypt@WAes@@SAXAEBV?$FunctionCallbackInfo@VValue@v8@@@Nan@@@Z@4HA 000000018004f6c4     w_aes.obj
 0004:000026d0       $pdata$?dtor$4@?0??Encrypt@WAes@@SAXAEBV?$FunctionCallbackInfo@VValue@v8@@@Nan@@@Z@4HA 000000018004f6d0     w_aes.obj
 0004:000026d0       $pdata$?dtor$4@?0??Decrypt@WAes@@SAXAEBV?$FunctionCallbackInfo@VValue@v8@@@Nan@@@Z@4HA 000000018004f6d0     w_aes.obj
 0004:000026dc       $pdata$?dtor$1@?0??DecryptEcb@WAes@@SAXAEBV?$FunctionCallbackInfo@VValue@v8@@@Nan@@@Z@4HA 000000018004f6dc     w_aes.obj
 0004:000026dc       $pdata$?dtor$1@?0??UnwrapKey@WAes@@SAXAEBV?$FunctionCallbackInfo@VValue@v8@@@Nan@@@Z@4HA 000000018004f6dc     w_aes.obj
 0004:000026dc       $pdata$?dtor$1@?0??EncryptEcb@WAes@@SAXAEBV?$FunctionCallbackInfo@VValue@v8@@@Nan@@@Z@4HA 000000018004f6dc     w_aes.obj
 0004:000026dc       $pdata$?dtor$1@?0??WrapKey@WAes@@SAXAEBV?$FunctionCallbackInfo@VValue@v8@@@Nan@@@Z@4HA 000000018004f6dc     w_aes.obj
 0004:000026e8       $pdata$?dtor$2@?0??EncryptEcb@WAes@@SAXAEBV?$FunctionCallbackInfo@VValue@v8@@@Nan@@@Z@4HA 000000018004f6e8     w_aes.obj
 0004:000026e8       $pdata$?dtor$2@?0??UnwrapKey@WAes@@SAXAEBV?$FunctionCallbackInfo@VValue@v8@@@Nan@@@Z@4HA 000000018004f6e8     w_aes.obj
 0004:000026e8       $pdata$?dtor$2@?0??DecryptEcb@WAes@@SAXAEBV?$FunctionCallbackInfo@VValue@v8@@@Nan@@@Z@4HA 000000018004f6e8     w_aes.obj
 0004:000026e8       $pdata$?dtor$2@?0??WrapKey@WAes@@SAXAEBV?$FunctionCallbackInfo@VValue@v8@@@Nan@@@Z@4HA 000000018004f6e8     w_aes.obj
 0004:000026f4       $pdata$?dtor$3@?0??EncryptGcm@WAes@@SAXAEBV?$FunctionCallbackInfo@VValue@v8@@@Nan@@@Z@4HA 000000018004f6f4     w_aes.obj
 0004:000026f4       $pdata$?dtor$3@?0??DecryptGcm@WAes@@SAXAEBV?$FunctionCallbackInfo@VValue@v8@@@Nan@@@Z@4HA 000000018004f6f4     w_aes.obj
 0004:00002700       $pdata$?dtor$4@?0??DecryptGcm@WAes@@SAXAEBV?$FunctionCallbackInfo@VValue@v8@@@Nan@@@Z@4HA 000000018004f700     w_aes.obj
 0004:00002700       $pdata$?dtor$4@?0??EncryptGcm@WAes@@SAXAEBV?$FunctionCallbackInfo@VValue@v8@@@Nan@@@Z@4HA 000000018004f700     w_aes.obj
 0004:0000270c       $pdata$?dtor$2@?0??EncryptCtr@WAes@@SAXAEBV?$FunctionCallbackInfo@VValue@v8@@@Nan@@@Z@4HA 000000018004f70c     w_aes.obj
 0004:0000270c       $pdata$?dtor$2@?0??DecryptCtr@WAes@@SAXAEBV?$FunctionCallbackInfo@VValue@v8@@@Nan@@@Z@4HA 000000018004f70c     w_aes.obj
 0004:00002718       $pdata$?dtor$3@?0??DecryptCtr@WAes@@SAXAEBV?$FunctionCallbackInfo@VValue@v8@@@Nan@@@Z@4HA 000000018004f718     w_aes.obj
 0004:00002718       $pdata$?dtor$3@?0??EncryptCtr@WAes@@SAXAEBV?$FunctionCallbackInfo@VValue@v8@@@Nan@@@Z@4HA 000000018004f718     w_aes.obj
 0004:00002724       $pdata$?dtor$2@?0??Sign@WHmac@@SAXAEBV?$FunctionCallbackInfo@VValue@v8@@@Nan@@@Z@4HA 000000018004f724     w_hmac.obj
 0004:00002730       $pdata$?dtor$3@?0??Sign@WHmac@@SAXAEBV?$FunctionCallbackInfo@VValue@v8@@@Nan@@@Z@4HA 000000018004f730     w_hmac.obj
 0004:0000273c       $pdata$?dtor$4@?0??Verify@WHmac@@SAXAEBV?$FunctionCallbackInfo@VValue@v8@@@Nan@@@Z@4HA 000000018004f73c     w_hmac.obj
 0004:00002748       $pdata$?dtor$5@?0??Verify@WHmac@@SAXAEBV?$FunctionCallbackInfo@VValue@v8@@@Nan@@@Z@4HA 000000018004f748     w_hmac.obj
 0004:00002754       $pdata$?dtor$2@?0??DeriveBits@WPbkdf2@@SAXAEBV?$FunctionCallbackInfo@VValue@v8@@@Nan@@@Z@4HA 000000018004f754     w_pbkdf2.obj
 0004:00002760       $pdata$?dtor$3@?0??DeriveBits@WPbkdf2@@SAXAEBV?$FunctionCallbackInfo@VValue@v8@@@Nan@@@Z@4HA 000000018004f760     w_pbkdf2.obj
 0004:0000276c       $pdata$?dtor$1@?0??Digest@WCore@@SAXAEBV?$FunctionCallbackInfo@VValue@v8@@@Nan@@@Z@4HA 000000018004f76c     w_core.obj
 0004:00002778       $pdata$?dtor$4@?0??Digest@WCore@@SAXAEBV?$FunctionCallbackInfo@VValue@v8@@@Nan@@@Z@4HA 000000018004f778     w_core.obj
 0004:00002784       $pdata$?dtor$5@?0??Digest@WCore@@SAXAEBV?$FunctionCallbackInfo@VValue@v8@@@Nan@@@Z@4HA 000000018004f784     w_core.obj
 0004:00002790       $pdata$?catch$4@?0??Execute@AsyncEncrypDecryptRsaOAEP@@UEAAXXZ@4HA 000000018004f790     async_rsa.obj
 0004:0000279c       $pdata$?catch$1@?0??Execute@AsyncRsaGenerateKey@@UEAAXXZ@4HA 000000018004f79c     async_rsa.obj
 0004:000027a8       $pdata$?catch$2@?0??Execute@AsyncExportJwkRsa@@UEAAXXZ@4HA 000000018004f7a8     async_rsa.obj
 0004:000027b4       $pdata$?catch$1@?0??Execute@AsyncExportSpki@@UEAAXXZ@4HA 000000018004f7b4     async_rsa.obj
 0004:000027c0       $pdata$?catch$1@?0??Execute@AsyncExportPkcs8@@UEAAXXZ@4HA 000000018004f7c0     async_rsa.obj
 0004:000027cc       $pdata$?catch$2@?0??Execute@AsyncImportPkcs8@@UEAAXXZ@4HA 000000018004f7cc     async_rsa.obj
 0004:000027d8       $pdata$?catch$2@?0??Execute@AsyncImportSpki@@UEAAXXZ@4HA 000000018004f7d8     async_rsa.obj
 0004:000027e4       $pdata$?catch$1@?0??Execute@AsyncImportJwkRsa@@UEAAXXZ@4HA 000000018004f7e4     async_rsa.obj
 0004:000027f0       $pdata$?catch$3@?0??Execute@AsyncSignRsa@@UEAAXXZ@4HA 000000018004f7f0     async_rsa.obj
 0004:000027fc       $pdata$?catch$3@?0??Execute@AsyncVerifyRsa@@UEAAXXZ@4HA 000000018004f7fc     async_rsa.obj
 0004:00002808       $pdata$?catch$3@?0??Execute@AsyncSignRsaPSS@@UEAAXXZ@4HA 000000018004f808     async_rsa.obj
 0004:00002814       $pdata$?catch$3@?0??Execute@AsyncVerifyRsaPSS@@UEAAXXZ@4HA 000000018004f814     async_rsa.obj
 0004:00002820       $pdata$?catch$1@?0??Execute@AsyncEcGenerateKey@@UEAAXXZ@4HA 000000018004f820     async_ec.obj
 0004:0000282c       $pdata$?catch$3@?0??Execute@AsyncEcdhDeriveKey@@UEAAXXZ@4HA 000000018004f82c     async_ec.obj
 0004:00002838       $pdata$?catch$2@?0??Execute@AsyncEcExportJwk@@UEAAXXZ@4HA 000000018004f838     async_ec.obj
 0004:00002844       $pdata$?catch$1@?0??Execute@AsyncEcImportJwk@@UEAAXXZ@4HA 000000018004f844     async_ec.obj
 0004:00002850       $pdata$?catch$3@?0??Execute@AsyncEcdsaSign@@UEAAXXZ@4HA 000000018004f850     async_ec.obj
 0004:0000285c       $pdata$?catch$3@?0??Execute@AsyncEcdsaVerify@@UEAAXXZ@4HA 000000018004f85c     async_ec.obj
 0004:00002868       $pdata$?catch$3@?0??Execute@AsyncEcdhDeriveBits@@UEAAXXZ@4HA 000000018004f868     async_ec.obj
 0004:00002874       $pdata$?catch$1@?0??Execute@AsyncAesGenerateKey@@UEAAXXZ@4HA 000000018004f874     async_aes.obj
 0004:00002880       $pdata$?catch$6@?0??Execute@AsyncAesEncryptCBC@@UEAAXXZ@4HA 000000018004f880     async_aes.obj
 0004:0000288c       $pdata$?catch$4@?0??Execute@AsyncAesEncryptECB@@UEAAXXZ@4HA 000000018004f88c     async_aes.obj
 0004:00002898       $pdata$?catch$4@?0??Execute@AsyncAesImport@@UEAAXXZ@4HA 000000018004f898     async_aes.obj
 0004:000028a4       $pdata$?catch$8@?0??Execute@AsyncAesEncryptGCM@@UEAAXXZ@4HA 000000018004f8a4     async_aes.obj
 0004:000028b0       $pdata$?catch$4@?0??Execute@AsyncAesWrapKey@@UEAAXXZ@4HA 000000018004f8b0     async_aes.obj
 0004:000028bc       $pdata$?catch$6@?0??Execute@AsyncAesEncryptCTR@@UEAAXXZ@4HA 000000018004f8bc     async_aes.obj
 0004:000028c8       $pdata$?catch$1@?0??Execute@AsyncHmacGenerateKey@@UEAAXXZ@4HA 000000018004f8c8     async_hmac.obj
 0004:000028d4       $pdata$?catch$4@?0??Execute@AsyncHmacImport@@UEAAXXZ@4HA 000000018004f8d4     async_hmac.obj
 0004:000028e0       $pdata$?catch$2@?0??Execute@AsyncHmacSign@@UEAAXXZ@4HA 000000018004f8e0     async_hmac.obj
 0004:000028ec       $pdata$?catch$2@?0??Execute@AsyncHmacVerify@@UEAAXXZ@4HA 000000018004f8ec     async_hmac.obj
 0004:000028f8       $pdata$?catch$4@?0??Execute@AsyncPbkdf2Import@@UEAAXXZ@4HA 000000018004f8f8     async_pbkdf2.obj
 0004:00002904       $pdata$?catch$2@?0??Execute@AsyncPbkdf2DeriveBits@@UEAAXXZ@4HA 000000018004f904     async_pbkdf2.obj
 0004:00002910       $pdata$?catch$2@?0??Execute@AsyncDigest@@UEAAXXZ@4HA 000000018004f910     async_core.obj
 0004:0000291c       $pdata$__scrt_is_nonwritable_in_current_image$filt$0 000000018004f91c     LIBCMT:utility.obj
 0004:00002928       $pdata$?fin$0@?0??dllmain_crt_process_attach@@YAHQEAUHINSTANCE__@@QEAX@Z@4HA 000000018004f928     LIBCMT:dll_dllmain.obj
 0004:00002934       $pdata$?fin$0@?0??dllmain_crt_process_detach@@YAH_N@Z@4HA 000000018004f934     LIBCMT:dll_dllmain.obj
 0004:00002940       $pdata$?filt$0@?0??dllmain_dispatch@@YAHQEAUHINSTANCE__@@KQEAX@Z@4HA 000000018004f940     LIBCMT:dll_dllmain.obj
 0004:0000294c       $pdata$__CxxCallCatchBlock$filt$0 000000018004f94c     libvcruntime:frame.obj
 0004:00002958       $pdata$__CxxCallCatchBlock$fin$1 000000018004f958     libvcruntime:frame.obj
 0004:00002964       $pdata$__DestructExceptionObject$filt$0 000000018004f964     libvcruntime:frame.obj
 0004:00002970       $pdata$__FrameUnwindToState$filt$0 000000018004f970     libvcruntime:frame.obj
 0004:0000297c       $pdata$__FrameUnwindToState$fin$1 000000018004f97c     libvcruntime:frame.obj
 0004:00002988       $pdata$_CallSETranslator$filt$0 000000018004f988     libvcruntime:trnsctrl.obj
 0004:00002994       $pdata$_query_new_handler$fin$0 000000018004f994     libucrt:new_handler.obj
 0004:000029a0       $pdata$?filt$0@?0??common_exit@@YAXHW4_crt_exit_cleanup_mode@@W4_crt_exit_return_mode@@@Z@4HA 000000018004f9a0     libucrt:exit.obj
 0004:000029ac       $pdata$?fin$1@?0??common_exit@@YAXHW4_crt_exit_cleanup_mode@@W4_crt_exit_return_mode@@@Z@4HA 000000018004f9ac     libucrt:exit.obj
 0004:000029b8       $pdata$?fin$0@?0???$?RV<lambda_e24bbb7b643b32fcea6fa61b31d4c984>@@AEAV<lambda_275893d493268fdec8709772e3fcec0e>@@V<lambda_9d71df4d7cf3f480f8d633942495c3b0>@@@?$__crt_seh_guarded_call@H@@QEAAH$$QEAV<lambda_e24bbb7b643b32fcea6fa61b31d4c984>@@AEAV<lambda_275893d493268fdec8709772e3fcec0e>@@$$QEAV<lambda_9d71df4d7cf3f480f8d633942495c3b0>@@@Z@4HA 000000018004f9b8     libucrt:onexit.obj
 0004:000029c4       $pdata$?fin$0@?0???$?RV<lambda_99476a1ad63dd22509b5d3e65b0ffc95>@@AEAV<lambda_ad1ced32f4ac17aa236e5ef05d6b3b7c>@@V<lambda_f7424dd8d45958661754dc4f2697e9c3>@@@?$__crt_seh_guarded_call@X@@QEAAX$$QEAV<lambda_99476a1ad63dd22509b5d3e65b0ffc95>@@AEAV<lambda_ad1ced32f4ac17aa236e5ef05d6b3b7c>@@$$QEAV<lambda_f7424dd8d45958661754dc4f2697e9c3>@@@Z@4HA 000000018004f9c4     libucrt:mbctype.obj
 0004:000029c4       $pdata$?fin$0@?0???$?RV<lambda_5e887d1dcbef67a5eb4283622ba103bf>@@AEAV<lambda_4466841279450cc726390878d4a41900>@@V<lambda_341c25c0346d94847f1f3c463c57e077>@@@?$__crt_seh_guarded_call@X@@QEAAX$$QEAV<lambda_5e887d1dcbef67a5eb4283622ba103bf>@@AEAV<lambda_4466841279450cc726390878d4a41900>@@$$QEAV<lambda_341c25c0346d94847f1f3c463c57e077>@@@Z@4HA 000000018004f9c4     libucrt:per_thread_data.obj
 0004:000029c4       $pdata$?fin$0@?0???$?RV<lambda_46352004c1216016012b18bd6f87e700>@@AEAV<lambda_3bd07e1a1191394380780325891bf33f>@@V<lambda_334532d3f185bcaa59b5be82d7d22bff>@@@?$__crt_seh_guarded_call@X@@QEAAX$$QEAV<lambda_46352004c1216016012b18bd6f87e700>@@AEAV<lambda_3bd07e1a1191394380780325891bf33f>@@$$QEAV<lambda_334532d3f185bcaa59b5be82d7d22bff>@@@Z@4HA 000000018004f9c4     libucrt:per_thread_data.obj
 0004:000029c4       $pdata$?fin$0@?0???$?RV<lambda_c36588078e9f5dfd39652860aa6b3aaf>@@AEAV<lambda_ec61778202f4f5fc7e7711acc23c3bca>@@V<lambda_dc9d2797ccde5d239b4a0efae8ebd7db>@@@?$__crt_seh_guarded_call@P6AXH@Z@@QEAAP6AXH@Z$$QEAV<lambda_c36588078e9f5dfd39652860aa6b3aaf>@@AEAV<lambda_ec61778202f4f5fc7e7711acc23c3bca>@@$$QEAV<lambda_dc9d2797ccde5d239b4a0efae8ebd7db>@@@Z@4HA 000000018004f9c4     libucrt:signal.obj
 0004:000029c4       $pdata$?fin$0@?0???$?RV<lambda_72d1df2b273a38828b1ce30cbf4cdab5>@@AEAV<lambda_876a65b173b8412d3a47c70a915b0cf4>@@V<lambda_41932305e351933ebe8f8be3ed8bb5dc>@@@?$__crt_seh_guarded_call@X@@QEAAX$$QEAV<lambda_72d1df2b273a38828b1ce30cbf4cdab5>@@AEAV<lambda_876a65b173b8412d3a47c70a915b0cf4>@@$$QEAV<lambda_41932305e351933ebe8f8be3ed8bb5dc>@@@Z@4HA 000000018004f9c4     libucrt:per_thread_data.obj
 0004:000029c4       $pdata$?fin$0@?0???$?RV<lambda_fb3a7dec4e47f37f22dae91bb15c9095>@@AEAV<lambda_698284760c8add0bfb0756c19673e34b>@@V<lambda_dfb8eca1e75fef3034a8fb18dd509707>@@@?$__crt_seh_guarded_call@X@@QEAAX$$QEAV<lambda_fb3a7dec4e47f37f22dae91bb15c9095>@@AEAV<lambda_698284760c8add0bfb0756c19673e34b>@@$$QEAV<lambda_dfb8eca1e75fef3034a8fb18dd509707>@@@Z@4HA 000000018004f9c4     libucrt:per_thread_data.obj
 0004:000029c4       $pdata$?fin$0@?0???$?RV<lambda_b8c45f8f788dd370798f47cfe8ac3a86>@@AEAV<lambda_4e60a939b0d047cfe11ddc22648dfba9>@@V<lambda_332c3edc96d0294ec56c57d38c1cdfd5>@@@?$__crt_seh_guarded_call@H@@QEAAH$$QEAV<lambda_b8c45f8f788dd370798f47cfe8ac3a86>@@AEAV<lambda_4e60a939b0d047cfe11ddc22648dfba9>@@$$QEAV<lambda_332c3edc96d0294ec56c57d38c1cdfd5>@@@Z@4HA 000000018004f9c4     libucrt:onexit.obj
 0004:000029d0       $pdata$common_flush_all$fin$0 000000018004f9d0     libucrt:fflush.obj
 0004:000029dc       $pdata$common_flush_all$fin$1 000000018004f9dc     libucrt:fflush.obj
 0004:000029e8       $pdata$fflush$fin$0        000000018004f9e8     libucrt:fflush.obj
 0004:000029e8       $pdata$fclose$fin$0        000000018004f9e8     libucrt:fclose.obj
 0004:000029f4       $pdata$?fin$0@?0???$?RV<lambda_7a5ef57ff966f610505f1d28a3d40618>@@AEAV<lambda_b721fa326cdb32351d23dfa67958c160>@@V<lambda_5e0fb27672408a07956fe59e48ccb2aa>@@@?$__crt_seh_guarded_call@H@@QEAAH$$QEAV<lambda_7a5ef57ff966f610505f1d28a3d40618>@@AEAV<lambda_b721fa326cdb32351d23dfa67958c160>@@$$QEAV<lambda_5e0fb27672408a07956fe59e48ccb2aa>@@@Z@4HA 000000018004f9f4     libucrt:setvbuf.obj
 0004:000029f4       $pdata$?fin$0@?0???$?RV<lambda_7b91131dde12e1c3dfc74ff76b3f2eac>@@AEAV<lambda_dd75445284c072d0bd3768540cc698fa>@@V<lambda_16bc4ecb55b4718497c16bceaea2ceaf>@@@?$__crt_seh_guarded_call@H@@QEAAH$$QEAV<lambda_7b91131dde12e1c3dfc74ff76b3f2eac>@@AEAV<lambda_dd75445284c072d0bd3768540cc698fa>@@$$QEAV<lambda_16bc4ecb55b4718497c16bceaea2ceaf>@@@Z@4HA 000000018004f9f4     libucrt:output.obj
 0004:00002a00       $pdata$raise$fin$0         000000018004fa00     libucrt:signal.obj
 0004:00002a0c       $pdata$__acrt_update_thread_locale_data$fin$0 000000018004fa0c     libucrt:locale_refcounting.obj
 0004:00002a0c       $pdata$__acrt_uninitialize_locale$fin$0 000000018004fa0c     libucrt:wsetlocale.obj
 0004:00002a18       $pdata$__acrt_update_thread_multibyte_data$fin$0 000000018004fa18     libucrt:mbctype.obj
 0004:00002a24       $pdata$__acrt_initialize_lowio$fin$0 000000018004fa24     libucrt:ioinit.obj
 0004:00002a24       $pdata$__acrt_lowio_ensure_fh_exists$fin$0 000000018004fa24     libucrt:osfinfo.obj
 0004:00002a30       $pdata$_fcloseall$fin$0    000000018004fa30     libucrt:closeall.obj
 0004:00002a3c       $pdata$?fin$0@?0???$?RV<lambda_bfedae4ebbf01fab1bb6dcc6a9e276e0>@@AEAV<lambda_2fe9b910cf3cbf4a0ab98a02ba45b3ec>@@V<lambda_237c231691f317818eb88cc1d5d642d6>@@@?$__crt_seh_guarded_call@H@@QEAAH$$QEAV<lambda_bfedae4ebbf01fab1bb6dcc6a9e276e0>@@AEAV<lambda_2fe9b910cf3cbf4a0ab98a02ba45b3ec>@@$$QEAV<lambda_237c231691f317818eb88cc1d5d642d6>@@@Z@4HA 000000018004fa3c     libucrt:close.obj
 0004:00002a3c       $pdata$?fin$0@?0???$?RV<lambda_b521505b218e5242e90febf6bfebc422>@@AEAV<lambda_6978c1fb23f02e42e1d9e99668cc68aa>@@V<lambda_314360699dd331753a4119843814e9a7>@@@?$__crt_seh_guarded_call@H@@QEAAH$$QEAV<lambda_b521505b218e5242e90febf6bfebc422>@@AEAV<lambda_6978c1fb23f02e42e1d9e99668cc68aa>@@$$QEAV<lambda_314360699dd331753a4119843814e9a7>@@@Z@4HA 000000018004fa3c     libucrt:commit.obj
 0004:00002a48       $pdata$?fin$0@?0???$common_lseek@_J@@YA_JH_JH@Z@4HA 000000018004fa48     libucrt:lseek.obj
 0004:00002a48       $pdata$_write$fin$0        000000018004fa48     libucrt:write.obj
 0004:00002a54       $pdata$_ctrlfp$filt$0      000000018004fa54     libucrt:fpctrl.obj
 0004:00002a54       $pdata$common_control87$filt$0 000000018004fa54     libucrt:ieee.obj
 0004:00002a60       $pdata$_IsNonwritableInCurrentImage$filt$0 000000018004fa60     LIBCMT:pesect.obj
 0004:00002a6c       $pdata$??__Fmy_constructor@?1??constructor@WKey@@KAAEAV?$Persistent@VFunction@v8@@V?$NonCopyablePersistentTraits@VFunction@v8@@@2@@Nan@@XZ@YAXXZ 000000018004fa6c     w_key.obj
 0004:00002a78       $pdata$??__Fmy_constructor@?1??constructor@WAes@@KAAEAV?$Persistent@VFunction@v8@@V?$NonCopyablePersistentTraits@VFunction@v8@@@2@@Nan@@XZ@YAXXZ 000000018004fa78     w_aes.obj
 0004:00002a84       $pdata$??__Fmy_constructor@?1??constructor@WHmac@@KAAEAV?$Persistent@VFunction@v8@@V?$NonCopyablePersistentTraits@VFunction@v8@@@2@@Nan@@XZ@YAXXZ 000000018004fa84     w_hmac.obj
 0004:00002a90       $pdata$??__Fmy_constructor@?1??constructor@WPbkdf2@@KAAEAV?$Persistent@VFunction@v8@@V?$NonCopyablePersistentTraits@VFunction@v8@@@2@@Nan@@XZ@YAXXZ 000000018004fa90     w_pbkdf2.obj
 0004:00002a9c       $pdata$??__Fmy_constructor@?1??constructor@WCore@@KAAEAV?$Persistent@VFunction@v8@@V?$NonCopyablePersistentTraits@VFunction@v8@@@2@@Nan@@XZ@YAXXZ 000000018004fa9c     w_core.obj
 0005:00000000       __guard_fids__             0000000180050000     libucrt:initialization.obj
 0005:00000060       __guard_fids___acrt_initialize_ptd 0000000180050060     libucrt:per_thread_data.obj
 0005:00000064       __guard_fids___acrt_show_wide_message_box 0000000180050064     libucrt:crtmbox.obj
 0005:00000068       __guard_fids_??$expand_argument_wildcards@D@@YAHQEAD0AEAV?$argument_list@D@?A0xca0879c4@@@Z 0000000180050068     libucrt:argv_wildcards.obj
 0005:0000006c       __guard_fids__             000000018005006c     libucrt:stdio_initializer.obj
 0005:00000070       __guard_fids__             0000000180050070     libucrt:stdio_initializer.obj
 0005:00000074       __guard_fids__             0000000180050074     libucrt:locale_initializer.obj
 0005:00000078       __guard_fids__             0000000180050078     libucrt:multibyte_initializer.obj
 0005:0000007c       __guard_fids__             000000018005007c     libucrt:console_output_initializer.obj
 0005:00000080       __guard_fids__             0000000180050080     libucrt:fma3_initializer.obj
 0005:00000084       __guard_fids__             0000000180050084     libcpmt:xthrow.obj
 0005:0000008c       __guard_fids__             000000018005008c     libcpmt:xthrow.obj
 0005:00000094       __guard_fids__             0000000180050094     libcpmt:xthrow.obj
 0005:0000009c       __guard_fids__             000000018005009c     libcpmt:xthrow.obj
 0005:000000a4       __guard_fids__             00000001800500a4     libcpmt:xthrow.obj
 0005:000000ac       __guard_fids__             00000001800500ac     libcpmt:xthrow.obj
 0005:000000b4       __guard_fids__             00000001800500b4     LIBCMT:std_type_info_static.obj
 0005:000000b8       __guard_fids__             00000001800500b8     LIBCMT:thread_safe_statics.obj
 0005:000000bc       __guard_fids_?__scrt_initialize_thread_safe_statics@@YAHXZ 00000001800500bc     LIBCMT:thread_safe_statics.obj
 0005:000000c0       __guard_fids_?dllmain_crt_process_attach@@YAHQEAUHINSTANCE__@@QEAX@Z 00000001800500c0     LIBCMT:dll_dllmain.obj
 0005:000000c8       __guard_fids_?dllmain_dispatch@@YAHQEAUHINSTANCE__@@KQEAX@Z 00000001800500c8     LIBCMT:dll_dllmain.obj
 0005:000000cc       __guard_fids__             00000001800500cc     LIBCMT:throw_bad_alloc.obj
 0005:000000d4       __guard_fids__             00000001800500d4     LIBCMT:guard_support.obj
 0005:000000d8       __guard_fids__             00000001800500d8     libvcruntime:frame.obj
 0005:000000dc       __guard_fids__             00000001800500dc     libvcruntime:frame.obj
 0005:000000e4       __guard_fids___vcrt_initialize_ptd 00000001800500e4     libvcruntime:per_thread_data.obj
 0005:000000e8       __guard_fids__UnwindNestedFrames 00000001800500e8     libvcruntime:trnsctrl.obj
 0007:00000060       $R000000                   0000000180052060     * linker generated manifest res *

 Exports

  ordinal    name

        1    _register_nodessl_
